 PhysXCooking_32

 Timestamp is 624d42be (Wed Apr  6 09:35:26 2022)

 Preferred load address is 10000000

 Start         Length     Name                   Class
 0001:00000000 00000640H .text$di                CODE
 0001:00000640 000380efH .text$mn                CODE
 0001:0003872f 00000047H .text$x                 CODE
 0002:00000000 00000120H .idata$5                DATA
 0002:00000120 00000004H .00cfg                  DATA
 0002:00000124 00000004H .CRT$XCA                DATA
 0002:00000128 000000f0H .CRT$XCU                DATA
 0002:00000218 00000004H .CRT$XCZ                DATA
 0002:0000021c 00000004H .CRT$XIA                DATA
 0002:00000220 0000000cH .CRT$XIC                DATA
 0002:0000022c 00000004H .CRT$XIZ                DATA
 0002:00000230 00000004H .CRT$XPA                DATA
 0002:00000234 00000008H .CRT$XPX                DATA
 0002:0000023c 00000004H .CRT$XPXA               DATA
 0002:00000240 00000004H .CRT$XPZ                DATA
 0002:00000244 00000004H .CRT$XTA                DATA
 0002:00000248 00000008H .CRT$XTZ                DATA
 0002:0000024c 00000000H .gfids$y                DATA
 0002:00000250 000084b0H .rdata                  DATA
 0002:00008700 00000000H .rdata$CastGuardVftablesA DATA
 0002:00008700 00000000H .rdata$CastGuardVftablesC DATA
 0002:00008700 0000028cH .rdata$r                DATA
 0002:0000898c 00000018H .rdata$sxdata           DATA
 0002:000089a4 00000024H .rdata$voltmd           DATA
 0002:000089c8 00000408H .rdata$zzzdbg           DATA
 0002:00008dd0 00000004H .rtc$IAA                DATA
 0002:00008dd4 00000004H .rtc$IZZ                DATA
 0002:00008dd8 00000004H .rtc$TAA                DATA
 0002:00008ddc 00000004H .rtc$TZZ                DATA
 0002:00008de0 00000564H .xdata$x                DATA
 0002:00009344 00000040H .didat$2                DATA
 0002:00009384 00000020H .didat$3                DATA
 0002:000093a4 000000c4H .didat$4                DATA
 0002:00009468 00000904H .didat$6                DATA
 0002:00009d6c 000000c4H .didat$7                DATA
 0002:00009e30 00001c38H .edata                  DATA
 0002:0000ba68 00000014H .idata$2                DATA
 0002:0000ba7c 00000014H .idata$3                DATA
 0002:0000ba90 00000120H .idata$4                DATA
 0002:0000bbb0 00000534H .idata$6                DATA
 0003:00000000 00000890H .data                   DATA
 0003:00000890 00000470H .data$r                 DATA
 0003:00000d00 000000b4H .data$rs                DATA
 0003:00000db4 000000ccH .didat$5                DATA
 0003:00000e80 00000e14H .bss                    DATA
 0004:00000000 00002608H _RDATA                  DATA
 0005:00000000 000000a0H .rsrc$01                DATA
 0005:000000a0 000004b0H .rsrc$02                DATA

  Address         Publics by Value              Rva+Base       Lib:Object

 0000:00000000       ___guard_longjmp_table     00000000     <absolute>
 0000:00000000       ___arm64x_redirection_metadata 00000000     <absolute>
 0000:00000000       ___arm64x_native_entrypoint 00000000     <absolute>
 0000:00000000       ___guard_eh_cont_count     00000000     <absolute>
 0000:00000000       ___guard_fids_count        00000000     <absolute>
 0000:00000000       ___hybrid_code_map_count   00000000     <absolute>
 0000:00000000       ___guard_eh_cont_table     00000000     <absolute>
 0000:00000000       ___x64_code_ranges_to_entry_points 00000000     <absolute>
 0000:00000000       ___guard_iat_count         00000000     <absolute>
 0000:00000000       __except_list              00000000     <absolute>
 0000:00000000       ___x64_code_ranges_to_entry_points_count 00000000     <absolute>
 0000:00000000       ___arm64x_extra_rfe_table  00000000     <absolute>
 0000:00000000       ___hybrid_code_map         00000000     <absolute>
 0000:00000000       ___guard_iat_table         00000000     <absolute>
 0000:00000000       ___arm64x_extra_rfe_table_size 00000000     <absolute>
 0000:00000000       ___guard_longjmp_count     00000000     <absolute>
 0000:00000000       ___hybrid_auxiliary_iat    00000000     <absolute>
 0000:00000000       ___guard_check_icall_a64n_fptr 00000000     <absolute>
 0000:00000000       ___arm64x_redirection_metadata_count 00000000     <absolute>
 0000:00000000       ___dynamic_value_reloc_table 00000000     <absolute>
 0000:00000000       ___AbsoluteZero            00000000     <absolute>
 0000:00000000       ___enclave_config          00000000     <absolute>
 0000:00000000       ___guard_fids_table        00000000     <absolute>
 0000:00000000       ___hybrid_auxiliary_iat_copy 00000000     <absolute>
 0000:00000006       ___safe_se_handler_count   00000006     <absolute>
 0000:00000100       ___guard_flags             00000100     <absolute>
 0000:00000000       ___ImageBase               10000000     <linker-defined>
 0001:00000640       ??0BuildStats@Gu@physx@@QAE@XZ 10001640 f   BVHStructureBuilder.obj
 0001:00000640       ??0AdjacenciesBuilder@physx@@QAE@XZ 10001640 f   Adjacencies.obj
 0001:00000650       ??4MutexImpl@shdfnd@physx@@QAEAAV012@ABV012@@Z 10001650 f i Adjacencies.obj
 0001:00000650       ??0Allocator@shdfnd@physx@@QAE@PBD@Z 10001650 f i Adjacencies.obj
 0001:00000650       ??4Allocator@shdfnd@physx@@QAEAAV012@$$QAV012@@Z 10001650 f i Adjacencies.obj
 0001:00000650       ??0BigConvexData@physx@@QAE@W4PxEMPTY@1@@Z 10001650 f i BigConvexDataBuilder.obj
 0001:00000650       ??4PxFoundation@physx@@QAEAAV01@ABV01@@Z 10001650 f i Adjacencies.obj
 0001:00000650       ??0HeightFieldData@Gu@physx@@QAE@W4PxEMPTY@2@@Z 10001650 f i Cooking.obj
 0001:00000650       ??4Allocator@shdfnd@physx@@QAEAAV012@ABV012@@Z 10001650 f i Adjacencies.obj
 0001:00000660       ??0PxFoundation@physx@@QAE@ABV01@@Z 10001660 f i Adjacencies.obj
 0001:00000670       ??0PxFoundation@physx@@QAE@XZ 10001670 f i Adjacencies.obj
 0001:00000680       ??1AdjacenciesBuilder@physx@@QAE@XZ 10001680 f   Adjacencies.obj
 0001:000006c0       ??1PxFoundation@physx@@MAE@XZ 100016c0 f i Adjacencies.obj
 0001:000006d0       ??_EPxFoundation@physx@@MAEPAXI@Z 100016d0 f i Adjacencies.obj
 0001:00000740       ??1Box@Gu@physx@@QAE@XZ    10001740 f i ConvexHullUtils.obj
 0001:00000740       ??1BigConvexDataBuilder@physx@@QAE@XZ 10001740 f i BigConvexDataBuilder.obj
 0001:00000740       ??1HeightFieldData@Gu@physx@@QAE@XZ 10001740 f i Cooking.obj
 0001:00000740       @_guard_check_icall_nop@4  10001740 f i LIBCMT:guard_support.obj
 0001:00000740       ??_FAllocator@shdfnd@physx@@QAEXXZ 10001740 f i Adjacencies.obj
 0001:00000740       ??1AABBTreeBuildNode@Gu@physx@@QAE@XZ 10001740 f i BVHStructureBuilder.obj
 0001:00000740       ?onMeshIndexFormatChange@TriangleMeshBuilder@physx@@UAEXXZ 10001740 f i TriangleMeshBuilder.obj
 0001:00000750       ?ComputeNbBoundaryEdges@Adjacencies@physx@@QBEIXZ 10001750 f   Adjacencies.obj
 0001:000009b0       ?GetNbHits@RadixSort@Cm@physx@@QBEIXZ 100019b0 f i Adjacencies.obj
 0001:000009c0       ?GetNbTotalCalls@RadixSort@Cm@physx@@QBEIXZ 100019c0 f i Adjacencies.obj
 0001:000009c0       ?getPos@AABBTreeBuildNode@Gu@physx@@QBEPBV123@XZ 100019c0 f i BVHStructureBuilder.obj
 0001:000009d0       ?length@pcharNode@@UBEHXZ  100019d0 f i libvcruntime:undname.obj
 0001:000009d0       ?raw_length@DNameStatusNode@@UBEHXZ 100019d0 f i libvcruntime:undname.obj
 0001:000009d0       ?length@DNameStatusNode@@UBEHXZ 100019d0 f i libvcruntime:undname.obj
 0001:000009d0       ?getErrorCallback@Foundation@shdfnd@physx@@UAEAAVPxErrorCallback@3@XZ 100019d0 f i Adjacencies.obj
 0001:000009d0       ?GetRanks@RadixSort@Cm@physx@@QBEPBIXZ 100019d0 f i Adjacencies.obj
 0001:000009d0       ?raw_length@pcharNode@@UBEHXZ 100019d0 f i libvcruntime:undname.obj
 0001:000009d0       ?GetNbVerts@BigConvexData@physx@@QBEIXZ 100019d0 f i BigConvexDataBuilder.obj
 0001:000009e0       ?GetRecyclable@RadixSort@Cm@physx@@QBEPAIXZ 100019e0 f i Adjacencies.obj
 0001:000009e0       ?raw_length@pairNode@@UBEHXZ 100019e0 f i libvcruntime:undname.obj
 0001:000009f0       ?Init@AdjacenciesBuilder@physx@@QAE_NABUADJACENCIESCREATE@2@@Z 100019f0 f   Adjacencies.obj
 0001:00000f00       ?getAllocator@Foundation@shdfnd@physx@@QAEAAVPxAllocatorCallback@3@XZ 10001f00 f i Adjacencies.obj
 0001:00000f10       ?getAllocatorCallback@Foundation@shdfnd@physx@@UAEAAVPxAllocatorCallback@3@XZ 10001f10 f i Adjacencies.obj
 0001:00000f20       ?getErrorLevel@Foundation@shdfnd@physx@@UBE?AW4Enum@PxErrorCode@3@XZ 10001f20 f i Adjacencies.obj
 0001:00000f30       ?getInternalErrorCallback@Foundation@shdfnd@physx@@QAEAAVPxErrorCallback@3@XZ 10001f30 f i Adjacencies.obj
 0001:00000f40       ?getNamedAllocMap@Foundation@shdfnd@physx@@QAEAAV?$HashMap@PBVNamedAllocator@shdfnd@physx@@PBDU?$Hash@PBVNamedAllocator@shdfnd@physx@@@23@VNonTrackingAllocator@23@@23@XZ 10001f40 f i Adjacencies.obj
 0001:00000f50       ?getNamedAllocMutex@Foundation@shdfnd@physx@@QAEAAV?$MutexT@VAllocator@shdfnd@physx@@@23@XZ 10001f50 f i Adjacencies.obj
 0001:00000f60       ?getReportAllocationNames@Foundation@shdfnd@physx@@UBE_NXZ 10001f60 f i Adjacencies.obj
 0001:00000f70       ?getTempAllocFreeTable@Foundation@shdfnd@physx@@QAEAAV?$Array@PATTempAllocatorChunk@shdfnd@physx@@VAllocator@23@@23@XZ 10001f70 f i Adjacencies.obj
 0001:00000f80       ?getTempAllocMutex@Foundation@shdfnd@physx@@QAEAAV?$MutexT@VAllocator@shdfnd@physx@@@23@XZ 10001f80 f i Adjacencies.obj
 0001:00000f90       ?invalidateRanks@RadixSort@Cm@physx@@QAEXXZ 10001f90 f i Adjacencies.obj
 0001:00000fa0       ?setErrorLevel@Foundation@shdfnd@physx@@UAEXW4Enum@PxErrorCode@3@@Z 10001fa0 f i Adjacencies.obj
 0001:00000fb0       ?setReportAllocationNames@Foundation@shdfnd@physx@@UAEX_N@Z 10001fb0 f i Adjacencies.obj
 0001:00000fc0       ??0DebugText@Cm@physx@@QAE@ABU012@@Z 10001fc0 f i Cooking.obj
 0001:00000fc0       ??0DebugText@Cm@physx@@QAE@$$QAU012@@Z 10001fc0 f i Cooking.obj
 0001:00001010       ??0HeightFieldData@Gu@physx@@QAE@ABU012@@Z 10002010 f i Cooking.obj
 0001:00001010       ??4HeightFieldData@Gu@physx@@QAEAAU012@ABU012@@Z 10002010 f i Cooking.obj
 0001:00001010       ??0HeightFieldData@Gu@physx@@QAE@$$QAU012@@Z 10002010 f i Cooking.obj
 0001:00001010       ??4HeightFieldData@Gu@physx@@QAEAAU012@$$QAU012@@Z 10002010 f i Cooking.obj
 0001:00001080       ??0HeightFieldData@Gu@physx@@QAE@XZ 10002080 f i Cooking.obj
 0001:00001090       ??0PxConvexMeshDesc@physx@@QAE@ABV01@@Z 10002090 f i Cooking.obj
 0001:000010e0       ??0RenderOutput@Cm@physx@@QAE@AAVRenderBuffer@12@@Z 100020e0 f i Cooking.obj
 0001:000011a0       ??0RenderOutput@Cm@physx@@QAE@ABV012@@Z 100021a0 f i Cooking.obj
 0001:00001250       ??1PxConvexMesh@physx@@MAE@XZ 10002250 f i Cooking.obj
 0001:00001250       ??1PxHeightField@physx@@MAE@XZ 10002250 f i Cooking.obj
 0001:00001260       ??4DebugText@Cm@physx@@QAEAAU012@ABU012@@Z 10002260 f i Cooking.obj
 0001:00001260       ??4DebugText@Cm@physx@@QAEAAU012@$$QAU012@@Z 10002260 f i Cooking.obj
 0001:000012f0       ??4FPUGuard@shdfnd@physx@@QAEAAV012@ABV012@@Z 100022f0 f i Cooking.obj
 0001:00001310       ??_ECooking@physx@@UAEPAXI@Z 10002310 f i Cooking.obj
 0001:00001310       ??_GCooking@physx@@UAEPAXI@Z 10002310 f i Cooking.obj
 0001:00001350       ??_GPxBase@physx@@MAEPAXI@Z 10002350 f i Cooking.obj
 0001:00001350       ??_EPxBase@physx@@MAEPAXI@Z 10002350 f i Cooking.obj
 0001:00001380       ??_GPxCooking@physx@@MAEPAXI@Z 10002380 f i Cooking.obj
 0001:00001380       ??_EPxCooking@physx@@MAEPAXI@Z 10002380 f i Cooking.obj
 0001:000013b0       ?allocate@?$Array@UPxDebugLine@physx@@V?$ReflectionAllocator@UPxDebugLine@physx@@@shdfnd@2@@shdfnd@physx@@IAEPAUPxDebugLine@3@I@Z 100023b0 f i Cooking.obj
 0001:00001420       ?computeHullPolygons@Cooking@physx@@UBE_NABVPxSimpleTriangleMesh@2@AAVPxAllocatorCallback@2@AAIAAPAVPxVec3@2@2AAPAI2AAPAUPxHullPolygon@2@@Z 10002420 f   Cooking.obj
 0001:00001550       ?cookBVHStructure@Cooking@physx@@UBE_NABVPxBVHStructureDesc@2@AAVPxOutputStream@2@@Z 10002550 f   Cooking.obj
 0001:00001600       ?cookConvexMesh@Cooking@physx@@UBE_NABVPxConvexMeshDesc@2@AAVPxOutputStream@2@PAW4Enum@PxConvexMeshCookingResult@2@@Z 10002600 f   Cooking.obj
 0001:00001780       ?cookConvexMeshInternal@Cooking@physx@@ABE_NABVPxConvexMeshDesc@2@AAVConvexMeshBuilder@2@PAVConvexHullLib@2@PAW4Enum@PxConvexMeshCookingResult@2@@Z 10002780 f   Cooking.obj
 0001:00001950       ?cookHeightField@Cooking@physx@@UBE_NABVPxHeightFieldDesc@2@AAVPxOutputStream@2@@Z 10002950 f   Cooking.obj
 0001:00001a10       ?cookTriangleMesh@Cooking@physx@@UBE_NABVPxTriangleMeshDesc@2@AAVPxOutputStream@2@PAW4Enum@PxTriangleMeshCookingResult@2@@Z 10002a10 f   Cooking.obj
 0001:00001b20       ?copy@?$Array@UPxDebugLine@physx@@V?$ReflectionAllocator@UPxDebugLine@physx@@@shdfnd@2@@shdfnd@physx@@KAXPAUPxDebugLine@3@0PBU43@@Z 10002b20 f i Cooking.obj
 0001:00001b90       ?createBVHStructure@Cooking@physx@@UBEPAVPxBVHStructure@2@ABVPxBVHStructureDesc@2@AAVPxPhysicsInsertionCallback@2@@Z 10002b90 f   Cooking.obj
 0001:00001c40       ?createConvexMesh@Cooking@physx@@UBEPAVPxConvexMesh@2@ABVPxConvexMeshDesc@2@AAVPxPhysicsInsertionCallback@2@PAW4Enum@PxConvexMeshCookingResult@2@@Z 10002c40 f   Cooking.obj
 0001:00001de0       ?createHeightField@Cooking@physx@@UBEPAVPxHeightField@2@ABVPxHeightFieldDesc@2@AAVPxPhysicsInsertionCallback@2@@Z 10002de0 f   Cooking.obj
 0001:00001f10       ?createTriangleMesh@Cooking@physx@@ABEPAVPxTriangleMesh@2@AAVTriangleMeshBuilder@2@ABVPxTriangleMeshDesc@2@AAVPxPhysicsInsertionCallback@2@PAW4Enum@PxTriangleMeshCookingResult@2@@Z 10002f10 f   Cooking.obj
 0001:00001fa0       ?createTriangleMesh@Cooking@physx@@UBEPAVPxTriangleMesh@2@ABVPxTriangleMeshDesc@2@AAVPxPhysicsInsertionCallback@2@PAW4Enum@PxTriangleMeshCookingResult@2@@Z 10002fa0 f   Cooking.obj
 0001:00002020       ?getConcreteTypeName@PxConvexMesh@physx@@UBEPBDXZ 10003020 f i Cooking.obj
 0001:00002030       ?getConcreteTypeName@PxHeightField@physx@@UBEPBDXZ 10003030 f i Cooking.obj
 0001:00002040       ?getConvexEdgeThreshold@HeightField@Gu@physx@@UBEMXZ 10003040 f i Cooking.obj
 0001:00002050       ?getFlags@HeightField@Gu@physx@@UBE?AV?$PxFlags@W4Enum@PxHeightFieldFlag@physx@@G@3@XZ 10003050 f i Cooking.obj
 0001:00002060       ?getFormat@HeightField@Gu@physx@@UBE?AW4Enum@PxHeightFieldFormat@3@XZ 10003060 f i Cooking.obj
 0001:00002070       ?getHeight@HeightField@Gu@physx@@UBEMMM@Z 10003070 f i Cooking.obj
 0001:000020d0       ?getHeightInternal2@HeightField@Gu@physx@@QBEMIMM@Z 100030d0 f i Cooking.obj
 0001:00002220       ?getIndexBuffer@ConvexMesh@Gu@physx@@UBEPBEXZ 10003220 f i Cooking.obj
 0001:00002260       ?getNbColumns@HeightField@Gu@physx@@UBEIXZ 10003260 f i Cooking.obj
 0001:00002270       ?getNbPolygons@ConvexMesh@Gu@physx@@UBEIXZ 10003270 f i Cooking.obj
 0001:00002280       ?getNbRows@HeightField@Gu@physx@@UBEIXZ 10003280 f i Cooking.obj
 0001:00002290       ?getNbVertices@ConvexMesh@Gu@physx@@UBEIXZ 10003290 f i Cooking.obj
 0001:000022a0       ?getPaddedBounds@HeightFieldData@Gu@physx@@QBEABVCenterExtentsPadded@23@XZ 100032a0 f i Cooking.obj
 0001:000022a0       ??0Box@Gu@physx@@QAE@XZ    100032a0 f i ConvexHullUtils.obj
 0001:000022a0       ?getAABB@AABBTreeBuildNode@Gu@physx@@QBEABVPxBounds3@3@XZ 100032a0 f i BVHStructureBuilder.obj
 0001:000022a0       ??0AABBTreeBuildNode@Gu@physx@@QAE@XZ 100032a0 f i BVHStructureBuilder.obj
 0001:000022b0       ?getDenormalizeScale@QuantizerImpl@@UBEABVPxVec3@physx@@XZ 100032b0 f   Quantizer.obj
 0001:000022b0       ?getParams@Cooking@physx@@UBEABUPxCookingParams@2@XZ 100032b0 f   Cooking.obj
 0001:000022c0       ?getSample@HeightField@Gu@physx@@UBEABUPxHeightFieldSample@3@II@Z 100032c0 f i Cooking.obj
 0001:000022e0       ?getSampleStride@HeightField@Gu@physx@@UBEIXZ 100032e0 f i Cooking.obj
 0001:000022f0       ?getTimestamp@HeightField@Gu@physx@@UBEIXZ 100032f0 f i Cooking.obj
 0001:00002300       ?getTriangleMaterialIndex@HeightField@Gu@physx@@UBEGI@Z 10003300 f i Cooking.obj
 0001:00002330       ?getTriangleNormal@HeightField@Gu@physx@@UBE?AVPxVec3@3@I@Z 10003330 f i Cooking.obj
 0001:00002420       ?getVertices@ConvexMesh@Gu@physx@@UBEPBVPxVec3@3@XZ 10003420 f i Cooking.obj
 0001:00002430       ?isKindOf@PxBase@physx@@MBE_NPBD@Z 10003430 f i Cooking.obj
 0001:00002480       ?isKindOf@PxConvexMesh@physx@@MBE_NPBD@Z 10003480 f i Cooking.obj
 0001:00002500       ?isKindOf@PxHeightField@physx@@MBE_NPBD@Z 10003500 f i Cooking.obj
 0001:00002580       ?isReleasable@PxBase@physx@@UBE_NXZ 10003580 f i Cooking.obj
 0001:00002590       ?outputSegment@RenderOutput@Cm@physx@@QAEXABVPxVec3@3@0@Z 10003590 f i Cooking.obj
 0001:00002620       ?platformMismatch@Cooking@physx@@UBE_NXZ 10003620 f   Cooking.obj
 0001:00002630       ?preExportDataReset@ConvexMesh@Gu@physx@@QAEXXZ 10003630 f i Cooking.obj
 0001:00002630       ?preExportDataReset@HeightField@Gu@physx@@QAEXXZ 10003630 f i Cooking.obj
 0001:00002640       ?recreate@?$Array@UPxDebugLine@physx@@V?$ReflectionAllocator@UPxDebugLine@physx@@@shdfnd@2@@shdfnd@physx@@IAEXI@Z 10003640 f i Cooking.obj
 0001:000026a0       ?release@Cooking@physx@@UAEXXZ 100036a0 f   Cooking.obj
 0001:000026b0       ?reserveSegments@RenderOutput@Cm@physx@@QAEPAUPxDebugLine@3@I@Z 100036b0 f i Cooking.obj
 0001:00002710       ?setParams@Cooking@physx@@UAEXABUPxCookingParams@2@@Z 10003710 f   Cooking.obj
 0001:00002770       ?validateConvexMesh@Cooking@physx@@UBE_NABVPxConvexMeshDesc@2@@Z 10003770 f   Cooking.obj
 0001:000027c0       ?validateTriangleMesh@Cooking@physx@@UBE_NABVPxTriangleMeshDesc@2@@Z 100037c0 f   Cooking.obj
 0001:000028a0       _PxCreateCooking           100038a0 f   Cooking.obj
 0001:00002960       ??0ReducedVertexCloud@physx@@QAE@PBVPxVec3@1@I@Z 10003960 f   CookingUtils.obj
 0001:00002990       ??1ReducedVertexCloud@physx@@QAE@XZ 10003990 f   CookingUtils.obj
 0001:000029d0       ?Reduce@ReducedVertexCloud@physx@@QAE_NPAUREDUCEDCLOUD@2@@Z 100039d0 f   CookingUtils.obj
 0001:00002c70       ??$?_UI@@YAPAXIV?$ReflectionAllocator@I@shdfnd@physx@@PBDH@Z 10003c70 f i EdgeList.obj
 0001:00002cd0       ??0EdgeListBuilder@Gu@physx@@QAE@XZ 10003cd0 f   EdgeList.obj
 0001:00002d00       ??1EdgeList@Gu@physx@@QAE@XZ 10003d00 f   EdgeList.obj
 0001:00002d80       ??1EdgeListBuilder@Gu@physx@@QAE@XZ 10003d80 f   EdgeList.obj
 0001:00002d90       ?computeActiveEdges@EdgeListBuilder@Gu@physx@@AAE_NIPBIPBGPBVPxVec3@3@M@Z 10003d90 f   EdgeList.obj
 0001:00004590       ?createEdgesToFaces@EdgeListBuilder@Gu@physx@@AAE_NIPBIPBG@Z 10005590 f   EdgeList.obj
 0001:00004750       ?createFacesToEdges@EdgeListBuilder@Gu@physx@@AAE_NIPBIPBG@Z 10005750 f   EdgeList.obj
 0001:00004b10       ?init@EdgeListBuilder@Gu@physx@@QAE_NABUEDGELISTCREATE@23@@Z 10005b10 f   EdgeList.obj
 0001:00004bf0       ??0MeshCleaner@physx@@QAE@IPBVPxVec3@1@IPBIM@Z 10005bf0 f   MeshCleaner.obj
 0001:00005470       ??1MeshCleaner@physx@@QAE@XZ 10006470 f   MeshCleaner.obj
 0001:000054d0       ??$kmeans_cluster@VPxVec3@physx@@M@@YAIPBVPxVec3@physx@@IIPAV01@PAIMM@Z 100064d0 f i Quantizer.obj
 0001:00005ad0       ??_EQuantizer@physx@@MAEPAXI@Z 10006ad0 f i Quantizer.obj
 0001:00005ad0       ??_GQuantizer@physx@@MAEPAXI@Z 10006ad0 f i Quantizer.obj
 0001:00005b00       ??_EQuantizerImpl@@EAEPAXI@Z 10006b00 f i Quantizer.obj
 0001:00005b00       ??_GQuantizerImpl@@EAEPAXI@Z 10006b00 f i Quantizer.obj
 0001:00005b90       ?createQuantizer@physx@@YAPAVQuantizer@1@XZ 10006b90 f   Quantizer.obj
 0001:00005c40       ?getDenormalizeCenter@QuantizerImpl@@UBEABVPxVec3@physx@@XZ 10006c40 f i Quantizer.obj
 0001:00005c50       ?growAndPushBack@?$Array@VPxVec3@physx@@V?$ReflectionAllocator@VPxVec3@physx@@@shdfnd@2@@shdfnd@physx@@IAEAAVPxVec3@3@ABV43@@Z 10006c50 f i Quantizer.obj
 0001:00005e00       ?kmeansQuantize3D@QuantizerImpl@@UAEPBVPxVec3@physx@@IPBV23@I_NIAAI@Z 10006e00 f i Quantizer.obj
 0001:00006000       ?normalizeInput@QuantizerImpl@@AAEXIPBVPxVec3@physx@@I@Z 10007000 f i Quantizer.obj
 0001:00006280       ?release@QuantizerImpl@@UAEXXZ 10007280 f i Quantizer.obj
 0001:00006290       ??$copy@V?$ReflectionAllocator@USlab@NodeAllocator@Gu@physx@@@shdfnd@physx@@@?$Array@USlab@NodeAllocator@Gu@physx@@V?$ReflectionAllocator@USlab@NodeAllocator@Gu@physx@@@shdfnd@4@@shdfnd@physx@@IAEXABV012@@Z 10007290 f i BVHStructureBuilder.obj
 0001:00006300       ??0AABBTreeBuildNode@Gu@physx@@QAE@ABV012@@Z 10007300 f i BVHStructureBuilder.obj
 0001:00006300       ??4AABBTreeBuildNode@Gu@physx@@QAEAAV012@ABV012@@Z 10007300 f i BVHStructureBuilder.obj
 0001:00006340       ??0AABBTreeBuildParams@Gu@physx@@QAE@IIPBVPxBounds3@2@@Z 10007340 f i BVHStructureBuilder.obj
 0001:00006360       ??0BVHStructureBuilder@physx@@QAE@XZ 10007360 f   BVHStructureBuilder.obj
 0001:00006390       ??0NodeAllocator@Gu@physx@@QAE@ABV012@@Z 10007390 f i BVHStructureBuilder.obj
 0001:000063c0       ?reset@AABBTreeBuildParams@Gu@physx@@QAEXXZ 100073c0 f i BVHStructureBuilder.obj
 0001:000063c0       ??1AABBTreeBuildParams@Gu@physx@@QAE@XZ 100073c0 f i BVHStructureBuilder.obj
 0001:00006400       ??1BVHStructureBuilder@physx@@QAE@XZ 10007400 f   BVHStructureBuilder.obj
 0001:00006460       ??4AABBTreeBuildParams@Gu@physx@@QAEAAV012@ABV012@@Z 10007460 f i BVHStructureBuilder.obj
 0001:00006470       ??4BuildStats@Gu@physx@@QAEAAU012@$$QAU012@@Z 10007470 f i BVHStructureBuilder.obj
 0001:00006490       ??4BuildStats@Gu@physx@@QAEAAU012@ABU012@@Z 10007490 f i BVHStructureBuilder.obj
 0001:000064b0       ??4NodeAllocator@Gu@physx@@QAEAAV012@ABV012@@Z 100074b0 f i BVHStructureBuilder.obj
 0001:00006540       ??_FAABBTreeBuildParams@Gu@physx@@QAEXXZ 10007540 f i BVHStructureBuilder.obj
 0001:00006560       ?__global_delete@@YAXPAXI@Z 10007560 f i BVHStructureBuilder.obj
 0001:00006570       ?allocate@?$Array@USlab@NodeAllocator@Gu@physx@@V?$ReflectionAllocator@USlab@NodeAllocator@Gu@physx@@@shdfnd@4@@shdfnd@physx@@IAEPAUSlab@NodeAllocator@Gu@3@I@Z 10007570 f i BVHStructureBuilder.obj
 0001:000065e0       ?getCount@BuildStats@Gu@physx@@QBEIXZ 100075e0 f i BVHStructureBuilder.obj
 0001:000065f0       ?getNbRuntimePrimitives@AABBTreeBuildNode@Gu@physx@@QBEIXZ 100075f0 f i BVHStructureBuilder.obj
 0001:000065f0       ?getNbPrimitives@AABBTreeBuildNode@Gu@physx@@QBEIXZ 100075f0 f i BVHStructureBuilder.obj
 0001:00006600       ?getNeg@AABBTreeBuildNode@Gu@physx@@QBEPBV123@XZ 10007600 f i BVHStructureBuilder.obj
 0001:00006610       ?getPrimitives@AABBTreeBuildNode@Gu@physx@@QAEPAIPAI@Z 10007610 f i BVHStructureBuilder.obj
 0001:00006610       ?getPrimitives@AABBTreeBuildNode@Gu@physx@@QBEPBIPBI@Z 10007610 f i BVHStructureBuilder.obj
 0001:00006620       ?increaseCount@BuildStats@Gu@physx@@QAEXI@Z 10007620 f i BVHStructureBuilder.obj
 0001:00006630       ?isLeaf@AABBTreeBuildNode@Gu@physx@@QBE_NXZ 10007630 f i BVHStructureBuilder.obj
 0001:00006640       ?loadFromDesc@BVHStructureBuilder@physx@@QAE_NABVPxBVHStructureDesc@2@@Z 10007640 f   BVHStructureBuilder.obj
 0001:00006960       ?moveData@BVHStructureBuilder@physx@@QAEXAAUBVHStructureData@Gu@2@@Z 10007960 f   BVHStructureBuilder.obj
 0001:000069b0       ?recreate@?$Array@USlab@NodeAllocator@Gu@physx@@V?$ReflectionAllocator@USlab@NodeAllocator@Gu@physx@@@shdfnd@4@@shdfnd@physx@@IAEXI@Z 100079b0 f i BVHStructureBuilder.obj
 0001:00006a10       ?reset@BuildStats@Gu@physx@@QAEXXZ 10007a10 f i BVHStructureBuilder.obj
 0001:00006a20       ?save@BVHStructureBuilder@physx@@QBE_NAAVPxOutputStream@2@_N@Z 10007a20 f   BVHStructureBuilder.obj
 0001:00006b30       ?setCount@BuildStats@Gu@physx@@QAEXI@Z 10007b30 f i BVHStructureBuilder.obj
 0001:00006b40       ?setNbRunTimePrimitives@AABBTreeBuildNode@Gu@physx@@QAEXI@Z 10007b40 f i BVHStructureBuilder.obj
 0001:00006b50       ?saveHeightField@physx@@YA_NABVHeightField@Gu@1@AAVPxOutputStream@1@_N@Z 10007b50 f   HeightFieldCooking.obj
 0001:00006d30       ??$sort@IU?$Less@I@shdfnd@physx@@V?$ReflectionAllocator@I@23@@shdfnd@physx@@YAXPAIIABU?$Less@I@01@ABV?$ReflectionAllocator@I@01@I@Z 10007d30 f i RTreeCooking.obj
 0001:000070b0       ??$sort@IUSortBoundsPredicate@physx@@V?$ReflectionAllocator@I@shdfnd@2@@shdfnd@physx@@YAXPAIIABUSortBoundsPredicate@1@ABV?$ReflectionAllocator@I@01@I@Z 100080b0 f i RTreeCooking.obj
 0001:00007590       ?allocate@?$Array@UInterval@physx@@V?$InlineAllocator@$0CAAA@V?$ReflectionAllocator@UInterval@physx@@@shdfnd@physx@@@shdfnd@2@@shdfnd@physx@@IAEPAUInterval@3@I@Z 10008590 f i RTreeCooking.obj
 0001:00007620       ?allocate@?$Array@UPxBounds3V@physx@@V?$ReflectionAllocator@UPxBounds3V@physx@@@shdfnd@2@@shdfnd@physx@@IAEPAUPxBounds3V@3@I@Z 10008620 f i RTreeCooking.obj
 0001:00007690       ?allocate@?$Array@URTreeNodeNQ@physx@@V?$ReflectionAllocator@URTreeNodeNQ@physx@@@shdfnd@2@@shdfnd@physx@@IAEPAURTreeNodeNQ@3@I@Z 10008690 f i RTreeCooking.obj
 0001:00007700       ?allocate@?$Array@URTreeNodeQ@Gu@physx@@V?$ReflectionAllocator@URTreeNodeQ@Gu@physx@@@shdfnd@3@@shdfnd@physx@@IAEPAURTreeNodeQ@Gu@3@I@Z 10008700 f i RTreeCooking.obj
 0001:00007770       ?allocate@?$Array@VPxVec3@physx@@V?$ReflectionAllocator@VPxVec3@physx@@@shdfnd@2@@shdfnd@physx@@IAEPAVPxVec3@3@I@Z 10008770 f i RTreeCooking.obj
 0001:000077e0       ?allocate@?$ReflectionAllocator@I@shdfnd@physx@@QAEPAXIPBDH@Z 100087e0 f i RTreeCooking.obj
 0001:00008480       ?buildFromTriangles@RTreeCooker@physx@@SAXAAURTree@Gu@2@PBVPxVec3@2@IPBGPBIIAAV?$Array@IV?$ReflectionAllocator@I@shdfnd@physx@@@shdfnd@2@PAURemapCallback@12@MW4Enum@PxMeshCookingHint@2@@Z 10009480 f   RTreeCooking.obj
 0001:000086b0       ?copy@?$Array@URTreeNodeNQ@physx@@V?$ReflectionAllocator@URTreeNodeNQ@physx@@@shdfnd@2@@shdfnd@physx@@KAXPAURTreeNodeNQ@3@0PBU43@@Z 100096b0 f i RTreeCooking.obj
 0001:00008720       ?copy@?$Array@VPxVec3@physx@@V?$ReflectionAllocator@VPxVec3@physx@@@shdfnd@2@@shdfnd@physx@@KAXPAVPxVec3@3@0PBV43@@Z 10009720 f i RTreeCooking.obj
 0001:000087e0       ?growAndPushBack@?$Array@IV?$ReflectionAllocator@I@shdfnd@physx@@@shdfnd@physx@@IAEAAIABI@Z 100097e0 f i RTreeCooking.obj
 0001:00008880       ?growAndPushBack@?$Array@UInterval@physx@@V?$InlineAllocator@$0CAAA@V?$ReflectionAllocator@UInterval@physx@@@shdfnd@physx@@@shdfnd@2@@shdfnd@physx@@IAEAAUInterval@3@ABU43@@Z 10009880 f i RTreeCooking.obj
 0001:00008950       ?growAndPushBack@?$Array@UPxBounds3V@physx@@V?$ReflectionAllocator@UPxBounds3V@physx@@@shdfnd@2@@shdfnd@physx@@IAEAAUPxBounds3V@3@ABU43@@Z 10009950 f i RTreeCooking.obj
 0001:000089f0       ?growAndPushBack@?$Array@URTreeNodeNQ@physx@@V?$ReflectionAllocator@URTreeNodeNQ@physx@@@shdfnd@2@@shdfnd@physx@@IAEAAURTreeNodeNQ@3@ABU43@@Z 100099f0 f i RTreeCooking.obj
 0001:00008aa0       ?growAndPushBack@?$Array@URTreeNodeQ@Gu@physx@@V?$ReflectionAllocator@URTreeNodeQ@Gu@physx@@@shdfnd@3@@shdfnd@physx@@IAEAAURTreeNodeQ@Gu@3@ABU453@@Z 10009aa0 f i RTreeCooking.obj
 0001:00008b70       ?recreate@?$Array@IV?$ReflectionAllocator@I@shdfnd@physx@@@shdfnd@physx@@IAEXI@Z 10009b70 f i RTreeCooking.obj
 0001:00008bf0       ?recreate@?$Array@UPxBounds3V@physx@@V?$ReflectionAllocator@UPxBounds3V@physx@@@shdfnd@2@@shdfnd@physx@@IAEXI@Z 10009bf0 f i RTreeCooking.obj
 0001:00008c50       ?recreate@?$Array@URTreeNodeNQ@physx@@V?$ReflectionAllocator@URTreeNodeNQ@physx@@@shdfnd@2@@shdfnd@physx@@IAEXI@Z 10009c50 f i RTreeCooking.obj
 0001:00008cb0       ?recreate@?$Array@URTreeNodeQ@Gu@physx@@V?$ReflectionAllocator@URTreeNodeQ@Gu@physx@@@shdfnd@3@@shdfnd@physx@@IAEXI@Z 10009cb0 f i RTreeCooking.obj
 0001:00008d30       ?recreate@?$Array@VPxVec3@physx@@V?$ReflectionAllocator@VPxVec3@physx@@@shdfnd@2@@shdfnd@physx@@IAEXI@Z 10009d30 f i RTreeCooking.obj
 0001:00008d90       ?resize@?$Array@IV?$ReflectionAllocator@I@shdfnd@physx@@@shdfnd@physx@@QAEXIABI@Z 10009d90 f i RTreeCooking.obj
 0001:00008e30       ?resizeUninitialized@?$Array@URTreeNodeNQ@physx@@V?$ReflectionAllocator@URTreeNodeNQ@physx@@@shdfnd@2@@shdfnd@physx@@QAEXI@Z 10009e30 f i RTreeCooking.obj
 0001:00008e60       ?sort4@SubSortQuick@physx@@QAEXPIAIIAAV?$Array@URTreeNodeNQ@physx@@V?$ReflectionAllocator@URTreeNodeNQ@physx@@@shdfnd@2@@shdfnd@2@AAIAAUPxBounds3V@2@I@Z 10009e60 f i RTreeCooking.obj
 0001:00009270       ?sort4@SubSortSAH@physx@@QAEXPAIIAAV?$Array@URTreeNodeNQ@physx@@V?$ReflectionAllocator@URTreeNodeNQ@physx@@@shdfnd@2@@shdfnd@2@AAIIPAURTreeNodeNQ@2@@Z 1000a270 f i RTreeCooking.obj
 0001:000099d0       ?split@SubSortSAH@physx@@QAEIPAII@Z 1000a9d0 f i RTreeCooking.obj
 0001:00009df0       ?computeLocalBounds@MeshBulider@physx@@IAEXAAVMeshDataBase@Gu@2@@Z 1000adf0 f   MeshBuilder.obj
 0001:00009e70       ??$?_UG@@YAPAXIV?$ReflectionAllocator@G@shdfnd@physx@@PBDH@Z 1000ae70 f i TriangleMeshBuilder.obj
 0001:00009ed0       ??$sort@UEdgeTriLookup@physx@@U?$Less@UEdgeTriLookup@physx@@@shdfnd@2@V?$ReflectionAllocator@UEdgeTriLookup@physx@@@42@@shdfnd@physx@@YAXPAUEdgeTriLookup@1@IABU?$Less@UEdgeTriLookup@physx@@@01@ABV?$ReflectionAllocator@UEdgeTriLookup@physx@@@01@I@Z 1000aed0 f i TriangleMeshBuilder.obj
 0001:0000a350       ??0BV4TriangleMeshBuilder@physx@@QAE@ABUPxCookingParams@1@@Z 1000b350 f   TriangleMeshBuilder.obj
 0001:0000a3a0       ??0RTreeTriangleMeshBuilder@physx@@QAE@ABUPxCookingParams@1@@Z 1000b3a0 f   TriangleMeshBuilder.obj
 0001:0000a410       ??0TriangleMeshData@Gu@physx@@QAE@XZ 1000b410 f i TriangleMeshBuilder.obj
 0001:0000a4b0       ??1BV4TriangleMeshBuilder@physx@@UAE@XZ 1000b4b0 f   TriangleMeshBuilder.obj
 0001:0000a510       ??1MeshDataBase@Gu@physx@@UAE@XZ 1000b510 f i TriangleMeshBuilder.obj
 0001:0000a5c0       ??1RTreeTriangleMeshBuilder@physx@@UAE@XZ 1000b5c0 f   TriangleMeshBuilder.obj
 0001:0000a640       ??1TriangleMeshData@Gu@physx@@UAE@XZ 1000b640 f i TriangleMeshBuilder.obj
 0001:0000a6c0       ??_GBV4TriangleData@Gu@physx@@UAEPAXI@Z 1000b6c0 f i TriangleMeshBuilder.obj
 0001:0000a6c0       ??_EBV4TriangleData@Gu@physx@@UAEPAXI@Z 1000b6c0 f i TriangleMeshBuilder.obj
 0001:0000a720       ??_GBV4TriangleMeshBuilder@physx@@UAEPAXI@Z 1000b720 f i TriangleMeshBuilder.obj
 0001:0000a720       ??_EBV4TriangleMeshBuilder@physx@@UAEPAXI@Z 1000b720 f i TriangleMeshBuilder.obj
 0001:0000a790       ??_GMeshDataBase@Gu@physx@@UAEPAXI@Z 1000b790 f i TriangleMeshBuilder.obj
 0001:0000a790       ??_EMeshDataBase@Gu@physx@@UAEPAXI@Z 1000b790 f i TriangleMeshBuilder.obj
 0001:0000a7d0       ??_ERTreeCookerRemap@physx@@UAEPAXI@Z 1000b7d0 f i TriangleMeshBuilder.obj
 0001:0000a7d0       ??_GRTreeCookerRemap@physx@@UAEPAXI@Z 1000b7d0 f i TriangleMeshBuilder.obj
 0001:0000a800       ??_ERTreeTriangleData@Gu@physx@@UAEPAXI@Z 1000b800 f i TriangleMeshBuilder.obj
 0001:0000a800       ??_GRTreeTriangleData@Gu@physx@@UAEPAXI@Z 1000b800 f i TriangleMeshBuilder.obj
 0001:0000a880       ??_GRTreeTriangleMeshBuilder@physx@@UAEPAXI@Z 1000b880 f i TriangleMeshBuilder.obj
 0001:0000a880       ??_ERTreeTriangleMeshBuilder@physx@@UAEPAXI@Z 1000b880 f i TriangleMeshBuilder.obj
 0001:0000a910       ??_ERemapCallback@RTreeCooker@physx@@UAEPAXI@Z 1000b910 f i TriangleMeshBuilder.obj
 0001:0000a910       ??_GRemapCallback@RTreeCooker@physx@@UAEPAXI@Z 1000b910 f i TriangleMeshBuilder.obj
 0001:0000a940       ??_GTriangleMeshBuilder@physx@@UAEPAXI@Z 1000b940 f i TriangleMeshBuilder.obj
 0001:0000a940       ??_ETriangleMeshBuilder@physx@@UAEPAXI@Z 1000b940 f i TriangleMeshBuilder.obj
 0001:0000a990       ??_ETriangleMeshData@Gu@physx@@UAEPAXI@Z 1000b990 f i TriangleMeshBuilder.obj
 0001:0000a990       ??_GTriangleMeshData@Gu@physx@@UAEPAXI@Z 1000b990 f i TriangleMeshBuilder.obj
 0001:0000a9d0       ?allocateTriangles@TriangleMeshData@Gu@physx@@QAEPAXI_NI@Z 1000b9d0 f i TriangleMeshBuilder.obj
 0001:0000ae10       ?checkMeshIndicesSize@TriangleMeshBuilder@physx@@QAEXXZ 1000be10 f   TriangleMeshBuilder.obj
 0001:0000aec0       ?cleanMesh@TriangleMeshBuilder@physx@@QAE_N_NPAW4Enum@PxTriangleMeshCookingResult@2@@Z 1000bec0 f   TriangleMeshBuilder.obj
 0001:0000b2b0       ?createGRBMidPhaseAndData@TriangleMeshBuilder@physx@@QAEXI@Z 1000c2b0 f   TriangleMeshBuilder.obj
 0001:0000b590       ?createMidPhaseStructure@BV4TriangleMeshBuilder@physx@@UAEXXZ 1000c590 f   TriangleMeshBuilder.obj
 0001:0000b790       ?createMidPhaseStructure@RTreeTriangleMeshBuilder@physx@@UAEXXZ 1000c790 f   TriangleMeshBuilder.obj
 0001:0000b850       ?createSharedEdgeData@TriangleMeshBuilder@physx@@QAEX_N0@Z 1000c850 f   TriangleMeshBuilder.obj
 0001:0000bdb0       ?getMidphaseID@BV4TriangleMeshBuilder@physx@@UBE?AW4Enum@PxMeshMidPhase@2@XZ 1000cdb0 f i TriangleMeshBuilder.obj
 0001:0000bdc0       ?getMidphaseID@RTreeTriangleMeshBuilder@physx@@UBE?AW4Enum@PxMeshMidPhase@2@XZ 1000cdc0 f i TriangleMeshBuilder.obj
 0001:0000bdd0       ?importMesh@TriangleMeshBuilder@physx@@IAE_NABVPxTriangleMeshDesc@2@ABUPxCookingParams@2@PAW4Enum@PxTriangleMeshCookingResult@2@_N@Z 1000cdd0 f   TriangleMeshBuilder.obj
 0001:0000c050       ?loadFromDesc@TriangleMeshBuilder@physx@@QAE_NABVPxTriangleMeshDesc@2@PAW4Enum@PxTriangleMeshCookingResult@2@_N@Z 1000d050 f   TriangleMeshBuilder.obj
 0001:0000c360       ?onMeshIndexFormatChange@BV4TriangleMeshBuilder@physx@@UAEXXZ 1000d360 f   TriangleMeshBuilder.obj
 0001:0000c390       ?remap@RTreeCookerRemap@physx@@UAEXPAIII@Z 1000d390 f i TriangleMeshBuilder.obj
 0001:0000c3b0       ?remapTopology@TriangleMeshBuilder@physx@@QAEXPBI@Z 1000d3b0 f   TriangleMeshBuilder.obj
 0001:0000c600       ?save@TriangleMeshBuilder@physx@@QBE_NAAVPxOutputStream@2@_NABUPxCookingParams@2@@Z 1000d600 f   TriangleMeshBuilder.obj
 0001:0000cb10       ?saveMidPhaseStructure@BV4TriangleMeshBuilder@physx@@UBEXAAVPxOutputStream@2@_N@Z 1000db10 f   TriangleMeshBuilder.obj
 0001:0000ccb0       ?saveMidPhaseStructure@RTreeTriangleMeshBuilder@physx@@UBEXAAVPxOutputStream@2@_N@Z 1000dcb0 f   TriangleMeshBuilder.obj
 0001:0000ce40       ??0BigConvexDataBuilder@physx@@QAE@PBUConvexHullData@Gu@1@PAVBigConvexData@1@PBVPxVec3@1@@Z 1000de40 f   BigConvexDataBuilder.obj
 0001:0000ce60       ??4BigConvexData@physx@@QAEAAV01@ABV01@@Z 1000de60 f i BigConvexDataBuilder.obj
 0001:0000ce80       ?GetAdjacentVerts@BigConvexData@physx@@QBEPBEXZ 1000de80 f i BigConvexDataBuilder.obj
 0001:0000ce90       ?GetNbNeighbors@BigConvexData@physx@@QBEGI@Z 1000de90 f i BigConvexDataBuilder.obj
 0001:0000ce90       ?GetValency@BigConvexData@physx@@QBEGI@Z 1000de90 f i BigConvexDataBuilder.obj
 0001:0000cea0       ?GetNbSamples@BigConvexData@physx@@QBEIXZ 1000dea0 f i BigConvexDataBuilder.obj
 0001:0000ceb0       ?GetNeighbors@BigConvexData@physx@@QBEPBEI@Z 1000deb0 f i BigConvexDataBuilder.obj
 0001:0000ced0       ?GetOffset@BigConvexData@physx@@QBEGI@Z 1000ded0 f i BigConvexDataBuilder.obj
 0001:0000cee0       ?GetSubdiv@BigConvexData@physx@@QBEIXZ 1000dee0 f i BigConvexDataBuilder.obj
 0001:0000cef0       ?GetValencies@BigConvexData@physx@@QBEPBUValency@Gu@2@XZ 1000def0 f i BigConvexDataBuilder.obj
 0001:0000cf00       ?computeValencies@BigConvexDataBuilder@physx@@QAE_NABVConvexHullBuilder@2@@Z 1000df00 f   BigConvexDataBuilder.obj
 0001:0000d270       ?precompute@BigConvexDataBuilder@physx@@QAE_NI@Z 1000e270 f   BigConvexDataBuilder.obj
 0001:0000dbd0       ?save@BigConvexDataBuilder@physx@@QBE_NAAVPxOutputStream@2@_N@Z 1000ebd0 f   BigConvexDataBuilder.obj
 0001:0000dd80       ??0ConvexHullBuilder@physx@@QAE@PAUConvexHullData@Gu@1@_N@Z 1000ed80 f   ConvexHullBuilder.obj
 0001:0000ddd0       ??1ConvexHullBuilder@physx@@QAE@XZ 1000edd0 f   ConvexHullBuilder.obj
 0001:0000dea0       ?calculateVertexMapTable@ConvexHullBuilder@physx@@QAE_NI_N@Z 1000eea0 f   ConvexHullBuilder.obj
 0001:0000e060       ?checkHullPolygons@ConvexHullBuilder@physx@@QBE_NXZ 1000f060 f   ConvexHullBuilder.obj
 0001:0000e460       ?computeGeomCenter@ConvexHullBuilder@physx@@IBE_NAAVPxVec3@2@IPAUHullTriangleData@2@@Z 1000f460 f   ConvexHullBuilder.obj
 0001:0000e6a0       ?copy@ConvexHullBuilder@physx@@QAE_NAAUConvexHullData@Gu@2@AAI@Z 1000f6a0 f   ConvexHullBuilder.obj
 0001:0000e8d0       ?createEdgeList@ConvexHullBuilder@physx@@QAE_N_NI@Z 1000f8d0 f   ConvexHullBuilder.obj
 0001:0000f040       ?init@ConvexHullBuilder@physx@@QAE_NIPBVPxVec3@2@PBIIIPBUPxHullPolygon@2@_NPAVConvexHullLib@2@@Z 10010040 f   ConvexHullBuilder.obj
 0001:0000f870       ?save@ConvexHullBuilder@physx@@QBE_NAAVPxOutputStream@2@_N@Z 10010870 f   ConvexHullBuilder.obj
 0001:0000fb20       ??1ConvexHullLib@physx@@UAE@XZ 10010b20 f   ConvexHullLib.obj
 0001:0000fb60       ??_GConvexHullLib@physx@@UAEPAXI@Z 10010b60 f i ConvexHullLib.obj
 0001:0000fb60       ??_EConvexHullLib@physx@@UAEPAXI@Z 10010b60 f i ConvexHullLib.obj
 0001:0000fec0       ?cleanupVertices@ConvexHullLib@physx@@IAE_NIPBVPxVec3@2@IAAIPAV32@AAV32@3@Z 10010ec0 f   ConvexHullLib.obj
 0001:00010250       ?shiftAndcleanupVertices@ConvexHullLib@physx@@IAE_NIPBVPxVec3@2@IAAIPAV32@AAV32@3@Z 10011250 f   ConvexHullLib.obj
 0001:000103e0       ?shiftConvexMeshDesc@ConvexHullLib@physx@@IAEXAAVPxConvexMeshDesc@2@@Z 100113e0 f   ConvexHullLib.obj
 0001:00010480       ?swapLargestFace@ConvexHullLib@physx@@IAEXAAVPxConvexMeshDesc@2@@Z 10011480 f   ConvexHullLib.obj
 0001:00010650       ??0Box@Gu@physx@@QAE@ABV012@@Z 10011650 f i ConvexHullUtils.obj
 0001:00010650       ??4Box@Gu@physx@@QAEABV012@ABV012@@Z 10011650 f i ConvexHullUtils.obj
 0001:000106c0       ??0Box@Gu@physx@@QAE@ABVPxVec3@2@0ABVPxMat33@2@@Z 100116c0 f i ConvexHullUtils.obj
 0001:00010730       ??0ConvexHull@physx@@QAE@ABVPxVec3@1@ABVPxTransform@1@ABV?$Array@VPxPlane@physx@@V?$ReflectionAllocator@VPxPlane@physx@@@shdfnd@2@@shdfnd@1@@Z 10011730 f   ConvexHullUtils.obj
 0001:00011aa0       ??0PxQuat@physx@@QAE@ABVPxMat33@1@@Z 10012aa0 f i ConvexHullUtils.obj
 0001:00011c60       ?allocate@?$Array@VHalfEdge@ConvexHull@physx@@V?$ReflectionAllocator@VHalfEdge@ConvexHull@physx@@@shdfnd@3@@shdfnd@physx@@IAEPAVHalfEdge@ConvexHull@3@I@Z 10012c60 f i ConvexHullUtils.obj
 0001:00011cd0       ?allocate@?$Array@VPxPlane@physx@@V?$ReflectionAllocator@VPxPlane@physx@@@shdfnd@2@@shdfnd@physx@@IAEPAVPxPlane@3@I@Z 10012cd0 f i ConvexHullUtils.obj
 0001:00011d40       ?assertIntact@ConvexHull@physx@@QBE_NM@Z 10012d40 f   ConvexHullUtils.obj
 0001:00012010       ?computeAABBExtent@Box@Gu@physx@@QBE?AVPxVec3@3@XZ 10013010 f i ConvexHullUtils.obj
 0001:000120c0       ?computeBoxPoints@Box@Gu@physx@@QBEXPIAVPxVec3@3@@Z 100130c0 f i ConvexHullUtils.obj
 0001:000120e0       ?computeOBBFromConvex@physx@@YA_NABVPxConvexMeshDesc@1@AAVPxVec3@1@AAVPxTransform@1@@Z 100130e0 f   ConvexHullUtils.obj
 0001:000129d0       ?convexHullCrop@physx@@YAPAVConvexHull@1@ABV21@ABVPxPlane@1@M@Z 100139d0 f   ConvexHullUtils.obj
 0001:00013b10       ?copy@?$Array@VPxPlane@physx@@V?$ReflectionAllocator@VPxPlane@physx@@@shdfnd@2@@shdfnd@physx@@KAXPAVPxPlane@3@0PBV43@@Z 10014b10 f i ConvexHullUtils.obj
 0001:00013b60       ?findCandidatePlane@ConvexHull@physx@@QBEHMM@Z 10014b60 f   ConvexHullUtils.obj
 0001:00013de0       ?getInverse@PxMat33@physx@@QBE?BV12@XZ 10014de0 f i ConvexHullUtils.obj
 0001:00014030       ?getTransform@Box@Gu@physx@@QBE?AVPxTransform@3@XZ 10015030 f i ConvexHullUtils.obj
 0001:00014080       ?growAndPushBack@?$Array@VHalfEdge@ConvexHull@physx@@V?$ReflectionAllocator@VHalfEdge@ConvexHull@physx@@@shdfnd@3@@shdfnd@physx@@IAEAAVHalfEdge@ConvexHull@3@ABV453@@Z 10015080 f i ConvexHullUtils.obj
 0001:00014100       ?growAndPushBack@?$Array@VPxPlane@physx@@V?$ReflectionAllocator@VPxPlane@physx@@@shdfnd@2@@shdfnd@physx@@IAEAAVPxPlane@3@ABV43@@Z 10015100 f i ConvexHullUtils.obj
 0001:00014190       ?isValid@Box@Gu@physx@@QBE_NXZ 10015190 f i ConvexHullUtils.obj
 0001:000141b0       ?maxNumVertsPerFace@ConvexHull@physx@@QBEIXZ 100151b0 f   ConvexHullUtils.obj
 0001:00014230       ?recreate@?$Array@VHalfEdge@ConvexHull@physx@@V?$ReflectionAllocator@VHalfEdge@ConvexHull@physx@@@shdfnd@3@@shdfnd@physx@@IAEXI@Z 10015230 f i ConvexHullUtils.obj
 0001:00014290       ?recreate@?$Array@VPxPlane@physx@@V?$ReflectionAllocator@VPxPlane@physx@@@shdfnd@2@@shdfnd@physx@@IAEXI@Z 10015290 f i ConvexHullUtils.obj
 0001:000142f0       ?resize@?$Array@VHalfEdge@ConvexHull@physx@@V?$ReflectionAllocator@VHalfEdge@ConvexHull@physx@@@shdfnd@3@@shdfnd@physx@@QAEXIABVHalfEdge@ConvexHull@3@@Z 100152f0 f i ConvexHullUtils.obj
 0001:00014390       ?resize@?$Array@VPxPlane@physx@@V?$ReflectionAllocator@VPxPlane@physx@@@shdfnd@2@@shdfnd@physx@@QAEXIABVPxPlane@3@@Z 10015390 f i ConvexHullUtils.obj
 0001:00014490       ?resize@?$Array@VPxVec3@physx@@V?$ReflectionAllocator@VPxVec3@physx@@@shdfnd@2@@shdfnd@physx@@QAEXIABVPxVec3@3@@Z 10015490 f i ConvexHullUtils.obj
 0001:00014560       ?rotate@Box@Gu@physx@@QBE?AVPxVec3@3@ABV43@@Z 10015560 f i ConvexHullUtils.obj
 0001:000145e0       ?rotateInv@Box@Gu@physx@@QBE?AVPxVec3@3@ABV43@@Z 100155e0 f i ConvexHullUtils.obj
 0001:00014660       ?setAxes@Box@Gu@physx@@QAEXABVPxVec3@3@00@Z 10015660 f i ConvexHullUtils.obj
 0001:000146b0       ?setEmpty@Box@Gu@physx@@QAEXXZ 100156b0 f i ConvexHullUtils.obj
 0001:00014720       ?transform@Box@Gu@physx@@QBE?AVPxVec3@3@ABV43@@Z 10015720 f i ConvexHullUtils.obj
 0001:000147b0       ??0ConvexMeshBuilder@physx@@QAE@_N@Z 100157b0 f   ConvexMeshBuilder.obj
 0001:00014810       ??1ConvexMeshBuilder@physx@@QAE@XZ 10015810 f   ConvexMeshBuilder.obj
 0001:00014c70       ?build@ConvexMeshBuilder@physx@@QAE_NABVPxConvexMeshDesc@2@I_NPAVConvexHullLib@2@@Z 10015c70 f   ConvexMeshBuilder.obj
 0001:00014f10       ?computeHullPolygons@ConvexMeshBuilder@physx@@QAE_NABIPBVPxVec3@2@0PBIAAVPxAllocatorCallback@2@AAIAAPAV32@4AAPAI4AAPAUPxHullPolygon@2@@Z 10015f10 f   ConvexMeshBuilder.obj
 0001:00015090       ?computeMassInfo@ConvexMeshBuilder@physx@@QAEX_N@Z 10016090 f   ConvexMeshBuilder.obj
 0001:00015500       ?copy@ConvexMeshBuilder@physx@@QAE_NAAUConvexHullInitData@Gu@2@@Z 10016500 f   ConvexMeshBuilder.obj
 0001:000155f0       ?isFinite@PxVec3@physx@@QBE_NXZ 100165f0 f i ConvexMeshBuilder.obj
 0001:00015660       ?loadConvexHull@ConvexMeshBuilder@physx@@QAE_NABVPxConvexMeshDesc@2@PAVConvexHullLib@2@@Z 10016660 f   ConvexMeshBuilder.obj
 0001:00015840       ?save@ConvexMeshBuilder@physx@@QBE_NAAVPxOutputStream@2@_N@Z 10016840 f   ConvexMeshBuilder.obj
 0001:00015a30       ??$?_UE@@YAPAXIV?$ReflectionAllocator@E@shdfnd@physx@@PBDH@Z 10016a30 f i ConvexPolygonsBuilder.obj
 0001:00015a90       ??$copy@V?$ReflectionAllocator@VPair@@@shdfnd@physx@@@?$Array@VPair@@V?$ReflectionAllocator@VPair@@@shdfnd@physx@@@shdfnd@physx@@IAEXABV012@@Z 10016a90 f i ConvexPolygonsBuilder.obj
 0001:00015b00       ??0ConvexPolygonsBuilder@physx@@QAE@PAUConvexHullData@Gu@1@_N@Z 10016b00 f   ConvexPolygonsBuilder.obj
 0001:00015b30       ??1ConvexPolygonsBuilder@physx@@QAE@XZ 10016b30 f   ConvexPolygonsBuilder.obj
 0001:00015b60       ??4?$Array@IV?$ReflectionAllocator@I@shdfnd@physx@@@shdfnd@physx@@QAEAAV012@ABV012@@Z 10016b60 f i ConvexPolygonsBuilder.obj
 0001:000162f0       ?allocate@?$Array@VPair@@V?$ReflectionAllocator@VPair@@@shdfnd@physx@@@shdfnd@physx@@IAEPAVPair@@I@Z 100172f0 f i ConvexPolygonsBuilder.obj
 0001:000168a0       ?computeHullPolygons@ConvexPolygonsBuilder@physx@@QAE_NABIPBVPxVec3@2@0PBI@Z 100178a0 f   ConvexPolygonsBuilder.obj
 0001:00017740       ?createPolygonData@ConvexPolygonsBuilder@physx@@AAE_NXZ 10018740 f   ConvexPolygonsBuilder.obj
 0001:00018240       ?createTrianglesFromPolygons@ConvexPolygonsBuilder@physx@@AAE_NXZ 10019240 f   ConvexPolygonsBuilder.obj
 0001:00019220       ?growAndPushBack@?$Array@VPair@@V?$ReflectionAllocator@VPair@@@shdfnd@physx@@@shdfnd@physx@@IAEAAVPair@@ABV4@@Z 1001a220 f i ConvexPolygonsBuilder.obj
 0001:000192d0       ??0QuickHull@local@@QAE@ABUPxCookingParams@physx@@ABVPxConvexMeshDesc@3@@Z 1001a2d0 f   QuickHullConvexHullLib.obj
 0001:00019420       ??0QuickHullConvexHullLib@physx@@QAE@ABVPxConvexMeshDesc@1@ABUPxCookingParams@1@@Z 1001a420 f   QuickHullConvexHullLib.obj
 0001:000194e0       ??1?$MemBlock@UQuickHullHalfEdge@local@@$0A@@local@@QAE@XZ 1001a4e0 f i QuickHullConvexHullLib.obj
 0001:000194e0       ??1?$MemBlock@UQuickHullFace@local@@$00@local@@QAE@XZ 1001a4e0 f i QuickHullConvexHullLib.obj
 0001:00019540       ??1QuickHull@local@@QAE@XZ 1001a540 f   QuickHullConvexHullLib.obj
 0001:00019640       ??_GConvexHull@physx@@QAEPAXI@Z 1001a640 f i QuickHullConvexHullLib.obj
 0001:000196e0       ??_EQuickHullConvexHullLib@physx@@UAEPAXI@Z 1001a6e0 f i QuickHullConvexHullLib.obj
 0001:000196e0       ??_GQuickHullConvexHullLib@physx@@UAEPAXI@Z 1001a6e0 f i QuickHullConvexHullLib.obj
 0001:00019790       ?addExpandPoint@local@@YAXABUExpandPoint@1@AAV?$Array@UExpandPoint@local@@V?$ReflectionAllocator@UExpandPoint@local@@@shdfnd@physx@@@shdfnd@physx@@@Z 1001a790 f   QuickHullConvexHullLib.obj
 0001:00019870       ?addPointToHull@QuickHull@local@@IAE_NPBUQuickHullVertex@2@AAUQuickHullFace@2@AA_N@Z 1001a870 f   QuickHullConvexHullLib.obj
 0001:00019b90       ?addSimplex@QuickHull@local@@IAEXPAUQuickHullVertex@2@_N@Z 1001ab90 f   QuickHullConvexHullLib.obj
 0001:00019f30       ?allocate@?$Array@PAUQuickHullFace@local@@V?$ReflectionAllocator@PAUQuickHullFace@local@@@shdfnd@physx@@@shdfnd@physx@@IAEPAPAUQuickHullFace@local@@I@Z 1001af30 f i QuickHullConvexHullLib.obj
 0001:00019fa0       ?allocate@?$Array@PAUQuickHullHalfEdge@local@@V?$ReflectionAllocator@PAUQuickHullHalfEdge@local@@@shdfnd@physx@@@shdfnd@physx@@IAEPAPAUQuickHullHalfEdge@local@@I@Z 1001afa0 f i QuickHullConvexHullLib.obj
 0001:0001a010       ?allocate@?$Array@PAUQuickHullVertex@local@@V?$ReflectionAllocator@PAUQuickHullVertex@local@@@shdfnd@physx@@@shdfnd@physx@@IAEPAPAUQuickHullVertex@local@@I@Z 1001b010 f i QuickHullConvexHullLib.obj
 0001:0001a080       ?allocate@?$Array@UExpandPoint@local@@V?$ReflectionAllocator@UExpandPoint@local@@@shdfnd@physx@@@shdfnd@physx@@IAEPAUExpandPoint@local@@I@Z 1001b080 f i QuickHullConvexHullLib.obj
 0001:0001a0f0       ?buildHull@QuickHull@local@@QAE?AW4Enum@QuickHullResult@2@XZ 1001b0f0 f   QuickHullConvexHullLib.obj
 0001:0001a370       ?calculateHorizon@QuickHull@local@@IAEXABVPxVec3@physx@@PAUQuickHullHalfEdge@2@AAUQuickHullFace@2@AAV?$Array@PAUQuickHullHalfEdge@local@@V?$ReflectionAllocator@PAUQuickHullHalfEdge@local@@@shdfnd@physx@@@shdfnd@4@AAV?$Array@PAUQuickHullFace@local@@V?$ReflectionAllocator@PAUQuickHullFace@local@@@shdfnd@physx@@@84@@Z 1001b370 f   QuickHullConvexHullLib.obj
 0001:0001a480       ?canMergeFaces@QuickHull@local@@IAE_NABUQuickHullHalfEdge@2@@Z 1001b480 f   QuickHullConvexHullLib.obj
 0001:0001ab90       ?cleanupForSimplex@QuickHullConvexHullLib@physx@@IAE_NPAVPxVec3@2@IPAUQuickHullVertex@local@@1AAM2@Z 1001bb90 f   QuickHullConvexHullLib.obj
 0001:0001b290       ?computeMinMaxVerts@QuickHull@local@@IAEXXZ 1001c290 f   QuickHullConvexHullLib.obj
 0001:0001b5e0       ?connectHalfEdges@QuickHullFace@local@@AAEPAU12@PAUQuickHullHalfEdge@2@0@Z 1001c5e0 f   QuickHullConvexHullLib.obj
 0001:0001b8f0       ?copy@?$Array@UExpandPoint@local@@V?$ReflectionAllocator@UExpandPoint@local@@@shdfnd@physx@@@shdfnd@physx@@KAXPAUExpandPoint@local@@0PBU45@@Z 1001c8f0 f i QuickHullConvexHullLib.obj
 0001:0001b980       ?createConvexHull@QuickHullConvexHullLib@physx@@UAE?AW4Enum@PxConvexMeshCookingResult@2@XZ 1001c980 f   QuickHullConvexHullLib.obj
 0001:0001be70       ?createEdgeList@QuickHullConvexHullLib@physx@@UAE_NIPBEPAPAEPAPAG2@Z 1001ce70 f   QuickHullConvexHullLib.obj
 0001:0001c0b0       ?createTriangle@QuickHull@local@@IAEPAUQuickHullFace@2@ABUQuickHullVertex@2@00@Z 1001d0b0 f   QuickHullConvexHullLib.obj
 0001:0001c410       ?deleteFacePoints@QuickHull@local@@IAEXAAUQuickHullFace@2@PAU32@@Z 1001d410 f   QuickHullConvexHullLib.obj
 0001:0001c500       ?doAdjacentMerge@QuickHull@local@@IAE_NAAUQuickHullFace@2@_NAA_N@Z 1001d500 f   QuickHullConvexHullLib.obj
 0001:0001c740       ?expandHull@QuickHullConvexHullLib@physx@@IAE?AW4Enum@PxConvexMeshCookingResult@2@XZ 1001d740 f   QuickHullConvexHullLib.obj
 0001:0001cd90       ?expandHullOBB@QuickHullConvexHullLib@physx@@IAE?AW4Enum@PxConvexMeshCookingResult@2@XZ 1001dd90 f   QuickHullConvexHullLib.obj
 0001:0001d190       ?fillConvexMeshDesc@QuickHullConvexHullLib@physx@@UAEXAAVPxConvexMeshDesc@2@@Z 1001e190 f   QuickHullConvexHullLib.obj
 0001:0001d1d0       ?fillConvexMeshDescFromCroppedHull@QuickHullConvexHullLib@physx@@IAEXAAVPxConvexMeshDesc@2@@Z 1001e1d0 f   QuickHullConvexHullLib.obj
 0001:0001d390       ?fillConvexMeshDescFromQuickHull@QuickHullConvexHullLib@physx@@IAEXAAVPxConvexMeshDesc@2@@Z 1001e390 f   QuickHullConvexHullLib.obj
 0001:0001d750       ?findSimplex@QuickHull@local@@IAE_NXZ 1001e750 f   QuickHullConvexHullLib.obj
 0001:0001dbf0       ?getFreeItem@?$MemBlock@UQuickHullFace@local@@$00@local@@QAEPAUQuickHullFace@2@XZ 1001ebf0 f i QuickHullConvexHullLib.obj
 0001:0001dcd0       ?getFreeItem@?$MemBlock@UQuickHullHalfEdge@local@@$0A@@local@@QAEPAUQuickHullHalfEdge@2@XZ 1001ecd0 f i QuickHullConvexHullLib.obj
 0001:0001dd70       ?growAndPushBack@?$Array@PAUQuickHullFace@local@@V?$ReflectionAllocator@PAUQuickHullFace@local@@@shdfnd@physx@@@shdfnd@physx@@IAEAAPAUQuickHullFace@local@@ABQAU45@@Z 1001ed70 f i QuickHullConvexHullLib.obj
 0001:0001ddf0       ?growAndPushBack@?$Array@PAUQuickHullHalfEdge@local@@V?$ReflectionAllocator@PAUQuickHullHalfEdge@local@@@shdfnd@physx@@@shdfnd@physx@@IAEAAPAUQuickHullHalfEdge@local@@ABQAU45@@Z 1001edf0 f i QuickHullConvexHullLib.obj
 0001:0001de70       ?growAndPushBack@?$Array@PAUQuickHullVertex@local@@V?$ReflectionAllocator@PAUQuickHullVertex@local@@@shdfnd@physx@@@shdfnd@physx@@IAEAAPAUQuickHullVertex@local@@ABQAU45@@Z 1001ee70 f i QuickHullConvexHullLib.obj
 0001:0001def0       ?growAndPushBack@?$Array@UExpandPoint@local@@V?$ReflectionAllocator@UExpandPoint@local@@@shdfnd@physx@@@shdfnd@physx@@IAEAAUExpandPoint@local@@ABU45@@Z 1001eef0 f i QuickHullConvexHullLib.obj
 0001:0001dfe0       ?init@?$MemBlock@UQuickHullFace@local@@$00@local@@QAEXI@Z 1001efe0 f i QuickHullConvexHullLib.obj
 0001:0001e080       ?mergeAdjacentFace@QuickHullFace@local@@QAE_NPAUQuickHullHalfEdge@2@AAV?$Array@PAUQuickHullFace@local@@V?$ReflectionAllocator@PAUQuickHullFace@local@@@shdfnd@physx@@@shdfnd@physx@@@Z 1001f080 f   QuickHullConvexHullLib.obj
 0001:0001e470       ?parseInputVertices@QuickHull@local@@QAEXPBVPxVec3@physx@@I@Z 1001f470 f   QuickHullConvexHullLib.obj
 0001:0001e4d0       ?preallocate@QuickHull@local@@QAEXI@Z 1001f4d0 f   QuickHullConvexHullLib.obj
 0001:0001e640       ?recreate@?$Array@PAUQuickHullFace@local@@V?$ReflectionAllocator@PAUQuickHullFace@local@@@shdfnd@physx@@@shdfnd@physx@@IAEXI@Z 1001f640 f i QuickHullConvexHullLib.obj
 0001:0001e6a0       ?recreate@?$Array@PAUQuickHullHalfEdge@local@@V?$ReflectionAllocator@PAUQuickHullHalfEdge@local@@@shdfnd@physx@@@shdfnd@physx@@IAEXI@Z 1001f6a0 f i QuickHullConvexHullLib.obj
 0001:0001e700       ?recreate@?$Array@PAUQuickHullVertex@local@@V?$ReflectionAllocator@PAUQuickHullVertex@local@@@shdfnd@physx@@@shdfnd@physx@@IAEXI@Z 1001f700 f i QuickHullConvexHullLib.obj
 0001:0001e760       ?recreate@?$Array@UExpandPoint@local@@V?$ReflectionAllocator@UExpandPoint@local@@@shdfnd@physx@@@shdfnd@physx@@IAEXI@Z 1001f760 f i QuickHullConvexHullLib.obj
 0001:0001f410       ?computeVolumeIntegralsEberly@physx@@YA_NABVPxConvexMeshDesc@1@MAAUPxIntegrals@1@ABVPxVec3@1@@Z 10020410 f   VolumeIntegration.obj
 0001:0001f460       ?computeVolumeIntegralsEberlySIMD@physx@@YA_NABVPxConvexMeshDesc@1@MAAUPxIntegrals@1@ABVPxVec3@1@@Z 10020460 f   VolumeIntegration.obj
 0001:0001faf0       ?cookingDelayHook@@YGP6GHXZIPAUDelayLoadInfo@@@Z 10020af0 f   WindowsCookingDelayLoadHook.obj
 0001:0001fb90       _PxSetPhysXCookingDelayLoadHook 10020b90 f   WindowsCookingDelayLoadHook.obj
 0001:0001fb9a       __imp_load_??0RadixSortBuffered@Cm@physx@@QAE@XZ 10020b9a f   PhysXCommon_32:PhysXCommon_32.dll
 0001:0001fba4       ??0RadixSortBuffered@Cm@physx@@QAE@XZ 10020ba4 f   PhysXCommon_32:PhysXCommon_32.dll
 0001:0001fbaa       __tailMerge_physxcommon_32_dll 10020baa     PhysXCommon_32:PhysXCommon_32.dll
 0001:0001fbbb       __imp_load_??1RadixSortBuffered@Cm@physx@@UAE@XZ 10020bbb f   PhysXCommon_32:PhysXCommon_32.dll
 0001:0001fbc5       ??1RadixSortBuffered@Cm@physx@@UAE@XZ 10020bc5 f   PhysXCommon_32:PhysXCommon_32.dll
 0001:0001fbcb       __imp_load_?Sort@RadixSortBuffered@Cm@physx@@QAEAAV123@PBIIW4RadixHint@23@@Z 10020bcb f   PhysXCommon_32:PhysXCommon_32.dll
 0001:0001fbd5       ?Sort@RadixSortBuffered@Cm@physx@@QAEAAV123@PBIIW4RadixHint@23@@Z 10020bd5 f   PhysXCommon_32:PhysXCommon_32.dll
 0001:0001fbdb       __imp_load_??0HeightField@Gu@physx@@QAE@PAVGuMeshFactory@2@@Z 10020bdb f   PhysXCommon_32:PhysXCommon_32.dll
 0001:0001fbe5       ??0HeightField@Gu@physx@@QAE@PAVGuMeshFactory@2@@Z 10020be5 f   PhysXCommon_32:PhysXCommon_32.dll
 0001:0001fbeb       __imp_load_?loadFromDesc@HeightField@Gu@physx@@QAE_NABVPxHeightFieldDesc@3@@Z 10020beb f   PhysXCommon_32:PhysXCommon_32.dll
 0001:0001fbf5       ?loadFromDesc@HeightField@Gu@physx@@QAE_NABVPxHeightFieldDesc@3@@Z 10020bf5 f   PhysXCommon_32:PhysXCommon_32.dll
 0001:0001fbfb       __imp_load_?computeCellCoordinates@HeightField@Gu@physx@@QBEIMMAAM0@Z 10020bfb f   PhysXCommon_32:PhysXCommon_32.dll
 0001:0001fc05       ?computeCellCoordinates@HeightField@Gu@physx@@QBEIMMAAM0@Z 10020c05 f   PhysXCommon_32:PhysXCommon_32.dll
 0001:0001fc0b       __imp_load_?releaseMemory@HeightField@Gu@physx@@QAEXXZ 10020c0b f   PhysXCommon_32:PhysXCommon_32.dll
 0001:0001fc15       ?releaseMemory@HeightField@Gu@physx@@QAEXXZ 10020c15 f   PhysXCommon_32:PhysXCommon_32.dll
 0001:0001fc1b       __imp_load_??1HeightField@Gu@physx@@UAE@XZ 10020c1b f   PhysXCommon_32:PhysXCommon_32.dll
 0001:0001fc25       ??1HeightField@Gu@physx@@UAE@XZ 10020c25 f   PhysXCommon_32:PhysXCommon_32.dll
 0001:0001fc2b       __imp_load_??0NodeAllocator@Gu@physx@@QAE@XZ 10020c2b f   PhysXCommon_32:PhysXCommon_32.dll
 0001:0001fc35       ??0NodeAllocator@Gu@physx@@QAE@XZ 10020c35 f   PhysXCommon_32:PhysXCommon_32.dll
 0001:0001fc3b       __imp_load_??1NodeAllocator@Gu@physx@@QAE@XZ 10020c3b f   PhysXCommon_32:PhysXCommon_32.dll
 0001:0001fc45       ??1NodeAllocator@Gu@physx@@QAE@XZ 10020c45 f   PhysXCommon_32:PhysXCommon_32.dll
 0001:0001fc4b       __imp_load_?release@NodeAllocator@Gu@physx@@QAEXXZ 10020c4b f   PhysXCommon_32:PhysXCommon_32.dll
 0001:0001fc55       ?release@NodeAllocator@Gu@physx@@QAEXXZ 10020c55 f   PhysXCommon_32:PhysXCommon_32.dll
 0001:0001fc5b       __imp_load_?buildAABBTree@Gu@physx@@YA_NAAVAABBTreeBuildParams@12@AAVNodeAllocator@12@AAUBuildStats@12@AAPAI@Z 10020c5b f   PhysXCommon_32:PhysXCommon_32.dll
 0001:0001fc65       ?buildAABBTree@Gu@physx@@YA_NAAVAABBTreeBuildParams@12@AAVNodeAllocator@12@AAUBuildStats@12@AAPAI@Z 10020c65 f   PhysXCommon_32:PhysXCommon_32.dll
 0001:0001fc6b       __imp_load_?writeDword@physx@@YAXI_NAAVPxOutputStream@1@@Z 10020c6b f   PhysXCommon_32:PhysXCommon_32.dll
 0001:0001fc75       ?writeDword@physx@@YAXI_NAAVPxOutputStream@1@@Z 10020c75 f   PhysXCommon_32:PhysXCommon_32.dll
 0001:0001fc7b       __imp_load_?writeFloatBuffer@physx@@YAXPBMI_NAAVPxOutputStream@1@@Z 10020c7b f   PhysXCommon_32:PhysXCommon_32.dll
 0001:0001fc85       ?writeFloatBuffer@physx@@YAXPBMI_NAAVPxOutputStream@1@@Z 10020c85 f   PhysXCommon_32:PhysXCommon_32.dll
 0001:0001fc8b       __imp_load_?writeHeader@physx@@YA_NCCCCI_NAAVPxOutputStream@1@@Z 10020c8b f   PhysXCommon_32:PhysXCommon_32.dll
 0001:0001fc95       ?writeHeader@physx@@YA_NCCCCI_NAAVPxOutputStream@1@@Z 10020c95 f   PhysXCommon_32:PhysXCommon_32.dll
 0001:0001fc9b       __imp_load_?writeWord@physx@@YAXG_NAAVPxOutputStream@1@@Z 10020c9b f   PhysXCommon_32:PhysXCommon_32.dll
 0001:0001fca5       ?writeWord@physx@@YAXG_NAAVPxOutputStream@1@@Z 10020ca5 f   PhysXCommon_32:PhysXCommon_32.dll
 0001:0001fcab       __imp_load_?writeFloat@physx@@YAXM_NAAVPxOutputStream@1@@Z 10020cab f   PhysXCommon_32:PhysXCommon_32.dll
 0001:0001fcb5       ?writeFloat@physx@@YAXM_NAAVPxOutputStream@1@@Z 10020cb5 f   PhysXCommon_32:PhysXCommon_32.dll
 0001:0001fcbb       __imp_load_?computeBoundsAroundVertices@Gu@physx@@YAXAAVPxBounds3@2@IPIBVPxVec3@2@@Z 10020cbb f   PhysXCommon_32:PhysXCommon_32.dll
 0001:0001fcc5       ?computeBoundsAroundVertices@Gu@physx@@YAXAAVPxBounds3@2@IPIBVPxVec3@2@@Z 10020cc5 f   PhysXCommon_32:PhysXCommon_32.dll
 0001:0001fccb       __imp_load_??0SourceMesh@Gu@physx@@QAE@XZ 10020ccb f   PhysXCommon_32:PhysXCommon_32.dll
 0001:0001fcd5       ??0SourceMesh@Gu@physx@@QAE@XZ 10020cd5 f   PhysXCommon_32:PhysXCommon_32.dll
 0001:0001fcdb       __imp_load_??1SourceMesh@Gu@physx@@QAE@XZ 10020cdb f   PhysXCommon_32:PhysXCommon_32.dll
 0001:0001fce5       ??1SourceMesh@Gu@physx@@QAE@XZ 10020ce5 f   PhysXCommon_32:PhysXCommon_32.dll
 0001:0001fceb       __imp_load_??0BV4Tree@Gu@physx@@QAE@XZ 10020ceb f   PhysXCommon_32:PhysXCommon_32.dll
 0001:0001fcf5       ??0BV4Tree@Gu@physx@@QAE@XZ 10020cf5 f   PhysXCommon_32:PhysXCommon_32.dll
 0001:0001fcfb       __imp_load_??1BV4Tree@Gu@physx@@QAE@XZ 10020cfb f   PhysXCommon_32:PhysXCommon_32.dll
 0001:0001fd05       ??1BV4Tree@Gu@physx@@QAE@XZ 10020d05 f   PhysXCommon_32:PhysXCommon_32.dll
 0001:0001fd0b       __imp_load_??0BV32Tree@Gu@physx@@QAE@XZ 10020d0b f   PhysXCommon_32:PhysXCommon_32.dll
 0001:0001fd15       ??0BV32Tree@Gu@physx@@QAE@XZ 10020d15 f   PhysXCommon_32:PhysXCommon_32.dll
 0001:0001fd1b       __imp_load_??1BV32Tree@Gu@physx@@QAE@XZ 10020d1b f   PhysXCommon_32:PhysXCommon_32.dll
 0001:0001fd25       ??1BV32Tree@Gu@physx@@QAE@XZ 10020d25 f   PhysXCommon_32:PhysXCommon_32.dll
 0001:0001fd2b       __imp_load_?writeWordBuffer@physx@@YAXPBGI_NAAVPxOutputStream@1@@Z 10020d2b f   PhysXCommon_32:PhysXCommon_32.dll
 0001:0001fd35       ?writeWordBuffer@physx@@YAXPBGI_NAAVPxOutputStream@1@@Z 10020d35 f   PhysXCommon_32:PhysXCommon_32.dll
 0001:0001fd3b       __imp_load_?computeMaxIndex@physx@@YAIPBII@Z 10020d3b f   PhysXCommon_32:PhysXCommon_32.dll
 0001:0001fd45       ?computeMaxIndex@physx@@YAIPBII@Z 10020d45 f   PhysXCommon_32:PhysXCommon_32.dll
 0001:0001fd4b       __imp_load_?storeIndices@physx@@YAXIIPBIAAVPxOutputStream@1@_N@Z 10020d4b f   PhysXCommon_32:PhysXCommon_32.dll
 0001:0001fd55       ?storeIndices@physx@@YAXIIPBIAAVPxOutputStream@1@_N@Z 10020d55 f   PhysXCommon_32:PhysXCommon_32.dll
 0001:0001fd5b       __imp_load_?BuildBV4Ex@Gu@physx@@YA_NAAVBV4Tree@12@AAVSourceMesh@12@MI@Z 10020d5b f   PhysXCommon_32:PhysXCommon_32.dll
 0001:0001fd65       ?BuildBV4Ex@Gu@physx@@YA_NAAVBV4Tree@12@AAVSourceMesh@12@MI@Z 10020d65 f   PhysXCommon_32:PhysXCommon_32.dll
 0001:0001fd6b       __imp_load_?BuildBV32Ex@Gu@physx@@YA_NAAVBV32Tree@12@AAVSourceMesh@12@MI@Z 10020d6b f   PhysXCommon_32:PhysXCommon_32.dll
 0001:0001fd75       ?BuildBV32Ex@Gu@physx@@YA_NAAVBV32Tree@12@AAVSourceMesh@12@MI@Z 10020d75 f   PhysXCommon_32:PhysXCommon_32.dll
 0001:0001fd7b       __imp_load_?computeMaxIndex@physx@@YAGPBGI@Z 10020d7b f   PhysXCommon_32:PhysXCommon_32.dll
 0001:0001fd85       ?computeMaxIndex@physx@@YAGPBGI@Z 10020d85 f   PhysXCommon_32:PhysXCommon_32.dll
 0001:0001fd8b       __imp_load_?WriteHeader@Gu@physx@@YA_NEEEEI_NAAVPxOutputStream@2@@Z 10020d8b f   PhysXCommon_32:PhysXCommon_32.dll
 0001:0001fd95       ?WriteHeader@Gu@physx@@YA_NEEEEI_NAAVPxOutputStream@2@@Z 10020d95 f   PhysXCommon_32:PhysXCommon_32.dll
 0001:0001fd9b       __imp_load_?StoreIndices@Gu@physx@@YAXGIPBGAAVPxOutputStream@2@_N@Z 10020d9b f   PhysXCommon_32:PhysXCommon_32.dll
 0001:0001fda5       ?StoreIndices@Gu@physx@@YAXGIPBGAAVPxOutputStream@2@_N@Z 10020da5 f   PhysXCommon_32:PhysXCommon_32.dll
 0001:0001fdab       __imp_load_?CreateOffsets@BigConvexData@physx@@IAEXXZ 10020dab f   PhysXCommon_32:PhysXCommon_32.dll
 0001:0001fdb5       ?CreateOffsets@BigConvexData@physx@@IAEXXZ 10020db5 f   PhysXCommon_32:PhysXCommon_32.dll
 0001:0001fdbb       __imp_load_?computeOBBPoints@Gu@physx@@YAXPIAVPxVec3@2@ABV32@1111@Z 10020dbb f   PhysXCommon_32:PhysXCommon_32.dll
 0001:0001fdc5       ?computeOBBPoints@Gu@physx@@YAXPIAVPxVec3@2@ABV32@1111@Z 10020dc5 f   PhysXCommon_32:PhysXCommon_32.dll
 0001:0001fdcb       __imp_load_??0BigConvexData@physx@@QAE@XZ 10020dcb f   PhysXCommon_32:PhysXCommon_32.dll
 0001:0001fdd5       ??0BigConvexData@physx@@QAE@XZ 10020dd5 f   PhysXCommon_32:PhysXCommon_32.dll
 0001:0001fddb       __imp_load_??1BigConvexData@physx@@QAE@XZ 10020ddb f   PhysXCommon_32:PhysXCommon_32.dll
 0001:0001fde5       ??1BigConvexData@physx@@QAE@XZ 10020de5 f   PhysXCommon_32:PhysXCommon_32.dll
 0001:0001fdeb       __imp_load__PxGetFoundation 10020deb f   PhysXFoundation_32:PhysXFoundation_32.dll
 0001:0001fdf5       _PxGetFoundation           10020df5 f   PhysXFoundation_32:PhysXFoundation_32.dll
 0001:0001fdfb       __tailMerge_physxfoundation_32_dll 10020dfb     PhysXFoundation_32:PhysXFoundation_32.dll
 0001:0001fe0c       __imp_load_?getAllocator@shdfnd@physx@@YAAAVPxAllocatorCallback@2@XZ 10020e0c f   PhysXFoundation_32:PhysXFoundation_32.dll
 0001:0001fe16       ?getAllocator@shdfnd@physx@@YAAAVPxAllocatorCallback@2@XZ 10020e16 f   PhysXFoundation_32:PhysXFoundation_32.dll
 0001:0001fe1c       __imp_load_?getInstance@Foundation@shdfnd@physx@@SAAAV123@XZ 10020e1c f   PhysXFoundation_32:PhysXFoundation_32.dll
 0001:0001fe26       ?getInstance@Foundation@shdfnd@physx@@SAAAV123@XZ 10020e26 f   PhysXFoundation_32:PhysXFoundation_32.dll
 0001:0001fe2c       __imp_load_?error@Foundation@shdfnd@physx@@QAAXW4Enum@PxErrorCode@3@PBDH1ZZ 10020e2c f   PhysXFoundation_32:PhysXFoundation_32.dll
 0001:0001fe36       ?error@Foundation@shdfnd@physx@@QAAXW4Enum@PxErrorCode@3@PBDH1ZZ 10020e36 f   PhysXFoundation_32:PhysXFoundation_32.dll
 0001:0001fe3c       __imp_load_?incRefCount@Foundation@shdfnd@physx@@SAXXZ 10020e3c f   PhysXFoundation_32:PhysXFoundation_32.dll
 0001:0001fe46       ?incRefCount@Foundation@shdfnd@physx@@SAXXZ 10020e46 f   PhysXFoundation_32:PhysXFoundation_32.dll
 0001:0001fe4c       __imp_load_?decRefCount@Foundation@shdfnd@physx@@SAXXZ 10020e4c f   PhysXFoundation_32:PhysXFoundation_32.dll
 0001:0001fe56       ?decRefCount@Foundation@shdfnd@physx@@SAXXZ 10020e56 f   PhysXFoundation_32:PhysXFoundation_32.dll
 0001:0001fe5c       __imp_load_??0FPUGuard@shdfnd@physx@@QAE@XZ 10020e5c f   PhysXFoundation_32:PhysXFoundation_32.dll
 0001:0001fe66       ??0FPUGuard@shdfnd@physx@@QAE@XZ 10020e66 f   PhysXFoundation_32:PhysXFoundation_32.dll
 0001:0001fe6c       __imp_load_??1FPUGuard@shdfnd@physx@@QAE@XZ 10020e6c f   PhysXFoundation_32:PhysXFoundation_32.dll
 0001:0001fe76       ??1FPUGuard@shdfnd@physx@@QAE@XZ 10020e76 f   PhysXFoundation_32:PhysXFoundation_32.dll
 0001:0001fe7c       __imp_load_?allocate@TempAllocator@shdfnd@physx@@QAEPAXIPBDH@Z 10020e7c f   PhysXFoundation_32:PhysXFoundation_32.dll
 0001:0001fe86       ?allocate@TempAllocator@shdfnd@physx@@QAEPAXIPBDH@Z 10020e86 f   PhysXFoundation_32:PhysXFoundation_32.dll
 0001:0001fe8c       __imp_load_?deallocate@TempAllocator@shdfnd@physx@@QAEXPAX@Z 10020e8c f   PhysXFoundation_32:PhysXFoundation_32.dll
 0001:0001fe96       ?deallocate@TempAllocator@shdfnd@physx@@QAEXPAX@Z 10020e96 f   PhysXFoundation_32:PhysXFoundation_32.dll
 0001:0001fe9c       __imp_load_?PxDiagonalize@physx@@YA?AVPxVec3@1@ABVPxMat33@1@AAVPxQuat@1@@Z 10020e9c f   PhysXFoundation_32:PhysXFoundation_32.dll
 0001:0001fea6       ?PxDiagonalize@physx@@YA?AVPxVec3@1@ABVPxMat33@1@AAVPxQuat@1@@Z 10020ea6 f   PhysXFoundation_32:PhysXFoundation_32.dll
 0001:0001feac       ?DloadAcquireSectionWriteAccess@@YGXXZ 10020eac f i Delayimp:delayhlp.obj
 0001:0001fedf       ?DloadGetSRWLockFunctionPointers@@YGEXZ 10020edf f i Delayimp:delayhlp.obj
 0001:0001ff52       ?DloadLock@@YGXXZ          10020f52 f i Delayimp:delayhlp.obj
 0001:0001ff91       ?DloadMakePermanentImageCommit@@YGXPAXK@Z 10020f91 f i Delayimp:delayhlp.obj
 0001:00020000       ?DloadObtainSection@@YGPAXPAK0@Z 10021000 f i Delayimp:delayhlp.obj
 0001:0002007b       ?DloadProtectSection@@YGXKPAK@Z 1002107b f i Delayimp:delayhlp.obj
 0001:000200e9       ?DloadReleaseSectionWriteAccess@@YGXXZ 100210e9 f i Delayimp:delayhlp.obj
 0001:0002011f       ?DloadUnlock@@YGXXZ        1002111f f i Delayimp:delayhlp.obj
 0001:0002014b       ___delayLoadHelper2@8      1002114b f   Delayimp:delayhlp.obj
 0001:000203ba       ??3@YAXPAXI@Z              100213ba f   LIBCMT:delete_scalar_size.obj
 0001:000203c8       ??_V@YAXPAXI@Z             100213c8 f   LIBCMT:delete_array_size.obj
 0001:000203d6       ??_Gtype_info@@UAEPAXI@Z   100213d6 f i LIBCMT:std_type_info_static.obj
 0001:000203d6       ??_Etype_info@@UAEPAXI@Z   100213d6 f i LIBCMT:std_type_info_static.obj
 0001:000203f9       ?__scrt_initialize_type_info@@YAXXZ 100213f9 f   LIBCMT:tncleanup.obj
 0001:00020405       ?__scrt_uninitialize_type_info@@YAXXZ 10021405 f   LIBCMT:tncleanup.obj
 0001:00020420       __alloca_probe_16          10021420 f   LIBCMT:alloca16.obj
 0001:00020436       __alloca_probe_8           10021436     LIBCMT:alloca16.obj
 0001:0002044c       ??3@YAXPAX@Z               1002144c f   LIBCMT:delete_scalar.obj
 0001:00020451       ??_V@YAXPAX@Z              10021451 f   LIBCMT:delete_array.obj
 0001:00020460       __alloca_probe             10021460 f   LIBCMT:chkstk.obj
 0001:00020460       __chkstk                   10021460 f   LIBCMT:chkstk.obj
 0001:00020490       __ftoui3                   10021490 f   LIBCMT:ftol3.obj
 0001:000204e0       ___vdecl_sinf4             100214e0 f   LIBCMT:svml_ssinf4_dispatch.obj
 0001:00020500       ___libm_sse2_sincosf_      10021500 f   LIBCMT:svml_ssinf4_dispatch.obj
 0001:0002088a       __DllMainCRTStartup@12     1002188a f   LIBCMT:dll_dllmain.obj
 0001:000208ad       ___isa_available_init      100218ad f   LIBCMT:cpu_disp.obj
 0001:00020a80       ___sse2_sinf4@@16          10021a80 f   LIBCMT:svml_ssinf4_sse2.obj
 0001:00020c40       ___sse4_sinf4@@16          10021c40 f   LIBCMT:svml_ssinf4_sse4.obj
 0001:00021322       ___security_init_cookie    10022322 f   LIBCMT:gs_support.obj
 0001:0002136d       _DllMain@12                1002236d f   LIBCMT:dll_dllmain_stub.obj
 0001:00021373       ___local_stdio_printf_options 10022373 f i LIBCMT:default_local_stdio_options.obj
 0001:00021379       ___local_stdio_scanf_options 10022379 f i LIBCMT:default_local_stdio_options.obj
 0001:0002137f       ___scrt_initialize_default_local_stdio_options 1002237f f   LIBCMT:default_local_stdio_options.obj
 0001:000213e0       ___scrt_acquire_startup_lock 100223e0 f   LIBCMT:utility.obj
 0001:00021412       ___scrt_dllmain_after_initialize_c 10022412 f   LIBCMT:utility.obj
 0001:0002143d       ___scrt_dllmain_before_initialize_c 1002243d f   LIBCMT:utility.obj
 0001:0002144b       ___scrt_dllmain_crt_thread_attach 1002244b f   LIBCMT:utility.obj
 0001:0002146a       ___scrt_dllmain_crt_thread_detach 1002246a f   LIBCMT:utility.obj
 0001:00021477       ___scrt_dllmain_exception_filter 10022477 f   LIBCMT:utility.obj
 0001:000214ab       ___scrt_dllmain_uninitialize_c 100224ab f   LIBCMT:utility.obj
 0001:000214ce       ___scrt_dllmain_uninitialize_critical 100224ce f   LIBCMT:utility.obj
 0001:000214db       ___scrt_initialize_crt     100224db f   LIBCMT:utility.obj
 0001:00021514       ___scrt_initialize_onexit_tables 10022514 f   LIBCMT:utility.obj
 0001:0002159b       ___scrt_is_nonwritable_in_current_image 1002259b f   LIBCMT:utility.obj
 0001:0002162f       ___scrt_release_startup_lock 1002262f f   LIBCMT:utility.obj
 0001:0002164c       ___scrt_uninitialize_crt   1002264c f   LIBCMT:utility.obj
 0001:00021674       ___scrt_get_dyn_tls_init_callback 10022674 f   LIBCMT:dyn_tls_init.obj
 0001:0002167a       ___scrt_fastfail           1002267a f   LIBCMT:utility_desktop.obj
 0001:00021795       __crt_debugger_hook        10022795 f   LIBCMT:utility_desktop.obj
 0001:0002179d       __RTC_Initialize           1002279d f   LIBCMT:initsect.obj
 0001:000217c9       __RTC_Terminate            100227c9 f   LIBCMT:initsect.obj
 0001:00021800       __SEH_prolog4              10022800 f   LIBCMT:sehprolg4.obj
 0001:00021850       ___common_sin_reduction_LA 10022850 f   LIBCMT:svml_dtrig.obj
 0001:00021be0       ___common_ssin_cout_rare   10022be0 f   LIBCMT:svml_s_sin_cout.obj
 0001:00021c59       __get_startup_argv_mode    10022c59 f   LIBCMT:argv_mode.obj
 0001:00021c59       ?raw_length@charNode@@UBEHXZ 10022c59 f   libvcruntime:undname.obj
 0001:00021c59       ?length@charNode@@UBEHXZ   10022c59 f   libvcruntime:undname.obj
 0001:00021c5d       ___scrt_is_ucrt_dll_in_use 10022c5d f   LIBCMT:ucrt_detection.obj
 0001:00021c69       @__security_check_cookie@4 10022c69 f   LIBCMT:secchk.obj
 0001:00021c77       ___raise_securityfailure   10022c77 f   LIBCMT:gs_report.obj
 0001:00021c9f       ___report_gsfailure        10022c9f f   LIBCMT:gs_report.obj
 0001:00021d99       __get_purecall_handler     10022d99 f   libvcruntime:purevirt.obj
 0001:00021d9f       __purecall                 10022d9f f   libvcruntime:purevirt.obj
 0001:00021dc4       ___std_type_info_compare   10022dc4 f   libvcruntime:std_type_info.obj
 0001:00021e00       ___std_type_info_destroy_list 10022e00 f   libvcruntime:std_type_info.obj
 0001:00021e23       ___std_type_info_name      10022e23 f   libvcruntime:std_type_info.obj
 0001:00021ef0       _memset                    10022ef0 f   libvcruntime:memset.obj
 0001:00022050       _memcpy                    10023050 f   libvcruntime:memcpy.obj
 0001:00022050       _memmove                   10023050 f   libvcruntime:memmove.obj
 0001:000225d0       _strstr                    100235d0 f   libvcruntime:strstr.obj
 0001:00022880       __except_handler4          10023880 f   libvcruntime:chandler4.obj
 0001:000229de       ___vcrt_initialize         100239de f   libvcruntime:initialization.obj
 0001:000229fd       ___vcrt_thread_attach      100239fd f   libvcruntime:initialization.obj
 0001:00022a08       ___vcrt_thread_detach      10023a08 f   libvcruntime:initialization.obj
 0001:00022a13       ___vcrt_uninitialize       10023a13 f   libvcruntime:initialization.obj
 0001:00022a2a       ___vcrt_uninitialize_critical 10023a2a f   libvcruntime:initialization.obj
 0001:00022a32       ___DestructExceptionObject 10023a32 f   libvcruntime:ehhelpers.obj
 0001:00022ad3       ?_CallMemberFunction0@@YGXQAX0@Z 10023ad3 f i libvcruntime:ehhelpers.obj
 0001:00022b38       __IsExceptionObjectToBeDestroyed 10023b38 f   libvcruntime:ehhelpers.obj
 0001:00022b5e       ___AdjustPointer           10023b5e f   libvcruntime:ehhelpers.obj
 0001:00022b83       ___FrameUnwindFilter       10023b83 f   libvcruntime:ehhelpers.obj
 0001:00022bd9       ??$?0$00@DName@@QAE@PBDU?$StringLifeSelector@$00@@@Z 10023bd9 f i libvcruntime:undname.obj
 0001:00022c0c       ??$?0$01@DName@@QAE@PBDU?$StringLifeSelector@$01@@@Z 10023c0c f i libvcruntime:undname.obj
 0001:00022c0c       ??$?0$0A@@DName@@QAE@PBDU?$StringLifeSelector@$0A@@@@Z 10023c0c f i libvcruntime:undname.obj
 0001:00022c3f       ??$?0$01@pcharNode@@QAE@PBDHU?$StringLifeSelector@$01@@@Z 10023c3f f i libvcruntime:undname.obj
 0001:00022c3f       ??$?0$0A@@pcharNode@@QAE@PBDHU?$StringLifeSelector@$0A@@@@Z 10023c3f f i libvcruntime:undname.obj
 0001:00022c7f       ??$append@VcharNode@@@DName@@AAEXPBVcharNode@@@Z 10023c7f f i libvcruntime:undname.obj
 0001:00022c7f       ??$append@VDNameStatusNode@@@DName@@AAEXPBVDNameStatusNode@@@Z 10023c7f f i libvcruntime:undname.obj
 0001:00022c7f       ??$append@VDNameNode@@@DName@@AAEXPBVDNameNode@@@Z 10023c7f f i libvcruntime:undname.obj
 0001:00022c7f       ??$append@VpcharNode@@@DName@@AAEXPBVpcharNode@@@Z 10023c7f f i libvcruntime:undname.obj
 0001:00022cc0       ??$doPchar@$00@DName@@AAEXPBDH@Z 10023cc0 f i libvcruntime:undname.obj
 0001:00022d2b       ??$doPchar@$0A@@DName@@AAEXPBDH@Z 10023d2b f i libvcruntime:undname.obj
 0001:00022d2b       ??$doPchar@$01@DName@@AAEXPBDH@Z 10023d2b f i libvcruntime:undname.obj
 0001:00022d9c       ??$forward@_K@std@@YA$$QA_KAA_K@Z 10023d9c f i libvcruntime:undname.obj
 0001:00022da4       ??0DName@@QAE@AAPBDD@Z     10023da4 f   libvcruntime:undname.obj
 0001:00022e24       ??0DName@@QAE@ABUStringLiteral@@@Z 10023e24 f   libvcruntime:undname.obj
 0001:00022e4b       ??0DName@@QAE@PAV0@@Z      10023e4b f   libvcruntime:undname.obj
 0001:00022e92       ??0DName@@QAE@W4DNameStatus@@@Z 10023e92 f   libvcruntime:undname.obj
 0001:00022ed2       ??0DName@@QAE@_J@Z         10023ed2 f   libvcruntime:undname.obj
 0001:00022f5e       ??0DName@@QAE@_K@Z         10023f5e f   libvcruntime:undname.obj
 0001:00022fc4       ??0UnDecorator@@QAE@PBDP6APADJ@ZK@Z 10023fc4 f i libvcruntime:undname.obj
 0001:00023010       ??0pDNameNode@@QAE@PAVDName@@@Z 10024010 f   libvcruntime:undname.obj
 0001:0002303f       ??2@YAPAXIAAV_HeapManager@@H@Z 1002403f f   libvcruntime:undname.obj
 0001:0002305e       ??4DName@@QAEAAV0@ABUStringLiteral@@@Z 1002405e f   libvcruntime:undname.obj
 0001:0002307f       ??4DName@@QAEAAV0@W4DNameStatus@@@Z 1002407f f   libvcruntime:undname.obj
 0001:000230b1       ??AReplicator@@QBE?AVDName@@H@Z 100240b1 f   libvcruntime:undname.obj
 0001:000230f7       ??H@YA?AVDName@@ABUStringLiteral@@ABV0@@Z 100240f7 f i libvcruntime:undname.obj
 0001:00023119       ??H@YA?AVDName@@DABV0@@Z   10024119 f i libvcruntime:undname.obj
 0001:00023144       ??H@YA?AVDName@@W4DNameStatus@@ABV0@@Z 10024144 f i libvcruntime:undname.obj
 0001:00023166       ??HDName@@QBE?AV0@ABUStringLiteral@@@Z 10024166 f   libvcruntime:undname.obj
 0001:00023188       ??HDName@@QBE?AV0@ABV0@@Z  10024188 f   libvcruntime:undname.obj
 0001:000231aa       ??HDName@@QBE?AV0@D@Z      100241aa f   libvcruntime:undname.obj
 0001:000231cc       ??HDName@@QBE?AV0@W4DNameStatus@@@Z 100241cc f   libvcruntime:undname.obj
 0001:000231ee       ??YDName@@QAEAAV0@ABUStringLiteral@@@Z 100241ee f   libvcruntime:undname.obj
 0001:00023246       ??YDName@@QAEAAV0@ABV0@@Z  10024246 f   libvcruntime:undname.obj
 0001:0002329d       ??YDName@@QAEAAV0@D@Z      1002429d f   libvcruntime:undname.obj
 0001:000232f2       ??YDName@@QAEAAV0@W4DNameStatus@@@Z 100242f2 f   libvcruntime:undname.obj
 0001:00023332       ??YReplicator@@QAEAAV0@ABVDName@@@Z 10024332 f   libvcruntime:undname.obj
 0001:00023370       ??_5DName@@QAEAAV0@ABV0@@Z 10024370 f   libvcruntime:undname.obj
 0001:0002338c       ?Destructor@_HeapManager@@QAEXXZ 1002438c f i libvcruntime:undname.obj
 0001:000233c4       ?UScore@UnDecorator@@SA?AUStringLiteral@@W4Tokens@@@Z 100243c4 f   libvcruntime:undname.obj
 0001:000233eb       ?composeDeclaration@UnDecorator@@CA?AVDName@@ABV2@@Z 100243eb f i libvcruntime:undname.obj
 0001:0002411e       ?doPchar@DName@@AAEXD@Z    1002511e f   libvcruntime:undname.obj
 0001:00024156       ?getAddressOf@UnDecorator@@CA?AVDName@@XZ 10025156 f   libvcruntime:undname.obj
 0001:000241c9       ?getArgumentList@UnDecorator@@CA?AVDName@@XZ 100251c9 f   libvcruntime:undname.obj
 0001:000242d6       ?getArgumentTypes@UnDecorator@@CA?AVDName@@XZ 100252d6 f   libvcruntime:undname.obj
 0001:000243ef       ?getArrayAccess@UnDecorator@@CA?AVDName@@XZ 100253ef f   libvcruntime:undname.obj
 0001:0002446e       ?getArrayObject@UnDecorator@@CA?AVDName@@XZ 1002546e f   libvcruntime:undname.obj
 0001:00024510       ?getArrayType@UnDecorator@@CA?AVDName@@ABV2@@Z 10025510 f i libvcruntime:undname.obj
 0001:000246ad       ?getBasedType@UnDecorator@@CA?AVDName@@XZ 100256ad f   libvcruntime:undname.obj
 0001:00024768       ?getBasicDataType@UnDecorator@@CA?AVDName@@ABV2@@Z 10025768 f   libvcruntime:undname.obj
 0001:00024c9c       ?getCallingConvention@UnDecorator@@CA?AVDName@@XZ 10025c9c f   libvcruntime:undname.obj
 0001:00024d7a       ?getDataIndirectType@UnDecorator@@CA?AVDName@@ABV2@W4IndirectionKind@@0H@Z 10025d7a f   libvcruntime:undname.obj
 0001:00025410       ?getDataIndirectType@UnDecorator@@CA?AVDName@@XZ 10026410 f i libvcruntime:undname.obj
 0001:0002543e       ?getDataType@UnDecorator@@CA?AVDName@@PAV2@@Z 1002643e f   libvcruntime:undname.obj
 0001:00025515       ?getDecoratedName@UnDecorator@@CA?AVDName@@XZ 10026515 f   libvcruntime:undname.obj
 0001:0002577f       ?getDimension@UnDecorator@@CA?AVDName@@_N@Z 1002677f f   libvcruntime:undname.obj
 0001:00025896       ?getDispatchTarget@UnDecorator@@CA?AVDName@@XZ 10026896 f   libvcruntime:undname.obj
 0001:000258ea       ?getECSUDataType@UnDecorator@@CA?AVDName@@XZ 100268ea f   libvcruntime:undname.obj
 0001:00025a7a       ?getEnumType@UnDecorator@@CA?AVDName@@XZ 10026a7a f i libvcruntime:undname.obj
 0001:00025b9a       ?getExtendedDataIndirectType@UnDecorator@@CA?AVDName@@AAW4IndirectionKind@@AA_NH@Z 10026b9a f   libvcruntime:undname.obj
 0001:00025d4d       ?getExternalDataType@UnDecorator@@CA?AVDName@@ABV2@@Z 10026d4d f i libvcruntime:undname.obj
 0001:00025db2       ?getFloatingPoint@UnDecorator@@CA?AVDName@@H@Z 10026db2 f   libvcruntime:undname.obj
 0001:00025ea6       ?getFunctionIndirectType@UnDecorator@@CA?AVDName@@ABV2@@Z 10026ea6 f   libvcruntime:undname.obj
 0001:0002625f       ?getLastChar@DName@@QBEDXZ 1002725f f i libvcruntime:undname.obj
 0001:0002627f       ?getLastChar@DNameStatusNode@@UBEDXZ 1002727f f i libvcruntime:undname.obj
 0001:0002628b       ?getLastChar@charNode@@UBEDXZ 1002728b f i libvcruntime:undname.obj
 0001:0002628f       ?getLastChar@pDNameNode@@UBEDXZ 1002728f f i libvcruntime:undname.obj
 0001:0002629d       ?getLastChar@pairNode@@UBEDXZ 1002729d f i libvcruntime:undname.obj
 0001:000262d2       ?getLastChar@pcharNode@@UBEDXZ 100272d2 f i libvcruntime:undname.obj
 0001:000262e4       ?getLexicalFrame@UnDecorator@@CA?AVDName@@XZ 100272e4 f i libvcruntime:undname.obj
 0001:00026315       ?getMemberAccess@UnDecorator@@CA?AVDName@@XZ 10027315 f   libvcruntime:undname.obj
 0001:00026390       ?getMemoryWithBuffer@_HeapManager@@QAEPAXI@Z 10027390 f   libvcruntime:undname.obj
 0001:000263fa       ?getMemoryWithoutBuffer@_HeapManager@@QAEPAXI@Z 100273fa f   libvcruntime:undname.obj
 0001:0002641a       ?getNoexcept@UnDecorator@@CA?AVDName@@XZ 1002741a f   libvcruntime:undname.obj
 0001:0002646e       ?getNumberOfDimensions@UnDecorator@@CAHXZ 1002746e f   libvcruntime:undname.obj
 0001:000264cf       ?getOperatorName@UnDecorator@@CA?AVDName@@_NPA_N@Z 100274cf f i libvcruntime:undname.obj
 0001:00026c35       ?getPointerToMember@UnDecorator@@CA?AVDName@@XZ 10027c35 f   libvcruntime:undname.obj
 0001:00026cf0       ?getPrimaryDataType@UnDecorator@@CA?AVDName@@ABV2@@Z 10027cf0 f   libvcruntime:undname.obj
 0001:00026f3f       ?getPtrRefDataType@UnDecorator@@CA?AVDName@@ABV2@H@Z 10027f3f f   libvcruntime:undname.obj
 0001:000270ac       ?getPtrRefType@UnDecorator@@CA?AVDName@@ABV2@0W4IndirectionKind@@@Z 100280ac f   libvcruntime:undname.obj
 0001:000271bd       ?getRestrictionSpec@UnDecorator@@CA?AVDName@@XZ 100281bd f   libvcruntime:undname.obj
 0001:000272e5       ?getReturnType@UnDecorator@@CA?AVDName@@PAV2@@Z 100282e5 f   libvcruntime:undname.obj
 0001:00027314       ?getScope@UnDecorator@@CA?AVDName@@XZ 10028314 f   libvcruntime:undname.obj
 0001:000276c6       ?getScopedName@UnDecorator@@CA?AVDName@@XZ 100286c6 f   libvcruntime:undname.obj
 0001:000277b1       ?getSignedDimension@UnDecorator@@CA?AVDName@@XZ 100287b1 f   libvcruntime:undname.obj
 0001:00027802       ?getString@DName@@QBEPADPAD0@Z 10028802 f i libvcruntime:undname.obj
 0001:0002782f       ?getString@DName@@QBEPADPADH@Z 1002882f f i libvcruntime:undname.obj
 0001:00027884       ?getString@DNameStatusNode@@UBEPADPAD0@Z 10028884 f i libvcruntime:undname.obj
 0001:000278ca       ?getString@charNode@@UBEPADPAD0@Z 100288ca f i libvcruntime:undname.obj
 0001:000278df       ?getString@pDNameNode@@UBEPADPAD0@Z 100288df f i libvcruntime:undname.obj
 0001:000278f6       ?getString@pairNode@@UBEPADPAD0@Z 100288f6 f i libvcruntime:undname.obj
 0001:0002793c       ?getString@pcharNode@@UBEPADPAD0@Z 1002893c f i libvcruntime:undname.obj
 0001:00027957       ?getStringEncoding@UnDecorator@@CA?AVDName@@W4PrefixKind@@H@Z 10028957 f   libvcruntime:undname.obj
 0001:00027a0f       ?getStringHelper@@YAPADPADPBD1H@Z 10028a0f f i libvcruntime:undname.obj
 0001:00027a39       ?getStringObject@UnDecorator@@CA?AVDName@@XZ 10028a39 f   libvcruntime:undname.obj
 0001:00027a90       ?getSymbolName@UnDecorator@@CA?AVDName@@XZ 10028a90 f i libvcruntime:undname.obj
 0001:00027ad8       ?getTemplateArgumentList@UnDecorator@@CA?AVDName@@XZ 10028ad8 f   libvcruntime:undname.obj
 0001:00027c94       ?getTemplateName@UnDecorator@@CA?AVDName@@_N@Z 10028c94 f   libvcruntime:undname.obj
 0001:00027df5       ?getTemplateNonTypeArgument@UnDecorator@@CA?AVDName@@XZ 10028df5 f   libvcruntime:undname.obj
 0001:000281a9       ?getTemplateTypeArgument@UnDecorator@@CA?AVDName@@XZ 100291a9 f   libvcruntime:undname.obj
 0001:000282af       ?getThisType@UnDecorator@@CA?AVDName@@XZ 100292af f i libvcruntime:undname.obj
 0001:000282de       ?getThrowTypes@UnDecorator@@CA?AVDName@@XZ 100292de f   libvcruntime:undname.obj
 0001:00028301       ?getTypeEncoding@UnDecorator@@CAHXZ 10029301 f i libvcruntime:undname.obj
 0001:00028661       ?getUndecoratedName@UnDecorator@@QAEPADPADH@Z 10029661 f i libvcruntime:undname.obj
 0001:00028780       ?getUnionObject@UnDecorator@@CA?AVDName@@XZ 10029780 f   libvcruntime:undname.obj
 0001:0002882f       ?getVCallThunkType@UnDecorator@@CA?AVDName@@XZ 1002982f f i libvcruntime:undname.obj
 0001:00028885       ?getValue@UnDecorator@@CA?AV?$optional@_K@std@@XZ 10029885 f   libvcruntime:undname.obj
 0001:000288f3       ?getValueObject@UnDecorator@@CA?AVDName@@XZ 100298f3 f   libvcruntime:undname.obj
 0001:00028a0b       ?getVdispMapType@UnDecorator@@CA?AVDName@@ABV2@@Z 10029a0b f i libvcruntime:undname.obj
 0001:00028a6c       ?getVfTableType@UnDecorator@@CA?AVDName@@ABV2@@Z 10029a6c f i libvcruntime:undname.obj
 0001:00028bc2       ?getZName@UnDecorator@@CA?AVDName@@_N0@Z 10029bc2 f   libvcruntime:undname.obj
 0001:00028dd7       ?length@DName@@QBEHXZ      10029dd7 f i libvcruntime:undname.obj
 0001:00028df6       ?length@pDNameNode@@UBEHXZ 10029df6 f i libvcruntime:undname.obj
 0001:00028e04       ?length@pairNode@@UBEHXZ   10029e04 f i libvcruntime:undname.obj
 0001:00028e4d       ?make@DNameStatusNode@@SAPBV1@W4DNameStatus@@@Z 10029e4d f i libvcruntime:undname.obj
 0001:00028e69       ?parseDecoratedName@UnDecorator@@CA?AVDName@@XZ 10029e69 f   libvcruntime:undname.obj
 0001:00028f63       ?raw_length@pDNameNode@@UBEHXZ 10029f63 f i libvcruntime:undname.obj
 0001:00028fb9       ___unDName                 10029fb9 f   libvcruntime:undname.obj
 0001:00028fdc       ___unDNameEx               10029fdc f   libvcruntime:undname.obj
 0001:0002907b       __vsprintf_s_l             1002a07b f i libvcruntime:undname.obj
 0001:000290a8       _sprintf_s                 1002a0a8 f i libvcruntime:undname.obj
 0001:000290d0       _strchr                    1002a0d0 f   libvcruntime:strchr.obj
 0001:0002913e       ___from_strstr_to_strchr   1002a13e     libvcruntime:strchr.obj
 0001:00029200       __local_unwind4            1002a200 f   libvcruntime:exsup4.obj
 0001:000292f0       @_EH4_CallFilterFunc@8     1002a2f0 f   libvcruntime:exsup4.obj
 0001:00029310       @_EH4_TransferToHandler@8  1002a310 f   libvcruntime:exsup4.obj
 0001:00029330       @_EH4_GlobalUnwind2@8      1002a330 f   libvcruntime:exsup4.obj
 0001:00029350       @_EH4_LocalUnwind@16       1002a350 f   libvcruntime:exsup4.obj
 0001:00029367       ___except_validate_context_record 1002a367 f   libvcruntime:jbcxrval.obj
 0001:00029397       ___vcrt_freefls@4          1002a397 f   libvcruntime:per_thread_data.obj
 0001:000293b3       ___vcrt_freeptd            1002a3b3 f   libvcruntime:per_thread_data.obj
 0001:000293e9       ___vcrt_getptd             1002a3e9 f   libvcruntime:per_thread_data.obj
 0001:000293f7       ___vcrt_getptd_noexit      1002a3f7 f   libvcruntime:per_thread_data.obj
 0001:00029489       ___vcrt_initialize_ptd     1002a489 f   libvcruntime:per_thread_data.obj
 0001:000294bc       ___vcrt_uninitialize_ptd   1002a4bc f   libvcruntime:per_thread_data.obj
 0001:000294d7       ___vcrt_initialize_locks   1002a4d7 f   libvcruntime:locks.obj
 0001:00029513       ___vcrt_lock               1002a513 f   libvcruntime:locks.obj
 0001:00029528       ___vcrt_uninitialize_locks 1002a528 f   libvcruntime:locks.obj
 0001:00029557       ___vcrt_unlock             1002a557 f   libvcruntime:locks.obj
 0001:0002956c       ?GetRangeOfTrysToCheck@__FrameHandler3@@SA?AU?$pair@Viterator@TryBlockMap@__FrameHandler3@@V123@@std@@AAVTryBlockMap@1@HPAXPBU_s_FuncInfo@@H@Z 1002a56c f   libvcruntime:trnsctrl.obj
 0001:000295dc       ?_CallCatchBlock2@@YAPAXPAUEHRegistrationNode@@PBU_s_FuncInfo@@PAXHK@Z 1002a5dc f   libvcruntime:trnsctrl.obj
 0001:00029639       ?_CallSETranslator@@YAHPAUEHExceptionRecord@@PAUEHRegistrationNode@@PAX2PBU_s_FuncInfo@@H1@Z 1002a639 f   libvcruntime:trnsctrl.obj
 0001:0002972f       ?_JumpToContinuation@@YGXPAXPAUEHRegistrationNode@@@Z 1002a72f f   libvcruntime:trnsctrl.obj
 0001:0002975f       ?_UnwindNestedFrames@@YGXPAUEHRegistrationNode@@PAUEHExceptionRecord@@@Z 1002a75f f   libvcruntime:trnsctrl.obj
 0001:000297b2       __CatchGuardHandler        1002a7b2 f   libvcruntime:trnsctrl.obj
 0001:000297e3       __CreateFrameInfo          1002a7e3 f   libvcruntime:trnsctrl.obj
 0001:00029807       __FindAndUnlinkFrame       1002a807 f   libvcruntime:trnsctrl.obj
 0001:0002984f       __TranslatorGuardHandler   1002a84f f   libvcruntime:trnsctrl.obj
 0001:000298ec       ___CxxFrameHandler3        1002a8ec f   libvcruntime:trnsctrl.obj
 0001:00029930       __NLG_Notify1              1002a930 f   libvcruntime:exsup.obj
 0001:00029940       __NLG_Notify               1002a940 f   libvcruntime:exsup.obj
 0001:00029957       __NLG_Dispatch2            1002a957     libvcruntime:exsup.obj
 0001:00029957       __NLG_Dispatch             1002a957     libvcruntime:exsup.obj
 0001:00029960       __NLG_Call                 1002a960 f   libvcruntime:exsup.obj
 0001:00029962       __NLG_Return2              1002a962     libvcruntime:exsup.obj
 0001:00029a46       ___vcrt_FlsAlloc           1002aa46 f   libvcruntime:winapi_downlevel.obj
 0001:00029a81       ___vcrt_FlsFree            1002aa81 f   libvcruntime:winapi_downlevel.obj
 0001:00029abc       ___vcrt_FlsGetValue        1002aabc f   libvcruntime:winapi_downlevel.obj
 0001:00029af7       ___vcrt_FlsSetValue        1002aaf7 f   libvcruntime:winapi_downlevel.obj
 0001:00029b35       ___vcrt_InitializeCriticalSectionEx 1002ab35 f   libvcruntime:winapi_downlevel.obj
 0001:0002a2b3       ??$TypeMatchHelper@V__FrameHandler3@@@@YAHPBU_s_HandlerType@@PBU_s_CatchableType@@PBU_s_ThrowInfo@@@Z 1002b2b3 f i libvcruntime:frame.obj
 0001:0002a341       ??$__InternalCxxFrameHandler@V__FrameHandler3@@@@YA?AW4_EXCEPTION_DISPOSITION@@PAUEHExceptionRecord@@PAUEHRegistrationNode@@PAU_CONTEXT@@PAXPBU_s_FuncInfo@@H1E@Z 1002b341 f i libvcruntime:frame.obj
 0001:0002a443       ??0bad_exception@std@@QAE@ABV01@@Z 1002b443 f i libvcruntime:frame.obj
 0001:0002a45e       ??0bad_exception@std@@QAE@XZ 1002b45e f i libvcruntime:frame.obj
 0001:0002a476       ??0exception@std@@QAE@ABV01@@Z 1002b476 f i libvcruntime:frame.obj
 0001:0002a4a2       ??1bad_exception@std@@UAE@XZ 1002b4a2 f i libvcruntime:frame.obj
 0001:0002a4b3       ??8type_info@@QBE_NABV0@@Z 1002b4b3 f i libvcruntime:frame.obj
 0001:0002a4d2       ??_Ebad_exception@std@@UAEPAXI@Z 1002b4d2 f i libvcruntime:frame.obj
 0001:0002a4d2       ??_Gexception@std@@UAEPAXI@Z 1002b4d2 f i libvcruntime:frame.obj
 0001:0002a4d2       ??_Eexception@std@@UAEPAXI@Z 1002b4d2 f i libvcruntime:frame.obj
 0001:0002a4d2       ??_Gbad_exception@std@@UAEPAXI@Z 1002b4d2 f i libvcruntime:frame.obj
 0001:0002a74c       ?FrameUnwindToEmptyState@__FrameHandler3@@SAXPAUEHRegistrationNode@@PAXPBU_s_FuncInfo@@@Z 1002b74c f   libvcruntime:frame.obj
 0001:0002a764       ?FrameUnwindToState@__FrameHandler3@@SAXPAUEHRegistrationNode@@PAXPBU_s_FuncInfo@@H@Z 1002b764 f   libvcruntime:frame.obj
 0001:0002a8e6       ?_CallMemberFunction1@@YGXQAX00@Z 1002b8e6 f i libvcruntime:frame.obj
 0001:0002a8f6       ?_CallMemberFunction2@@YGXQAX00H@Z 1002b8f6 f i libvcruntime:frame.obj
 0001:0002a909       ?getESTypes@__FrameHandler3@@SAPBU_s_ESTypeList@@PBU_s_FuncInfo@@@Z 1002b909 f i libvcruntime:frame.obj
 0001:0002a914       ?what@exception@std@@UBEPBDXZ 1002b914 f i libvcruntime:frame.obj
 0001:0002a930       __CallSettingFrame@12      1002b930 f   libvcruntime:lowhelpr.obj
 0001:0002a957       __NLG_Return               1002b957     libvcruntime:lowhelpr.obj
 0001:0002a97c       _unexpected                1002b97c f   libvcruntime:unexpected.obj
 0001:0002a999       ?GetCurrentState@__FrameHandler3@@SAHPAUEHRegistrationNode@@PAXPBU_s_FuncInfo@@@Z 1002b999 f   libvcruntime:ehstate.obj
 0001:0002a9b6       ?SetState@__FrameHandler3@@SAXPAUEHRegistrationNode@@PBU_s_FuncInfo@@H@Z 1002b9b6 f   libvcruntime:ehstate.obj
 0001:0002a9c4       ___std_exception_copy      1002b9c4 f   libvcruntime:std_exception.obj
 0001:0002aa27       ___std_exception_destroy   1002ba27 f   libvcruntime:std_exception.obj
 0001:0002aa46       __CxxThrowException@8      1002ba46 f   libvcruntime:throw.obj
 0001:0002aac0       __fpclass                  1002bac0 f   libucrt:ieeemisc.obj
 0001:0002ab64       _free                      1002bb64 f   libucrt:free.obj
 0001:0002ab7f       __errcode                  1002bb7f f   libucrt:fpexcept.obj
 0001:0002abb3       __except1                  1002bbb3 f   libucrt:fpexcept.obj
 0001:0002ac81       __handle_exc               1002bc81 f   libucrt:fpexcept.obj
 0001:0002ae6c       __raise_exc                1002be6c f   libucrt:fpexcept.obj
 0001:0002ae8f       __raise_exc_ex             1002be8f f   libucrt:fpexcept.obj
 0001:0002b185       __set_errno_from_matherr   1002c185 f   libucrt:fpexcept.obj
 0001:0002b1b4       __umatherr                 1002c1b4 f   libucrt:fpexcept.obj
 0001:0002b254       __initterm                 1002c254 f   libucrt:initterm.obj
 0001:0002b299       __initterm_e               1002c299 f   libucrt:initterm.obj
 0001:0002b2c7       __seh_filter_dll           1002c2c7 f   libucrt:exception_filter.obj
 0001:0002b2e7       __seh_filter_exe           1002c2e7 f   libucrt:exception_filter.obj
 0001:0002b6b5       ___acrt_initialize_thread_local_exit_callback 1002c6b5 f   libucrt:exit.obj
 0001:0002b6c4       __cexit                    1002c6c4 f   libucrt:exit.obj
 0001:0002b6d3       __exit                     1002c6d3 f   libucrt:exit.obj
 0001:0002b6e9       __is_c_termination_complete 1002c6e9 f   libucrt:exit.obj
 0001:0002b99a       ___acrt_allocate_buffer_for_argv 1002c99a f   libucrt:argv_parsing.obj
 0001:0002b9e9       __configure_narrow_argv    1002c9e9 f   libucrt:argv_parsing.obj
 0001:0002bb46       ??$uninitialize@A6AXAAPAPAD@Z@?$dual_state_global@PAPAD@__crt_state_management@@QAEXA6AXAAPAPAD@Z@Z 1002cb46 f i libucrt:environment_initialization.obj
 0001:0002bb46       ??$uninitialize@A6AXAAPAPA_W@Z@?$dual_state_global@PAPA_W@__crt_state_management@@QAEXA6AXAAPAPA_W@Z@Z 1002cb46 f i libucrt:environment_initialization.obj
 0001:0002bba5       ___dcrt_uninitialize_environments_nolock 1002cba5 f   libucrt:environment_initialization.obj
 0001:0002bbdc       __initialize_narrow_environment 1002cbdc f   libucrt:environment_initialization.obj
 0001:0002bd16       __execute_onexit_table     1002cd16 f   libucrt:onexit.obj
 0001:0002bd43       __initialize_onexit_table  1002cd43 f   libucrt:onexit.obj
 0001:0002bd93       ___acrt_uninitialize_command_line 1002cd93 f   libucrt:argv_data.obj
 0001:0002be3c       ??$__crt_fast_encode_pointer@PAX@@YAPAXQAX@Z 1002ce3c f i libucrt:initialization.obj
 0001:0002be89       ___acrt_initialize         1002ce89 f   libucrt:initialization.obj
 0001:0002be9b       ___acrt_thread_attach      1002ce9b f   libucrt:initialization.obj
 0001:0002bea6       ___acrt_thread_detach      1002cea6 f   libucrt:initialization.obj
 0001:0002beae       ___acrt_uninitialize       1002ceae f   libucrt:initialization.obj
 0001:0002bede       ___acrt_uninitialize_critical 1002cede f   libucrt:initialization.obj
 0001:0002bef0       _terminate                 1002cef0 f   libucrt:terminate.obj
 0001:0002bf2c       _abort                     1002cf2c f   libucrt:abort.obj
 0001:0002bf70       _malloc                    1002cf70 f   libucrt:malloc.obj
 0001:0002bf7b       _strcpy_s                  1002cf7b f   libucrt:strcpy_s.obj
 0001:0002c1cb       ??$count@D@formatting_buffer@__crt_stdio_output@@QBEIXZ 1002d1cb f i libucrt:output.obj
 0001:0002c1e3       ??$ensure_buffer_is_big_enough@D@formatting_buffer@__crt_stdio_output@@QAE_NI@Z 1002d1e3 f i libucrt:output.obj
 0001:0002c260       ??$is_wide_character_specifier@D@__crt_stdio_output@@YA_N_KDW4length_modifier@0@@Z 1002d260 f i libucrt:output.obj
 0001:0002c291       ??$scratch_data@D@formatting_buffer@__crt_stdio_output@@QAEPADXZ 1002d291 f i libucrt:output.obj
 0001:0002c2af       ??$type_case_integer_parse_into_buffer@I@?$output_processor@DV?$string_output_adapter@D@__crt_stdio_output@@V?$format_validation_base@DV?$string_output_adapter@D@__crt_stdio_output@@@2@@__crt_stdio_output@@AAEXII_N@Z 1002d2af f i libucrt:output.obj
 0001:0002c322       ??$type_case_integer_parse_into_buffer@_K@?$output_processor@DV?$string_output_adapter@D@__crt_stdio_output@@V?$format_validation_base@DV?$string_output_adapter@D@__crt_stdio_output@@@2@@__crt_stdio_output@@AAEX_KI_N@Z 1002d322 f i libucrt:output.obj
 0001:0002c3b0       ??$write_multiple_characters@V?$string_output_adapter@D@__crt_stdio_output@@D@__crt_stdio_output@@YAXABV?$string_output_adapter@D@0@DHQAH@Z 1002d3b0 f i libucrt:output.obj
 0001:0002c3dc       ??0?$common_data@D@__crt_stdio_output@@IAE@XZ 1002d3dc f i libucrt:output.obj
 0001:0002c421       ??0?$output_adapter_data@DV?$string_output_adapter@D@__crt_stdio_output@@@__crt_stdio_output@@IAE@ABV?$string_output_adapter@D@1@_KQBDQAU__crt_locale_pointers@@QAD@Z 1002d421 f i libucrt:output.obj
 0001:0002c45d       ??0_LocaleUpdate@@QAE@QAU__crt_locale_pointers@@@Z 1002d45d f i libucrt:output.obj
 0001:0002c4e0       ??1formatting_buffer@__crt_stdio_output@@QAE@XZ 1002d4e0 f i libucrt:output.obj
 0001:0002c4fa       ??4?$__crt_unique_heap_ptr@DU__crt_internal_free_policy@@@@QAEAAV0@$$QAV0@@Z 1002d4fa f i libucrt:output.obj
 0001:0002c520       ?crop_zeroes@__crt_stdio_output@@YAXPADQAU__crt_locale_pointers@@@Z 1002d520 f i libucrt:output.obj
 0001:0002c5a1       ?find_next_state@?$output_processor@DV?$string_output_adapter@D@__crt_stdio_output@@V?$format_validation_base@DV?$string_output_adapter@D@__crt_stdio_output@@@2@@__crt_stdio_output@@ABE?AW4state@2@DW432@@Z 1002d5a1 f i libucrt:output.obj
 0001:0002c5e0       ?force_decimal_point@__crt_stdio_output@@YAXPADQAU__crt_locale_pointers@@@Z 1002d5e0 f i libucrt:output.obj
 0001:0002c645       ?parse_int_from_format_string@?$output_processor@DV?$string_output_adapter@D@__crt_stdio_output@@V?$format_validation_base@DV?$string_output_adapter@D@__crt_stdio_output@@@2@@__crt_stdio_output@@AAE_NQAH@Z 1002d645 f i libucrt:output.obj
 0001:0002c6b9       ?process@?$output_processor@DV?$string_output_adapter@D@__crt_stdio_output@@V?$format_validation_base@DV?$string_output_adapter@D@__crt_stdio_output@@@2@@__crt_stdio_output@@QAEHXZ 1002d6b9 f i libucrt:output.obj
 0001:0002c7dd       ?state_case_flag@?$output_processor@DV?$string_output_adapter@D@__crt_stdio_output@@V?$format_validation_base@DV?$string_output_adapter@D@__crt_stdio_output@@@2@@__crt_stdio_output@@AAE_NXZ 1002d7dd f i libucrt:output.obj
 0001:0002c81a       ?state_case_normal@?$output_processor@DV?$string_output_adapter@D@__crt_stdio_output@@V?$format_validation_base@DV?$string_output_adapter@D@__crt_stdio_output@@@2@@__crt_stdio_output@@AAE_NXZ 1002d81a f i libucrt:output.obj
 0001:0002c839       ?state_case_normal_common@?$output_processor@DV?$string_output_adapter@D@__crt_stdio_output@@V?$format_validation_base@DV?$string_output_adapter@D@__crt_stdio_output@@@2@@__crt_stdio_output@@AAE_NXZ 1002d839 f i libucrt:output.obj
 0001:0002c863       ?state_case_normal_tchar@?$output_processor@DV?$string_output_adapter@D@__crt_stdio_output@@V?$format_validation_base@DV?$string_output_adapter@D@__crt_stdio_output@@@2@@__crt_stdio_output@@AAE_ND@Z 1002d863 f i libucrt:output.obj
 0001:0002c8c7       ?state_case_precision@?$output_processor@DV?$string_output_adapter@D@__crt_stdio_output@@V?$format_validation_base@DV?$string_output_adapter@D@__crt_stdio_output@@@2@@__crt_stdio_output@@AAE_NXZ 1002d8c7 f i libucrt:output.obj
 0001:0002c8ed       ?state_case_size@?$output_processor@DV?$string_output_adapter@D@__crt_stdio_output@@V?$format_validation_base@DV?$string_output_adapter@D@__crt_stdio_output@@@2@@__crt_stdio_output@@AAE_NXZ 1002d8ed f i libucrt:output.obj
 0001:0002ca3b       ?state_case_type@?$output_processor@DV?$string_output_adapter@D@__crt_stdio_output@@V?$format_validation_base@DV?$string_output_adapter@D@__crt_stdio_output@@@2@@__crt_stdio_output@@AAE_NXZ 1002da3b f i libucrt:output.obj
 0001:0002cc6d       ?state_case_width@?$output_processor@DV?$string_output_adapter@D@__crt_stdio_output@@V?$format_validation_base@DV?$string_output_adapter@D@__crt_stdio_output@@@2@@__crt_stdio_output@@AAE_NXZ 1002dc6d f i libucrt:output.obj
 0001:0002cca0       ?to_integer_size@__crt_stdio_output@@YAIW4length_modifier@1@@Z 1002dca0 f i libucrt:output.obj
 0001:0002ccfc       ?type_case_Z@?$output_processor@DV?$string_output_adapter@D@__crt_stdio_output@@V?$format_validation_base@DV?$string_output_adapter@D@__crt_stdio_output@@@2@@__crt_stdio_output@@AAE_NXZ 1002dcfc f i libucrt:output.obj
 0001:0002cd56       ?type_case_a@?$output_processor@DV?$string_output_adapter@D@__crt_stdio_output@@V?$format_validation_base@DV?$string_output_adapter@D@__crt_stdio_output@@@2@@__crt_stdio_output@@AAE_NXZ 1002dd56 f i libucrt:output.obj
 0001:0002cea7       ?type_case_c_tchar@?$output_processor@DV?$string_output_adapter@D@__crt_stdio_output@@V?$format_validation_base@DV?$string_output_adapter@D@__crt_stdio_output@@@2@@__crt_stdio_output@@AAE_ND@Z 1002dea7 f i libucrt:output.obj
 0001:0002cf3a       ?type_case_integer@?$output_processor@DV?$string_output_adapter@D@__crt_stdio_output@@V?$format_validation_base@DV?$string_output_adapter@D@__crt_stdio_output@@@2@@__crt_stdio_output@@AAE_NI_N@Z 1002df3a f i libucrt:output.obj
 0001:0002d08b       ?type_case_n@?$output_processor@DV?$string_output_adapter@D@__crt_stdio_output@@V?$format_validation_base@DV?$string_output_adapter@D@__crt_stdio_output@@@2@@__crt_stdio_output@@AAE_NXZ 1002e08b f i libucrt:output.obj
 0001:0002d0ff       ?type_case_o@?$output_processor@DV?$string_output_adapter@D@__crt_stdio_output@@V?$format_validation_base@DV?$string_output_adapter@D@__crt_stdio_output@@@2@@__crt_stdio_output@@AAE_NXZ 1002e0ff f i libucrt:output.obj
 0001:0002d11e       ?type_case_p@?$output_processor@DV?$string_output_adapter@D@__crt_stdio_output@@V?$format_validation_base@DV?$string_output_adapter@D@__crt_stdio_output@@@2@@__crt_stdio_output@@AAE_NXZ 1002e11e f i libucrt:output.obj
 0001:0002d136       ?type_case_s@?$output_processor@DV?$string_output_adapter@D@__crt_stdio_output@@V?$format_validation_base@DV?$string_output_adapter@D@__crt_stdio_output@@@2@@__crt_stdio_output@@AAE_NXZ 1002e136 f i libucrt:output.obj
 0001:0002d1a7       ?validate@?$string_output_adapter@D@__crt_stdio_output@@QBE_NXZ 1002e1a7 f i libucrt:output.obj
 0001:0002d1a7       ?validate@?$c_string_character_source@D@__crt_strtox@@QBE_NXZ 1002e1a7 f i libucrt:atox.obj
 0001:0002d1c2       ?validate_and_update_state_at_end_of_format_string@?$format_validation_base@DV?$string_output_adapter@D@__crt_stdio_output@@@__crt_stdio_output@@IBE_NXZ 1002e1c2 f i libucrt:output.obj
 0001:0002d1e4       ?write_character@?$string_output_adapter@D@__crt_stdio_output@@QBE_NDQAH@Z 1002e1e4 f i libucrt:output.obj
 0001:0002d226       ?write_stored_string_tchar@?$output_processor@DV?$string_output_adapter@D@__crt_stdio_output@@V?$format_validation_base@DV?$string_output_adapter@D@__crt_stdio_output@@@2@@__crt_stdio_output@@AAE_ND@Z 1002e226 f i libucrt:output.obj
 0001:0002d2cb       ?write_string@?$string_output_adapter@D@__crt_stdio_output@@QBEXQBDHQAHAAV__crt_deferred_errno_cache@@@Z 1002e2cb f i libucrt:output.obj
 0001:0002d332       ___acrt_locale_get_ctype_array_value 1002e332 f i libucrt:output.obj
 0001:0002d354       ___stdio_common_vsprintf_s 1002e354 f   libucrt:output.obj
 0001:0002d378       ??$is_overflow_condition@K@__crt_strtox@@YA_NIK@Z 1002e378 f i libucrt:atox.obj
 0001:0002d3a9       ??$parse_integer@KV?$c_string_character_source@D@__crt_strtox@@@__crt_strtox@@YAKQAU__crt_locale_pointers@@V?$c_string_character_source@D@0@H_N@Z 1002e3a9 f i libucrt:atox.obj
 0001:0002d5cc       ?unget@?$c_string_character_source@D@__crt_strtox@@QAEXD@Z 1002e5cc f i libucrt:atox.obj
 0001:0002d5f5       __ischartype_l             1002e5f5 f i libucrt:atox.obj
 0001:0002d649       _atol                      1002e649 f   libucrt:atox.obj
 0001:0002d670       _strncmp                   1002e670 f   libucrt:strncmp.obj
 0001:0002d6e8       _calloc                    1002e6e8 f   libucrt:calloc.obj
 0001:0002d6f3       _wcsncmp                   1002e6f3 f   libucrt:wcsncmp.obj
 0001:0002d730       _cos                       1002e730 f   libucrt:cos.obj
 0001:0002d780       _sin                       1002e780 f   libucrt:sin.obj
 0001:0002d7c3       __decomp                   1002e7c3 f   libucrt:util.obj
 0001:0002d895       __set_exp                  1002e895 f   libucrt:util.obj
 0001:0002d8c2       __sptype                   1002e8c2 f   libucrt:util.obj
 0001:0002d920       ___set_fpsr_sse2           1002e920 f   libucrt:fpctrl.obj
 0001:0002d9a0       __clrfp                    1002e9a0 f   libucrt:fpctrl.obj
 0001:0002d9b1       __ctrlfp                   1002e9b1 f   libucrt:fpctrl.obj
 0001:0002d9db       __set_statfp               1002e9db f   libucrt:fpctrl.obj
 0001:0002da34       __statfp                   1002ea34 f   libucrt:fpctrl.obj
 0001:0002da44       __free_base                1002ea44 f   libucrt:free_base.obj
 0001:0002da7e       ___acrt_errno_from_os_error 1002ea7e f   libucrt:errno.obj
 0001:0002dac1       ___acrt_errno_map_os_error 1002eac1 f   libucrt:errno.obj
 0001:0002dae4       ___doserrno                1002eae4 f   libucrt:errno.obj
 0001:0002daf7       __errno                    1002eaf7 f   libucrt:errno.obj
 0001:0002db0a       ___acrt_has_user_matherr   1002eb0a f   libucrt:matherr.obj
 0001:0002db22       ___acrt_initialize_user_matherr 1002eb22 f   libucrt:matherr.obj
 0001:0002db31       ___acrt_invoke_user_matherr 1002eb31 f   libucrt:matherr.obj
 0001:0002dea1       ___acrt_freeptd            1002eea1 f   libucrt:per_thread_data.obj
 0001:0002decd       ___acrt_getptd             1002eecd f   libucrt:per_thread_data.obj
 0001:0002df8a       ___acrt_getptd_head        1002ef8a f   libucrt:per_thread_data.obj
 0001:0002e024       ___acrt_getptd_noexit      1002f024 f   libucrt:per_thread_data.obj
 0001:0002e0d9       ___acrt_initialize_ptd     1002f0d9 f   libucrt:per_thread_data.obj
 0001:0002e105       ___acrt_uninitialize_ptd   1002f105 f   libucrt:per_thread_data.obj
 0001:0002e11f       ___acrt_initialize_locks   1002f11f f   libucrt:locks.obj
 0001:0002e160       ___acrt_lock               1002f160 f   libucrt:locks.obj
 0001:0002e177       ___acrt_uninitialize_locks 1002f177 f   libucrt:locks.obj
 0001:0002e1a8       ___acrt_unlock             1002f1a8 f   libucrt:locks.obj
 0001:0002e1bf       ___acrt_get_process_end_policy 1002f1bf f   libucrt:win_policies.obj
 0001:0002e1f0       ___acrt_call_reportfault   1002f1f0 f   libucrt:invalid_parameter.obj
 0001:0002e329       ___acrt_initialize_invalid_parameter_handler 1002f329 f   libucrt:invalid_parameter.obj
 0001:0002e338       __invalid_parameter        1002f338 f   libucrt:invalid_parameter.obj
 0001:0002e39c       __invalid_parameter_noinfo 1002f39c f   libucrt:invalid_parameter.obj
 0001:0002e3ac       __invoke_watson            1002f3ac f   libucrt:invalid_parameter.obj
 0001:0002e3e0       __calloc_base              1002f3e0 f   libucrt:calloc_base.obj
 0001:0002e5d6       ??$__acrt_mbs_to_wcs_cp@U__crt_win32_buffer_internal_dynamic_resizing@@@@YAHQBDAAV?$__crt_win32_buffer@_WU__crt_win32_buffer_internal_dynamic_resizing@@@@I@Z 1002f5d6 f i libucrt:argv_wildcards.obj
 0001:0002eaea       ?__acrt_get_utf8_acp_compatibility_codepage@@YAIXZ 1002faea f i libucrt:argv_wildcards.obj
 0001:0002eb29       ?_deallocate@?$__crt_win32_buffer@_WU__crt_win32_buffer_internal_dynamic_resizing@@@@AAEXXZ 1002fb29 f i libucrt:argv_wildcards.obj
 0001:0002eb29       ?_deallocate@?$__crt_win32_buffer@DU__crt_win32_buffer_internal_dynamic_resizing@@@@AAEXXZ 1002fb29 f i libucrt:argv_wildcards.obj
 0001:0002eb43       ?allocate@?$__crt_win32_buffer@DU__crt_win32_buffer_internal_dynamic_resizing@@@@QAEHI@Z 1002fb43 f i libucrt:argv_wildcards.obj
 0001:0002eb7f       ?allocate@?$__crt_win32_buffer@_WU__crt_win32_buffer_internal_dynamic_resizing@@@@QAEHI@Z 1002fb7f f i libucrt:argv_wildcards.obj
 0001:0002ebbe       ?allocate@__crt_win32_buffer_internal_dynamic_resizing@@SAHQAPAXIABV__crt_win32_buffer_empty_debug_info@@@Z 1002fbbe f i libucrt:argv_wildcards.obj
 0001:0002ec64       ___acrt_expand_narrow_argv_wildcards 1002fc64 f   libucrt:argv_wildcards.obj
 0001:0002ed36       ?allocate@?$__crt_win32_buffer@DU__crt_win32_buffer_no_resizing@@@@QAEHI@Z 1002fd36 f i libucrt:getmodulefilenamea.obj
 0001:0002ed5d       ?set_to_nullptr@?$__crt_win32_buffer@DU__crt_win32_buffer_no_resizing@@@@QAEXXZ 1002fd5d f i libucrt:getmodulefilenamea.obj
 0001:0002ed71       ___acrt_GetModuleFileNameA 1002fd71 f   libucrt:getmodulefilenamea.obj
 0001:0002f32a       ___acrt_initialize_multibyte 1003032a f   libucrt:mbctype.obj
 0001:0002f372       ___acrt_update_thread_multibyte_data 10030372 f   libucrt:mbctype.obj
 0001:0002f385       __setmbcp_nolock           10030385 f   libucrt:mbctype.obj
 0001:0002f650       __ismbblead                10030650 f   libucrt:ismbbyte.obj
 0001:0002f668       ___acrt_initialize_command_line 10030668 f   libucrt:argv_data.obj
 0001:0002f681       ___acrt_MultiByteToWideChar 10030681 f   libucrt:multibytetowidechar.obj
 0001:0002f6fd       ___acrt_WideCharToMultiByte 100306fd f   libucrt:widechartomultibyte.obj
 0001:0002f7eb       ___dcrt_get_narrow_environment_from_os 100307eb f   libucrt:get_environment_from_os.obj
 0001:0002f86f       __recalloc_base            1003086f f   libucrt:recalloc.obj
 0001:0002fa74       ___acrt_AppPolicyGetProcessTerminationMethodInternal@4 10030a74 f   libucrt:winapi_thunks.obj
 0001:0002fab4       ___acrt_AreFileApisANSI@0  10030ab4 f   libucrt:winapi_thunks.obj
 0001:0002fad3       ___acrt_FlsAlloc@4         10030ad3 f   libucrt:winapi_thunks.obj
 0001:0002fb12       ___acrt_FlsFree@4          10030b12 f   libucrt:winapi_thunks.obj
 0001:0002fb51       ___acrt_FlsGetValue@4      10030b51 f   libucrt:winapi_thunks.obj
 0001:0002fb90       ___acrt_FlsSetValue@8      10030b90 f   libucrt:winapi_thunks.obj
 0001:0002fbd2       ___acrt_InitializeCriticalSectionEx@12 10030bd2 f   libucrt:winapi_thunks.obj
 0001:0002fc1d       ___acrt_LCMapStringEx@36   10030c1d f   libucrt:winapi_thunks.obj
 0001:0002fc7a       ___acrt_LocaleNameToLCID@8 10030c7a f   libucrt:winapi_thunks.obj
 0001:0002fcab       ___acrt_initialize_winapi_thunks 10030cab f   libucrt:winapi_thunks.obj
 0001:0002fcd6       ___acrt_uninitialize_winapi_thunks 10030cd6 f   libucrt:winapi_thunks.obj
 0001:0002fd0c       ___acrt_initialize_heap    10030d0c f   libucrt:heap_handle.obj
 0001:0002fd1d       ___acrt_uninitialize_heap  10030d1d f   libucrt:heap_handle.obj
 0001:0002fe91       ___acrt_initialize_lowio   10030e91 f   libucrt:ioinit.obj
 0001:0002fef1       ___acrt_uninitialize_lowio 10030ef1 f   libucrt:ioinit.obj
 0001:0002ff1d       ___acrt_execute_initializers 10030f1d f   libucrt:shared_initialization.obj
 0001:0002ff85       ___acrt_execute_uninitializers 10030f85 f   libucrt:shared_initialization.obj
 0001:0002ffb6       ___acrt_initialize_new_handler 10030fb6 f   libucrt:new_handler.obj
 0001:0002ffc5       __callnewh                 10030fc5 f   libucrt:new_handler.obj
 0001:0002fff2       __query_new_handler        10030ff2 f   libucrt:new_handler.obj
 0001:0003011c       ___acrt_get_sigabrt_handler 1003111c f   libucrt:signal.obj
 0001:00030143       ___acrt_initialize_signal_handlers 10031143 f   libucrt:signal.obj
 0001:00030161       _raise                     10031161 f   libucrt:signal.obj
 0001:00030531       ___acrt_stdio_flush_nolock 10031531 f   libucrt:fflush.obj
 0001:00030596       __fflush_nolock            10031596 f   libucrt:fflush.obj
 0001:000305de       __flushall                 100315de f   libucrt:fflush.obj
 0001:000305e7       ___acrt_initialize_stdio   100315e7 f   libucrt:_file.obj
 0001:000306af       ___acrt_uninitialize_stdio 100316af f   libucrt:_file.obj
 0001:000306fb       __lock_file                100316fb f   libucrt:_file.obj
 0001:0003070f       __unlock_file              1003170f f   libucrt:_file.obj
 0001:00030723       __malloc_base              10031723 f   libucrt:malloc_base.obj
 0001:00030771       ??$make_c_string_character_source@DPAPAD@__crt_strtox@@YA?AV?$c_string_character_source@D@0@QBDQAPAD@Z 10031771 f i libucrt:strtox.obj
 0001:0003078c       _strtol                    1003178c f   libucrt:strtox.obj
 0001:000307b6       __mbtowc_l                 100317b6 f   libucrt:mbtowc.obj
 0001:000308f8       _mbtowc                    100318f8 f   libucrt:mbtowc.obj
 0001:00030912       __wctomb_s_l               10031912 f   libucrt:wctomb.obj
 0001:00030a6d       _strnlen                   10031a6d f   libucrt:strnlen.obj
 0001:00030b8f       _wcsnlen                   10031b8f f   libucrt:strnlen.obj
 0001:00030d3f       ___acrt_update_locale_info 10031d3f f   libucrt:locale_update.obj
 0001:00030d6c       ___acrt_update_multibyte_info 10031d6c f   libucrt:locale_update.obj
 0001:00030d99       ?__acrt_fp_classify@@YA?AW4__acrt_fp_class@@ABN@Z 10031d99 f i libucrt:cvt.obj
 0001:0003174c       ___acrt_fp_format          1003274c f   libucrt:cvt.obj
 0001:000318a8       __fileno                   100328a8 f   libucrt:fileno.obj
 0001:000318cf       __get_printf_count_output  100328cf f   libucrt:printf_count_output.obj
 0001:00031952       ___acrt_set_locale_changed 10032952 f   libucrt:wsetlocale.obj
 0001:0003195d       ___acrt_uninitialize_locale 1003295d f   libucrt:wsetlocale.obj
 0001:00031984       ___pctype_func             10032984 f   libucrt:ctype.obj
 0001:000319a8       __isctype_l                100329a8 f   libucrt:isctype.obj
 0001:00031a73       ___acrt_initialize_sse2    10032a73 f   libucrt:mathfcns.obj
 0001:00031a90       __CIcos                    10032a90 f   libucrt:cos_impl.obj
 0001:00031acb       __CIcos_default            10032acb f   libucrt:cos_impl.obj
 0001:00031adf       __cos_default              10032adf     libucrt:cos_impl.obj
 0001:00031b80       __CIcos_pentium4           10032b80 f   libucrt:cos_pentium4.obj
 0001:00031b98       __cos_pentium4             10032b98     libucrt:cos_pentium4.obj
 0001:00031d30       __CIsin                    10032d30 f   libucrt:sin_impl.obj
 0001:00031d6b       __CIsin_default            10032d6b f   libucrt:sin_impl.obj
 0001:00031d7f       __sin_default              10032d7f     libucrt:sin_impl.obj
 0001:00031e20       __CIsin_pentium4           10032e20 f   libucrt:sin_pentium4.obj
 0001:00031e38       __sin_pentium4             10032e38     libucrt:sin_pentium4.obj
 0001:00031fe8       ___acrt_add_locale_ref     10032fe8 f   libucrt:locale_refcounting.obj
 0001:00032065       ___acrt_free_locale        10033065 f   libucrt:locale_refcounting.obj
 0001:000321ad       ___acrt_locale_add_lc_time_reference 100331ad f   libucrt:locale_refcounting.obj
 0001:000321d6       ___acrt_locale_free_lc_time_if_unreferenced 100331d6 f   libucrt:locale_refcounting.obj
 0001:00032207       ___acrt_locale_release_lc_time_reference 10033207 f   libucrt:locale_refcounting.obj
 0001:00032230       ___acrt_release_locale_ref 10033230 f   libucrt:locale_refcounting.obj
 0001:000322b1       ___acrt_update_thread_locale_data 100332b1 f   libucrt:locale_refcounting.obj
 0001:00032332       __updatetlocinfoEx_nolock  10033332 f   libucrt:locale_refcounting.obj
 0001:00032382       __query_new_mode           10033382 f   libucrt:new_mode.obj
 0001:00032390       _qsort                     10033390 f   libucrt:qsort.obj
 0001:00032931       _strncpy_s                 10033931 f   libucrt:strncpy_s.obj
 0001:00032940       _strpbrk                   10033940 f   libucrt:strpbrk.obj
 0001:00032980       __mbsdec                   10033980 f   libucrt:mbsdec.obj
 0001:00032997       __mbsdec_l                 10033997 f   libucrt:mbsdec.obj
 0001:00032a24       ___acrt_GetStringTypeA     10033a24 f   libucrt:getstringtypea.obj
 0001:00032b27       __freea_crt                10033b27 f i libucrt:getstringtypea.obj
 0001:00032d31       ___acrt_LCMapStringA       10033d31 f   libucrt:lcmapstringa.obj
 0001:00032d89       __msize_base               10033d89 f   libucrt:msize.obj
 0001:00032dbc       __realloc_base             10033dbc f   libucrt:realloc_base.obj
 0001:00032e75       ___acrt_DownlevelLocaleNameToLCID 10033e75 f   libucrt:lcidtoname_downlevel.obj
 0001:00032ea1       ___acrt_lowio_create_handle_array 10033ea1 f   libucrt:osfinfo.obj
 0001:00032f1c       ___acrt_lowio_destroy_handle_array 10033f1c f   libucrt:osfinfo.obj
 0001:00032f51       ___acrt_lowio_ensure_fh_exists 10033f51 f   libucrt:osfinfo.obj
 0001:00032fef       ___acrt_lowio_lock_fh      10033fef f   libucrt:osfinfo.obj
 0001:00033012       ___acrt_lowio_unlock_fh    10034012 f   libucrt:osfinfo.obj
 0001:00033035       __free_osfhnd              10034035 f   libucrt:osfinfo.obj
 0001:000330c6       __get_osfhandle            100340c6 f   libucrt:osfinfo.obj
 0001:000331d2       __commit                   100341d2 f   libucrt:commit.obj
 0001:000339ca       __write                    100349ca f   libucrt:write.obj
 0001:00033abc       __write_nolock             10034abc f   libucrt:write.obj
 0001:00033c96       __fcloseall                10034c96 f   libucrt:closeall.obj
 0001:00033d41       ___acrt_stdio_free_buffer_nolock 10034d41 f   libucrt:_freebuf.obj
 0001:00033d81       __isatty                   10034d81 f   libucrt:isatty.obj
 0001:00033dd7       __isleadbyte_l             10034dd7 f i libucrt:_wctype.obj
 0001:00033e3d       ?__mbrtowc_utf8@__crt_mbstring@@YAIPA_WPBDIPAU_Mbstatet@@@Z 10034e3d f   libucrt:mbrtowc.obj
 0001:00033e7d       ?__mbsrtowcs_utf8@__crt_mbstring@@YAIPA_WPAPBDIPAU_Mbstatet@@@Z 10034e7d f   libucrt:mbrtowc.obj
 0001:00033f78       ?__c32rtomb_utf8@__crt_mbstring@@YAIPAD_UPAU_Mbstatet@@@Z 10034f78 f   libucrt:c32rtomb.obj
 0001:00034023       ?return_illegal_sequence@__crt_mbstring@@YAIPAU_Mbstatet@@@Z 10035023 f i libucrt:c32rtomb.obj
 0001:000340bc       ___acrt_fp_strflt_to_string 100350bc f   libucrt:_fptostr.obj
 0001:000341a0       ?divide@__crt_strtox@@YA_KAAUbig_integer@1@ABU21@@Z 100351a0 f i libucrt:cfout.obj
 0001:00034638       ___acrt_fltout             10035638 f   libucrt:cfout.obj
 0001:00035b3f       _fegetround                10036b3f f   libucrt:fegetround.obj
 0001:00035b4c       ___acrt_locale_free_monetary 10036b4c f   libucrt:initmon.obj
 0001:00035c4a       ___acrt_locale_free_numeric 10036c4a f   libucrt:initnum.obj
 0001:00035ceb       ___acrt_locale_free_time   10036ceb f   libucrt:inittime.obj
 0001:00035dd0       __trandisp1                10036dd0 f   libucrt:87disp.obj
 0001:00035e45       __trandisp2                10036e45 f   libucrt:87disp.obj
 0001:00035edf       __rttospopde               10036edf     libucrt:87disp.obj
 0001:00035ee4       __rttospop                 10036ee4     libucrt:87disp.obj
 0001:00035ef0       __rtnospop                 10036ef0 f   libucrt:87disp.obj
 0001:00035f00       __rttosnpop                10036f00 f   libucrt:87disp.obj
 0001:00035f01       __rtnospopde               10036f01     libucrt:87disp.obj
 0001:00035f08       __rtzeropop                10036f08     libucrt:87disp.obj
 0001:00035f0a       __rtzeronpop               10036f0a     libucrt:87disp.obj
 0001:00035f10       __rtzerospop               10036f10 f   libucrt:87disp.obj
 0001:00035f1d       __rtonepop                 10036f1d     libucrt:87disp.obj
 0001:00035f20       __rtonenpop                10036f20 f   libucrt:87disp.obj
 0001:00035f30       __tosnan1                  10036f30 f   libucrt:87disp.obj
 0001:00035f60       __nosnan2                  10036f60 f   libucrt:87disp.obj
 0001:00035f70       __tosnan2                  10036f70 f   libucrt:87disp.obj
 0001:00035fa0       __nan2                     10036fa0 f   libucrt:87disp.obj
 0001:00035fe0       __rtindfpop                10036fe0 f   libucrt:87disp.obj
 0001:00035fe2       __rtindfnpop               10036fe2     libucrt:87disp.obj
 0001:00035ff3       __rttosnpopde              10036ff3     libucrt:87disp.obj
 0001:00036000       __rtatan2inf               10037000 f   libucrt:87disp.obj
 0001:0003601d       __rtchsifneg               1003701d     libucrt:87disp.obj
 0001:00036030       __twoToTOS                 10037030 f   libucrt:common.obj
 0001:00036045       __load_CW                  10037045 f   libucrt:common.obj
 0001:0003605c       __convertTOStoQNaN         1003705c f   libucrt:common.obj
 0001:00036075       __fload_withFB             10037075 f   libucrt:common.obj
 0001:000360b8       __checkTOS_withFB          100370b8 f   libucrt:common.obj
 0001:000360ce       __fast_exit                100370ce f   libucrt:common.obj
 0001:000360db       __math_exit                100370db f   libucrt:common.obj
 0001:00036105       __check_overflow_exit      10037105 f   libucrt:common.obj
 0001:00036119       __check_range_exit         10037119 f   libucrt:common.obj
 0001:000361c0       __startTwoArgErrorHandling 100371c0 f   libucrt:genexcep.obj
 0001:000361d7       __startOneArgErrorHandling 100371d7 f   libucrt:genexcep.obj
 0001:00036213       ___strncnt                 10037213 f   libucrt:strncnt.obj
 0001:0003622f       ___ascii_wcsnicmp          1003722f f   libucrt:wcsnicmp.obj
 0001:0003627e       __query_app_type           1003727e f   libucrt:report_runtime_error.obj
 0001:00036300       __lseeki64_nolock          10037300 f   libucrt:lseek.obj
 0001:0003631b       __putwch_nolock            1003731b f   libucrt:putwch.obj
 0001:0003634d       __fclose_nolock            1003734d f   libucrt:fclose.obj
 0001:000363c4       _fclose                    100373c4 f   libucrt:fclose.obj
 0001:00036448       ?__mbrtoc32_utf8@__crt_mbstring@@YAIPA_UPBDIPAU_Mbstatet@@@Z 10037448 f   libucrt:mbrtoc32.obj
 0001:000365ef       __controlfp_s              100375ef f   libucrt:contrlfp.obj
 0001:0003664e       _fegetenv                  1003764e f   libucrt:fegetenv.obj
 0001:0003666b       _fesetenv                  1003766b f   libucrt:fesetenv.obj
 0001:000366b6       _feholdexcept              100376b6 f   libucrt:feholdexcept.obj
 0001:00036710       __CIlog10                  10037710 f   libucrt:log10_impl.obj
 0001:0003674b       __CIlog10_default          1003774b f   libucrt:log10_impl.obj
 0001:0003675f       __log10_default            1003775f     libucrt:log10_impl.obj
 0001:00036820       _ceil                      10037820 f   libucrt:ceil_pentium4.obj
 0001:00036860       __ceil_pentium4            10037860 f   libucrt:ceil_pentium4.obj
 0001:00036c5a       ___acrt_fenv_get_common_round_control 10037c5a f   libucrt:_fenvutils.obj
 0001:00036c7c       ___acrt_fenv_get_control   10037c7c f   libucrt:_fenvutils.obj
 0001:00036cfc       ___acrt_fenv_get_status    10037cfc f   libucrt:_fenvutils.obj
 0001:00036db4       ___acrt_fenv_set_control   10037db4 f   libucrt:_fenvutils.obj
 0001:00036e1c       ___acrt_fenv_set_status    10037e1c f   libucrt:_fenvutils.obj
 0001:00036f13       __87except                 10037f13 f   libucrt:87except.obj
 0001:00037020       ___ascii_strnicmp          10038020 f   libucrt:_strnicm.obj
 0001:000370a0       ___dcrt_lowio_ensure_console_output_initialized 100380a0 f   libucrt:initcon.obj
 0001:000370bf       ___dcrt_terminate_console_output 100380bf f   libucrt:initcon.obj
 0001:000370d6       ___dcrt_write_console      100380d6 f   libucrt:initcon.obj
 0001:000371b7       __close                    100381b7 f   libucrt:close.obj
 0001:00037244       __close_nolock             10038244 f   libucrt:close.obj
 0001:000372e0       ?__acrt_stdio_free_stream@@YAXV__crt_stdio_stream@@@Z 100382e0 f   libucrt:stream.obj
 0001:000373c2       __clearfp                  100383c2 f   libucrt:ieee87.obj
 0001:000374a0       __control87                100384a0 f   libucrt:ieee87.obj
 0001:00037840       __CIlog10_pentium4         10038840 f   libucrt:log10_pentium4.obj
 0001:00037858       __log10_pentium4           10038858     libucrt:log10_pentium4.obj
 0001:00037af0       __fFEXP                    10038af0 f   libucrt:87tran.obj
 0001:00037b47       __rtinfpopse               10038b47     libucrt:87tran.obj
 0001:00037b49       __rtinfnpopse              10038b49     libucrt:87tran.obj
 0001:00037b59       __fFLN                     10038b59     libucrt:87tran.obj
 0001:00037c0e       __rtinfpop                 10038c0e     libucrt:87tran.obj
 0001:00037c10       __rtinfnpop                10038c10     libucrt:87tran.obj
 0001:00037c20       __rtforexpinf              10038c20 f   libucrt:87tran.obj
 0001:00037c2d       __ffexpm1                  10038c2d     libucrt:87tran.obj
 0001:00037cd6       ___libm_error_support      10038cd6 f   libucrt:libm_error.obj
 0001:00037eca       __ceil_default             10038eca f   libucrt:ceil.obj
 0001:00037f7f       __d_inttype                10038f7f f   libucrt:powhlp.obj
 0001:00037fe7       __powhlp                   10038fe7 f   libucrt:powhlp.obj
 0001:00038112       __frnd                     10039112 f   libucrt:frnd.obj
 0001:00038130       __FindPESection            10039130 f   LIBCMT:pesect.obj
 0001:00038180       __IsNonwritableInCurrentImage 10039180 f   LIBCMT:pesect.obj
 0001:00038240       __ValidateImageBase        10039240 f   LIBCMT:pesect.obj
 0001:00038273       __EH_epilog3               10039273 f   LIBCMT:ehprolg3.obj
 0001:00038287       __EH_prolog3               10039287 f   LIBCMT:ehprolg3.obj
 0001:000382ba       __EH_prolog3_catch         100392ba f   LIBCMT:ehprolg3.obj
 0001:000382f0       __aulldvrm                 100392f0 f   LIBCMT:ulldvrm.obj
 0001:00038390       __allmul                   10039390 f   LIBCMT:llmul.obj
 0001:000383d0       __alldvrm                  100393d0 f   LIBCMT:lldvrm.obj
 0001:000384b0       __allshl                   100394b0 f   LIBCMT:llshl.obj
 0001:000384d0       __aullshr                  100394d0 f   LIBCMT:ullshr.obj
 0001:000384f0       __ftol2_sse                100394f0 f   LIBCMT:ftol2.obj
 0001:00038500       __ftoi2                    10039500 f   LIBCMT:ftol2.obj
 0001:00038580       _strrchr                   10039580 f   libvcruntime:strrchr.obj
 0001:000386b7       __filter_x86_sse2_floating_point_exception_default 100396b7 f   LIBCMT:x86_exception_filter.obj
 0001:000386b7       __filter_x86_sse2_floating_point_exception 100396b7 f   LIBCMT:x86_exception_filter.obj
 0002:00000000       __imp__LoadLibraryA@4      1003a000     kernel32:KERNEL32.dll
 0002:00000004       __imp__WriteConsoleW@20    1003a004     kernel32:KERNEL32.dll
 0002:00000008       __imp__RaiseException@16   1003a008     kernel32:KERNEL32.dll
 0002:0000000c       __imp__GetLastError@0      1003a00c     kernel32:KERNEL32.dll
 0002:00000010       __imp__GetSystemInfo@4     1003a010     kernel32:KERNEL32.dll
 0002:00000014       __imp__VirtualProtect@16   1003a014     kernel32:KERNEL32.dll
 0002:00000018       __imp__VirtualQuery@12     1003a018     kernel32:KERNEL32.dll
 0002:0000001c       __imp__FreeLibrary@4       1003a01c     kernel32:KERNEL32.dll
 0002:00000020       __imp__GetModuleHandleW@4  1003a020     kernel32:KERNEL32.dll
 0002:00000024       __imp__GetProcAddress@8    1003a024     kernel32:KERNEL32.dll
 0002:00000028       __imp__LoadLibraryExA@12   1003a028     kernel32:KERNEL32.dll
 0002:0000002c       __imp__InitializeSListHead@4 1003a02c     kernel32:KERNEL32.dll
 0002:00000030       __imp__IsProcessorFeaturePresent@4 1003a030     kernel32:KERNEL32.dll
 0002:00000034       __imp__QueryPerformanceCounter@4 1003a034     kernel32:KERNEL32.dll
 0002:00000038       __imp__GetCurrentProcessId@0 1003a038     kernel32:KERNEL32.dll
 0002:0000003c       __imp__GetCurrentThreadId@0 1003a03c     kernel32:KERNEL32.dll
 0002:00000040       __imp__GetSystemTimeAsFileTime@4 1003a040     kernel32:KERNEL32.dll
 0002:00000044       __imp__IsDebuggerPresent@0 1003a044     kernel32:KERNEL32.dll
 0002:00000048       __imp__UnhandledExceptionFilter@4 1003a048     kernel32:KERNEL32.dll
 0002:0000004c       __imp__SetUnhandledExceptionFilter@4 1003a04c     kernel32:KERNEL32.dll
 0002:00000050       __imp__GetStartupInfoW@4   1003a050     kernel32:KERNEL32.dll
 0002:00000054       __imp__GetCurrentProcess@0 1003a054     kernel32:KERNEL32.dll
 0002:00000058       __imp__TerminateProcess@8  1003a058     kernel32:KERNEL32.dll
 0002:0000005c       __imp__InterlockedPushEntrySList@8 1003a05c     kernel32:KERNEL32.dll
 0002:00000060       __imp__InterlockedFlushSList@4 1003a060     kernel32:KERNEL32.dll
 0002:00000064       __imp__RtlUnwind@16        1003a064     kernel32:KERNEL32.dll
 0002:00000068       __imp__SetLastError@4      1003a068     kernel32:KERNEL32.dll
 0002:0000006c       __imp__EnterCriticalSection@4 1003a06c     kernel32:KERNEL32.dll
 0002:00000070       __imp__LeaveCriticalSection@4 1003a070     kernel32:KERNEL32.dll
 0002:00000074       __imp__DeleteCriticalSection@4 1003a074     kernel32:KERNEL32.dll
 0002:00000078       __imp__InitializeCriticalSectionAndSpinCount@8 1003a078     kernel32:KERNEL32.dll
 0002:0000007c       __imp__TlsAlloc@0          1003a07c     kernel32:KERNEL32.dll
 0002:00000080       __imp__TlsGetValue@4       1003a080     kernel32:KERNEL32.dll
 0002:00000084       __imp__TlsSetValue@8       1003a084     kernel32:KERNEL32.dll
 0002:00000088       __imp__TlsFree@4           1003a088     kernel32:KERNEL32.dll
 0002:0000008c       __imp__LoadLibraryExW@12   1003a08c     kernel32:KERNEL32.dll
 0002:00000090       __imp__EncodePointer@4     1003a090     kernel32:KERNEL32.dll
 0002:00000094       __imp__ExitProcess@4       1003a094     kernel32:KERNEL32.dll
 0002:00000098       __imp__GetModuleHandleExW@12 1003a098     kernel32:KERNEL32.dll
 0002:0000009c       __imp__GetModuleFileNameW@12 1003a09c     kernel32:KERNEL32.dll
 0002:000000a0       __imp__HeapFree@12         1003a0a0     kernel32:KERNEL32.dll
 0002:000000a4       __imp__HeapAlloc@12        1003a0a4     kernel32:KERNEL32.dll
 0002:000000a8       __imp__FindClose@4         1003a0a8     kernel32:KERNEL32.dll
 0002:000000ac       __imp__FindFirstFileExW@24 1003a0ac     kernel32:KERNEL32.dll
 0002:000000b0       __imp__FindNextFileW@8     1003a0b0     kernel32:KERNEL32.dll
 0002:000000b4       __imp__IsValidCodePage@4   1003a0b4     kernel32:KERNEL32.dll
 0002:000000b8       __imp__GetACP@0            1003a0b8     kernel32:KERNEL32.dll
 0002:000000bc       __imp__GetOEMCP@0          1003a0bc     kernel32:KERNEL32.dll
 0002:000000c0       __imp__GetCPInfo@8         1003a0c0     kernel32:KERNEL32.dll
 0002:000000c4       __imp__GetCommandLineA@0   1003a0c4     kernel32:KERNEL32.dll
 0002:000000c8       __imp__GetCommandLineW@0   1003a0c8     kernel32:KERNEL32.dll
 0002:000000cc       __imp__MultiByteToWideChar@24 1003a0cc     kernel32:KERNEL32.dll
 0002:000000d0       __imp__WideCharToMultiByte@32 1003a0d0     kernel32:KERNEL32.dll
 0002:000000d4       __imp__GetEnvironmentStringsW@0 1003a0d4     kernel32:KERNEL32.dll
 0002:000000d8       __imp__FreeEnvironmentStringsW@4 1003a0d8     kernel32:KERNEL32.dll
 0002:000000dc       __imp__LCMapStringW@24     1003a0dc     kernel32:KERNEL32.dll
 0002:000000e0       __imp__GetProcessHeap@0    1003a0e0     kernel32:KERNEL32.dll
 0002:000000e4       __imp__GetStdHandle@4      1003a0e4     kernel32:KERNEL32.dll
 0002:000000e8       __imp__GetFileType@4       1003a0e8     kernel32:KERNEL32.dll
 0002:000000ec       __imp__GetStringTypeW@16   1003a0ec     kernel32:KERNEL32.dll
 0002:000000f0       __imp__HeapSize@12         1003a0f0     kernel32:KERNEL32.dll
 0002:000000f4       __imp__HeapReAlloc@16      1003a0f4     kernel32:KERNEL32.dll
 0002:000000f8       __imp__SetStdHandle@8      1003a0f8     kernel32:KERNEL32.dll
 0002:000000fc       __imp__FlushFileBuffers@4  1003a0fc     kernel32:KERNEL32.dll
 0002:00000100       __imp__WriteFile@20        1003a100     kernel32:KERNEL32.dll
 0002:00000104       __imp__GetConsoleOutputCP@0 1003a104     kernel32:KERNEL32.dll
 0002:00000108       __imp__GetConsoleMode@8    1003a108     kernel32:KERNEL32.dll
 0002:0000010c       __imp__SetFilePointerEx@20 1003a10c     kernel32:KERNEL32.dll
 0002:00000110       __imp__CreateFileW@28      1003a110     kernel32:KERNEL32.dll
 0002:00000114       __imp__CloseHandle@4       1003a114     kernel32:KERNEL32.dll
 0002:00000118       __imp__DecodePointer@4     1003a118     kernel32:KERNEL32.dll
 0002:0000011c       \177KERNEL32_NULL_THUNK_DATA 1003a11c     kernel32:KERNEL32.dll
 0002:00000120       ___guard_check_icall_fptr  1003a120     LIBCMT:guard_support.obj
 0002:00000124       ___xc_a                    1003a124     LIBCMT:initializers.obj
 0002:00000218       ___xc_z                    1003a218     LIBCMT:initializers.obj
 0002:0000021c       ___xi_a                    1003a21c     LIBCMT:initializers.obj
 0002:00000220       ___acrt_multibyte_initializer 1003a220     libucrt:multibyte_initializer.obj
 0002:00000224       ___acrt_stdio_initializer  1003a224     libucrt:stdio_initializer.obj
 0002:00000228       ___acrt_tran_sse2_initializer 1003a228     libucrt:sse2_initializer.obj
 0002:0000022c       ___xi_z                    1003a22c     LIBCMT:initializers.obj
 0002:00000230       ___xp_a                    1003a230     LIBCMT:initializers.obj
 0002:00000234       ___acrt_locale_terminator  1003a234     libucrt:locale_initializer.obj
 0002:00000238       ___dcrt_console_output_terminator 1003a238     libucrt:console_output_initializer.obj
 0002:0000023c       ___acrt_stdio_terminator   1003a23c     libucrt:stdio_initializer.obj
 0002:00000240       ___xp_z                    1003a240     LIBCMT:initializers.obj
 0002:00000244       ___xt_a                    1003a244     LIBCMT:initializers.obj
 0002:00000248       ___xt_z                    1003a248     LIBCMT:initializers.obj
 0002:00000250       ??_7PxFoundation@physx@@6B@ 1003a250     Adjacencies.obj
 0002:00000270       ??_C@_0FM@DEOJLOMJ@C?3?2Users?2niclas?2Downloads?2PhysX@ 1003a270     Adjacencies.obj
 0002:000002cc       ??_C@_0DA@FMEHLBKI@Adjacencies?3?3UpdateLink?3?5invali@ 1003a2cc     Adjacencies.obj
 0002:00000300       ??_C@_0EA@CPHOACLK@Adjacencies?3?3CreateDatabase?3?5ca@ 1003a300     Adjacencies.obj
 0002:00000340       ??_C@_0BM@OIFKLHDN@?$DMallocation?5names?5disabled?$DO@ 1003a340     Adjacencies.obj
 0002:00000380       ?sBufferSize@DebugText@Cm@physx@@2HB 1003a380     Cooking.obj
 0002:00000384       ??_C@_06EJKDJEDO@PxBase@   1003a384     Cooking.obj
 0002:0000038c       ??_C@_0N@CDGINLLF@PxConvexMesh@ 1003a38c     Cooking.obj
 0002:0000039c       ??_C@_0O@PBAKPCEC@PxHeightField@ 1003a39c     Cooking.obj
 0002:000003ac       ??_7PxBase@physx@@6B@      1003a3ac     Cooking.obj
 0002:000003c0       ??_7PxCooking@physx@@6B@   1003a3c0     Cooking.obj
 0002:00000400       ??_7Cooking@physx@@6B@     1003a400     Cooking.obj
 0002:00000440       ??_C@_0FC@PJIHAFK@Cooking?3?3validateTriangleMesh?3?5@ 1003a440     Cooking.obj
 0002:00000498       ??_C@_0FI@DPCNAIKD@C?3?2Users?2niclas?2Downloads?2PhysX@ 1003a498     Cooking.obj
 0002:000004f0       ??_C@_0EK@EKAIJEBL@Cooking?3?3cookConvexMesh?3?5user?9p@ 1003a4f0     Cooking.obj
 0002:00000540       ??_C@_0FA@GFFGAPML@Cooking?3?3cookConvexMesh?3?5provid@ 1003a540     Cooking.obj
 0002:00000590       ??_C@_0EP@PKDCPNNO@Cooking?3?3cookConvexMesh?3?5provid@ 1003a590     Cooking.obj
 0002:000005e0       ??_C@_0EO@LKFMMDE@Cooking?3?3cookConvexMesh?3?5user?9p@ 1003a5e0     Cooking.obj
 0002:00000630       ??_C@_0FI@DEEFGMMO@C?3?2Users?2niclas?2Downloads?2PhysX@ 1003a630     Cooking.obj
 0002:00000688       __real@3a83126f            1003a688     Cooking.obj
 0002:0000068c       __real@3f800000            1003a68c     Cooking.obj
 0002:00000690       __real@ba83126f            1003a690     Cooking.obj
 0002:000006a0       __xmm@000000003a83126f3a83126f3a83126f 1003a6a0     Cooking.obj
 0002:000006b0       __xmm@00000000ba83126fba83126fba83126f 1003a6b0     Cooking.obj
 0002:000006c0       __xmm@80000000800000008000000080000000 1003a6c0     Cooking.obj
 0002:000006d0       ??_C@_0BA@DLCJDKDM@NonTrackedAlloc@ 1003a6d0     CookingUtils.obj
 0002:000006e0       ??_C@_0FN@DOOABIAK@C?3?2Users?2niclas?2Downloads?2PhysX@ 1003a6e0     CookingUtils.obj
 0002:00000740       ??_C@_0FJ@LEKDFLJ@C?3?2Users?2niclas?2Downloads?2PhysX@ 1003a740     EdgeList.obj
 0002:0000079c       ??_C@_0CO@GBNJFPN@EdgeList?3?3CreateFacesToEdges?3?5N@ 1003a79c     EdgeList.obj
 0002:000007cc       ??_C@_0CO@EHJBBMNK@EdgeList?3?3ComputeActiveEdges?3?5N@ 1003a7cc     EdgeList.obj
 0002:000007fc       ??_C@_0DI@GBHLFOFP@ActiveEdges?3?3ComputeConvexEdges@ 1003a7fc     EdgeList.obj
 0002:00000834       ??_C@_0DM@JOGBLHDI@ActiveEdges?3?3ComputeConvexEdges@ 1003a834     EdgeList.obj
 0002:00000870       ??_C@_0ED@FEMJKPEL@ActiveEdges?3?3ComputeConvexEdges@ 1003a870     EdgeList.obj
 0002:000008b8       ??_C@_0EB@BFDPMFCD@ActiveEdges?3?3ComputeConvexEdges@ 1003a8b8     EdgeList.obj
 0002:000008fc       __real@00000000            1003a8fc     EdgeList.obj
 0002:00000900       __real@bf7fbe77            1003a900     EdgeList.obj
 0002:00000910       __xmm@7fffffff7fffffff7fffffff7fffffff 1003a910     EdgeList.obj
 0002:00000920       ??_C@_0FM@BBLCJDJN@C?3?2Users?2niclas?2Downloads?2PhysX@ 1003a920     MeshCleaner.obj
 0002:0000097c       __real@3f000000            1003a97c     MeshCleaner.obj
 0002:00000980       __real@4b000000            1003a980     MeshCleaner.obj
 0002:00000984       __real@80000000            1003a984     MeshCleaner.obj
 0002:00000988       ??_7Quantizer@physx@@6B@   1003a988     Quantizer.obj
 0002:0000099c       ??_7QuantizerImpl@@6B@     1003a99c     Quantizer.obj
 0002:000009b0       ??_C@_0FK@HLFLDEPP@C?3?2Users?2niclas?2Downloads?2PhysX@ 1003a9b0     Quantizer.obj
 0002:00000a0c       __real@3f8020c5            1003aa0c     Quantizer.obj
 0002:00000a10       __real@7f7fffff            1003aa10     Quantizer.obj
 0002:00000a14       __real@fe7fffff            1003aa14     Quantizer.obj
 0002:00000a20       __xmm@41f00000000000000000000000000000 1003aa20     Quantizer.obj
 0002:00000a30       __xmm@fe7fffff7e7fffff7e7fffff7e7fffff 1003aa30     Quantizer.obj
 0002:00000a60       ??_C@_0GE@MLPJEFCF@C?3?2Users?2niclas?2Downloads?2PhysX@ 1003aa60     BVHStructureBuilder.obj
 0002:00000ac4       __real@3ba3d70a            1003aac4     BVHStructureBuilder.obj
 0002:00000af0       ?reductionFactors@SubSortQuick@physx@@2QBMB 1003aaf0     RTreeCooking.obj
 0002:00000afc       ?stopAtTrisPerLeaf1@SubSortQuick@physx@@2QBIB 1003aafc     RTreeCooking.obj
 0002:00000b98       ??_C@_0GC@NNMAEOBC@C?3?2Users?2niclas?2Downloads?2PhysX@ 1003ab98     RTreeCooking.obj
 0002:00000c00       ??_C@_0FH@IPMCDALK@C?3?2Users?2niclas?2Downloads?2PhysX@ 1003ac00     RTreeCooking.obj
 0002:00000c58       ??_C@_0GA@PNCBPNMN@C?3?2Users?2niclas?2Downloads?2PhysX@ 1003ac58     RTreeCooking.obj
 0002:00000cb8       __real@37800080            1003acb8     RTreeCooking.obj
 0002:00000cbc       __real@3a03126f            1003acbc     RTreeCooking.obj
 0002:00000cc0       __real@41100000            1003acc0     RTreeCooking.obj
 0002:00000cc4       __real@41700000            1003acc4     RTreeCooking.obj
 0002:00000cc8       __real@42200000            1003acc8     RTreeCooking.obj
 0002:00000ccc       __real@ff7fffff            1003accc     RTreeCooking.obj
 0002:00000cd0       __xmm@00000004000000030000000200000001 1003acd0     RTreeCooking.obj
 0002:00000d00       __real@34800000            1003ad00     MeshBuilder.obj
 0002:00000d30       ??_7MeshDataBase@Gu@physx@@6B@ 1003ad30     TriangleMeshBuilder.obj
 0002:00000d38       ??_C@_0FL@KGEEJDBL@C?3?2Users?2niclas?2Downloads?2PhysX@ 1003ad38     TriangleMeshBuilder.obj
 0002:00000d94       ??_7TriangleMeshData@Gu@physx@@6B@ 1003ad94     TriangleMeshBuilder.obj
 0002:00000d98       ??_7RTreeTriangleData@Gu@physx@@6B@ 1003ad98     TriangleMeshBuilder.obj
 0002:00000d9c       ??_7BV4TriangleData@Gu@physx@@6B@ 1003ad9c     TriangleMeshBuilder.obj
 0002:00000da0       ??_7RemapCallback@RTreeCooker@physx@@6B@ 1003ada0     TriangleMeshBuilder.obj
 0002:00000da8       ??_7TriangleMeshBuilder@physx@@6B@ 1003ada8     TriangleMeshBuilder.obj
 0002:00000dbc       ??_7RTreeTriangleMeshBuilder@physx@@6B@ 1003adbc     TriangleMeshBuilder.obj
 0002:00000dd0       ??_7BV4TriangleMeshBuilder@physx@@6B@ 1003add0     TriangleMeshBuilder.obj
 0002:00000de8       ??_C@_0GK@PNAOGKOA@C?3?2Users?2niclas?2Downloads?2PhysX@ 1003ade8     TriangleMeshBuilder.obj
 0002:00000e58       ??_C@_0GJ@FDHFMLAH@C?3?2Users?2niclas?2Downloads?2PhysX@ 1003ae58     TriangleMeshBuilder.obj
 0002:00000ec4       ??_C@_0DJ@IGODLHLP@TriangleMesh?3?5Enable?5mesh?5weldi@ 1003aec4     TriangleMeshBuilder.obj
 0002:00000f00       ??_C@_0FJ@HHJLKGDF@TriangleMesh?3?5triangles?5are?5too@ 1003af00     TriangleMeshBuilder.obj
 0002:00000f5c       ??_C@_0CN@KGPHHHLK@TriangleMesh?3?5mesh?5is?5too?5big?5f@ 1003af5c     TriangleMeshBuilder.obj
 0002:00000f8c       ??_C@_0DD@CMJGDCNN@TriangleMesh?3?3loadFromDesc?3?5des@ 1003af8c     TriangleMeshBuilder.obj
 0002:00000fc0       ??_C@_0ED@ILJJNHIP@TriangleMesh?3?3loadFromDesc?3?5mPa@ 1003afc0     TriangleMeshBuilder.obj
 0002:00001004       ??_C@_0BJ@BKHDBBHO@cleaning?5the?5mesh?5failed@ 1003b004     TriangleMeshBuilder.obj
 0002:00001020       ??_C@_0BK@JIDHMMCE@BV4?5tree?5failed?5to?5build?4@ 1003b020     TriangleMeshBuilder.obj
 0002:0000103c       ??_C@_0BL@DHNECNBE@BV32?5tree?5failed?5to?5build?4@ 1003b03c     TriangleMeshBuilder.obj
 0002:00001058       ??_7RTreeCookerRemap@physx@@6B@ 1003b058     TriangleMeshBuilder.obj
 0002:00001060       __real@48742400            1003b060     TriangleMeshBuilder.obj
 0002:00001070       __xmm@00000003000000020000000100000000 1003b070     TriangleMeshBuilder.obj
 0002:000010a0       ??_C@_0GM@DAEJMCNA@C?3?2Users?2niclas?2Downloads?2PhysX@ 1003b0a0     BigConvexDataBuilder.obj
 0002:0000110c       __real@40000000            1003b10c     BigConvexDataBuilder.obj
 0002:00001130       ??_C@_0GJ@MBMLCJGC@C?3?2Users?2niclas?2Downloads?2PhysX@ 1003b130     ConvexHullBuilder.obj
 0002:000011a0       ??_C@_0EB@DCEIFDGC@ConvexHullBuilder?3?3init?3?5convex@ 1003b1a0     ConvexHullBuilder.obj
 0002:000011e8       ??_C@_0FM@KICBLCBH@Gu?3?3ConvexMesh?3?3checkHullPolygo@ 1003b1e8     ConvexHullBuilder.obj
 0002:00001248       ??_C@_0GO@HBFIOGLL@Gu?3?3ConvexMesh?3?3checkHullPolygo@ 1003b248     ConvexHullBuilder.obj
 0002:000012b8       ??_C@_0HF@OLJFBIEL@ConvexHullBuilder?3?5convex?5hull?5@ 1003b2b8     ConvexHullBuilder.obj
 0002:00001330       ??_C@_0OG@JNHFOIL@ConvexHullBuilder?3?5convex?5hull?5@ 1003b330     ConvexHullBuilder.obj
 0002:00001418       ??_C@_0EJ@NIOIBAKH@Cooking?3?3cookConvexMesh?3?5non?9ma@ 1003b418     ConvexHullBuilder.obj
 0002:00001464       __real@3ca3d70a            1003b464     ConvexHullBuilder.obj
 0002:00001468       __real@3eaaaaab            1003b468     ConvexHullBuilder.obj
 0002:0000146c       ??_7ConvexHullLib@physx@@6B@ 1003b46c     ConvexHullLib.obj
 0002:00001480       ??_C@_0GF@IMCJIBKL@C?3?2Users?2niclas?2Downloads?2PhysX@ 1003b480     ConvexHullLib.obj
 0002:000014e8       ??_C@_0JE@PABBNGEL@ConvexHullLib?3?3cleanupVertices?3@ 1003b4e8     ConvexHullLib.obj
 0002:0000157c       __real@358637bd            1003b57c     ConvexHullLib.obj
 0002:00001580       __real@38d1b717            1003b580     ConvexHullLib.obj
 0002:00001584       __real@3c23d70a            1003b584     ConvexHullLib.obj
 0002:00001588       __real@3d4ccccd            1003b588     ConvexHullLib.obj
 0002:000015b0       ??_C@_0GH@GCBBLHFJ@C?3?2Users?2niclas?2Downloads?2PhysX@ 1003b5b0     ConvexHullUtils.obj
 0002:00001618       __real@00800000            1003b618     ConvexHullUtils.obj
 0002:0000161c       __real@3e20d97c            1003b61c     ConvexHullUtils.obj
 0002:00001620       __real@bf000000            1003b620     ConvexHullUtils.obj
 0002:00001650       ??_C@_0DF@LLFJIJGM@Gu?3?3ConvexMesh?3?3loadFromDesc?3?5d@ 1003b650     ConvexMeshBuilder.obj
 0002:00001688       ??_C@_0GJ@PGPIJDH@C?3?2Users?2niclas?2Downloads?2PhysX@ 1003b688     ConvexMeshBuilder.obj
 0002:000016f8       ??_C@_0HK@JOGKIEAA@Gu?3?3ConvexMesh?3?5Mesh?5has?5a?5nega@ 1003b6f8     ConvexMeshBuilder.obj
 0002:00001774       ??_C@_0DH@NJPPHFFD@Gu?3?3ConvexMesh?3?5Error?5computing@ 1003b774     ConvexMeshBuilder.obj
 0002:000017ac       ??_C@_0DJ@LJDLGLDJ@Gu?3?3ConvexMesh?3?3loadConvexHull?3@ 1003b7ac     ConvexMeshBuilder.obj
 0002:000017e8       ??_C@_0HJ@KJANPPOE@ConvexMeshBuilder?3?3computeHullP@ 1003b7e8     ConvexMeshBuilder.obj
 0002:00001864       ??_C@_06KDGGGLIJ@PxVec3@   1003b864     ConvexMeshBuilder.obj
 0002:0000186c       ??_C@_05LMJPANIN@PxU32@    1003b86c     ConvexMeshBuilder.obj
 0002:00001874       ??_C@_0O@JMAGMMGG@PxHullPolygon@ 1003b874     ConvexMeshBuilder.obj
 0002:00001884       __real@33d6bf95            1003b884     ConvexMeshBuilder.obj
 0002:00001888       __real@3f13cd3a            1003b888     ConvexMeshBuilder.obj
 0002:0000188c       __real@b3d6bf95            1003b88c     ConvexMeshBuilder.obj
 0002:00001890       __xmm@80000000000000008000000000000000 1003b890     ConvexMeshBuilder.obj
 0002:000018a0       ??_C@_0DP@PJBJBEGF@Meshmerizer?3?3extractHullPolygon@ 1003b8a0     ConvexPolygonsBuilder.obj
 0002:000018e0       ??_C@_0GN@CENCDFJ@C?3?2Users?2niclas?2Downloads?2PhysX@ 1003b8e0     ConvexPolygonsBuilder.obj
 0002:00001950       ??_C@_0DL@IAFKOCCK@ConvexHullBuilder?3?5convex?5hull?5@ 1003b950     ConvexPolygonsBuilder.obj
 0002:00001990       ??_C@_0GF@OJLJHAMH@ConvexHullBuilder?3?3CreateTriang@ 1003b990     ConvexPolygonsBuilder.obj
 0002:000019f8       __real@bf800000            1003b9f8     ConvexPolygonsBuilder.obj
 0002:000019fc       ??_7QuickHullConvexHullLib@physx@@6B@ 1003b9fc     QuickHullConvexHullLib.obj
 0002:00001a10       ??_C@_0GO@PJDEIPGH@C?3?2Users?2niclas?2Downloads?2PhysX@ 1003ba10     QuickHullConvexHullLib.obj
 0002:00001a80       ??_C@_0GA@EPPAEJPM@QuickHullConvexHullLib?3?3findSim@ 1003ba80     QuickHullConvexHullLib.obj
 0002:00001ae0       ??_C@_0FB@NEBIJMML@QuickHullConvexHullLib?3?3findSim@ 1003bae0     QuickHullConvexHullLib.obj
 0002:00001b38       ??_C@_0FB@CLLCBEMM@QuickHullConvexHullLib?3?3findSim@ 1003bb38     QuickHullConvexHullLib.obj
 0002:00001b8c       __real@34c00000            1003bb8c     QuickHullConvexHullLib.obj
 0002:00001b90       __real@3e800000            1003bb90     QuickHullConvexHullLib.obj
 0002:00001bc0       __real@3c088889            1003bbc0     VolumeIntegration.obj
 0002:00001bc4       __real@3c888889            1003bbc4     VolumeIntegration.obj
 0002:00001bc8       __real@3d2aaaab            1003bbc8     VolumeIntegration.obj
 0002:00001bcc       __real@3e2aaaab            1003bbcc     VolumeIntegration.obj
 0002:00001bd0       __real@3fe0000000000000    1003bbd0     VolumeIntegration.obj
 0002:00001bd8       __real@3ff0000000000000    1003bbd8     VolumeIntegration.obj
 0002:00001be0       __xmm@3f811111111111113f81111111111111 1003bbe0     VolumeIntegration.obj
 0002:00001bf0       __xmm@3f811111111111113f91111111111111 1003bbf0     VolumeIntegration.obj
 0002:00001c00       __xmm@3f911111111111113f91111111111111 1003bc00     VolumeIntegration.obj
 0002:00001c10       __xmm@3fa55555555555553fa5555555555555 1003bc10     VolumeIntegration.obj
 0002:00001c20       __xmm@3fa55555555555553fc5555555555555 1003bc20     VolumeIntegration.obj
 0002:00001c30       ??_C@_0BA@EGLNOO@PhysXFoundation@ 1003bc30     WindowsCookingDelayLoadHook.obj
 0002:00001c40       ??_C@_0M@ILKNCJKN@PhysXCommon@ 1003bc40     WindowsCookingDelayLoadHook.obj
 0002:00001c50       __sz_PhysXCommon_32_dll    1003bc50     PhysXCommon_32:PhysXCommon_32.dll
 0002:00001c70       __sz_PhysXFoundation_32_dll 1003bc70     PhysXFoundation_32:PhysXFoundation_32.dll
 0002:00001c88       ??_C@_1BK@DBDEIDLH@?$AAK?$AAE?$AAR?$AAN?$AAE?$AAL?$AA3?$AA2?$AA?4?$AAD?$AAL?$AAL@ 1003bc88     Delayimp:delayhlp.obj
 0002:00001ca4       ??_C@_0BI@OMNLIJDB@AcquireSRWLockExclusive@ 1003bca4     Delayimp:delayhlp.obj
 0002:00001cbc       ??_C@_0BI@HMIEPCNJ@ReleaseSRWLockExclusive@ 1003bcbc     Delayimp:delayhlp.obj
 0002:00001cd4       ___pfnDliFailureHook2      1003bcd4     Delayimp:delayhk1.obj
 0002:00001cdc       ??_7type_info@@6B@         1003bcdc     LIBCMT:std_type_info_static.obj
 0002:00001d60       __pRawDllMain              1003bd60     LIBCMT:dll_dllmain.obj
 0002:00001d60       __pDefaultRawDllMain       1003bd60     LIBCMT:dll_dllmain.obj
 0002:00001d68       __load_config_used         1003bd68     LIBCMT:loadcfg.obj
 0002:00001e2c       __pDestructExceptionObject 1003be2c     libvcruntime:ehhelpers.obj
 0002:000021b0       ??_C@_08EHJDFFNH@__based?$CI@ 1003c1b0     libvcruntime:undname.obj
 0002:000021bc       ??_C@_07KOLFKCDI@__cdecl@  1003c1bc     libvcruntime:undname.obj
 0002:000021c4       ??_C@_08GHMPAG@__pascal@   1003c1c4     libvcruntime:undname.obj
 0002:000021d0       ??_C@_09IFJBGAPI@__stdcall@ 1003c1d0     libvcruntime:undname.obj
 0002:000021dc       ??_C@_0L@NPHFGOKO@__thiscall@ 1003c1dc     libvcruntime:undname.obj
 0002:000021e8       ??_C@_0L@JMKHOMEK@__fastcall@ 1003c1e8     libvcruntime:undname.obj
 0002:000021f4       ??_C@_0N@BCKKPABJ@__vectorcall@ 1003c1f4     libvcruntime:undname.obj
 0002:00002204       ??_C@_09HIJEGCPM@__clrcall@ 1003c204     libvcruntime:undname.obj
 0002:00002210       ??_C@_06GHPCKEAG@__eabi@   1003c210     libvcruntime:undname.obj
 0002:00002218       ??_C@_09IOPIDJLG@__swift_1@ 1003c218     libvcruntime:undname.obj
 0002:00002224       ??_C@_09KFNFGKHF@__swift_2@ 1003c224     libvcruntime:undname.obj
 0002:00002230       ??_C@_07JOMMBBKO@__ptr64@  1003c230     libvcruntime:undname.obj
 0002:00002238       ??_C@_0L@PILCLIHE@__restrict@ 1003c238     libvcruntime:undname.obj
 0002:00002244       ??_C@_0M@GFIIJFMG@__unaligned@ 1003c244     libvcruntime:undname.obj
 0002:00002250       ??_C@_09DHDLOLLB@restrict?$CI@ 1003c250     libvcruntime:undname.obj
 0002:0000225a       ??_C@_00CNPNBAHC@@         1003c25a     libvcruntime:undname.obj
 0002:0000225c       ??_C@_04NIHEBCM@?5new@     1003c25c     libvcruntime:undname.obj
 0002:00002264       ??_C@_07FPCDHGMM@?5delete@ 1003c264     libvcruntime:undname.obj
 0002:0000226c       ??_C@_01NEMOKFLO@?$DN@     1003c26c     libvcruntime:undname.obj
 0002:00002270       ??_C@_02GPIOPFAK@?$DO?$DO@ 1003c270     libvcruntime:undname.obj
 0002:00002274       ??_C@_02FODMEDOG@?$DM?$DM@ 1003c274     libvcruntime:undname.obj
 0002:00002278       ??_C@_01DCLJPIOD@?$CB@     1003c278     libvcruntime:undname.obj
 0002:0000227c       ??_C@_02EGOFBIJA@?$DN?$DN@ 1003c27c     libvcruntime:undname.obj
 0002:00002280       ??_C@_02FDNJECIE@?$CB?$DN@ 1003c280     libvcruntime:undname.obj
 0002:00002284       ??_C@_02GPECMEKF@?$FL?$FN@ 1003c284     libvcruntime:undname.obj
 0002:00002288       ??_C@_08LHJFAFGD@operator@ 1003c288     libvcruntime:undname.obj
 0002:00002294       ??_C@_02HBOOOICD@?9?$DO@   1003c294     libvcruntime:undname.obj
 0002:00002298       ??_C@_01NBENCBCI@?$CK@     1003c298     libvcruntime:undname.obj
 0002:0000229c       ??_C@_02ECNGHCIF@?$CL?$CL@ 1003c29c     libvcruntime:undname.obj
 0002:000022a0       ??_C@_02BAABKJLB@?9?9@     1003c2a0     libvcruntime:undname.obj
 0002:000022a4       ??_C@_01JOAMLHOP@?9@       1003c2a4     libvcruntime:undname.obj
 0002:000022a8       ??_C@_01MIFGBAGJ@?$CL@     1003c2a8     libvcruntime:undname.obj
 0002:000022ac       ??_C@_01HNPIGOCE@?$CG@     1003c2ac     libvcruntime:undname.obj
 0002:000022b0       ??_C@_03MNHNFDLC@?9?$DO?$CK@ 1003c2b0     libvcruntime:undname.obj
 0002:000022b4       ??_C@_01KMDKNFGN@?1@       1003c2b4     libvcruntime:undname.obj
 0002:000022b8       ??_C@_01FGNFDNOH@?$CF@     1003c2b8     libvcruntime:undname.obj
 0002:000022bc       ??_C@_01MNNFJEPP@?$DM@     1003c2bc     libvcruntime:undname.obj
 0002:000022c0       ??_C@_02EHCHHCKH@?$DM?$DN@ 1003c2c0     libvcruntime:undname.obj
 0002:000022c4       ??_C@_01PPODPGHN@?$DO@     1003c2c4     libvcruntime:undname.obj
 0002:000022c8       ??_C@_02EEKDKGMJ@?$DO?$DN@ 1003c2c8     libvcruntime:undname.obj
 0002:000022cc       ??_C@_01IHBHIGKO@?0@       1003c2cc     libvcruntime:undname.obj
 0002:000022d0       ??_C@_02HCKGKOFO@?$CI?$CJ@ 1003c2d0     libvcruntime:undname.obj
 0002:000022d4       ??_C@_01PJKLJHI@?$HO@      1003c2d4     libvcruntime:undname.obj
 0002:000022d8       ??_C@_01JKBOJNNK@?$FO@     1003c2d8     libvcruntime:undname.obj
 0002:000022dc       ??_C@_01DNKMNLPK@?$HM@     1003c2dc     libvcruntime:undname.obj
 0002:000022e0       ??_C@_02PPKAJPJL@?$CG?$CG@ 1003c2e0     libvcruntime:undname.obj
 0002:000022e4       ??_C@_02NONPIBCD@?$HM?$HM@ 1003c2e4     libvcruntime:undname.obj
 0002:000022e8       ??_C@_02FPIMKNGF@?$CK?$DN@ 1003c2e8     libvcruntime:undname.obj
 0002:000022ec       ??_C@_02FOEOMHFC@?$CL?$DN@ 1003c2ec     libvcruntime:undname.obj
 0002:000022f0       ??_C@_02FKMDLLOA@?9?$DN@   1003c2f0     libvcruntime:undname.obj
 0002:000022f4       ??_C@_02FJEHGPIO@?1?$DN@   1003c2f4     libvcruntime:undname.obj
 0002:000022f8       ??_C@_02FENAOKFI@?$CF?$DN@ 1003c2f8     libvcruntime:undname.obj
 0002:000022fc       ??_C@_03IKFCCPFF@?$DO?$DO?$DN@ 1003c2fc     libvcruntime:undname.obj
 0002:00002300       ??_C@_03CDNPDDLA@?$DM?$DM?$DN@ 1003c300     libvcruntime:undname.obj
 0002:00002304       ??_C@_02FGJGFEAB@?$CG?$DN@ 1003c304     libvcruntime:undname.obj
 0002:00002308       ??_C@_02DHLNPPGH@?$HM?$DN@ 1003c308     libvcruntime:undname.obj
 0002:0000230c       ??_C@_02MHEGNOJ@?$FO?$DN@  1003c30c     libvcruntime:undname.obj
 0002:00002310       ??_C@_09IFPLHPGF@?$GAvftable?8@ 1003c310     libvcruntime:undname.obj
 0002:0000231c       ??_C@_09BLBHBJP@?$GAvbtable?8@ 1003c31c     libvcruntime:undname.obj
 0002:00002328       ??_C@_07FEEIOKP@?$GAvcall?8@ 1003c328     libvcruntime:undname.obj
 0002:00002330       ??_C@_08LLFFHHDJ@?$GAtypeof?8@ 1003c330     libvcruntime:undname.obj
 0002:0000233c       ??_C@_0BF@KDPPACIK@?$GAlocal?5static?5guard?8@ 1003c33c     libvcruntime:undname.obj
 0002:00002354       ??_C@_08OBABFOLI@?$GAstring?8@ 1003c354     libvcruntime:undname.obj
 0002:00002360       ??_C@_0BD@JDLKDPAB@?$GAvbase?5destructor?8@ 1003c360     libvcruntime:undname.obj
 0002:00002374       ??_C@_0BN@DEGPLNFK@?$GAvector?5deleting?5destructor?8@ 1003c374     libvcruntime:undname.obj
 0002:00002394       ??_C@_0BO@OBMKPJIG@?$GAdefault?5constructor?5closure?8@ 1003c394     libvcruntime:undname.obj
 0002:000023b4       ??_C@_0BN@IMDCHIKM@?$GAscalar?5deleting?5destructor?8@ 1003c3b4     libvcruntime:undname.obj
 0002:000023d4       ??_C@_0BO@PFGOCPJJ@?$GAvector?5constructor?5iterator?8@ 1003c3d4     libvcruntime:undname.obj
 0002:000023f4       ??_C@_0BN@LFPFMEDL@?$GAvector?5destructor?5iterator?8@ 1003c3f4     libvcruntime:undname.obj
 0002:00002414       ??_C@_0CE@IKBNEHA@?$GAvector?5vbase?5constructor?5itera@ 1003c414     libvcruntime:undname.obj
 0002:00002438       ??_C@_0BL@NILFHHPC@?$GAvirtual?5displacement?5map?8@ 1003c438     libvcruntime:undname.obj
 0002:00002454       ??_C@_0CB@JONCMFFK@?$GAeh?5vector?5constructor?5iterator@ 1003c454     libvcruntime:undname.obj
 0002:00002478       ??_C@_0CA@GCEOPDGL@?$GAeh?5vector?5destructor?5iterator?8@ 1003c478     libvcruntime:undname.obj
 0002:00002498       ??_C@_0CH@OOJPLCPH@?$GAeh?5vector?5vbase?5constructor?5it@ 1003c498     libvcruntime:undname.obj
 0002:000024c0       ??_C@_0BL@LLKPOHJI@?$GAcopy?5constructor?5closure?8@ 1003c4c0     libvcruntime:undname.obj
 0002:000024dc       ??_C@_0BA@KBCDOMBN@?$GAudt?5returning?8@ 1003c4dc     libvcruntime:undname.obj
 0002:000024ec       ??_C@_03KLGMFNMG@?$GAEH@   1003c4ec     libvcruntime:undname.obj
 0002:000024f0       ??_C@_05KHLCHHI@?$GARTTI@  1003c4f0     libvcruntime:undname.obj
 0002:000024f8       ??_C@_0BA@KKLDJDLB@?$GAlocal?5vftable?8@ 1003c4f8     libvcruntime:undname.obj
 0002:00002508       ??_C@_0CE@IIHCMGGL@?$GAlocal?5vftable?5constructor?5clos@ 1003c508     libvcruntime:undname.obj
 0002:0000252c       ??_C@_06FHBGPFGH@?5new?$FL?$FN@ 1003c52c     libvcruntime:undname.obj
 0002:00002534       ??_C@_09LBNFPBCA@?5delete?$FL?$FN@ 1003c534     libvcruntime:undname.obj
 0002:00002540       ??_C@_0P@HJKNJFNN@?$GAomni?5callsig?8@ 1003c540     libvcruntime:undname.obj
 0002:00002550       ??_C@_0BL@CNOONJFP@?$GAplacement?5delete?5closure?8@ 1003c550     libvcruntime:undname.obj
 0002:0000256c       ??_C@_0BN@CKNJLHMB@?$GAplacement?5delete?$FL?$FN?5closure?8@ 1003c56c     libvcruntime:undname.obj
 0002:0000258c       ??_C@_0CG@CFDHKGGD@?$GAmanaged?5vector?5constructor?5ite@ 1003c58c     libvcruntime:undname.obj
 0002:000025b4       ??_C@_0CF@IMGKMJNO@?$GAmanaged?5vector?5destructor?5iter@ 1003c5b4     libvcruntime:undname.obj
 0002:000025dc       ??_C@_0CG@HLDDJMAG@?$GAeh?5vector?5copy?5constructor?5ite@ 1003c5dc     libvcruntime:undname.obj
 0002:00002604       ??_C@_0CM@FCBBDIGB@?$GAeh?5vector?5vbase?5copy?5construct@ 1003c604     libvcruntime:undname.obj
 0002:00002630       ??_C@_0BL@CLIPGLGB@?$GAdynamic?5initializer?5for?5?8@ 1003c630     libvcruntime:undname.obj
 0002:0000264c       ??_C@_0CB@PDBIFEP@?$GAdynamic?5atexit?5destructor?5for?5@ 1003c64c     libvcruntime:undname.obj
 0002:00002670       ??_C@_0CD@CGAJBKEJ@?$GAvector?5copy?5constructor?5iterat@ 1003c670     libvcruntime:undname.obj
 0002:00002694       ??_C@_0CJ@GJELGAMM@?$GAvector?5vbase?5copy?5constructor?5@ 1003c694     libvcruntime:undname.obj
 0002:000026c0       ??_C@_0CL@FGIJHLCE@?$GAmanaged?5vector?5copy?5constructo@ 1003c6c0     libvcruntime:undname.obj
 0002:000026ec       ??_C@_0BM@PMGGMLDN@?$GAlocal?5static?5thread?5guard?8@ 1003c6ec     libvcruntime:undname.obj
 0002:00002708       ??_C@_0N@BDNMDMOL@operator?5?$CC?$CC?5@ 1003c708     libvcruntime:undname.obj
 0002:00002718       ??_C@_0BC@GGEBGALA@operator?5co_await@ 1003c718     libvcruntime:undname.obj
 0002:0000272c       ??_C@_0M@GAAIMMOH@operator?$DM?$DN?$DO@ 1003c72c     libvcruntime:undname.obj
 0002:00002738       ??_C@_0BC@DAFEJGAK@?5Type?5Descriptor?8@ 1003c738     libvcruntime:undname.obj
 0002:0000274c       ??_C@_0BM@LDKODKLH@?5Base?5Class?5Descriptor?5at?5?$CI@ 1003c74c     libvcruntime:undname.obj
 0002:00002768       ??_C@_0BD@LGICGFMM@?5Base?5Class?5Array?8@ 1003c768     libvcruntime:undname.obj
 0002:0000277c       ??_C@_0BN@MECKDCOJ@?5Class?5Hierarchy?5Descriptor?8@ 1003c77c     libvcruntime:undname.obj
 0002:0000279c       ??_C@_0BK@CFCOFLF@?5Complete?5Object?5Locator?8@ 1003c79c     libvcruntime:undname.obj
 0002:000027b8       ??_C@_0BG@JNJLAMPM@?$GAanonymous?5namespace?8@ 1003c7b8     libvcruntime:undname.obj
 0002:000027d0       ??_C@_04HEJADOOB@CV?3?5@   1003c7d0     libvcruntime:undname.obj
 0002:000027d8       ??_C@_02MOLJINC@?3?3@      1003c7d8     libvcruntime:undname.obj
 0002:000027dc       ??_C@_0BE@JAEOCHPE@template?9parameter?9@ 1003c7dc     libvcruntime:undname.obj
 0002:000027f0       ??_C@_0BF@LNLGBBNL@?$GAtemplate?9parameter?9@ 1003c7f0     libvcruntime:undname.obj
 0002:00002808       ??_C@_0O@KHGCOMHP@generic?9type?9@ 1003c808     libvcruntime:undname.obj
 0002:00002818       ??_C@_0P@ODDENDLM@?$GAgeneric?9type?9@ 1003c818     libvcruntime:undname.obj
 0002:00002828       ??_C@_02OHHJMEON@?8?8@     1003c828     libvcruntime:undname.obj
 0002:0000282c       ??_C@_0BN@IBLMMFAP@?$GAnon?9type?9template?9parameter@ 1003c82c     libvcruntime:undname.obj
 0002:0000284c       ??_C@_03DLDNIBIK@?$CFlf@   1003c84c     libvcruntime:undname.obj
 0002:00002850       ??_C@_04OFALKAJ@?$DP?$DP_C@ 1003c850     libvcruntime:undname.obj
 0002:00002858       ??_C@_03KHICJKCI@?4?4?4@   1003c858     libvcruntime:undname.obj
 0002:0000285c       ??_C@_04HIBGFPH@NULL@      1003c85c     libvcruntime:undname.obj
 0002:00002864       ??_C@_02DPKJAMEF@?$CFd@    1003c864     libvcruntime:undname.obj
 0002:00002868       ??_C@_0BK@IHCCFNEL@?$GAtemplate?9type?9parameter?9@ 1003c868     libvcruntime:undname.obj
 0002:00002884       ??_C@_0BK@OFCNNNKO@?$GAgeneric?9class?9parameter?9@ 1003c884     libvcruntime:undname.obj
 0002:000028a0       ??_C@_0BL@NGJBLFIL@?$GAgeneric?9method?9parameter?9@ 1003c8a0     libvcruntime:undname.obj
 0002:000028bc       ??_C@_07OHNGEDJK@nullptr@  1003c8bc     libvcruntime:undname.obj
 0002:000028c4       ??_C@_04GKJNKENE@void@     1003c8c4     libvcruntime:undname.obj
 0002:000028cc       ??_C@_0BE@EODMJLIF@?$GAtemplate?9parameter@ 1003c8cc     libvcruntime:undname.obj
 0002:000028e0       ??_C@_03OPGICMGF@?$HN?8?5@ 1003c8e0     libvcruntime:undname.obj
 0002:000028e4       ??_C@_02IGFCGPIL@?$HN?8@   1003c8e4     libvcruntime:undname.obj
 0002:000028e8       ??_C@_0N@CBHHHENL@?$GAvtordispex?$HL@ 1003c8e8     libvcruntime:undname.obj
 0002:000028f8       ??_C@_0L@GHPFDFH@?$GAvtordisp?$HL@ 1003c8f8     libvcruntime:undname.obj
 0002:00002904       ??_C@_0L@HNGCOGAE@?$GAadjustor?$HL@ 1003c904     libvcruntime:undname.obj
 0002:00002910       ??_C@_0CB@KJDOOODE@?$GAlocal?5static?5destructor?5helper@ 1003c910     libvcruntime:undname.obj
 0002:00002934       ??_C@_0DB@ILEFOCIJ@?$GAtemplate?5static?5data?5member?5co@ 1003c934     libvcruntime:undname.obj
 0002:00002968       ??_C@_0DA@HGFJFBBE@?$GAtemplate?5static?5data?5member?5de@ 1003c968     libvcruntime:undname.obj
 0002:00002998       ??_C@_07PGOEDBHP@static?5@ 1003c998     libvcruntime:undname.obj
 0002:000029a0       ??_C@_08NIEOINHE@virtual?5@ 1003c9a0     libvcruntime:undname.obj
 0002:000029ac       ??_C@_09LAPHOOG@private?3?5@ 1003c9ac     libvcruntime:undname.obj
 0002:000029b8       ??_C@_0M@GAIFPFIP@protected?3?5@ 1003c9b8     libvcruntime:undname.obj
 0002:000029c4       ??_C@_08GPDDCMKI@public?3?5@ 1003c9c4     libvcruntime:undname.obj
 0002:000029d0       ??_C@_08KJLFOPNE@?$FLthunk?$FN?3@ 1003c9d0     libvcruntime:undname.obj
 0002:000029dc       ??_C@_0M@DHNBOJMP@extern?5?$CCC?$CC?5@ 1003c9dc     libvcruntime:undname.obj
 0002:000029e8       ??_C@_02KCKGHPCA@?$CJ?5@   1003c9e8     libvcruntime:undname.obj
 0002:000029ec       ??_C@_05CIHEBHNO@char?5@   1003c9ec     libvcruntime:undname.obj
 0002:000029f4       ??_C@_06EHJMALKF@short?5@  1003c9f4     libvcruntime:undname.obj
 0002:000029fc       ??_C@_04LAHKHJMA@int?5@    1003c9fc     libvcruntime:undname.obj
 0002:00002a04       ??_C@_05CJIMAING@long?5@   1003ca04     libvcruntime:undname.obj
 0002:00002a0c       ??_C@_09EBBEKKIH@unsigned?5@ 1003ca0c     libvcruntime:undname.obj
 0002:00002a18       ??_C@_05BEFAKPML@void?5@   1003ca18     libvcruntime:undname.obj
 0002:00002a20       ??_C@_09GAIEOBLP@volatile?5@ 1003ca20     libvcruntime:undname.obj
 0002:00002a2c       ??_C@_08PABEKFH@volatile@  1003ca2c     libvcruntime:undname.obj
 0002:00002a38       ??_C@_0BA@LKIJLKPP@std?3?3nullptr_t?5@ 1003ca38     libvcruntime:undname.obj
 0002:00002a48       ??_C@_0P@GCOCNKDM@std?3?3nullptr_t@ 1003ca48     libvcruntime:undname.obj
 0002:00002a58       ??_C@_0L@EGPHHEKN@?$DMellipsis?$DO@ 1003ca58     libvcruntime:undname.obj
 0002:00002a64       ??_C@_04EENFHACM@?0?4?4?4@ 1003ca64     libvcruntime:undname.obj
 0002:00002a6c       ??_C@_0M@ELJOJFFH@?0?$DMellipsis?$DO@ 1003ca6c     libvcruntime:undname.obj
 0002:00002a78       ??_C@_09DNHFEOJI@?5noexcept@ 1003ca78     libvcruntime:undname.obj
 0002:00002a84       ??_C@_03PBJBJNON@cpu@      1003ca84     libvcruntime:undname.obj
 0002:00002a88       ??_C@_03DCBBJBAA@amp@      1003ca88     libvcruntime:undname.obj
 0002:00002a8c       ??_C@_02KEGNLNML@?0?5@     1003ca8c     libvcruntime:undname.obj
 0002:00002a90       ??_C@_04ENMBGAPA@char@     1003ca90     libvcruntime:undname.obj
 0002:00002a98       ??_C@_05BFKKPKCG@short@    1003ca98     libvcruntime:undname.obj
 0002:00002aa0       ??_C@_03JBIPMCLC@int@      1003caa0     libvcruntime:undname.obj
 0002:00002aa4       ??_C@_04GOKPGOLB@long@     1003caa4     libvcruntime:undname.obj
 0002:00002aac       ??_C@_05KNFBNCOH@float@    1003caac     libvcruntime:undname.obj
 0002:00002ab4       ??_C@_06BNJCAIGJ@double@   1003cab4     libvcruntime:undname.obj
 0002:00002abc       ??_C@_04DDKJGDCM@bool@     1003cabc     libvcruntime:undname.obj
 0002:00002ac4       ??_C@_06EBGKOKIG@__int8@   1003cac4     libvcruntime:undname.obj
 0002:00002acc       ??_C@_07ICFHOGAF@__int16@  1003cacc     libvcruntime:undname.obj
 0002:00002ad4       ??_C@_07OFLPPHGP@__int32@  1003cad4     libvcruntime:undname.obj
 0002:00002adc       ??_C@_07LFCOJCAC@__int64@  1003cadc     libvcruntime:undname.obj
 0002:00002ae4       ??_C@_08GAHOLHEO@__int128@ 1003cae4     libvcruntime:undname.obj
 0002:00002af0       ??_C@_09EEKGDCPH@?$DMunknown?$DO@ 1003caf0     libvcruntime:undname.obj
 0002:00002afc       ??_C@_07CFHGOPCN@char8_t@  1003cafc     libvcruntime:undname.obj
 0002:00002b04       ??_C@_08HBIPOFJB@char16_t@ 1003cb04     libvcruntime:undname.obj
 0002:00002b10       ??_C@_08IECNCBKG@char32_t@ 1003cb10     libvcruntime:undname.obj
 0002:00002b1c       ??_C@_07CLGGIAMF@wchar_t@  1003cb1c     libvcruntime:undname.obj
 0002:00002b24       ??_C@_04HAPDLBFF@auto@     1003cb24     libvcruntime:undname.obj
 0002:00002b2c       ??_C@_0P@LHCGKIGK@decltype?$CIauto?$CJ@ 1003cb2c     libvcruntime:undname.obj
 0002:00002b3c       ??_C@_06GCICPBLB@__w64?5@  1003cb3c     libvcruntime:undname.obj
 0002:00002b44       ??_C@_07NFANNNEC@UNKNOWN@  1003cb44     libvcruntime:undname.obj
 0002:00002b4c       ??_C@_07EDHNAJHC@signed?5@ 1003cb4c     libvcruntime:undname.obj
 0002:00002b54       ??_C@_05BNCCCJPP@const@    1003cb54     libvcruntime:undname.obj
 0002:00002b5c       ??_C@_09EFNPDFFP@?5volatile@ 1003cb5c     libvcruntime:undname.obj
 0002:00002b68       ??_C@_0P@GCIFDJCJ@?$GAunknown?5ecsu?8@ 1003cb68     libvcruntime:undname.obj
 0002:00002b78       ??_C@_06MOJHIBMG@union?5@  1003cb78     libvcruntime:undname.obj
 0002:00002b80       ??_C@_07DIBCDNGL@struct?5@ 1003cb80     libvcruntime:undname.obj
 0002:00002b88       ??_C@_06LJBABKPM@class?5@  1003cb88     libvcruntime:undname.obj
 0002:00002b90       ??_C@_08KOFANOFK@coclass?5@ 1003cb90     libvcruntime:undname.obj
 0002:00002b9c       ??_C@_0N@DLIEFKNA@cointerface?5@ 1003cb9c     libvcruntime:undname.obj
 0002:00002bac       ??_C@_05LJGMCFOG@enum?5@   1003cbac     libvcruntime:undname.obj
 0002:00002bb4       ??_C@_06LIJLOJAG@const?5@  1003cbb4     libvcruntime:undname.obj
 0002:00002bbc       ??_C@_02KJPKDIBN@?$CG?5@   1003cbbc     libvcruntime:undname.obj
 0002:00002bc0       ??_C@_03PCKGMOPB@?$CG?$CG?5@ 1003cbc0     libvcruntime:undname.obj
 0002:00002bc4       ??_C@_0M@EALIELKG@cli?3?3array?$DM@ 1003cbc4     libvcruntime:undname.obj
 0002:00002bd0       ??_C@_0O@GKABPPIF@cli?3?3pin_ptr?$DM@ 1003cbd0     libvcruntime:undname.obj
 0002:00002be0       ??_C@_02GOGNNPBN@?$CJ?$FL@ 1003cbe0     libvcruntime:undname.obj
 0002:00002be4       ??_C@_06EEGAIFAK@?$HLflat?$HN@ 1003cbe4     libvcruntime:undname.obj
 0002:00002bec       ??_C@_05JIBOFOHK@?$HLfor?5@ 1003cbec     libvcruntime:undname.obj
 0002:00002bf4       ??_C@_02MDINNEEG@s?5@      1003cbf4     libvcruntime:undname.obj
 0002:00002bfc       ??_7charNode@@6B@          1003cbfc     libvcruntime:undname.obj
 0002:00002c10       ??_7pcharNode@@6B@         1003cc10     libvcruntime:undname.obj
 0002:00002c24       ??_7pDNameNode@@6B@        1003cc24     libvcruntime:undname.obj
 0002:00002c38       ??_7DNameStatusNode@@6B@   1003cc38     libvcruntime:undname.obj
 0002:00002c4c       ??_7pairNode@@6B@          1003cc4c     libvcruntime:undname.obj
 0002:00002d60       ??_C@_04OKOHEJBO@?5?$DP?$DP?5@ 1003cd60     libvcruntime:undname.obj
 0002:00002d68       ?nodes@?1??make@DNameStatusNode@@SAPBV2@W4DNameStatus@@@Z@4QBV2@B 1003cd68     libvcruntime:undname.obj
 0002:00002da4       ??_C@_1DM@KHCHBNEB@?$AAa?$AAp?$AAi?$AA?9?$AAm?$AAs?$AA?9?$AAw?$AAi?$AAn?$AA?9?$AAc?$AAo?$AAr?$AAe@ 1003cda4     libvcruntime:winapi_downlevel.obj
 0002:00002de0       ??_C@_1DK@LPPGFMPP@?$AAa?$AAp?$AAi?$AA?9?$AAm?$AAs?$AA?9?$AAw?$AAi?$AAn?$AA?9?$AAc?$AAo?$AAr?$AAe@ 1003cde0     libvcruntime:winapi_downlevel.obj
 0002:00002e1c       ??_C@_1BC@GDMECMAK@?$AAk?$AAe?$AAr?$AAn?$AAe?$AAl?$AA3?$AA2@ 1003ce1c     libvcruntime:winapi_downlevel.obj
 0002:00002e30       ??_C@_1BA@PFFKHIOG@?$AAa?$AAp?$AAi?$AA?9?$AAm?$AAs?$AA?9@ 1003ce30     libvcruntime:winapi_downlevel.obj
 0002:00002e48       ??_C@_08KNHFBNJ@FlsAlloc@  1003ce48     libvcruntime:winapi_downlevel.obj
 0002:00002e5c       ??_C@_07PEJMOBNF@FlsFree@  1003ce5c     libvcruntime:winapi_downlevel.obj
 0002:00002e6c       ??_C@_0M@GDNOONDI@FlsGetValue@ 1003ce6c     libvcruntime:winapi_downlevel.obj
 0002:00002e80       ??_C@_0M@JCPCPOEF@FlsSetValue@ 1003ce80     libvcruntime:winapi_downlevel.obj
 0002:00002e94       ??_C@_0BM@HCFOFFN@InitializeCriticalSectionEx@ 1003ce94     libvcruntime:winapi_downlevel.obj
 0002:00002eb4       ??_7exception@std@@6B@     1003ceb4     libvcruntime:frame.obj
 0002:00002ebc       ??_C@_0BC@EOODALEL@Unknown?5exception@ 1003cebc     libvcruntime:frame.obj
 0002:00002ed4       ??_7bad_exception@std@@6B@ 1003ced4     libvcruntime:frame.obj
 0002:00002edc       ??_C@_0O@DPKOEFFH@bad?5exception@ 1003cedc     libvcruntime:frame.obj
 0002:00002fd8       ??_C@_03KHJOGHMM@exp@      1003cfd8     libucrt:fpexcept.obj
 0002:00002fdc       ??_C@_03JGHBODFD@pow@      1003cfdc     libucrt:fpexcept.obj
 0002:00002fe0       ??_C@_03MGHMBJCF@log@      1003cfe0     libucrt:fpexcept.obj
 0002:00002fe4       ??_C@_05HGHHAHAP@log10@    1003cfe4     libucrt:fpexcept.obj
 0002:00002fec       ??_C@_04COOMCNPB@sinh@     1003cfec     libucrt:fpexcept.obj
 0002:00002ff4       ??_C@_04HPJJNFIM@cosh@     1003cff4     libucrt:fpexcept.obj
 0002:00002ffc       ??_C@_04FJHINJAO@tanh@     1003cffc     libucrt:fpexcept.obj
 0002:00003004       ??_C@_04FIHNOPOL@asin@     1003d004     libucrt:fpexcept.obj
 0002:0000300c       ??_C@_04PDIFKINK@acos@     1003d00c     libucrt:fpexcept.obj
 0002:00003014       ??_C@_04MLLJIGOK@atan@     1003d014     libucrt:fpexcept.obj
 0002:0000301c       ??_C@_05KNGEOGJB@atan2@    1003d01c     libucrt:fpexcept.obj
 0002:00003024       ??_C@_04EIAKFFMI@sqrt@     1003d024     libucrt:fpexcept.obj
 0002:0000302c       ??_C@_03BLEJJJBH@sin@      1003d02c     libucrt:fpexcept.obj
 0002:00003030       ??_C@_03LALBNOCG@cos@      1003d030     libucrt:fpexcept.obj
 0002:00003034       ??_C@_03IIINPABG@tan@      1003d034     libucrt:fpexcept.obj
 0002:00003038       ??_C@_04GFPJNGEK@ceil@     1003d038     libucrt:fpexcept.obj
 0002:00003040       ??_C@_05PBJFFIGL@floor@    1003d040     libucrt:fpexcept.obj
 0002:00003048       ??_C@_04ODHECPBC@fabs@     1003d048     libucrt:fpexcept.obj
 0002:00003050       ??_C@_04EHEDPDJG@modf@     1003d050     libucrt:fpexcept.obj
 0002:00003058       ??_C@_05CEJMAHNP@ldexp@    1003d058     libucrt:fpexcept.obj
 0002:00003060       ??_C@_05KBKMEMPO@_cabs@    1003d060     libucrt:fpexcept.obj
 0002:00003068       ??_C@_06MEIMCGCF@_hypot@   1003d068     libucrt:fpexcept.obj
 0002:00003070       ??_C@_04KEPJIHGP@fmod@     1003d070     libucrt:fpexcept.obj
 0002:00003078       ??_C@_05GKKHEGJL@frexp@    1003d078     libucrt:fpexcept.obj
 0002:00003080       ??_C@_03MJLDFKDL@_y0@      1003d080     libucrt:fpexcept.obj
 0002:00003084       ??_C@_03NAKIGLHK@_y1@      1003d084     libucrt:fpexcept.obj
 0002:00003088       ??_C@_03ONILCKOB@_yn@      1003d088     libucrt:fpexcept.obj
 0002:0000308c       ??_C@_05JGDBENOH@_logb@    1003d08c     libucrt:fpexcept.obj
 0002:00003094       ??_C@_0L@KDOEJCKC@_nextafter@ 1003d094     libucrt:fpexcept.obj
 0002:000030a0       ___acrt_exception_action_table 1003d0a0     libucrt:exception_filter.obj
 0002:00003130       ___acrt_signal_action_table_count 1003d130     libucrt:exception_filter.obj
 0002:00003134       ___acrt_signal_action_first_fpe_index 1003d134     libucrt:exception_filter.obj
 0002:00003138       ___acrt_signal_action_fpe_count 1003d138     libucrt:exception_filter.obj
 0002:0000313c       ??_C@_1BI@BGOHAHKC@?$AAm?$AAs?$AAc?$AAo?$AAr?$AAe?$AAe?$AA?4?$AAd?$AAl?$AAl@ 1003d13c     libucrt:exit.obj
 0002:00003154       ??_C@_0P@MIGLKIOC@CorExitProcess@ 1003d154     libucrt:exit.obj
 0002:000031e8       ?format_validation_lookup_table_spectre@__crt_stdio_output@@3V?$spectre_mitigated_lookup_table@Ustate_transition_pair@__crt_stdio_output@@$0IA@@1@B 1003d1e8     libucrt:output.obj
 0002:000035e8       ??_C@_1O@CEDCILHN@?$AA?$CI?$AAn?$AAu?$AAl?$AAl?$AA?$CJ@ 1003d5e8     libucrt:output.obj
 0002:000035f8       ??_C@_06OJHGLDPL@?$CInull?$CJ@ 1003d5f8     libucrt:output.obj
 0002:00003600       __d_inf                    1003d600     libucrt:util.obj
 0002:00003608       __d_max                    1003d608     libucrt:util.obj
 0002:00003610       __d_mzero                  1003d610     libucrt:util.obj
 0002:000037a8       ??_C@_1M@HPNHIDJI@?$AAj?$AAa?$AA?9?$AAJ?$AAP@ 1003d7a8     libucrt:mbctype.obj
 0002:000037b4       ??_C@_1M@BIBDDEMK@?$AAz?$AAh?$AA?9?$AAC?$AAN@ 1003d7b4     libucrt:mbctype.obj
 0002:000037c0       ??_C@_1M@JLOOOEGK@?$AAk?$AAo?$AA?9?$AAK?$AAR@ 1003d7c0     libucrt:mbctype.obj
 0002:000037cc       ??_C@_1M@CLNBBOPM@?$AAz?$AAh?$AA?9?$AAT?$AAW@ 1003d7cc     libucrt:mbctype.obj
 0002:00003828       ??_C@_1EA@JGEFHKEI@?$AAa?$AAp?$AAi?$AA?9?$AAm?$AAs?$AA?9?$AAw?$AAi?$AAn?$AA?9?$AAc?$AAo?$AAr?$AAe@ 1003d828     libucrt:winapi_thunks.obj
 0002:00003868       ??_C@_1DI@IJCEHOCB@?$AAa?$AAp?$AAi?$AA?9?$AAm?$AAs?$AA?9?$AAw?$AAi?$AAn?$AA?9?$AAc?$AAo?$AAr?$AAe@ 1003d868     libucrt:winapi_thunks.obj
 0002:000038a0       ??_C@_1EI@MPIAOHOC@?$AAa?$AAp?$AAi?$AA?9?$AAm?$AAs?$AA?9?$AAw?$AAi?$AAn?$AA?9?$AAc?$AAo?$AAr?$AAe@ 1003d8a0     libucrt:winapi_thunks.obj
 0002:000038e8       ??_C@_1FK@FPHCKFIE@?$AAa?$AAp?$AAi?$AA?9?$AAm?$AAs?$AA?9?$AAw?$AAi?$AAn?$AA?9?$AAc?$AAo?$AAr?$AAe@ 1003d8e8     libucrt:winapi_thunks.obj
 0002:00003948       ??_C@_1EM@DILCGIIO@?$AAa?$AAp?$AAi?$AA?9?$AAm?$AAs?$AA?9?$AAw?$AAi?$AAn?$AA?9?$AAc?$AAo?$AAr?$AAe@ 1003d948     libucrt:winapi_thunks.obj
 0002:00003994       ??_C@_1DM@LNCGDDPN@?$AAa?$AAp?$AAi?$AA?9?$AAm?$AAs?$AA?9?$AAw?$AAi?$AAn?$AA?9?$AAc?$AAo?$AAr?$AAe@ 1003d994     libucrt:winapi_thunks.obj
 0002:000039d0       ??_C@_1DO@FPAPJEMD@?$AAa?$AAp?$AAi?$AA?9?$AAm?$AAs?$AA?9?$AAw?$AAi?$AAn?$AA?9?$AAc?$AAo?$AAr?$AAe@ 1003d9d0     libucrt:winapi_thunks.obj
 0002:00003a10       ??_C@_1DK@NDHNAHIO@?$AAa?$AAp?$AAi?$AA?9?$AAm?$AAs?$AA?9?$AAw?$AAi?$AAn?$AA?9?$AAc?$AAo?$AAr?$AAe@ 1003da10     libucrt:winapi_thunks.obj
 0002:00003a4c       ??_C@_1DM@KGHDGBCM@?$AAa?$AAp?$AAi?$AA?9?$AAm?$AAs?$AA?9?$AAw?$AAi?$AAn?$AA?9?$AAc?$AAo?$AAr?$AAe@ 1003da4c     libucrt:winapi_thunks.obj
 0002:00003a88       ??_C@_1EO@IJIOEFOH@?$AAa?$AAp?$AAi?$AA?9?$AAm?$AAs?$AA?9?$AAw?$AAi?$AAn?$AA?9?$AAr?$AAt?$AAc?$AAo@ 1003da88     libucrt:winapi_thunks.obj
 0002:00003ad8       ??_C@_1FG@HHGEKANL@?$AAa?$AAp?$AAi?$AA?9?$AAm?$AAs?$AA?9?$AAw?$AAi?$AAn?$AA?9?$AAs?$AAe?$AAc?$AAu@ 1003dad8     libucrt:winapi_thunks.obj
 0002:00003b30       ??_C@_1EG@DBIOJECG@?$AAe?$AAx?$AAt?$AA?9?$AAm?$AAs?$AA?9?$AAw?$AAi?$AAn?$AA?9?$AAn?$AAt?$AAu?$AAs@ 1003db30     libucrt:winapi_thunks.obj
 0002:00003b78       ??_C@_1EO@FIHMJCLF@?$AAe?$AAx?$AAt?$AA?9?$AAm?$AAs?$AA?9?$AAw?$AAi?$AAn?$AA?9?$AAn?$AAt?$AAu?$AAs@ 1003db78     libucrt:winapi_thunks.obj
 0002:00003bc8       ??_C@_1BC@DNHGCMLG@?$AAa?$AAd?$AAv?$AAa?$AAp?$AAi?$AA3?$AA2@ 1003dbc8     libucrt:winapi_thunks.obj
 0002:00003bdc       ??_C@_1M@OAIMIKLP@?$AAn?$AAt?$AAd?$AAl?$AAl@ 1003dbdc     libucrt:winapi_thunks.obj
 0002:00003be8       ??_C@_1EG@DPGNFKGC@?$AAa?$AAp?$AAi?$AA?9?$AAm?$AAs?$AA?9?$AAw?$AAi?$AAn?$AA?9?$AAa?$AAp?$AAp?$AAm@ 1003dbe8     libucrt:winapi_thunks.obj
 0002:00003c30       ??_C@_1O@BCCLBEOE@?$AAu?$AAs?$AAe?$AAr?$AA3?$AA2@ 1003dc30     libucrt:winapi_thunks.obj
 0002:00003c40       ??_C@_1BA@IAIFMGEF@?$AAe?$AAx?$AAt?$AA?9?$AAm?$AAs?$AA?9@ 1003dc40     libucrt:winapi_thunks.obj
 0002:00003c54       ??_C@_0BA@FHFNEAED@AreFileApisANSI@ 1003dc54     libucrt:winapi_thunks.obj
 0002:00003c94       ??_C@_0O@KKBNKAPF@LCMapStringEx@ 1003dc94     libucrt:winapi_thunks.obj
 0002:00003cac       ??_C@_0BB@HBDEELFH@LocaleNameToLCID@ 1003dcac     libucrt:winapi_thunks.obj
 0002:00003cc4       ??_C@_0CF@OJOFEIGO@AppPolicyGetProcessTerminationM@ 1003dcc4     libucrt:winapi_thunks.obj
 0002:00003cf0       ___lc_time_c               1003dcf0     libucrt:nlsdata.obj
 0002:00003e54       ??_C@_03KOEHGMDN@Sun@      1003de54     libucrt:nlsdata.obj
 0002:00003e58       ??_C@_03PDAGKDH@Mon@       1003de58     libucrt:nlsdata.obj
 0002:00003e5c       ??_C@_03NAGEINEP@Tue@      1003de5c     libucrt:nlsdata.obj
 0002:00003e60       ??_C@_03MHOMLAJA@Wed@      1003de60     libucrt:nlsdata.obj
 0002:00003e64       ??_C@_03IOFIKPDN@Thu@      1003de64     libucrt:nlsdata.obj
 0002:00003e68       ??_C@_03IDIOELNC@Fri@      1003de68     libucrt:nlsdata.obj
 0002:00003e6c       ??_C@_03FEFJNEK@Sat@       1003de6c     libucrt:nlsdata.obj
 0002:00003e70       ??_C@_06OOPIFAJ@Sunday@    1003de70     libucrt:nlsdata.obj
 0002:00003e78       ??_C@_06JLEDEDGH@Monday@   1003de78     libucrt:nlsdata.obj
 0002:00003e80       ??_C@_07BAAGCFCM@Tuesday@  1003de80     libucrt:nlsdata.obj
 0002:00003e88       ??_C@_09DLIGFAKA@Wednesday@ 1003de88     libucrt:nlsdata.obj
 0002:00003e94       ??_C@_08HACCIKIA@Thursday@ 1003de94     libucrt:nlsdata.obj
 0002:00003ea0       ??_C@_06JECMNKMI@Friday@   1003dea0     libucrt:nlsdata.obj
 0002:00003ea8       ??_C@_08INBOOONO@Saturday@ 1003dea8     libucrt:nlsdata.obj
 0002:00003eb4       ??_C@_03JIHJHPIE@Jan@      1003deb4     libucrt:nlsdata.obj
 0002:00003eb8       ??_C@_03HJBDCHOM@Feb@      1003deb8     libucrt:nlsdata.obj
 0002:00003ebc       ??_C@_03ODNJBKGA@Mar@      1003debc     libucrt:nlsdata.obj
 0002:00003ec0       ??_C@_03LEOLGMJP@Apr@      1003dec0     libucrt:nlsdata.obj
 0002:00003ec4       ??_C@_03CNMDKL@May@        1003dec4     libucrt:nlsdata.obj
 0002:00003ec8       ??_C@_03IDFGHECI@Jun@      1003dec8     libucrt:nlsdata.obj
 0002:00003ecc       ??_C@_03LBGABGKK@Jul@      1003decc     libucrt:nlsdata.obj
 0002:00003ed0       ??_C@_03IFJFEIGA@Aug@      1003ded0     libucrt:nlsdata.obj
 0002:00003ed4       ??_C@_03GGCAPAJC@Sep@      1003ded4     libucrt:nlsdata.obj
 0002:00003ed8       ??_C@_03BMAOKBAD@Oct@      1003ded8     libucrt:nlsdata.obj
 0002:00003edc       ??_C@_03JPJOFNIA@Nov@      1003dedc     libucrt:nlsdata.obj
 0002:00003ee0       ??_C@_03MKABNOCG@Dec@      1003dee0     libucrt:nlsdata.obj
 0002:00003ee4       ??_C@_07CGJPFGJA@January@  1003dee4     libucrt:nlsdata.obj
 0002:00003eec       ??_C@_08GNJGEPFN@February@ 1003deec     libucrt:nlsdata.obj
 0002:00003ef8       ??_C@_05HPCKOFNC@March@    1003def8     libucrt:nlsdata.obj
 0002:00003f00       ??_C@_05DMJDNLEJ@April@    1003df00     libucrt:nlsdata.obj
 0002:00003f08       ??_C@_04CNLMGBGM@June@     1003df08     libucrt:nlsdata.obj
 0002:00003f10       ??_C@_04MIEPOIFP@July@     1003df10     libucrt:nlsdata.obj
 0002:00003f18       ??_C@_06LBBHFDDG@August@   1003df18     libucrt:nlsdata.obj
 0002:00003f20       ??_C@_09BHHEALKD@September@ 1003df20     libucrt:nlsdata.obj
 0002:00003f2c       ??_C@_07JJNFCEND@October@  1003df2c     libucrt:nlsdata.obj
 0002:00003f34       ??_C@_08HCHEGEOA@November@ 1003df34     libucrt:nlsdata.obj
 0002:00003f40       ??_C@_08EDHMEBNP@December@ 1003df40     libucrt:nlsdata.obj
 0002:00003f4c       ??_C@_02DEDBPAFC@AM@       1003df4c     libucrt:nlsdata.obj
 0002:00003f50       ??_C@_02CJNFDJBF@PM@       1003df50     libucrt:nlsdata.obj
 0002:00003f54       ??_C@_08BPBNCDIB@MM?1dd?1yy@ 1003df54     libucrt:nlsdata.obj
 0002:00003f60       ??_C@_0BE@CKGJFCPC@dddd?0?5MMMM?5dd?0?5yyyy@ 1003df60     libucrt:nlsdata.obj
 0002:00003f74       ??_C@_08JCCMCCIL@HH?3mm?3ss@ 1003df74     libucrt:nlsdata.obj
 0002:00003f80       ??_C@_17MBGCMIPB@?$AAS?$AAu?$AAn@ 1003df80     libucrt:nlsdata.obj
 0002:00003f88       ??_C@_17KBOMKBF@?$AAM?$AAo?$AAn@ 1003df88     libucrt:nlsdata.obj
 0002:00003f90       ??_C@_17BMKGEGOJ@?$AAT?$AAu?$AAe@ 1003df90     libucrt:nlsdata.obj
 0002:00003f98       ??_C@_17CJEDCEPE@?$AAW?$AAe?$AAd@ 1003df98     libucrt:nlsdata.obj
 0002:00003fa0       ??_C@_17PDPHAADD@?$AAT?$AAh?$AAu@ 1003dfa0     libucrt:nlsdata.obj
 0002:00003fa8       ??_C@_17HFOLPPLP@?$AAF?$AAr?$AAi@ 1003dfa8     libucrt:nlsdata.obj
 0002:00003fb0       ??_C@_17GGIBDPIH@?$AAS?$AAa?$AAt@ 1003dfb0     libucrt:nlsdata.obj
 0002:00003fb8       ??_C@_1O@IHNHDHPB@?$AAS?$AAu?$AAn?$AAd?$AAa?$AAy@ 1003dfb8     libucrt:nlsdata.obj
 0002:00003fc8       ??_C@_1O@MMNBFLIA@?$AAM?$AAo?$AAn?$AAd?$AAa?$AAy@ 1003dfc8     libucrt:nlsdata.obj
 0002:00003fd8       ??_C@_1BA@ENFBFFEK@?$AAT?$AAu?$AAe?$AAs?$AAd?$AAa?$AAy@ 1003dfd8     libucrt:nlsdata.obj
 0002:00003fe8       ??_C@_1BE@EBOGMDOH@?$AAW?$AAe?$AAd?$AAn?$AAe?$AAs?$AAd?$AAa?$AAy@ 1003dfe8     libucrt:nlsdata.obj
 0002:00003ffc       ??_C@_1BC@HHMNLIHE@?$AAT?$AAh?$AAu?$AAr?$AAs?$AAd?$AAa?$AAy@ 1003dffc     libucrt:nlsdata.obj
 0002:00004010       ??_C@_1O@PDICJHAG@?$AAF?$AAr?$AAi?$AAd?$AAa?$AAy@ 1003e010     libucrt:nlsdata.obj
 0002:00004020       ??_C@_1BC@ENMNNPAJ@?$AAS?$AAa?$AAt?$AAu?$AAr?$AAd?$AAa?$AAy@ 1003e020     libucrt:nlsdata.obj
 0002:00004034       ??_C@_17DKNBKCHM@?$AAJ?$AAa?$AAn@ 1003e034     libucrt:nlsdata.obj
 0002:0000403c       ??_C@_17LMDJEKJN@?$AAF?$AAe?$AAb@ 1003e03c     libucrt:nlsdata.obj
 0002:00004044       ??_C@_17CKNLEDEC@?$AAM?$AAa?$AAr@ 1003e044     libucrt:nlsdata.obj
 0002:0000404c       ??_C@_17LFPOIHDD@?$AAA?$AAp?$AAr@ 1003e04c     libucrt:nlsdata.obj
 0002:00004054       ??_C@_17PNNKMEED@?$AAM?$AAa?$AAy@ 1003e054     libucrt:nlsdata.obj
 0002:0000405c       ??_C@_17KCJGOCPB@?$AAJ?$AAu?$AAn@ 1003e05c     libucrt:nlsdata.obj
 0002:00004064       ??_C@_17IJPCKHK@?$AAJ?$AAu?$AAl@ 1003e064     libucrt:nlsdata.obj
 0002:0000406c       ??_C@_17ICPELBCN@?$AAA?$AAu?$AAg@ 1003e06c     libucrt:nlsdata.obj
 0002:00004074       ??_C@_17HCHCOKMG@?$AAS?$AAe?$AAp@ 1003e074     libucrt:nlsdata.obj
 0002:0000407c       ??_C@_17FNLKOI@?$AAO?$AAc?$AAt@ 1003e07c     libucrt:nlsdata.obj
 0002:00004084       ??_C@_17BBDMLCIG@?$AAN?$AAo?$AAv@ 1003e084     libucrt:nlsdata.obj
 0002:0000408c       ??_C@_17EGKACKIF@?$AAD?$AAe?$AAc@ 1003e08c     libucrt:nlsdata.obj
 0002:00004094       ??_C@_1BA@EFMEIEBA@?$AAJ?$AAa?$AAn?$AAu?$AAa?$AAr?$AAy@ 1003e094     libucrt:nlsdata.obj
 0002:000040a4       ??_C@_1BC@JGDDFFAM@?$AAF?$AAe?$AAb?$AAr?$AAu?$AAa?$AAr?$AAy@ 1003e0a4     libucrt:nlsdata.obj
 0002:000040b8       ??_C@_1M@IKEENEDF@?$AAM?$AAa?$AAr?$AAc?$AAh@ 1003e0b8     libucrt:nlsdata.obj
 0002:000040c4       ??_C@_1M@GJNLMHFD@?$AAA?$AAp?$AAr?$AAi?$AAl@ 1003e0c4     libucrt:nlsdata.obj
 0002:000040d0       ??_C@_19EPFLPGAP@?$AAJ?$AAu?$AAn?$AAe@ 1003e0d0     libucrt:nlsdata.obj
 0002:000040dc       ??_C@_19BIFMLPCD@?$AAJ?$AAu?$AAl?$AAy@ 1003e0dc     libucrt:nlsdata.obj
 0002:000040e8       ??_C@_1O@PAHLKOAC@?$AAA?$AAu?$AAg?$AAu?$AAs?$AAt@ 1003e0e8     libucrt:nlsdata.obj
 0002:000040f8       ??_C@_1BE@DKAAMBJL@?$AAS?$AAe?$AAp?$AAt?$AAe?$AAm?$AAb?$AAe?$AAr@ 1003e0f8     libucrt:nlsdata.obj
 0002:0000410c       ??_C@_1BA@EPANDLNG@?$AAO?$AAc?$AAt?$AAo?$AAb?$AAe?$AAr@ 1003e10c     libucrt:nlsdata.obj
 0002:0000411c       ??_C@_1BC@BGLIFPF@?$AAN?$AAo?$AAv?$AAe?$AAm?$AAb?$AAe?$AAr@ 1003e11c     libucrt:nlsdata.obj
 0002:00004130       ??_C@_1BC@FEMKIFH@?$AAD?$AAe?$AAc?$AAe?$AAm?$AAb?$AAe?$AAr@ 1003e130     libucrt:nlsdata.obj
 0002:00004144       ??_C@_15ODEHAHHF@?$AAA?$AAM@ 1003e144     libucrt:nlsdata.obj
 0002:0000414c       ??_C@_15CLMNNGEL@?$AAP?$AAM@ 1003e14c     libucrt:nlsdata.obj
 0002:00004154       ??_C@_1BC@IEBCMHCM@?$AAM?$AAM?$AA?1?$AAd?$AAd?$AA?1?$AAy?$AAy@ 1003e154     libucrt:nlsdata.obj
 0002:00004168       ??_C@_1CI@KNAKOEBC@?$AAd?$AAd?$AAd?$AAd?$AA?0?$AA?5?$AAM?$AAM?$AAM?$AAM?$AA?5?$AAd?$AAd?$AA?0?$AA?5@ 1003e168     libucrt:nlsdata.obj
 0002:00004190       ??_C@_1BC@GDGBMEMK@?$AAH?$AAH?$AA?3?$AAm?$AAm?$AA?3?$AAs?$AAs@ 1003e190     libucrt:nlsdata.obj
 0002:000041a4       ??_C@_1M@BMHNFIME@?$AAe?$AAn?$AA?9?$AAU?$AAS@ 1003e1a4     libucrt:nlsdata.obj
 0002:000041f0       ??_C@_03OEIAHPBN@INF@      1003e1f0     libucrt:cvt.obj
 0002:000041f4       ??_C@_03OJHLLCGB@inf@      1003e1f4     libucrt:cvt.obj
 0002:000041f8       ??_C@_03LKNCIKJB@NAN@      1003e1f8     libucrt:cvt.obj
 0002:000041fc       ??_C@_03LHCJEHON@nan@      1003e1fc     libucrt:cvt.obj
 0002:00004200       ??_C@_09OFJJIMPC@NAN?$CISNAN?$CJ@ 1003e200     libucrt:cvt.obj
 0002:0000420c       ??_C@_09IPFBKMDL@nan?$CIsnan?$CJ@ 1003e20c     libucrt:cvt.obj
 0002:00004218       ??_C@_08IKHNHAJ@NAN?$CIIND?$CJ@ 1003e218     libucrt:cvt.obj
 0002:00004224       ??_C@_08OFCDMILK@nan?$CIind?$CJ@ 1003e224     libucrt:cvt.obj
 0002:00004230       ??_C@_05KLBDPFGC@e?$CL000@ 1003e230     libucrt:cvt.obj
 0002:00004238       ___newctype                1003e238     libucrt:ctype.obj
 0002:00004538       ___newclmap                1003e538     libucrt:ctype.obj
 0002:000046b8       ___newcumap                1003e6b8     libucrt:ctype.obj
 0002:000050d0       ??_C@_15EMKDOKLE@?$AAa?$AAr@ 1003f0d0     libucrt:lcidtoname_downlevel.obj
 0002:000050d8       ??_C@_15KNPADPLH@?$AAb?$AAg@ 1003f0d8     libucrt:lcidtoname_downlevel.obj
 0002:000050e0       ??_C@_15EDMHLDMO@?$AAc?$AAa@ 1003f0e0     libucrt:lcidtoname_downlevel.obj
 0002:000050e8       ??_C@_1O@BPEAJADD@?$AAz?$AAh?$AA?9?$AAC?$AAH?$AAS@ 1003f0e8     libucrt:lcidtoname_downlevel.obj
 0002:000050f8       ??_C@_15LJNHCMNK@?$AAc?$AAs@ 1003f0f8     libucrt:lcidtoname_downlevel.obj
 0002:00005100       ??_C@_15FOMCIDHG@?$AAd?$AAa@ 1003f100     libucrt:lcidtoname_downlevel.obj
 0002:00005108       ??_C@_15NBKABECB@?$AAd?$AAe@ 1003f108     libucrt:lcidtoname_downlevel.obj
 0002:00005110       ??_C@_15GHPEIIAO@?$AAe?$AAl@ 1003f110     libucrt:lcidtoname_downlevel.obj
 0002:00005118       ??_C@_15MNPNEAIF@?$AAe?$AAn@ 1003f118     libucrt:lcidtoname_downlevel.obj
 0002:00005120       ??_C@_15GPIOMPMH@?$AAe?$AAs@ 1003f120     libucrt:lcidtoname_downlevel.obj
 0002:00005128       ??_C@_15NGLOAKJC@?$AAf?$AAi@ 1003f128     libucrt:lcidtoname_downlevel.obj
 0002:00005130       ??_C@_15FBKGNKAM@?$AAf?$AAr@ 1003f130     libucrt:lcidtoname_downlevel.obj
 0002:00005138       ??_C@_15KGGCNEFK@?$AAh?$AAe@ 1003f138     libucrt:lcidtoname_downlevel.obj
 0002:00005140       ??_C@_15PGHLIDMF@?$AAh?$AAu@ 1003f140     libucrt:lcidtoname_downlevel.obj
 0002:00005148       ??_C@_15BIEMAPLM@?$AAi?$AAs@ 1003f148     libucrt:lcidtoname_downlevel.obj
 0002:00005150       ??_C@_15IFJLDHAF@?$AAi?$AAt@ 1003f150     libucrt:lcidtoname_downlevel.obj
 0002:00005158       ??_C@_15GEMIOCAG@?$AAj?$AAa@ 1003f158     libucrt:lcidtoname_downlevel.obj
 0002:00005160       ??_C@_15EPELEGJA@?$AAk?$AAo@ 1003f160     libucrt:lcidtoname_downlevel.obj
 0002:00005168       ??_C@_15NDDHIMN@?$AAn?$AAl@ 1003f168     libucrt:lcidtoname_downlevel.obj
 0002:00005170       ??_C@_15BPIGNHCD@?$AAn?$AAo@ 1003f170     libucrt:lcidtoname_downlevel.obj
 0002:00005178       ??_C@_15DEOPBLCG@?$AAp?$AAl@ 1003f178     libucrt:lcidtoname_downlevel.obj
 0002:00005180       ??_C@_15KBECGEFG@?$AAp?$AAt@ 1003f180     libucrt:lcidtoname_downlevel.obj
 0002:00005188       ??_C@_15GLJCBFMD@?$AAr?$AAo@ 1003f188     libucrt:lcidtoname_downlevel.obj
 0002:00005190       ??_C@_15FEDGKCDI@?$AAr?$AAu@ 1003f190     libucrt:lcidtoname_downlevel.obj
 0002:00005198       ??_C@_15GLKMLLHM@?$AAh?$AAr@ 1003f198     libucrt:lcidtoname_downlevel.obj
 0002:000051a0       ??_C@_15CPKMFBDB@?$AAs?$AAk@ 1003f1a0     libucrt:lcidtoname_downlevel.obj
 0002:000051a8       ??_C@_15BAAIOGMK@?$AAs?$AAq@ 1003f1a8     libucrt:lcidtoname_downlevel.obj
 0002:000051b0       ??_C@_15INNPNOHD@?$AAs?$AAv@ 1003f1b0     libucrt:lcidtoname_downlevel.obj
 0002:000051b8       ??_C@_15CABMMOGH@?$AAt?$AAh@ 1003f1b8     libucrt:lcidtoname_downlevel.obj
 0002:000051c0       ??_C@_15BPLIHJJM@?$AAt?$AAr@ 1003f1c0     libucrt:lcidtoname_downlevel.obj
 0002:000051c8       ??_C@_15NEOEKKDJ@?$AAu?$AAr@ 1003f1c8     libucrt:lcidtoname_downlevel.obj
 0002:000051d0       ??_C@_15NFICGAJK@?$AAi?$AAd@ 1003f1d0     libucrt:lcidtoname_downlevel.obj
 0002:000051d8       ??_C@_15PJPFLCCM@?$AAu?$AAk@ 1003f1d8     libucrt:lcidtoname_downlevel.obj
 0002:000051e0       ??_C@_15HPJPHDM@?$AAb?$AAe@ 1003f1e0     libucrt:lcidtoname_downlevel.obj
 0002:000051e8       ??_C@_15LCHLGJII@?$AAs?$AAl@ 1003f1e8     libucrt:lcidtoname_downlevel.obj
 0002:000051f0       ??_C@_15PCFJPHHO@?$AAe?$AAt@ 1003f1f0     libucrt:lcidtoname_downlevel.obj
 0002:000051f8       ??_C@_15HPFPGODN@?$AAl?$AAv@ 1003f1f8     libucrt:lcidtoname_downlevel.obj
 0002:00005200       ??_C@_15NFFGKGLG@?$AAl?$AAt@ 1003f200     libucrt:lcidtoname_downlevel.obj
 0002:00005208       ??_C@_15BDAKCCHN@?$AAf?$AAa@ 1003f208     libucrt:lcidtoname_downlevel.obj
 0002:00005210       ??_C@_15NFGIAIAJ@?$AAv?$AAi@ 1003f210     libucrt:lcidtoname_downlevel.obj
 0002:00005218       ??_C@_15LMKNDMHN@?$AAh?$AAy@ 1003f218     libucrt:lcidtoname_downlevel.obj
 0002:00005220       ??_C@_15IJBHMCFL@?$AAa?$AAz@ 1003f220     libucrt:lcidtoname_downlevel.obj
 0002:00005228       ??_C@_15EKOFJABL@?$AAe?$AAu@ 1003f228     libucrt:lcidtoname_downlevel.obj
 0002:00005230       ??_C@_15BGHADCNK@?$AAm?$AAk@ 1003f230     libucrt:lcidtoname_downlevel.obj
 0002:00005238       ??_C@_15JDNICKHM@?$AAa?$AAf@ 1003f238     libucrt:lcidtoname_downlevel.obj
 0002:00005240       ??_C@_15KPJEDBKD@?$AAk?$AAa@ 1003f240     libucrt:lcidtoname_downlevel.obj
 0002:00005248       ??_C@_15PDNFFFEO@?$AAf?$AAo@ 1003f248     libucrt:lcidtoname_downlevel.obj
 0002:00005250       ??_C@_15OMLEGLOC@?$AAh?$AAi@ 1003f250     libucrt:lcidtoname_downlevel.obj
 0002:00005258       ??_C@_15IDNNENKK@?$AAm?$AAs@ 1003f258     libucrt:lcidtoname_downlevel.obj
 0002:00005260       ??_C@_15MACJNBMH@?$AAk?$AAk@ 1003f260     libucrt:lcidtoname_downlevel.obj
 0002:00005268       ??_C@_15DKDJEOND@?$AAk?$AAy@ 1003f268     libucrt:lcidtoname_downlevel.obj
 0002:00005270       ??_C@_15DFGDLJBG@?$AAs?$AAw@ 1003f270     libucrt:lcidtoname_downlevel.obj
 0002:00005278       ??_C@_15BBFAICNG@?$AAu?$AAz@ 1003f278     libucrt:lcidtoname_downlevel.obj
 0002:00005280       ??_C@_15DKNDCGEA@?$AAt?$AAt@ 1003f280     libucrt:lcidtoname_downlevel.obj
 0002:00005288       ??_C@_15MGIFMDPL@?$AAp?$AAa@ 1003f288     libucrt:lcidtoname_downlevel.obj
 0002:00005290       ??_C@_15HCNDBBA@?$AAg?$AAu@ 1003f290     libucrt:lcidtoname_downlevel.obj
 0002:00005298       ??_C@_15FNBEIBON@?$AAt?$AAa@ 1003f298     libucrt:lcidtoname_downlevel.obj
 0002:000052a0       ??_C@_15NCHGBGLK@?$AAt?$AAe@ 1003f2a0     libucrt:lcidtoname_downlevel.obj
 0002:000052a8       ??_C@_15PHPHCBPF@?$AAk?$AAn@ 1003f2a8     libucrt:lcidtoname_downlevel.obj
 0002:000052b0       ??_C@_15DLGBCKMP@?$AAm?$AAr@ 1003f2b0     libucrt:lcidtoname_downlevel.obj
 0002:000052b8       ??_C@_15EABBLBFF@?$AAs?$AAa@ 1003f2b8     libucrt:lcidtoname_downlevel.obj
 0002:000052c0       ??_C@_15CBKOMCOI@?$AAm?$AAn@ 1003f2c0     libucrt:lcidtoname_downlevel.obj
 0002:000052c8       ??_C@_15CKDMCJAF@?$AAg?$AAl@ 1003f2c8     libucrt:lcidtoname_downlevel.obj
 0002:000052d0       ??_C@_17CNJFBPG@?$AAk?$AAo?$AAk@ 1003f2d0     libucrt:lcidtoname_downlevel.obj
 0002:000052d8       ??_C@_17FFBJICPL@?$AAs?$AAy?$AAr@ 1003f2d8     libucrt:lcidtoname_downlevel.obj
 0002:000052e0       ??_C@_17KPNDCPAF@?$AAd?$AAi?$AAv@ 1003f2e0     libucrt:lcidtoname_downlevel.obj
 0002:000052e8       ??_C@_11LOCGONAA@@         1003f2e8     libucrt:lcidtoname_downlevel.obj
 0002:000052ec       ??_C@_1M@OKAHONE@?$AAa?$AAr?$AA?9?$AAS?$AAA@ 1003f2ec     libucrt:lcidtoname_downlevel.obj
 0002:000052f8       ??_C@_1M@FFFIGIGK@?$AAb?$AAg?$AA?9?$AAB?$AAG@ 1003f2f8     libucrt:lcidtoname_downlevel.obj
 0002:00005304       ??_C@_1M@BJNKEDC@?$AAc?$AAa?$AA?9?$AAE?$AAS@ 1003f304     libucrt:lcidtoname_downlevel.obj
 0002:00005310       ??_C@_1M@IJJHFJHA@?$AAc?$AAs?$AA?9?$AAC?$AAZ@ 1003f310     libucrt:lcidtoname_downlevel.obj
 0002:0000531c       ??_C@_1M@CLPEOBGI@?$AAd?$AAa?$AA?9?$AAD?$AAK@ 1003f31c     libucrt:lcidtoname_downlevel.obj
 0002:00005328       ??_C@_1M@MCMADGCB@?$AAd?$AAe?$AA?9?$AAD?$AAE@ 1003f328     libucrt:lcidtoname_downlevel.obj
 0002:00005334       ??_C@_1M@OOCKEMAM@?$AAe?$AAl?$AA?9?$AAG?$AAR@ 1003f334     libucrt:lcidtoname_downlevel.obj
 0002:00005340       ??_C@_1M@DDNJFGID@?$AAf?$AAi?$AA?9?$AAF?$AAI@ 1003f340     libucrt:lcidtoname_downlevel.obj
 0002:0000534c       ??_C@_1M@GLIPPMAC@?$AAf?$AAr?$AA?9?$AAF?$AAR@ 1003f34c     libucrt:lcidtoname_downlevel.obj
 0002:00005358       ??_C@_1M@GFMCHPE@?$AAh?$AAe?$AA?9?$AAI?$AAL@ 1003f358     libucrt:lcidtoname_downlevel.obj
 0002:00005364       ??_C@_1M@MHLPGNKM@?$AAh?$AAu?$AA?9?$AAH?$AAU@ 1003f364     libucrt:lcidtoname_downlevel.obj
 0002:00005370       ??_C@_1M@LPDDNNPN@?$AAi?$AAs?$AA?9?$AAI?$AAS@ 1003f370     libucrt:lcidtoname_downlevel.obj
 0002:0000537c       ??_C@_1M@MADIPODN@?$AAi?$AAt?$AA?9?$AAI?$AAT@ 1003f37c     libucrt:lcidtoname_downlevel.obj
 0002:00005388       ??_C@_1M@IHBJJGG@?$AAn?$AAl?$AA?9?$AAN?$AAL@ 1003f388     libucrt:lcidtoname_downlevel.obj
 0002:00005394       ??_C@_1M@EANAGDL@?$AAn?$AAb?$AA?9?$AAN?$AAO@ 1003f394     libucrt:lcidtoname_downlevel.obj
 0002:000053a0       ??_C@_1M@NEIEMEGP@?$AAp?$AAl?$AA?9?$AAP?$AAL@ 1003f3a0     libucrt:lcidtoname_downlevel.obj
 0002:000053ac       ??_C@_1M@BOCFIGEP@?$AAp?$AAt?$AA?9?$AAB?$AAR@ 1003f3ac     libucrt:lcidtoname_downlevel.obj
 0002:000053b8       ??_C@_1M@IMPFOPBG@?$AAr?$AAo?$AA?9?$AAR?$AAO@ 1003f3b8     libucrt:lcidtoname_downlevel.obj
 0002:000053c4       ??_C@_1M@IDNNEJMM@?$AAr?$AAu?$AA?9?$AAR?$AAU@ 1003f3c4     libucrt:lcidtoname_downlevel.obj
 0002:000053d0       ??_C@_1M@LILEEOGM@?$AAh?$AAr?$AA?9?$AAH?$AAR@ 1003f3d0     libucrt:lcidtoname_downlevel.obj
 0002:000053dc       ??_C@_1M@FKIFEHPB@?$AAs?$AAk?$AA?9?$AAS?$AAK@ 1003f3dc     libucrt:lcidtoname_downlevel.obj
 0002:000053e8       ??_C@_1M@LJMAMNPJ@?$AAs?$AAq?$AA?9?$AAA?$AAL@ 1003f3e8     libucrt:lcidtoname_downlevel.obj
 0002:000053f4       ??_C@_1M@GIAKDKJK@?$AAs?$AAv?$AA?9?$AAS?$AAE@ 1003f3f4     libucrt:lcidtoname_downlevel.obj
 0002:00005400       ??_C@_1M@MKJKIKCL@?$AAt?$AAh?$AA?9?$AAT?$AAH@ 1003f400     libucrt:lcidtoname_downlevel.obj
 0002:0000540c       ??_C@_1M@MFLCCMPB@?$AAt?$AAr?$AA?9?$AAT?$AAR@ 1003f40c     libucrt:lcidtoname_downlevel.obj
 0002:00005418       ??_C@_1M@OIJHDKJN@?$AAu?$AAr?$AA?9?$AAP?$AAK@ 1003f418     libucrt:lcidtoname_downlevel.obj
 0002:00005424       ??_C@_1M@LHIPCIEK@?$AAi?$AAd?$AA?9?$AAI?$AAD@ 1003f424     libucrt:lcidtoname_downlevel.obj
 0002:00005430       ??_C@_1M@MFMOBGI@?$AAu?$AAk?$AA?9?$AAU?$AAA@ 1003f430     libucrt:lcidtoname_downlevel.obj
 0002:0000543c       ??_C@_1M@OBGLJIPL@?$AAb?$AAe?$AA?9?$AAB?$AAY@ 1003f43c     libucrt:lcidtoname_downlevel.obj
 0002:00005448       ??_C@_1M@BCFAJEAD@?$AAs?$AAl?$AA?9?$AAS?$AAI@ 1003f448     libucrt:lcidtoname_downlevel.obj
 0002:00005454       ??_C@_1M@FKFFEDDN@?$AAe?$AAt?$AA?9?$AAE?$AAE@ 1003f454     libucrt:lcidtoname_downlevel.obj
 0002:00005460       ??_C@_1M@KGKKAACI@?$AAl?$AAv?$AA?9?$AAL?$AAV@ 1003f460     libucrt:lcidtoname_downlevel.obj
 0002:0000546c       ??_C@_1M@IFGBIJO@?$AAl?$AAt?$AA?9?$AAL?$AAT@ 1003f46c     libucrt:lcidtoname_downlevel.obj
 0002:00005478       ??_C@_1M@FGEAHEDM@?$AAf?$AAa?$AA?9?$AAI?$AAR@ 1003f478     libucrt:lcidtoname_downlevel.obj
 0002:00005484       ??_C@_1M@KBMAIBFN@?$AAv?$AAi?$AA?9?$AAV?$AAN@ 1003f484     libucrt:lcidtoname_downlevel.obj
 0002:00005490       ??_C@_1M@GPCBKDJK@?$AAh?$AAy?$AA?9?$AAA?$AAM@ 1003f490     libucrt:lcidtoname_downlevel.obj
 0002:0000549c       ??_C@_1BG@BECMDDJB@?$AAa?$AAz?$AA?9?$AAA?$AAZ?$AA?9?$AAL?$AAa?$AAt?$AAn@ 1003f49c     libucrt:lcidtoname_downlevel.obj
 0002:000054b4       ??_C@_1M@MAOFCAEA@?$AAe?$AAu?$AA?9?$AAE?$AAS@ 1003f4b4     libucrt:lcidtoname_downlevel.obj
 0002:000054c0       ??_C@_1M@IGHABKPI@?$AAm?$AAk?$AA?9?$AAM?$AAK@ 1003f4c0     libucrt:lcidtoname_downlevel.obj
 0002:000054cc       ??_C@_1M@IAIGNEJG@?$AAt?$AAn?$AA?9?$AAZ?$AAA@ 1003f4cc     libucrt:lcidtoname_downlevel.obj
 0002:000054d8       ??_C@_1M@IIJCOJFA@?$AAx?$AAh?$AA?9?$AAZ?$AAA@ 1003f4d8     libucrt:lcidtoname_downlevel.obj
 0002:000054e4       ??_C@_1M@LGPJHNJH@?$AAz?$AAu?$AA?9?$AAZ?$AAA@ 1003f4e4     libucrt:lcidtoname_downlevel.obj
 0002:000054f0       ??_C@_1M@HOKAOIO@?$AAa?$AAf?$AA?9?$AAZ?$AAA@ 1003f4f0     libucrt:lcidtoname_downlevel.obj
 0002:000054fc       ??_C@_1M@DPCLHLIE@?$AAk?$AAa?$AA?9?$AAG?$AAE@ 1003f4fc     libucrt:lcidtoname_downlevel.obj
 0002:00005508       ??_C@_1M@BLKMHJBI@?$AAf?$AAo?$AA?9?$AAF?$AAO@ 1003f508     libucrt:lcidtoname_downlevel.obj
 0002:00005514       ??_C@_1M@LGGJAPPB@?$AAh?$AAi?$AA?9?$AAI?$AAN@ 1003f514     libucrt:lcidtoname_downlevel.obj
 0002:00005520       ??_C@_1M@FIKPIHFE@?$AAm?$AAt?$AA?9?$AAM?$AAT@ 1003f520     libucrt:lcidtoname_downlevel.obj
 0002:0000552c       ??_C@_1M@HEGGPBFA@?$AAs?$AAe?$AA?9?$AAN?$AAO@ 1003f52c     libucrt:lcidtoname_downlevel.obj
 0002:00005538       ??_C@_1M@EIBJEEPA@?$AAm?$AAs?$AA?9?$AAM?$AAY@ 1003f538     libucrt:lcidtoname_downlevel.obj
 0002:00005544       ??_C@_1M@FHLBGMPP@?$AAk?$AAk?$AA?9?$AAK?$AAZ@ 1003f544     libucrt:lcidtoname_downlevel.obj
 0002:00005550       ??_C@_1M@NGJJLCGI@?$AAk?$AAy?$AA?9?$AAK?$AAG@ 1003f550     libucrt:lcidtoname_downlevel.obj
 0002:0000555c       ??_C@_1M@GIENNBFC@?$AAs?$AAw?$AA?9?$AAK?$AAE@ 1003f55c     libucrt:lcidtoname_downlevel.obj
 0002:00005568       ??_C@_1BG@NDGMJIMJ@?$AAu?$AAz?$AA?9?$AAU?$AAZ?$AA?9?$AAL?$AAa?$AAt?$AAn@ 1003f568     libucrt:lcidtoname_downlevel.obj
 0002:00005580       ??_C@_1M@IDCCIHBC@?$AAt?$AAt?$AA?9?$AAR?$AAU@ 1003f580     libucrt:lcidtoname_downlevel.obj
 0002:0000558c       ??_C@_1M@LOICPMOJ@?$AAb?$AAn?$AA?9?$AAI?$AAN@ 1003f58c     libucrt:lcidtoname_downlevel.obj
 0002:00005598       ??_C@_1M@KPKKNEAH@?$AAp?$AAa?$AA?9?$AAI?$AAN@ 1003f598     libucrt:lcidtoname_downlevel.obj
 0002:000055a4       ??_C@_1M@PJGPPBOG@?$AAg?$AAu?$AA?9?$AAI?$AAN@ 1003f5a4     libucrt:lcidtoname_downlevel.obj
 0002:000055b0       ??_C@_1M@KMKMOPHI@?$AAt?$AAa?$AA?9?$AAI?$AAN@ 1003f5b0     libucrt:lcidtoname_downlevel.obj
 0002:000055bc       ??_C@_1M@KFEHEPAC@?$AAt?$AAe?$AA?9?$AAI?$AAN@ 1003f5bc     libucrt:lcidtoname_downlevel.obj
 0002:000055c8       ??_C@_1M@CDCLMGHI@?$AAk?$AAn?$AA?9?$AAI?$AAN@ 1003f5c8     libucrt:lcidtoname_downlevel.obj
 0002:000055d4       ??_C@_1M@MIODLDKF@?$AAm?$AAl?$AA?9?$AAI?$AAN@ 1003f5d4     libucrt:lcidtoname_downlevel.obj
 0002:000055e0       ??_C@_1M@PBIEACPO@?$AAm?$AAr?$AA?9?$AAI?$AAN@ 1003f5e0     libucrt:lcidtoname_downlevel.obj
 0002:000055ec       ??_C@_1M@NIDEAGPH@?$AAs?$AAa?$AA?9?$AAI?$AAN@ 1003f5ec     libucrt:lcidtoname_downlevel.obj
 0002:000055f8       ??_C@_1M@FHIHCBIO@?$AAm?$AAn?$AA?9?$AAM?$AAN@ 1003f5f8     libucrt:lcidtoname_downlevel.obj
 0002:00005604       ??_C@_1M@JAIJPENP@?$AAc?$AAy?$AA?9?$AAG?$AAB@ 1003f604     libucrt:lcidtoname_downlevel.obj
 0002:00005610       ??_C@_1M@PHGFBEPN@?$AAg?$AAl?$AA?9?$AAE?$AAS@ 1003f610     libucrt:lcidtoname_downlevel.obj
 0002:0000561c       ??_C@_1O@KPIPDNCP@?$AAk?$AAo?$AAk?$AA?9?$AAI?$AAN@ 1003f61c     libucrt:lcidtoname_downlevel.obj
 0002:0000562c       ??_C@_1O@KNHJLDJA@?$AAs?$AAy?$AAr?$AA?9?$AAS?$AAY@ 1003f62c     libucrt:lcidtoname_downlevel.obj
 0002:0000563c       ??_C@_1O@MKEKBLAH@?$AAd?$AAi?$AAv?$AA?9?$AAM?$AAV@ 1003f63c     libucrt:lcidtoname_downlevel.obj
 0002:0000564c       ??_C@_1O@OHDCKDDF@?$AAq?$AAu?$AAz?$AA?9?$AAB?$AAO@ 1003f64c     libucrt:lcidtoname_downlevel.obj
 0002:0000565c       ??_C@_1M@LEPJNLFD@?$AAn?$AAs?$AA?9?$AAZ?$AAA@ 1003f65c     libucrt:lcidtoname_downlevel.obj
 0002:00005668       ??_C@_1M@OMLEIIJB@?$AAm?$AAi?$AA?9?$AAN?$AAZ@ 1003f668     libucrt:lcidtoname_downlevel.obj
 0002:00005674       ??_C@_1M@PMPEAILG@?$AAa?$AAr?$AA?9?$AAI?$AAQ@ 1003f674     libucrt:lcidtoname_downlevel.obj
 0002:00005680       ??_C@_1M@CNKPNOEE@?$AAd?$AAe?$AA?9?$AAC?$AAH@ 1003f680     libucrt:lcidtoname_downlevel.obj
 0002:0000568c       ??_C@_1M@LKMGMLKO@?$AAe?$AAn?$AA?9?$AAG?$AAB@ 1003f68c     libucrt:lcidtoname_downlevel.obj
 0002:00005698       ??_C@_1M@PGKJFFGL@?$AAe?$AAs?$AA?9?$AAM?$AAX@ 1003f698     libucrt:lcidtoname_downlevel.obj
 0002:000056a4       ??_C@_1M@DNNANBDC@?$AAf?$AAr?$AA?9?$AAB?$AAE@ 1003f6a4     libucrt:lcidtoname_downlevel.obj
 0002:000056b0       ??_C@_1M@HLGMDFHM@?$AAi?$AAt?$AA?9?$AAC?$AAH@ 1003f6b0     libucrt:lcidtoname_downlevel.obj
 0002:000056bc       ??_C@_1M@CLLBGJH@?$AAn?$AAl?$AA?9?$AAB?$AAE@ 1003f6bc     libucrt:lcidtoname_downlevel.obj
 0002:000056c8       ??_C@_1M@BODBOGLF@?$AAn?$AAn?$AA?9?$AAN?$AAO@ 1003f6c8     libucrt:lcidtoname_downlevel.obj
 0002:000056d4       ??_C@_1M@HFFAHKAD@?$AAp?$AAt?$AA?9?$AAP?$AAT@ 1003f6d4     libucrt:lcidtoname_downlevel.obj
 0002:000056e0       ??_C@_1BG@LNOAKHIE@?$AAs?$AAr?$AA?9?$AAS?$AAP?$AA?9?$AAL?$AAa?$AAt?$AAn@ 1003f6e0     libucrt:lcidtoname_downlevel.obj
 0002:000056f8       ??_C@_1M@HBMHBGAK@?$AAs?$AAv?$AA?9?$AAF?$AAI@ 1003f6f8     libucrt:lcidtoname_downlevel.obj
 0002:00005704       ??_C@_1BG@DGCJGJBE@?$AAa?$AAz?$AA?9?$AAA?$AAZ?$AA?9?$AAC?$AAy?$AAr?$AAl@ 1003f704     libucrt:lcidtoname_downlevel.obj
 0002:0000571c       ??_C@_1M@KEJDAAHB@?$AAs?$AAe?$AA?9?$AAS?$AAE@ 1003f71c     libucrt:lcidtoname_downlevel.obj
 0002:00005728       ??_C@_1M@HEIBJJAD@?$AAm?$AAs?$AA?9?$AAB?$AAN@ 1003f728     libucrt:lcidtoname_downlevel.obj
 0002:00005734       ??_C@_1BG@PBGJMCEM@?$AAu?$AAz?$AA?9?$AAU?$AAZ?$AA?9?$AAC?$AAy?$AAr?$AAl@ 1003f734     libucrt:lcidtoname_downlevel.obj
 0002:0000574c       ??_C@_1O@LAOBCMDF@?$AAq?$AAu?$AAz?$AA?9?$AAE?$AAC@ 1003f74c     libucrt:lcidtoname_downlevel.obj
 0002:0000575c       ??_C@_1M@POEEMAIO@?$AAa?$AAr?$AA?9?$AAE?$AAG@ 1003f75c     libucrt:lcidtoname_downlevel.obj
 0002:00005768       ??_C@_1M@EFAKDEDL@?$AAz?$AAh?$AA?9?$AAH?$AAK@ 1003f768     libucrt:lcidtoname_downlevel.obj
 0002:00005774       ??_C@_1M@HKKIJHGI@?$AAd?$AAe?$AA?9?$AAA?$AAT@ 1003f774     libucrt:lcidtoname_downlevel.obj
 0002:00005780       ??_C@_1M@KBFBEHJF@?$AAe?$AAn?$AA?9?$AAA?$AAU@ 1003f780     libucrt:lcidtoname_downlevel.obj
 0002:0000578c       ??_C@_1M@MNPLFAAH@?$AAe?$AAs?$AA?9?$AAE?$AAS@ 1003f78c     libucrt:lcidtoname_downlevel.obj
 0002:00005798       ??_C@_1M@HJOOJFMA@?$AAf?$AAr?$AA?9?$AAC?$AAA@ 1003f798     libucrt:lcidtoname_downlevel.obj
 0002:000057a4       ??_C@_1BG@JPOFPNAB@?$AAs?$AAr?$AA?9?$AAS?$AAP?$AA?9?$AAC?$AAy?$AAr?$AAl@ 1003f7a4     libucrt:lcidtoname_downlevel.obj
 0002:000057bc       ??_C@_1M@LNFOCMOB@?$AAs?$AAe?$AA?9?$AAF?$AAI@ 1003f7bc     libucrt:lcidtoname_downlevel.obj
 0002:000057c8       ??_C@_1O@MGJBOAMB@?$AAq?$AAu?$AAz?$AA?9?$AAP?$AAE@ 1003f7c8     libucrt:lcidtoname_downlevel.obj
 0002:000057d8       ??_C@_1M@GJINLBOK@?$AAa?$AAr?$AA?9?$AAL?$AAY@ 1003f7d8     libucrt:lcidtoname_downlevel.obj
 0002:000057e4       ??_C@_1M@GGMNHJNL@?$AAz?$AAh?$AA?9?$AAS?$AAG@ 1003f7e4     libucrt:lcidtoname_downlevel.obj
 0002:000057f0       ??_C@_1M@HOIKODND@?$AAd?$AAe?$AA?9?$AAL?$AAU@ 1003f7f0     libucrt:lcidtoname_downlevel.obj
 0002:000057fc       ??_C@_1M@DDOCCGFG@?$AAe?$AAn?$AA?9?$AAC?$AAA@ 1003f7fc     libucrt:lcidtoname_downlevel.obj
 0002:00005808       ??_C@_1M@BNOEMJLF@?$AAe?$AAs?$AA?9?$AAG?$AAT@ 1003f808     libucrt:lcidtoname_downlevel.obj
 0002:00005814       ??_C@_1M@EOGNKEK@?$AAf?$AAr?$AA?9?$AAC?$AAH@ 1003f814     libucrt:lcidtoname_downlevel.obj
 0002:00005820       ??_C@_1M@FLIDJFHL@?$AAh?$AAr?$AA?9?$AAB?$AAA@ 1003f820     libucrt:lcidtoname_downlevel.obj
 0002:0000582c       ??_C@_1O@FMCELNAJ@?$AAs?$AAm?$AAj?$AA?9?$AAN?$AAO@ 1003f82c     libucrt:lcidtoname_downlevel.obj
 0002:0000583c       ??_C@_1M@JHGLJMGJ@?$AAa?$AAr?$AA?9?$AAD?$AAZ@ 1003f83c     libucrt:lcidtoname_downlevel.obj
 0002:00005848       ??_C@_1M@JKKFDCNP@?$AAz?$AAh?$AA?9?$AAM?$AAO@ 1003f848     libucrt:lcidtoname_downlevel.obj
 0002:00005854       ??_C@_1M@GEEFALPE@?$AAd?$AAe?$AA?9?$AAL?$AAI@ 1003f854     libucrt:lcidtoname_downlevel.obj
 0002:00005860       ??_C@_1M@IGEOFBG@?$AAe?$AAn?$AA?9?$AAN?$AAZ@ 1003f860     libucrt:lcidtoname_downlevel.obj
 0002:0000586c       ??_C@_1M@KDBONEHP@?$AAe?$AAs?$AA?9?$AAC?$AAR@ 1003f86c     libucrt:lcidtoname_downlevel.obj
 0002:00005878       ??_C@_1M@FHMDOHNN@?$AAf?$AAr?$AA?9?$AAL?$AAU@ 1003f878     libucrt:lcidtoname_downlevel.obj
 0002:00005884       ??_C@_1BG@NFKKMAFG@?$AAb?$AAs?$AA?9?$AAB?$AAA?$AA?9?$AAL?$AAa?$AAt?$AAn@ 1003f884     libucrt:lcidtoname_downlevel.obj
 0002:0000589c       ??_C@_1O@IMNBEMCI@?$AAs?$AAm?$AAj?$AA?9?$AAS?$AAE@ 1003f89c     libucrt:lcidtoname_downlevel.obj
 0002:000058ac       ??_C@_1M@DHHMBNDP@?$AAa?$AAr?$AA?9?$AAM?$AAA@ 1003f8ac     libucrt:lcidtoname_downlevel.obj
 0002:000058b8       ??_C@_1M@BNBLJCGH@?$AAe?$AAn?$AA?9?$AAI?$AAE@ 1003f8b8     libucrt:lcidtoname_downlevel.obj
 0002:000058c4       ??_C@_1M@GEPAFMDL@?$AAe?$AAs?$AA?9?$AAP?$AAA@ 1003f8c4     libucrt:lcidtoname_downlevel.obj
 0002:000058d0       ??_C@_1M@OJONDMDL@?$AAf?$AAr?$AA?9?$AAM?$AAC@ 1003f8d0     libucrt:lcidtoname_downlevel.obj
 0002:000058dc       ??_C@_1BG@OBCNFJB@?$AAs?$AAr?$AA?9?$AAB?$AAA?$AA?9?$AAL?$AAa?$AAt?$AAn@ 1003f8dc     libucrt:lcidtoname_downlevel.obj
 0002:000058f4       ??_C@_1O@KEMEEGPO@?$AAs?$AAm?$AAa?$AA?9?$AAN?$AAO@ 1003f8f4     libucrt:lcidtoname_downlevel.obj
 0002:00005904       ??_C@_1M@ELMGFODK@?$AAa?$AAr?$AA?9?$AAT?$AAN@ 1003f904     libucrt:lcidtoname_downlevel.obj
 0002:00005910       ??_C@_1M@BHDLHFAF@?$AAe?$AAn?$AA?9?$AAZ?$AAA@ 1003f910     libucrt:lcidtoname_downlevel.obj
 0002:0000591c       ??_C@_1M@BMGIGLIF@?$AAe?$AAs?$AA?9?$AAD?$AAO@ 1003f91c     libucrt:lcidtoname_downlevel.obj
 0002:00005928       ??_C@_1BG@CMBHIPBE@?$AAs?$AAr?$AA?9?$AAB?$AAA?$AA?9?$AAC?$AAy?$AAr?$AAl@ 1003f928     libucrt:lcidtoname_downlevel.obj
 0002:00005940       ??_C@_1O@HEDBLHNP@?$AAs?$AAm?$AAa?$AA?9?$AAS?$AAE@ 1003f940     libucrt:lcidtoname_downlevel.obj
 0002:00005950       ??_C@_1M@DAGCADIM@?$AAa?$AAr?$AA?9?$AAO?$AAM@ 1003f950     libucrt:lcidtoname_downlevel.obj
 0002:0000595c       ??_C@_1M@FODLMICG@?$AAe?$AAn?$AA?9?$AAJ?$AAM@ 1003f95c     libucrt:lcidtoname_downlevel.obj
 0002:00005968       ??_C@_1M@DNMLCIHB@?$AAe?$AAs?$AA?9?$AAV?$AAE@ 1003f968     libucrt:lcidtoname_downlevel.obj
 0002:00005974       ??_C@_1O@EOKHMKJK@?$AAs?$AAm?$AAs?$AA?9?$AAF?$AAI@ 1003f974     libucrt:lcidtoname_downlevel.obj
 0002:00005984       ??_C@_1M@CAFJMKOF@?$AAa?$AAr?$AA?9?$AAY?$AAE@ 1003f984     libucrt:lcidtoname_downlevel.obj
 0002:00005990       ??_C@_1M@CBFHIJLI@?$AAe?$AAn?$AA?9?$AAC?$AAB@ 1003f990     libucrt:lcidtoname_downlevel.obj
 0002:0000599c       ??_C@_1M@BGNFLDN@?$AAe?$AAs?$AA?9?$AAC?$AAO@ 1003f99c     libucrt:lcidtoname_downlevel.obj
 0002:000059a8       ??_C@_1O@JMPHMAMC@?$AAs?$AAm?$AAn?$AA?9?$AAF?$AAI@ 1003f9a8     libucrt:lcidtoname_downlevel.obj
 0002:000059b8       ??_C@_1M@JLANABKE@?$AAa?$AAr?$AA?9?$AAS?$AAY@ 1003f9b8     libucrt:lcidtoname_downlevel.obj
 0002:000059c4       ??_C@_1M@HPKGCFGN@?$AAe?$AAn?$AA?9?$AAB?$AAZ@ 1003f9c4     libucrt:lcidtoname_downlevel.obj
 0002:000059d0       ??_C@_1M@OLJCMLGM@?$AAe?$AAs?$AA?9?$AAP?$AAE@ 1003f9d0     libucrt:lcidtoname_downlevel.obj
 0002:000059dc       ??_C@_1M@MKKGFKLE@?$AAa?$AAr?$AA?9?$AAJ?$AAO@ 1003f9dc     libucrt:lcidtoname_downlevel.obj
 0002:000059e8       ??_C@_1M@EKPGLDNI@?$AAe?$AAn?$AA?9?$AAT?$AAT@ 1003f9e8     libucrt:lcidtoname_downlevel.obj
 0002:000059f4       ??_C@_1M@OONGHFHE@?$AAe?$AAs?$AA?9?$AAA?$AAR@ 1003f9f4     libucrt:lcidtoname_downlevel.obj
 0002:00005a00       ??_C@_1M@OOJFGBHE@?$AAa?$AAr?$AA?9?$AAL?$AAB@ 1003fa00     libucrt:lcidtoname_downlevel.obj
 0002:00005a0c       ??_C@_1M@GCEJHNEG@?$AAe?$AAn?$AA?9?$AAZ?$AAW@ 1003fa0c     libucrt:lcidtoname_downlevel.obj
 0002:00005a18       ??_C@_1M@JNOCAHJI@?$AAe?$AAs?$AA?9?$AAE?$AAC@ 1003fa18     libucrt:lcidtoname_downlevel.obj
 0002:00005a24       ??_C@_1M@JEFHPGGB@?$AAa?$AAr?$AA?9?$AAK?$AAW@ 1003fa24     libucrt:lcidtoname_downlevel.obj
 0002:00005a30       ??_C@_1M@MLKIBJOJ@?$AAe?$AAn?$AA?9?$AAP?$AAH@ 1003fa30     libucrt:lcidtoname_downlevel.obj
 0002:00005a3c       ??_C@_1M@BDNIPEND@?$AAe?$AAs?$AA?9?$AAC?$AAL@ 1003fa3c     libucrt:lcidtoname_downlevel.obj
 0002:00005a48       ??_C@_1M@MPNMEKBD@?$AAa?$AAr?$AA?9?$AAA?$AAE@ 1003fa48     libucrt:lcidtoname_downlevel.obj
 0002:00005a54       ??_C@_1M@KBJALCPI@?$AAe?$AAs?$AA?9?$AAU?$AAY@ 1003fa54     libucrt:lcidtoname_downlevel.obj
 0002:00005a60       ??_C@_1M@LLCCOAGA@?$AAa?$AAr?$AA?9?$AAB?$AAH@ 1003fa60     libucrt:lcidtoname_downlevel.obj
 0002:00005a6c       ??_C@_1M@PBFNCDEL@?$AAe?$AAs?$AA?9?$AAP?$AAY@ 1003fa6c     libucrt:lcidtoname_downlevel.obj
 0002:00005a78       ??_C@_1M@EDGINPNP@?$AAa?$AAr?$AA?9?$AAQ?$AAA@ 1003fa78     libucrt:lcidtoname_downlevel.obj
 0002:00005a84       ??_C@_1M@MKDBIIJI@?$AAe?$AAs?$AA?9?$AAB?$AAO@ 1003fa84     libucrt:lcidtoname_downlevel.obj
 0002:00005a90       ??_C@_1M@CPKKEBLD@?$AAe?$AAs?$AA?9?$AAS?$AAV@ 1003fa90     libucrt:lcidtoname_downlevel.obj
 0002:00005a9c       ??_C@_1M@NDBGMMJL@?$AAe?$AAs?$AA?9?$AAH?$AAN@ 1003fa9c     libucrt:lcidtoname_downlevel.obj
 0002:00005aa8       ??_C@_1M@JIJIBHDP@?$AAe?$AAs?$AA?9?$AAN?$AAI@ 1003faa8     libucrt:lcidtoname_downlevel.obj
 0002:00005ab4       ??_C@_1M@CGFMKEEK@?$AAe?$AAs?$AA?9?$AAP?$AAR@ 1003fab4     libucrt:lcidtoname_downlevel.obj
 0002:00005ac0       ??_C@_1O@ICJHKIIK@?$AAz?$AAh?$AA?9?$AAC?$AAH?$AAT@ 1003fac0     libucrt:lcidtoname_downlevel.obj
 0002:00005ad0       ??_C@_15CLNEJCE@?$AAs?$AAr@ 1003fad0     libucrt:lcidtoname_downlevel.obj
 0002:000061f8       ??_C@_1M@KAHEKEIG@?$AAa?$AAf?$AA?9?$AAz?$AAa@ 100401f8     libucrt:lcidtoname_downlevel.obj
 0002:00006204       ??_C@_1M@GIECOABL@?$AAa?$AAr?$AA?9?$AAa?$AAe@ 10040204     libucrt:lcidtoname_downlevel.obj
 0002:00006210       ??_C@_1M@BMLMEKGI@?$AAa?$AAr?$AA?9?$AAb?$AAh@ 10040210     libucrt:lcidtoname_downlevel.obj
 0002:0000621c       ??_C@_1M@DAPFDGGB@?$AAa?$AAr?$AA?9?$AAd?$AAz@ 1004021c     libucrt:lcidtoname_downlevel.obj
 0002:00006228       ??_C@_1M@FJNKGKIG@?$AAa?$AAr?$AA?9?$AAe?$AAg@ 10040228     libucrt:lcidtoname_downlevel.obj
 0002:00006234       ??_C@_1M@FLGKKCLO@?$AAa?$AAr?$AA?9?$AAi?$AAq@ 10040234     libucrt:lcidtoname_downlevel.obj
 0002:00006240       ??_C@_1M@GNDIPALM@?$AAa?$AAr?$AA?9?$AAj?$AAo@ 10040240     libucrt:lcidtoname_downlevel.obj
 0002:0000624c       ??_C@_1M@DDMJFMGJ@?$AAa?$AAr?$AA?9?$AAk?$AAw@ 1004024c     libucrt:lcidtoname_downlevel.obj
 0002:00006258       ??_C@_1M@EJALMLHM@?$AAa?$AAr?$AA?9?$AAl?$AAb@ 10040258     libucrt:lcidtoname_downlevel.obj
 0002:00006264       ??_C@_1M@MOBDBLOC@?$AAa?$AAr?$AA?9?$AAl?$AAy@ 10040264     libucrt:lcidtoname_downlevel.obj
 0002:00006270       ??_C@_1M@JAOCLHDH@?$AAa?$AAr?$AA?9?$AAm?$AAa@ 10040270     libucrt:lcidtoname_downlevel.obj
 0002:0000627c       ??_C@_1M@JHPMKJIE@?$AAa?$AAr?$AA?9?$AAo?$AAm@ 1004027c     libucrt:lcidtoname_downlevel.obj
 0002:00006288       ??_C@_1M@OEPGHFNH@?$AAa?$AAr?$AA?9?$AAq?$AAa@ 10040288     libucrt:lcidtoname_downlevel.obj
 0002:00006294       ??_C@_1M@KJDONENM@?$AAa?$AAr?$AA?9?$AAs?$AAa@ 10040294     libucrt:lcidtoname_downlevel.obj
 0002:000062a0       ??_C@_1M@DMJDKLKM@?$AAa?$AAr?$AA?9?$AAs?$AAy@ 100402a0     libucrt:lcidtoname_downlevel.obj
 0002:000062ac       ??_C@_1M@OMFIPEDC@?$AAa?$AAr?$AA?9?$AAt?$AAn@ 100402ac     libucrt:lcidtoname_downlevel.obj
 0002:000062b8       ??_C@_1M@IHMHGAON@?$AAa?$AAr?$AA?9?$AAy?$AAe@ 100402b8     libucrt:lcidtoname_downlevel.obj
 0002:000062c4       ??_C@_1BG@KDCPGJGB@?$AAa?$AAz?$AA?9?$AAa?$AAz?$AA?9?$AAc?$AAy?$AAr?$AAl@ 100402c4     libucrt:lcidtoname_downlevel.obj
 0002:000062dc       ??_C@_1BG@IBCKDDOE@?$AAa?$AAz?$AA?9?$AAa?$AAz?$AA?9?$AAl?$AAa?$AAt?$AAn@ 100402dc     libucrt:lcidtoname_downlevel.obj
 0002:000062f4       ??_C@_1M@EGPFDCPD@?$AAb?$AAe?$AA?9?$AAb?$AAy@ 100402f4     libucrt:lcidtoname_downlevel.obj
 0002:00006300       ??_C@_1M@PCMGMCGC@?$AAb?$AAg?$AA?9?$AAb?$AAg@ 10040300     libucrt:lcidtoname_downlevel.obj
 0002:0000630c       ??_C@_1M@BJBMFGOB@?$AAb?$AAn?$AA?9?$AAi?$AAn@ 1004030c     libucrt:lcidtoname_downlevel.obj
 0002:00006318       ??_C@_1BG@EAKMMACD@?$AAb?$AAs?$AA?9?$AAb?$AAa?$AA?9?$AAl?$AAa?$AAt?$AAn@ 10040318     libucrt:lcidtoname_downlevel.obj
 0002:00006330       ??_C@_1M@KGADAODK@?$AAc?$AAa?$AA?9?$AAe?$AAs@ 10040330     libucrt:lcidtoname_downlevel.obj
 0002:0000633c       ??_C@_1M@COAJPDHI@?$AAc?$AAs?$AA?9?$AAc?$AAz@ 1004033c     libucrt:lcidtoname_downlevel.obj
 0002:00006348       ??_C@_1M@DHBHFONH@?$AAc?$AAy?$AA?9?$AAg?$AAb@ 10040348     libucrt:lcidtoname_downlevel.obj
 0002:00006354       ??_C@_1M@IMGKELGA@?$AAd?$AAa?$AA?9?$AAd?$AAk@ 10040354     libucrt:lcidtoname_downlevel.obj
 0002:00006360       ??_C@_1M@NNDGDNGA@?$AAd?$AAe?$AA?9?$AAa?$AAt@ 10040360     libucrt:lcidtoname_downlevel.obj
 0002:0000636c       ??_C@_1M@IKDBHEEM@?$AAd?$AAe?$AA?9?$AAc?$AAh@ 1004036c     libucrt:lcidtoname_downlevel.obj
 0002:00006378       ??_C@_1M@GFFOJMCJ@?$AAd?$AAe?$AA?9?$AAd?$AAe@ 10040378     libucrt:lcidtoname_downlevel.obj
 0002:00006384       ??_C@_1M@MDNLKBPM@?$AAd?$AAe?$AA?9?$AAl?$AAi@ 10040384     libucrt:lcidtoname_downlevel.obj
 0002:00006390       ??_C@_1M@NJBEEJNL@?$AAd?$AAe?$AA?9?$AAl?$AAu@ 10040390     libucrt:lcidtoname_downlevel.obj
 0002:0000639c       ??_C@_1O@GNNELBAP@?$AAd?$AAi?$AAv?$AA?9?$AAm?$AAv@ 1004039c     libucrt:lcidtoname_downlevel.obj
 0002:000063ac       ??_C@_1M@EJLEOGAE@?$AAe?$AAl?$AA?9?$AAg?$AAr@ 100403ac     libucrt:lcidtoname_downlevel.obj
 0002:000063b8       ??_C@_1M@GMPONJN@?$AAe?$AAn?$AA?9?$AAa?$AAu@ 100403b8     libucrt:lcidtoname_downlevel.obj
 0002:000063c4       ??_C@_1M@NIDIIPGF@?$AAe?$AAn?$AA?9?$AAb?$AAz@ 100403c4     libucrt:lcidtoname_downlevel.obj
 0002:000063d0       ??_C@_1M@JEHMIMFO@?$AAe?$AAn?$AA?9?$AAc?$AAa@ 100403d0     libucrt:lcidtoname_downlevel.obj
 0002:000063dc       ??_C@_1M@IGMJCDLA@?$AAe?$AAn?$AA?9?$AAc?$AAb@ 100403dc     libucrt:lcidtoname_downlevel.obj
 0002:000063e8       ??_C@_1M@BNFIGBKG@?$AAe?$AAn?$AA?9?$AAg?$AAb@ 100403e8     libucrt:lcidtoname_downlevel.obj
 0002:000063f4       ??_C@_1M@LKIFDIGP@?$AAe?$AAn?$AA?9?$AAi?$AAe@ 100403f4     libucrt:lcidtoname_downlevel.obj
 0002:00006400       ??_C@_1M@PJKFGCCO@?$AAe?$AAn?$AA?9?$AAj?$AAm@ 10040400     libucrt:lcidtoname_downlevel.obj
 0002:0000640c       ??_C@_1M@KPPKEPBO@?$AAe?$AAn?$AA?9?$AAn?$AAz@ 1004040c     libucrt:lcidtoname_downlevel.obj
 0002:00006418       ??_C@_1M@GMDGLDOB@?$AAe?$AAn?$AA?9?$AAp?$AAh@ 10040418     libucrt:lcidtoname_downlevel.obj
 0002:00006424       ??_C@_1M@ONGIBJNA@?$AAe?$AAn?$AA?9?$AAt?$AAt@ 10040424     libucrt:lcidtoname_downlevel.obj
 0002:00006430       ??_C@_1M@LLODPCMM@?$AAe?$AAn?$AA?9?$AAu?$AAs@ 10040430     libucrt:lcidtoname_downlevel.obj
 0002:0000643c       ??_C@_1M@LAKFNPAN@?$AAe?$AAn?$AA?9?$AAz?$AAa@ 1004043c     libucrt:lcidtoname_downlevel.obj
 0002:00006448       ??_C@_1M@MFNHNHEO@?$AAe?$AAn?$AA?9?$AAz?$AAw@ 10040448     libucrt:lcidtoname_downlevel.obj
 0002:00006454       ??_C@_1M@EJEINPHM@?$AAe?$AAs?$AA?9?$AAa?$AAr@ 10040454     libucrt:lcidtoname_downlevel.obj
 0002:00006460       ??_C@_1M@GNKPCCJA@?$AAe?$AAs?$AA?9?$AAb?$AAo@ 10040460     libucrt:lcidtoname_downlevel.obj
 0002:0000646c       ??_C@_1M@LEEGFONL@?$AAe?$AAs?$AA?9?$AAc?$AAl@ 1004046c     libucrt:lcidtoname_downlevel.obj
 0002:00006478       ??_C@_1M@KGPDPBDF@?$AAe?$AAs?$AA?9?$AAc?$AAo@ 10040478     libucrt:lcidtoname_downlevel.obj
 0002:00006484       ??_C@_1M@EIAHOHH@?$AAe?$AAs?$AA?9?$AAc?$AAr@ 10040484     libucrt:lcidtoname_downlevel.obj
 0002:00006490       ??_C@_1M@LLPGMBIN@?$AAe?$AAs?$AA?9?$AAd?$AAo@ 10040490     libucrt:lcidtoname_downlevel.obj
 0002:0000649c       ??_C@_1M@DKHMKNJA@?$AAe?$AAs?$AA?9?$AAe?$AAc@ 1004049c     libucrt:lcidtoname_downlevel.obj
 0002:000064a8       ??_C@_1M@GKGFPKAP@?$AAe?$AAs?$AA?9?$AAe?$AAs@ 100404a8     libucrt:lcidtoname_downlevel.obj
 0002:000064b4       ??_C@_1M@LKHKGDLN@?$AAe?$AAs?$AA?9?$AAg?$AAt@ 100404b4     libucrt:lcidtoname_downlevel.obj
 0002:000064c0       ??_C@_1M@HEIIGGJD@?$AAe?$AAs?$AA?9?$AAh?$AAn@ 100404c0     libucrt:lcidtoname_downlevel.obj
 0002:000064cc       ??_C@_1M@FBDHPPGD@?$AAe?$AAs?$AA?9?$AAm?$AAx@ 100404cc     libucrt:lcidtoname_downlevel.obj
 0002:000064d8       ??_C@_1M@DPAGLNDH@?$AAe?$AAs?$AA?9?$AAn?$AAi@ 100404d8     libucrt:lcidtoname_downlevel.obj
 0002:000064e4       ??_C@_1M@MDGOPGDD@?$AAe?$AAs?$AA?9?$AAp?$AAa@ 100404e4     libucrt:lcidtoname_downlevel.obj
 0002:000064f0       ??_C@_1M@EMAMGBGE@?$AAe?$AAs?$AA?9?$AAp?$AAe@ 100404f0     libucrt:lcidtoname_downlevel.obj
 0002:000064fc       ??_C@_1M@IBMCAOEC@?$AAe?$AAs?$AA?9?$AAp?$AAr@ 100404fc     libucrt:lcidtoname_downlevel.obj
 0002:00006508       ??_C@_1M@FGMDIJED@?$AAe?$AAs?$AA?9?$AAp?$AAy@ 10040508     libucrt:lcidtoname_downlevel.obj
 0002:00006514       ??_C@_1M@IIDEOLLL@?$AAe?$AAs?$AA?9?$AAs?$AAv@ 10040514     libucrt:lcidtoname_downlevel.obj
 0002:00006520       ??_C@_1M@GAOBIPA@?$AAe?$AAs?$AA?9?$AAu?$AAy@ 10040520     libucrt:lcidtoname_downlevel.obj
 0002:0000652c       ??_C@_1M@JKFFICHJ@?$AAe?$AAs?$AA?9?$AAv?$AAe@ 1004052c     libucrt:lcidtoname_downlevel.obj
 0002:00006538       ??_C@_1M@PNMLOJDF@?$AAe?$AAt?$AA?9?$AAe?$AAe@ 10040538     libucrt:lcidtoname_downlevel.obj
 0002:00006544       ??_C@_1M@GHHLIKEI@?$AAe?$AAu?$AA?9?$AAe?$AAs@ 10040544     libucrt:lcidtoname_downlevel.obj
 0002:00006550       ??_C@_1M@PBNONODE@?$AAf?$AAa?$AA?9?$AAi?$AAr@ 10040550     libucrt:lcidtoname_downlevel.obj
 0002:0000655c       ??_C@_1M@JEEHPMIL@?$AAf?$AAi?$AA?9?$AAf?$AAi@ 1004055c     libucrt:lcidtoname_downlevel.obj
 0002:00006568       ??_C@_1M@LMDCNDBA@?$AAf?$AAo?$AA?9?$AAf?$AAo@ 10040568     libucrt:lcidtoname_downlevel.obj
 0002:00006574       ??_C@_1M@JKEOHLDK@?$AAf?$AAr?$AA?9?$AAb?$AAe@ 10040574     libucrt:lcidtoname_downlevel.obj
 0002:00006580       ??_C@_1M@NOHADPMI@?$AAf?$AAr?$AA?9?$AAc?$AAa@ 10040580     libucrt:lcidtoname_downlevel.obj
 0002:0000658c       ??_C@_1M@KDHIHAEC@?$AAf?$AAr?$AA?9?$AAc?$AAh@ 1004058c     libucrt:lcidtoname_downlevel.obj
 0002:00006598       ??_C@_1M@MMBBFGAK@?$AAf?$AAr?$AA?9?$AAf?$AAr@ 10040598     libucrt:lcidtoname_downlevel.obj
 0002:000065a4       ??_C@_1M@PAFNENNF@?$AAf?$AAr?$AA?9?$AAl?$AAu@ 100405a4     libucrt:lcidtoname_downlevel.obj
 0002:000065b0       ??_C@_1M@EOHDJGDD@?$AAf?$AAr?$AA?9?$AAm?$AAc@ 100405b0     libucrt:lcidtoname_downlevel.obj
 0002:000065bc       ??_C@_1M@FAPLLOPF@?$AAg?$AAl?$AA?9?$AAe?$AAs@ 100405bc     libucrt:lcidtoname_downlevel.obj
 0002:000065c8       ??_C@_1M@FOPBFLOO@?$AAg?$AAu?$AA?9?$AAi?$AAn@ 100405c8     libucrt:lcidtoname_downlevel.obj
 0002:000065d4       ??_C@_1M@KBMCINPM@?$AAh?$AAe?$AA?9?$AAi?$AAl@ 100405d4     libucrt:lcidtoname_downlevel.obj
 0002:000065e0       ??_C@_1M@BBPHKFPJ@?$AAh?$AAi?$AA?9?$AAi?$AAn@ 100405e0     libucrt:lcidtoname_downlevel.obj
 0002:000065ec       ??_C@_1M@PMBNDPHD@?$AAh?$AAr?$AA?9?$AAb?$AAa@ 100405ec     libucrt:lcidtoname_downlevel.obj
 0002:000065f8       ??_C@_1M@BPCKOEGE@?$AAh?$AAr?$AA?9?$AAh?$AAr@ 100405f8     libucrt:lcidtoname_downlevel.obj
 0002:00006604       ??_C@_1M@GACBMHKE@?$AAh?$AAu?$AA?9?$AAh?$AAu@ 10040604     libucrt:lcidtoname_downlevel.obj
 0002:00006610       ??_C@_1M@MILPAJJC@?$AAh?$AAy?$AA?9?$AAa?$AAm@ 10040610     libucrt:lcidtoname_downlevel.obj
 0002:0000661c       ??_C@_1M@BABBICEC@?$AAi?$AAd?$AA?9?$AAi?$AAd@ 1004061c     libucrt:lcidtoname_downlevel.obj
 0002:00006628       ??_C@_1M@BIKNHHPF@?$AAi?$AAs?$AA?9?$AAi?$AAs@ 10040628     libucrt:lcidtoname_downlevel.obj
 0002:00006634       ??_C@_1M@NMPCJPHE@?$AAi?$AAt?$AA?9?$AAc?$AAh@ 10040634     libucrt:lcidtoname_downlevel.obj
 0002:00006640       ??_C@_1M@GHKGFEDF@?$AAi?$AAt?$AA?9?$AAi?$AAt@ 10040640     libucrt:lcidtoname_downlevel.obj
 0002:0000664c       ??_C@_1M@NIEJCJJA@?$AAj?$AAa?$AA?9?$AAj?$AAp@ 1004064c     libucrt:lcidtoname_downlevel.obj
 0002:00006658       ??_C@_1M@JILFNBIM@?$AAk?$AAa?$AA?9?$AAg?$AAe@ 10040658     libucrt:lcidtoname_downlevel.obj
 0002:00006664       ??_C@_1M@PACPMGPH@?$AAk?$AAk?$AA?9?$AAk?$AAz@ 10040664     libucrt:lcidtoname_downlevel.obj
 0002:00006670       ??_C@_1M@IELFGMHA@?$AAk?$AAn?$AA?9?$AAi?$AAn@ 10040670     libucrt:lcidtoname_downlevel.obj
 0002:0000667c       ??_C@_1O@IBBJHCH@?$AAk?$AAo?$AAk?$AA?9?$AAi?$AAn@ 1004067c     libucrt:lcidtoname_downlevel.obj
 0002:0000668c       ??_C@_1M@DMHAEOGC@?$AAk?$AAo?$AA?9?$AAk?$AAr@ 1004068c     libucrt:lcidtoname_downlevel.obj
 0002:00006698       ??_C@_1M@HBAHBIGA@?$AAk?$AAy?$AA?9?$AAk?$AAg@ 10040698     libucrt:lcidtoname_downlevel.obj
 0002:000066a4       ??_C@_1M@KPMILCJG@?$AAl?$AAt?$AA?9?$AAl?$AAt@ 100406a4     libucrt:lcidtoname_downlevel.obj
 0002:000066b0       ??_C@_1M@BDEKKCA@?$AAl?$AAv?$AA?9?$AAl?$AAv@ 100406b0     libucrt:lcidtoname_downlevel.obj
 0002:000066bc       ??_C@_1M@ELCKCCJJ@?$AAm?$AAi?$AA?9?$AAn?$AAz@ 100406bc     libucrt:lcidtoname_downlevel.obj
 0002:000066c8       ??_C@_1M@CBOOLAPA@?$AAm?$AAk?$AA?9?$AAm?$AAk@ 100406c8     libucrt:lcidtoname_downlevel.obj
 0002:000066d4       ??_C@_1M@GPHNBJKN@?$AAm?$AAl?$AA?9?$AAi?$AAn@ 100406d4     libucrt:lcidtoname_downlevel.obj
 0002:000066e0       ??_C@_1M@PABJILIG@?$AAm?$AAn?$AA?9?$AAm?$AAn@ 100406e0     libucrt:lcidtoname_downlevel.obj
 0002:000066ec       ??_C@_1M@FGBKKIPG@?$AAm?$AAr?$AA?9?$AAi?$AAn@ 100406ec     libucrt:lcidtoname_downlevel.obj
 0002:000066f8       ??_C@_1M@NDBPDDAL@?$AAm?$AAs?$AA?9?$AAb?$AAn@ 100406f8     libucrt:lcidtoname_downlevel.obj
 0002:00006704       ??_C@_1M@OPIHOOPI@?$AAm?$AAs?$AA?9?$AAm?$AAy@ 10040704     libucrt:lcidtoname_downlevel.obj
 0002:00006710       ??_C@_1M@PPDBCNFM@?$AAm?$AAt?$AA?9?$AAm?$AAt@ 10040710     libucrt:lcidtoname_downlevel.obj
 0002:0000671c       ??_C@_1M@KDJDKMDD@?$AAn?$AAb?$AA?9?$AAn?$AAo@ 1004071c     libucrt:lcidtoname_downlevel.obj
 0002:00006728       ??_C@_1M@KFCFLMJP@?$AAn?$AAl?$AA?9?$AAb?$AAe@ 10040728     libucrt:lcidtoname_downlevel.obj
 0002:00006734       ??_C@_1M@KPOPDDGO@?$AAn?$AAl?$AA?9?$AAn?$AAl@ 10040734     libucrt:lcidtoname_downlevel.obj
 0002:00006740       ??_C@_1M@LJKPEMLN@?$AAn?$AAn?$AA?9?$AAn?$AAo@ 10040740     libucrt:lcidtoname_downlevel.obj
 0002:0000674c       ??_C@_1M@BDGHHBFL@?$AAn?$AAs?$AA?9?$AAz?$AAa@ 1004074c     libucrt:lcidtoname_downlevel.obj
 0002:00006758       ??_C@_1M@IDEHOAP@?$AAp?$AAa?$AA?9?$AAi?$AAn@ 10040758     libucrt:lcidtoname_downlevel.obj
 0002:00006764       ??_C@_1M@HDBKGOGH@?$AAp?$AAl?$AA?9?$AAp?$AAl@ 10040764     libucrt:lcidtoname_downlevel.obj
 0002:00006770       ??_C@_1M@LJLLCMEH@?$AAp?$AAt?$AA?9?$AAb?$AAr@ 10040770     libucrt:lcidtoname_downlevel.obj
 0002:0000677c       ??_C@_1M@NCMONAAL@?$AAp?$AAt?$AA?9?$AAp?$AAt@ 1004077c     libucrt:lcidtoname_downlevel.obj
 0002:00006788       ??_C@_1O@EAKMAJDN@?$AAq?$AAu?$AAz?$AA?9?$AAb?$AAo@ 10040788     libucrt:lcidtoname_downlevel.obj
 0002:00006798       ??_C@_1O@BHHPIGDN@?$AAq?$AAu?$AAz?$AA?9?$AAe?$AAc@ 10040798     libucrt:lcidtoname_downlevel.obj
 0002:000067a8       ??_C@_1O@GBAPEKMJ@?$AAq?$AAu?$AAz?$AA?9?$AAp?$AAe@ 100407a8     libucrt:lcidtoname_downlevel.obj
 0002:000067b8       ??_C@_1M@CLGLEFBO@?$AAr?$AAo?$AA?9?$AAr?$AAo@ 100407b8     libucrt:lcidtoname_downlevel.obj
 0002:000067c4       ??_C@_1M@CEEDODME@?$AAr?$AAu?$AA?9?$AAr?$AAu@ 100407c4     libucrt:lcidtoname_downlevel.obj
 0002:000067d0       ??_C@_1M@HPKKKMPP@?$AAs?$AAa?$AA?9?$AAi?$AAn@ 100407d0     libucrt:lcidtoname_downlevel.obj
 0002:000067dc       ??_C@_1M@BKMAIGOJ@?$AAs?$AAe?$AA?9?$AAf?$AAi@ 100407dc     libucrt:lcidtoname_downlevel.obj
 0002:000067e8       ??_C@_1M@NDPIFLFI@?$AAs?$AAe?$AA?9?$AAn?$AAo@ 100407e8     libucrt:lcidtoname_downlevel.obj
 0002:000067f4       ??_C@_1M@DANKKHJ@?$AAs?$AAe?$AA?9?$AAs?$AAe@ 100407f4     libucrt:lcidtoname_downlevel.obj
 0002:00006800       ??_C@_1M@PNBLONPJ@?$AAs?$AAk?$AA?9?$AAs?$AAk@ 10040800     libucrt:lcidtoname_downlevel.obj
 0002:0000680c       ??_C@_1M@LFMODOAL@?$AAs?$AAl?$AA?9?$AAs?$AAi@ 1004080c     libucrt:lcidtoname_downlevel.obj
 0002:00006818       ??_C@_1O@DFKOMPG@?$AAs?$AAm?$AAa?$AA?9?$AAn?$AAo@ 10040818     libucrt:lcidtoname_downlevel.obj
 0002:00006828       ??_C@_1O@NDKPBNNH@?$AAs?$AAm?$AAa?$AA?9?$AAs?$AAe@ 10040828     libucrt:lcidtoname_downlevel.obj
 0002:00006838       ??_C@_1O@PLLKBHAB@?$AAs?$AAm?$AAj?$AA?9?$AAn?$AAo@ 10040838     libucrt:lcidtoname_downlevel.obj
 0002:00006848       ??_C@_1O@CLEPOGCA@?$AAs?$AAm?$AAj?$AA?9?$AAs?$AAe@ 10040848     libucrt:lcidtoname_downlevel.obj
 0002:00006858       ??_C@_1O@DLGJGKMK@?$AAs?$AAm?$AAn?$AA?9?$AAf?$AAi@ 10040858     libucrt:lcidtoname_downlevel.obj
 0002:00006868       ??_C@_1O@OJDJGAJC@?$AAs?$AAm?$AAs?$AA?9?$AAf?$AAi@ 10040868     libucrt:lcidtoname_downlevel.obj
 0002:00006878       ??_C@_1M@BOFOGHPB@?$AAs?$AAq?$AA?9?$AAa?$AAl@ 10040878     libucrt:lcidtoname_downlevel.obj
 0002:00006884       ??_C@_1BG@LJBBIPGB@?$AAs?$AAr?$AA?9?$AAb?$AAa?$AA?9?$AAc?$AAy?$AAr?$AAl@ 10040884     libucrt:lcidtoname_downlevel.obj
 0002:0000689c       ??_C@_1BG@JLBENFOE@?$AAs?$AAr?$AA?9?$AAb?$AAa?$AA?9?$AAl?$AAa?$AAt?$AAn@ 1004089c     libucrt:lcidtoname_downlevel.obj
 0002:000068b4       ??_C@_1BG@KODPNHE@?$AAs?$AAr?$AA?9?$AAs?$AAp?$AA?9?$AAc?$AAy?$AAr?$AAl@ 100408b4     libucrt:lcidtoname_downlevel.obj
 0002:000068cc       ??_C@_1BG@CIOGKHPB@?$AAs?$AAr?$AA?9?$AAs?$AAp?$AA?9?$AAl?$AAa?$AAt?$AAn@ 100408cc     libucrt:lcidtoname_downlevel.obj
 0002:000068e4       ??_C@_1M@NGFJLMAC@?$AAs?$AAv?$AA?9?$AAf?$AAi@ 100408e4     libucrt:lcidtoname_downlevel.obj
 0002:000068f0       ??_C@_1M@MPJEJAJC@?$AAs?$AAv?$AA?9?$AAs?$AAe@ 100408f0     libucrt:lcidtoname_downlevel.obj
 0002:000068fc       ??_C@_1M@MPNDHLFK@?$AAs?$AAw?$AA?9?$AAk?$AAe@ 100408fc     libucrt:lcidtoname_downlevel.obj
 0002:00006908       ??_C@_1O@KOHBJJI@?$AAs?$AAy?$AAr?$AA?9?$AAs?$AAy@ 10040908     libucrt:lcidtoname_downlevel.obj
 0002:00006918       ??_C@_1M@LDCEFHA@?$AAt?$AAa?$AA?9?$AAi?$AAn@ 10040918     libucrt:lcidtoname_downlevel.obj
 0002:00006924       ??_C@_1M@CNJOFAK@?$AAt?$AAe?$AA?9?$AAi?$AAn@ 10040924     libucrt:lcidtoname_downlevel.obj
 0002:00006930       ??_C@_1M@GNAECACD@?$AAt?$AAh?$AA?9?$AAt?$AAh@ 10040930     libucrt:lcidtoname_downlevel.obj
 0002:0000693c       ??_C@_1M@CHBIHOJO@?$AAt?$AAn?$AA?9?$AAz?$AAa@ 1004093c     libucrt:lcidtoname_downlevel.obj
 0002:00006948       ??_C@_1M@GCCMIGPJ@?$AAt?$AAr?$AA?9?$AAt?$AAr@ 10040948     libucrt:lcidtoname_downlevel.obj
 0002:00006954       ??_C@_1M@CELMCNBK@?$AAt?$AAt?$AA?9?$AAr?$AAu@ 10040954     libucrt:lcidtoname_downlevel.obj
 0002:00006960       ??_C@_1M@KLMCELGA@?$AAu?$AAk?$AA?9?$AAu?$AAa@ 10040960     libucrt:lcidtoname_downlevel.obj
 0002:0000696c       ??_C@_1M@EPAJJAJF@?$AAu?$AAr?$AA?9?$AAp?$AAk@ 1004096c     libucrt:lcidtoname_downlevel.obj
 0002:00006978       ??_C@_1BG@GEGPMCDJ@?$AAu?$AAz?$AA?9?$AAu?$AAz?$AA?9?$AAc?$AAy?$AAr?$AAl@ 10040978     libucrt:lcidtoname_downlevel.obj
 0002:00006990       ??_C@_1BG@EGGKJILM@?$AAu?$AAz?$AA?9?$AAu?$AAz?$AA?9?$AAl?$AAa?$AAt?$AAn@ 10040990     libucrt:lcidtoname_downlevel.obj
 0002:000069a8       ??_C@_1M@GFOCLFF@?$AAv?$AAi?$AA?9?$AAv?$AAn@ 100409a8     libucrt:lcidtoname_downlevel.obj
 0002:000069b4       ??_C@_1M@CPAMEDFI@?$AAx?$AAh?$AA?9?$AAz?$AAa@ 100409b4     libucrt:lcidtoname_downlevel.obj
 0002:000069c0       ??_C@_1O@EBKIFIGN@?$AAz?$AAh?$AA?9?$AAc?$AAh?$AAs@ 100409c0     libucrt:lcidtoname_downlevel.obj
 0002:000069d0       ??_C@_1O@NMHPGANE@?$AAz?$AAh?$AA?9?$AAc?$AAh?$AAt@ 100409d0     libucrt:lcidtoname_downlevel.obj
 0002:000069e0       ??_C@_1M@LPINJOMC@?$AAz?$AAh?$AA?9?$AAc?$AAn@ 100409e0     libucrt:lcidtoname_downlevel.obj
 0002:000069ec       ??_C@_1M@OCJEJODD@?$AAz?$AAh?$AA?9?$AAh?$AAk@ 100409ec     libucrt:lcidtoname_downlevel.obj
 0002:000069f8       ??_C@_1M@DNDLJINH@?$AAz?$AAh?$AA?9?$AAm?$AAo@ 100409f8     libucrt:lcidtoname_downlevel.obj
 0002:00006a04       ??_C@_1M@MBFDNDND@?$AAz?$AAh?$AA?9?$AAs?$AAg@ 10040a04     libucrt:lcidtoname_downlevel.obj
 0002:00006a10       ??_C@_1M@IMEPLEPE@?$AAz?$AAh?$AA?9?$AAt?$AAw@ 10040a10     libucrt:lcidtoname_downlevel.obj
 0002:00006a1c       ??_C@_1M@BBGHNHJP@?$AAz?$AAu?$AA?9?$AAz?$AAa@ 10040a1c     libucrt:lcidtoname_downlevel.obj
 0002:00006a28       ?large_power_data@?1??multiply_by_power_of_ten@__crt_strtox@@YA_NAAUbig_integer@2@I@Z@4QBIB 10040a28     libucrt:cfout.obj
 0002:00007330       ?large_power_indices@?1??multiply_by_power_of_ten@__crt_strtox@@YA_NAAUbig_integer@2@I@Z@4QBUunpack_index@?1??12@YA_N0I@Z@B 10041330     libucrt:cfout.obj
 0002:000073c8       ?small_powers_of_ten@?1??multiply_by_power_of_ten@__crt_strtox@@YA_NAAUbig_integer@2@I@Z@4QBIB 100413c8     libucrt:cfout.obj
 0002:000073ec       ??_C@_01GBGANLPD@0@        100413ec     libucrt:cfout.obj
 0002:000073f0       ??_C@_05DNEBIAHO@1?$CDINF@ 100413f0     libucrt:cfout.obj
 0002:000073f8       ??_C@_06IMKFLFPG@1?$CDQNAN@ 100413f8     libucrt:cfout.obj
 0002:00007400       ??_C@_06PGGFOGJG@1?$CDSNAN@ 10041400     libucrt:cfout.obj
 0002:00007408       ??_C@_05PHHOCPM@1?$CDIND@  10041408     libucrt:cfout.obj
 0002:00007410       __indefinite               10041410     libucrt:87disp.obj
 0002:0000741a       __piby2                    1004141a     libucrt:87disp.obj
 0002:00007424       __piby4                    10041424     libucrt:87disp.obj
 0002:00007458       __DEFAULT_CW_in_mem        10041458     libucrt:common.obj
 0002:0000745a       __pi_by_2_to_61            1004145a     libucrt:common.obj
 0002:000074a0       ___acrt_cos_sin_ctable     100414a0     libucrt:cos_sin_ctable.obj
 0002:00007cf8       ??_C@_1BA@BALFACEM@?$AAC?$AAO?$AAN?$AAO?$AAU?$AAT?$AA$@ 10041cf8     libucrt:initcon.obj
 0002:00007e10       __infinity                 10041e10     libucrt:87tran.obj
 0002:00007e1a       __minfinity                10041e1a     libucrt:87tran.obj
 0002:00007e24       __logemax                  10041e24     libucrt:87tran.obj
 0002:00007e4a       __OP_EXPjmptab             10041e4a     libucrt:87tran.obj
 0002:00007e70       ___acrt_log10_table_t      10041e70     libucrt:log10_tables.obj
 0002:00008280       ___acrt_log10_table_cb     10042280     libucrt:log10_tables.obj
 0002:00008700       ??_R4type_info@@6B@        10042700     LIBCMT:std_type_info_static.obj
 0002:00008714       ??_R3type_info@@8          10042714     LIBCMT:std_type_info_static.obj
 0002:00008724       ??_R2type_info@@8          10042724     LIBCMT:std_type_info_static.obj
 0002:0000872c       ??_R1A@?0A@EA@type_info@@8 1004272c     LIBCMT:std_type_info_static.obj
 0002:00008748       ??_R3DNameNode@@8          10042748     libvcruntime:undname.obj
 0002:00008758       ??_R2DNameNode@@8          10042758     libvcruntime:undname.obj
 0002:00008760       ??_R1A@?0A@EA@DNameNode@@8 10042760     libvcruntime:undname.obj
 0002:0000877c       ??_R4charNode@@6B@         1004277c     libvcruntime:undname.obj
 0002:00008790       ??_R3charNode@@8           10042790     libvcruntime:undname.obj
 0002:000087a0       ??_R2charNode@@8           100427a0     libvcruntime:undname.obj
 0002:000087ac       ??_R1A@?0A@EA@charNode@@8  100427ac     libvcruntime:undname.obj
 0002:000087c8       ??_R4pcharNode@@6B@        100427c8     libvcruntime:undname.obj
 0002:000087dc       ??_R3pcharNode@@8          100427dc     libvcruntime:undname.obj
 0002:000087ec       ??_R2pcharNode@@8          100427ec     libvcruntime:undname.obj
 0002:000087f8       ??_R1A@?0A@EA@pcharNode@@8 100427f8     libvcruntime:undname.obj
 0002:00008814       ??_R4pDNameNode@@6B@       10042814     libvcruntime:undname.obj
 0002:00008828       ??_R3pDNameNode@@8         10042828     libvcruntime:undname.obj
 0002:00008838       ??_R2pDNameNode@@8         10042838     libvcruntime:undname.obj
 0002:00008844       ??_R1A@?0A@EA@pDNameNode@@8 10042844     libvcruntime:undname.obj
 0002:00008860       ??_R4DNameStatusNode@@6B@  10042860     libvcruntime:undname.obj
 0002:00008874       ??_R3DNameStatusNode@@8    10042874     libvcruntime:undname.obj
 0002:00008884       ??_R2DNameStatusNode@@8    10042884     libvcruntime:undname.obj
 0002:00008890       ??_R1A@?0A@EA@DNameStatusNode@@8 10042890     libvcruntime:undname.obj
 0002:000088ac       ??_R4pairNode@@6B@         100428ac     libvcruntime:undname.obj
 0002:000088c0       ??_R3pairNode@@8           100428c0     libvcruntime:undname.obj
 0002:000088d0       ??_R2pairNode@@8           100428d0     libvcruntime:undname.obj
 0002:000088dc       ??_R1A@?0A@EA@pairNode@@8  100428dc     libvcruntime:undname.obj
 0002:000088f8       ??_R4exception@std@@6B@    100428f8     libvcruntime:frame.obj
 0002:0000890c       ??_R3exception@std@@8      1004290c     libvcruntime:frame.obj
 0002:0000891c       ??_R2exception@std@@8      1004291c     libvcruntime:frame.obj
 0002:00008924       ??_R1A@?0A@EA@exception@std@@8 10042924     libvcruntime:frame.obj
 0002:00008940       ??_R4bad_exception@std@@6B@ 10042940     libvcruntime:frame.obj
 0002:00008954       ??_R3bad_exception@std@@8  10042954     libvcruntime:frame.obj
 0002:00008964       ??_R2bad_exception@std@@8  10042964     libvcruntime:frame.obj
 0002:00008970       ??_R1A@?0A@EA@bad_exception@std@@8 10042970     libvcruntime:frame.obj
 0002:0000898c       ___safe_se_handler_table   1004298c     <linker-defined>
 0002:000089a4       ___volatile_metadata       100429a4     <linker-defined>
 0002:00008dd0       ___rtc_iaa                 10042dd0     LIBCMT:initsect.obj
 0002:00008dd4       ___rtc_izz                 10042dd4     LIBCMT:initsect.obj
 0002:00008dd8       ___rtc_taa                 10042dd8     LIBCMT:initsect.obj
 0002:00008ddc       ___rtc_tzz                 10042ddc     LIBCMT:initsect.obj
 0002:00008fb4       __TI2?AVbad_exception@std@@ 10042fb4     libvcruntime:frame.obj
 0002:00008fc4       __CTA2?AVbad_exception@std@@ 10042fc4     libvcruntime:frame.obj
 0002:00008fd0       __CT??_R0?AVbad_exception@std@@@8??0bad_exception@std@@QAE@ABV01@@Z12 10042fd0     libvcruntime:frame.obj
 0002:00008fec       __CT??_R0?AVexception@std@@@8??0exception@std@@QAE@ABV01@@Z12 10042fec     libvcruntime:frame.obj
 0002:00009344       __DELAY_IMPORT_DESCRIPTOR_physxcommon_32_dll 10043344     PhysXCommon_32:PhysXCommon_32.dll
 0002:00009364       __DELAY_IMPORT_DESCRIPTOR_physxfoundation_32_dll 10043364     PhysXFoundation_32:PhysXFoundation_32.dll
 0002:00009384       __NULL_DELAY_IMPORT_DESCRIPTOR 10043384     PhysXCommon_32:PhysXCommon_32.dll
 0002:00009434       \177PhysXCommon_32_NULL_THUNK_DATA_DLN 10043434     PhysXCommon_32:PhysXCommon_32.dll
 0002:00009464       \177PhysXFoundation_32_NULL_THUNK_DATA_DLN 10043464     PhysXFoundation_32:PhysXFoundation_32.dll
 0002:00009d70       \177PhysXCommon_32_NULL_THUNK_DATA_DLB 10043d70     PhysXCommon_32:PhysXCommon_32.dll
 0002:00009e04       \177PhysXFoundation_32_NULL_THUNK_DATA_DLB 10043e04     PhysXFoundation_32:PhysXFoundation_32.dll
 0002:0000ba68       __IMPORT_DESCRIPTOR_KERNEL32 10045a68     kernel32:KERNEL32.dll
 0002:0000ba7c       __NULL_IMPORT_DESCRIPTOR   10045a7c     kernel32:KERNEL32.dll
 0003:00000008       ___pfnDliNotifyHook2       10047008     WindowsCookingDelayLoadHook.obj
 0003:0000000c       __fltused                  1004700c     LIBCMT:fltused.obj
 0003:00000010       ___isa_enabled             10047010     LIBCMT:cpu_disp.obj
 0003:00000020       ___scrt_native_dllmain_reason 10047020     LIBCMT:utility.obj
 0003:00000030       ___security_cookie_complement 10047030     LIBCMT:gs_cookie.obj
 0003:00000034       ___security_cookie         10047034     LIBCMT:gs_cookie.obj
 0003:00000060       __NLG_Destination          10047060     libvcruntime:exsup.obj
 0003:00000070       ___abort_behavior          10047070     libucrt:abort.obj
 0003:00000090       ___acrt_initial_multibyte_data 10047090     libucrt:mbctype.obj
 0003:000005b0       ___acrt_initial_locale_data 100475b0     libucrt:nlsdata.obj
 0003:00000668       ___acrt_initial_locale_pointers 10047668     libucrt:nlsdata.obj
 0003:00000670       ___acrt_wide_c_locale_string 10047670     libucrt:nlsdata.obj
 0003:00000678       __iob                      10047678     libucrt:_file.obj
 0003:00000720       ___globallocalestatus      10047720     libucrt:glstatus.obj
 0003:00000728       ___acrt_lconv_c            10047728     libucrt:localeconv.obj
 0003:00000778       ___acrt_lconv_static_decimal 10047778     libucrt:localeconv.obj
 0003:0000077c       ___acrt_lconv_static_W_decimal 1004777c     libucrt:localeconv.obj
 0003:00000780       __lookuptrailbytes         10047780     libucrt:read.obj
 0003:00000890       ??_R0?AVAdjEdge@@@8        10047890     Adjacencies.obj
 0003:000008a8       ??_R0I@8                   100478a8     Adjacencies.obj
 0003:000008b4       ??_R0?AVAdjTriangle@physx@@@8 100478b4     Adjacencies.obj
 0003:000008d4       ??_R0?AVCooking@physx@@@8  100478d4     Cooking.obj
 0003:000008f0       ??_R0?AVHeightField@Gu@physx@@@8 100478f0     Cooking.obj
 0003:00000914       ??_R0?AVQuickHullConvexHullLib@physx@@@8 10047914     Cooking.obj
 0003:00000940       ??_R0?AUPxDebugLine@physx@@@8 10047940     Cooking.obj
 0003:00000960       ??_R0M@8                   10047960     CookingUtils.obj
 0003:0000096c       ??_R0?AUEdgeData@Gu@physx@@@8 1004796c     EdgeList.obj
 0003:0000098c       ??_R0?AUEdgeTriangleData@Gu@physx@@@8 1004798c     EdgeList.obj
 0003:000009b4       ??_R0?AVQuantizerImpl@@@8  100479b4     Quantizer.obj
 0003:000009d0       ??_R0?AVPxVec3@physx@@@8   100479d0     Quantizer.obj
 0003:000009ec       ??_R0?AUSlab@NodeAllocator@Gu@physx@@@8 100479ec     BVHStructureBuilder.obj
 0003:00000a18       ??_R0?AUInterval@physx@@@8 10047a18     RTreeCooking.obj
 0003:00000a38       ??_R0?AURTreeNodeQ@Gu@physx@@@8 10047a38     RTreeCooking.obj
 0003:00000a5c       ??_R0?AURTreeNodeNQ@physx@@@8 10047a5c     RTreeCooking.obj
 0003:00000a7c       ??_R0?AUPxBounds3V@physx@@@8 10047a7c     RTreeCooking.obj
 0003:00000a9c       ??_R0?AVEdgeListBuilder@Gu@physx@@@8 10047a9c     TriangleMeshBuilder.obj
 0003:00000ac4       ??_R0?AVBV32Tree@Gu@physx@@@8 10047ac4     TriangleMeshBuilder.obj
 0003:00000ae4       ??_R0E@8                   10047ae4     TriangleMeshBuilder.obj
 0003:00000af0       ??_R0G@8                   10047af0     TriangleMeshBuilder.obj
 0003:00000afc       ??_R0?AUEdgeTriLookup@physx@@@8 10047afc     TriangleMeshBuilder.obj
 0003:00000b20       ??_R0?AUEdgeDescData@Gu@physx@@@8 10047b20     ConvexHullBuilder.obj
 0003:00000b44       ??_R0_N@8                  10047b44     ConvexHullBuilder.obj
 0003:00000b50       ??_R0?AVConvexHull@physx@@@8 10047b50     ConvexHullUtils.obj
 0003:00000b70       ??_R0?AVPxPlane@physx@@@8  10047b70     ConvexHullUtils.obj
 0003:00000b8c       ??_R0?AVHalfEdge@ConvexHull@physx@@@8 10047b8c     ConvexHullUtils.obj
 0003:00000bb4       ??_R0?AVBigConvexData@physx@@@8 10047bb4     ConvexMeshBuilder.obj
 0003:00000bd8       ??_R0?AUHullTriangleData@physx@@@8 10047bd8     ConvexPolygonsBuilder.obj
 0003:00000c00       ??_R0?AVPair@@@8           10047c00     ConvexPolygonsBuilder.obj
 0003:00000c14       ??_R0?AVQuickHull@local@@@8 10047c14     QuickHullConvexHullLib.obj
 0003:00000c34       ??_R0?AUExpandPoint@local@@@8 10047c34     QuickHullConvexHullLib.obj
 0003:00000c54       ??_R0PAUQuickHullVertex@local@@@8 10047c54     QuickHullConvexHullLib.obj
 0003:00000c78       ??_R0PAUQuickHullFace@local@@@8 10047c78     QuickHullConvexHullLib.obj
 0003:00000c9c       ??_R0PAUQuickHullHalfEdge@local@@@8 10047c9c     QuickHullConvexHullLib.obj
 0003:00000cc4       ??_R0?AVbad_exception@std@@@8 10047cc4     libvcruntime:frame.obj
 0003:00000ce4       ??_R0?AVexception@std@@@8  10047ce4     libvcruntime:frame.obj
 0003:00000d00       ??_R0?AVtype_info@@@8      10047d00     LIBCMT:std_type_info_static.obj
 0003:00000d18       ??_R0?AVDNameNode@@@8      10047d18     libvcruntime:undname.obj
 0003:00000d30       ??_R0?AVcharNode@@@8       10047d30     libvcruntime:undname.obj
 0003:00000d48       ??_R0?AVpcharNode@@@8      10047d48     libvcruntime:undname.obj
 0003:00000d60       ??_R0?AVpDNameNode@@@8     10047d60     libvcruntime:undname.obj
 0003:00000d7c       ??_R0?AVDNameStatusNode@@@8 10047d7c     libvcruntime:undname.obj
 0003:00000d9c       ??_R0?AVpairNode@@@8       10047d9c     libvcruntime:undname.obj
 0003:00000db4       __imp_??0RadixSortBuffered@Cm@physx@@QAE@XZ 10047db4     PhysXCommon_32:PhysXCommon_32.dll
 0003:00000db8       __imp_??1BigConvexData@physx@@QAE@XZ 10047db8     PhysXCommon_32:PhysXCommon_32.dll
 0003:00000dbc       __imp_??1RadixSortBuffered@Cm@physx@@UAE@XZ 10047dbc     PhysXCommon_32:PhysXCommon_32.dll
 0003:00000dc0       __imp_?Sort@RadixSortBuffered@Cm@physx@@QAEAAV123@PBIIW4RadixHint@23@@Z 10047dc0     PhysXCommon_32:PhysXCommon_32.dll
 0003:00000dc4       __imp_??0HeightField@Gu@physx@@QAE@PAVGuMeshFactory@2@@Z 10047dc4     PhysXCommon_32:PhysXCommon_32.dll
 0003:00000dc8       __imp_?loadFromDesc@HeightField@Gu@physx@@QAE_NABVPxHeightFieldDesc@3@@Z 10047dc8     PhysXCommon_32:PhysXCommon_32.dll
 0003:00000dcc       __imp_?computeCellCoordinates@HeightField@Gu@physx@@QBEIMMAAM0@Z 10047dcc     PhysXCommon_32:PhysXCommon_32.dll
 0003:00000dd0       __imp_?releaseMemory@HeightField@Gu@physx@@QAEXXZ 10047dd0     PhysXCommon_32:PhysXCommon_32.dll
 0003:00000dd4       __imp_??1HeightField@Gu@physx@@UAE@XZ 10047dd4     PhysXCommon_32:PhysXCommon_32.dll
 0003:00000dd8       __imp_??0NodeAllocator@Gu@physx@@QAE@XZ 10047dd8     PhysXCommon_32:PhysXCommon_32.dll
 0003:00000ddc       __imp_??1NodeAllocator@Gu@physx@@QAE@XZ 10047ddc     PhysXCommon_32:PhysXCommon_32.dll
 0003:00000de0       __imp_?release@NodeAllocator@Gu@physx@@QAEXXZ 10047de0     PhysXCommon_32:PhysXCommon_32.dll
 0003:00000de4       __imp_?buildAABBTree@Gu@physx@@YA_NAAVAABBTreeBuildParams@12@AAVNodeAllocator@12@AAUBuildStats@12@AAPAI@Z 10047de4     PhysXCommon_32:PhysXCommon_32.dll
 0003:00000de8       __imp_?writeDword@physx@@YAXI_NAAVPxOutputStream@1@@Z 10047de8     PhysXCommon_32:PhysXCommon_32.dll
 0003:00000dec       __imp_?writeFloatBuffer@physx@@YAXPBMI_NAAVPxOutputStream@1@@Z 10047dec     PhysXCommon_32:PhysXCommon_32.dll
 0003:00000df0       __imp_?writeHeader@physx@@YA_NCCCCI_NAAVPxOutputStream@1@@Z 10047df0     PhysXCommon_32:PhysXCommon_32.dll
 0003:00000df4       __imp_?writeWord@physx@@YAXG_NAAVPxOutputStream@1@@Z 10047df4     PhysXCommon_32:PhysXCommon_32.dll
 0003:00000df8       __imp_?writeFloat@physx@@YAXM_NAAVPxOutputStream@1@@Z 10047df8     PhysXCommon_32:PhysXCommon_32.dll
 0003:00000dfc       __imp_?computeBoundsAroundVertices@Gu@physx@@YAXAAVPxBounds3@2@IPIBVPxVec3@2@@Z 10047dfc     PhysXCommon_32:PhysXCommon_32.dll
 0003:00000e00       __imp_??0SourceMesh@Gu@physx@@QAE@XZ 10047e00     PhysXCommon_32:PhysXCommon_32.dll
 0003:00000e04       __imp_??1SourceMesh@Gu@physx@@QAE@XZ 10047e04     PhysXCommon_32:PhysXCommon_32.dll
 0003:00000e08       __imp_??0BV4Tree@Gu@physx@@QAE@XZ 10047e08     PhysXCommon_32:PhysXCommon_32.dll
 0003:00000e0c       __imp_??1BV4Tree@Gu@physx@@QAE@XZ 10047e0c     PhysXCommon_32:PhysXCommon_32.dll
 0003:00000e10       __imp_??0BV32Tree@Gu@physx@@QAE@XZ 10047e10     PhysXCommon_32:PhysXCommon_32.dll
 0003:00000e14       __imp_??1BV32Tree@Gu@physx@@QAE@XZ 10047e14     PhysXCommon_32:PhysXCommon_32.dll
 0003:00000e18       __imp_?writeWordBuffer@physx@@YAXPBGI_NAAVPxOutputStream@1@@Z 10047e18     PhysXCommon_32:PhysXCommon_32.dll
 0003:00000e1c       __imp_?computeMaxIndex@physx@@YAIPBII@Z 10047e1c     PhysXCommon_32:PhysXCommon_32.dll
 0003:00000e20       __imp_?storeIndices@physx@@YAXIIPBIAAVPxOutputStream@1@_N@Z 10047e20     PhysXCommon_32:PhysXCommon_32.dll
 0003:00000e24       __imp_?BuildBV4Ex@Gu@physx@@YA_NAAVBV4Tree@12@AAVSourceMesh@12@MI@Z 10047e24     PhysXCommon_32:PhysXCommon_32.dll
 0003:00000e28       __imp_?BuildBV32Ex@Gu@physx@@YA_NAAVBV32Tree@12@AAVSourceMesh@12@MI@Z 10047e28     PhysXCommon_32:PhysXCommon_32.dll
 0003:00000e2c       __imp_?computeMaxIndex@physx@@YAGPBGI@Z 10047e2c     PhysXCommon_32:PhysXCommon_32.dll
 0003:00000e30       __imp_?WriteHeader@Gu@physx@@YA_NEEEEI_NAAVPxOutputStream@2@@Z 10047e30     PhysXCommon_32:PhysXCommon_32.dll
 0003:00000e34       __imp_?StoreIndices@Gu@physx@@YAXGIPBGAAVPxOutputStream@2@_N@Z 10047e34     PhysXCommon_32:PhysXCommon_32.dll
 0003:00000e38       __imp_?CreateOffsets@BigConvexData@physx@@IAEXXZ 10047e38     PhysXCommon_32:PhysXCommon_32.dll
 0003:00000e3c       __imp_?computeOBBPoints@Gu@physx@@YAXPIAVPxVec3@2@ABV32@1111@Z 10047e3c     PhysXCommon_32:PhysXCommon_32.dll
 0003:00000e40       __imp_??0BigConvexData@physx@@QAE@XZ 10047e40     PhysXCommon_32:PhysXCommon_32.dll
 0003:00000e44       \177PhysXCommon_32_NULL_THUNK_DATA_DLA 10047e44     PhysXCommon_32:PhysXCommon_32.dll
 0003:00000e48       __imp__PxGetFoundation     10047e48     PhysXFoundation_32:PhysXFoundation_32.dll
 0003:00000e4c       __imp_?deallocate@TempAllocator@shdfnd@physx@@QAEXPAX@Z 10047e4c     PhysXFoundation_32:PhysXFoundation_32.dll
 0003:00000e50       __imp_?getAllocator@shdfnd@physx@@YAAAVPxAllocatorCallback@2@XZ 10047e50     PhysXFoundation_32:PhysXFoundation_32.dll
 0003:00000e54       __imp_?getInstance@Foundation@shdfnd@physx@@SAAAV123@XZ 10047e54     PhysXFoundation_32:PhysXFoundation_32.dll
 0003:00000e58       __imp_?error@Foundation@shdfnd@physx@@QAAXW4Enum@PxErrorCode@3@PBDH1ZZ 10047e58     PhysXFoundation_32:PhysXFoundation_32.dll
 0003:00000e5c       __imp_?incRefCount@Foundation@shdfnd@physx@@SAXXZ 10047e5c     PhysXFoundation_32:PhysXFoundation_32.dll
 0003:00000e60       __imp_?decRefCount@Foundation@shdfnd@physx@@SAXXZ 10047e60     PhysXFoundation_32:PhysXFoundation_32.dll
 0003:00000e64       __imp_??0FPUGuard@shdfnd@physx@@QAE@XZ 10047e64     PhysXFoundation_32:PhysXFoundation_32.dll
 0003:00000e68       __imp_??1FPUGuard@shdfnd@physx@@QAE@XZ 10047e68     PhysXFoundation_32:PhysXFoundation_32.dll
 0003:00000e6c       __imp_?allocate@TempAllocator@shdfnd@physx@@QAEPAXIPBDH@Z 10047e6c     PhysXFoundation_32:PhysXFoundation_32.dll
 0003:00000e70       __imp_?PxDiagonalize@physx@@YA?AVPxVec3@1@ABVPxMat33@1@AAVPxQuat@1@@Z 10047e70     PhysXFoundation_32:PhysXFoundation_32.dll
 0003:00000e74       \177PhysXFoundation_32_NULL_THUNK_DATA_DLA 10047e74     PhysXFoundation_32:PhysXFoundation_32.dll
 0003:00001244       __hmod__PhysXCommon_32_dll 10048244     PhysXCommon_32:PhysXCommon_32.dll
 0003:00001248       __hmod__PhysXFoundation_32_dll 10048248     PhysXFoundation_32:PhysXFoundation_32.dll
 0003:0000124c       ?DloadKernel32@@3PAUHINSTANCE__@@A 1004824c     Delayimp:delayhlp.obj
 0003:00001250       ?DloadAcquireSRWLockExclusive@@3P6GXPAK@ZA 10048250     Delayimp:delayhlp.obj
 0003:00001254       ?DloadReleaseSRWLockExclusive@@3P6GXPAK@ZA 10048254     Delayimp:delayhlp.obj
 0003:00001258       ?DloadSrwLock@@3KA         10048258     Delayimp:delayhlp.obj
 0003:0000125c       ?DloadSectionLockCount@@3KA 1004825c     Delayimp:delayhlp.obj
 0003:00001260       ?DloadSectionOldProtection@@3KA 10048260     Delayimp:delayhlp.obj
 0003:00001264       ?DloadSectionCommitPermanent@@3KA 10048264     Delayimp:delayhlp.obj
 0003:00001268       ?__type_info_root_node@@3U__type_info_node@@A 10048268     LIBCMT:tncleanup.obj
 0003:00001274       ___castguard_check_failure_os_handled_fptr 10048274     LIBCMT:guard_support.obj
 0003:00001278       ___isa_available           10048278     LIBCMT:cpu_disp.obj
 0003:0000127c       ___favor                   1004827c     LIBCMT:cpu_disp.obj
 0003:00001280       ?_OptionsStorage@?1??__local_stdio_printf_options@@9@4_KA 10048280     LIBCMT:default_local_stdio_options.obj
 0003:00001288       ?_OptionsStorage@?1??__local_stdio_scanf_options@@9@4_KA 10048288     LIBCMT:default_local_stdio_options.obj
 0003:00001290       ___scrt_current_native_startup_state 10048290     LIBCMT:utility.obj
 0003:00001294       ___scrt_native_startup_lock 10048294     LIBCMT:utility.obj
 0003:000012b4       ___scrt_debugger_hook_flag 100482b4     LIBCMT:utility_desktop.obj
 0003:000015d4       ?__WinRTOutOfMemoryExceptionCallback@@3P6GPAXXZA 100485d4     libvcruntime:ehhelpers.obj
 0003:000015d8       ___pPurecall               100485d8     libvcruntime:purevirt_data.obj
 0003:000015dc       ?pArgList@UnDecorator@@0PAVReplicator@@A 100485dc     libvcruntime:undname.obj
 0003:000015e0       ?pZNameList@UnDecorator@@0PAVReplicator@@A 100485e0     libvcruntime:undname.obj
 0003:000015e4       ?pTemplateArgList@UnDecorator@@0PAVReplicator@@A 100485e4     libvcruntime:undname.obj
 0003:000015e8       ?gName@UnDecorator@@0PBDB  100485e8     libvcruntime:undname.obj
 0003:000015ec       ?name@UnDecorator@@0PBDB   100485ec     libvcruntime:undname.obj
 0003:000015f0       ?disableFlags@UnDecorator@@0KA 100485f0     libvcruntime:undname.obj
 0003:000015f4       ?fExplicitTemplateParams@UnDecorator@@0_NA 100485f4     libvcruntime:undname.obj
 0003:000015f5       ?fGetTemplateArgumentList@UnDecorator@@0_NA 100485f5     libvcruntime:undname.obj
 0003:000015f8       ?m_pGetParameter@UnDecorator@@0P6APADJ@ZA 100485f8     libvcruntime:undname.obj
 0003:000015fc       ?m_CHPENameOffset@UnDecorator@@0KA 100485fc     libvcruntime:undname.obj
 0003:00001600       ?m_recursionLevel@UnDecorator@@0KA 10048600     libvcruntime:undname.obj
 0003:00001684       ?c_exit_complete@?1???R<lambda_6e4b09c48022b2350581041d5f6b0c4c>@@QBE@XZ@4_NA 10048684     libucrt:exit.obj
 0003:00001790       __environ_table            10048790     libucrt:environment_initialization.obj
 0003:00001794       __wenviron_table           10048794     libucrt:environment_initialization.obj
 0003:00001798       ___dcrt_initial_wide_environment 10048798     libucrt:environment_initialization.obj
 0003:0000179c       ___dcrt_initial_narrow_environment 1004879c     libucrt:environment_initialization.obj
 0003:000017a0       ___acrt_atexit_table       100487a0     libucrt:onexit.obj
 0003:000017ac       ___acrt_at_quick_exit_table 100487ac     libucrt:onexit.obj
 0003:00001918       __mbctype                  10048918     libucrt:mbctype.obj
 0003:0000191c       __mbcasemap                1004891c     libucrt:mbctype.obj
 0003:00001920       ___acrt_current_multibyte_data 10048920     libucrt:mbctype.obj
 0003:0000192c       __pgmptr                   1004892c     libucrt:argv_data.obj
 0003:00001930       ___argc                    10048930     libucrt:argv_data.obj
 0003:00001934       ___argv                    10048934     libucrt:argv_data.obj
 0003:00001938       ___wargv                   10048938     libucrt:argv_data.obj
 0003:0000193c       __acmdln                   1004893c     libucrt:argv_data.obj
 0003:00001940       __wcmdln                   10048940     libucrt:argv_data.obj
 0003:00001a20       ___acrt_heap               10048a20     libucrt:heap_handle.obj
 0003:00001a28       ___pioinfo                 10048a28     libucrt:ioinit.obj
 0003:00001c28       __nhandle                  10048c28     libucrt:ioinit.obj
 0003:00001c40       ___acrt_current_locale_data 10048c40     libucrt:nlsdata.obj
 0003:00001c44       __nstream                  10048c44     libucrt:_file.obj
 0003:00001c48       ___piob                    10048c48     libucrt:_file.obj
 0003:00001c4c       ___acrt_stdout_buffer      10048c4c     libucrt:_sftbuf.obj
 0003:00001c50       ___acrt_stderr_buffer      10048c50     libucrt:_sftbuf.obj
 0003:00001c60       ___acrt_locale_changed_data 10048c60     libucrt:wsetlocale.obj
 0003:00001c68       ___acrt_lconv_static_null  10048c68     libucrt:localeconv.obj
 0003:00001c6c       ___acrt_lconv_static_W_null 10048c6c     libucrt:localeconv.obj
 0003:00001c70       ___fastflag                10048c70     libucrt:fp_flags.obj
 0003:00001c84       ___scrt_ucrt_dll_is_in_use 10048c84     <common>
 0003:00001c88       ___dyn_tls_init_callback   10048c88     <common>
 0003:00001c8c       __pmatherr                 10048c8c     <common>
 0003:00001c90       ___use_sse2_mathfcns       10048c90     <common>
 0004:00000500       ___common_ssin_reduction_data 10049500     LIBCMT:svml_s_sin_data.obj
 0004:00001100       ___common_ssin_data        1004a100     LIBCMT:svml_s_sin_data.obj

 entry point at        0001:0002088a

 Static symbols

 0000:fffb0000       .debug$S                   10000000     PhysXCooking_32.exp
 0000:fffb0000       .debug$S                   10000000     kernel32:KERNEL32.dll
 0000:fffb0000       .debug$S                   10000000     kernel32:KERNEL32.dll
 0000:fffb0000       .debug$S                   10000000     kernel32:KERNEL32.dll
 0000:fffb0000       .debug$S                   10000000     kernel32:KERNEL32.dll
 0000:fffb0000       .debug$S                   10000000     kernel32:KERNEL32.dll
 0000:fffb0000       .debug$S                   10000000     kernel32:KERNEL32.dll
 0000:fffb0000       .debug$S                   10000000     kernel32:KERNEL32.dll
 0000:fffb0000       .debug$S                   10000000     kernel32:KERNEL32.dll
 0000:fffb0000       .debug$S                   10000000     kernel32:KERNEL32.dll
 0000:fffb0000       .debug$S                   10000000     kernel32:KERNEL32.dll
 0000:fffb0000       .debug$S                   10000000     kernel32:KERNEL32.dll
 0000:fffb0000       .debug$S                   10000000     kernel32:KERNEL32.dll
 0000:fffb0000       .debug$S                   10000000     kernel32:KERNEL32.dll
 0000:fffb0000       .debug$S                   10000000     kernel32:KERNEL32.dll
 0000:fffb0000       .debug$S                   10000000     kernel32:KERNEL32.dll
 0000:fffb0000       .debug$S                   10000000     kernel32:KERNEL32.dll
 0000:fffb0000       .debug$S                   10000000     kernel32:KERNEL32.dll
 0000:fffb0000       .debug$S                   10000000     kernel32:KERNEL32.dll
 0000:fffb0000       .debug$S                   10000000     kernel32:KERNEL32.dll
 0000:fffb0000       .debug$S                   10000000     kernel32:KERNEL32.dll
 0000:fffb0000       .debug$S                   10000000     kernel32:KERNEL32.dll
 0000:fffb0000       .debug$S                   10000000     kernel32:KERNEL32.dll
 0000:fffb0000       .debug$S                   10000000     kernel32:KERNEL32.dll
 0000:fffb0000       .debug$S                   10000000     kernel32:KERNEL32.dll
 0000:fffb0000       .debug$S                   10000000     kernel32:KERNEL32.dll
 0000:fffb0000       .debug$S                   10000000     kernel32:KERNEL32.dll
 0000:fffb0000       .debug$S                   10000000     kernel32:KERNEL32.dll
 0000:fffb0000       .debug$S                   10000000     kernel32:KERNEL32.dll
 0000:fffb0000       .debug$S                   10000000     kernel32:KERNEL32.dll
 0000:fffb0000       .debug$S                   10000000     kernel32:KERNEL32.dll
 0000:fffb0000       .debug$S                   10000000     kernel32:KERNEL32.dll
 0000:fffb0000       .debug$S                   10000000     kernel32:KERNEL32.dll
 0000:fffb0000       .debug$S                   10000000     kernel32:KERNEL32.dll
 0000:fffb0000       .debug$S                   10000000     kernel32:KERNEL32.dll
 0000:fffb0000       .debug$S                   10000000     kernel32:KERNEL32.dll
 0000:fffb0000       .debug$S                   10000000     kernel32:KERNEL32.dll
 0000:fffb0000       .debug$S                   10000000     kernel32:KERNEL32.dll
 0000:fffb0000       .debug$S                   10000000     kernel32:KERNEL32.dll
 0000:fffb0000       .debug$S                   10000000     kernel32:KERNEL32.dll
 0000:fffb0000       .debug$S                   10000000     kernel32:KERNEL32.dll
 0000:fffb0000       .debug$S                   10000000     kernel32:KERNEL32.dll
 0000:fffb0000       .debug$S                   10000000     kernel32:KERNEL32.dll
 0000:fffb0000       .debug$S                   10000000     kernel32:KERNEL32.dll
 0000:fffb0000       .debug$S                   10000000     kernel32:KERNEL32.dll
 0000:fffb0000       .debug$S                   10000000     kernel32:KERNEL32.dll
 0000:fffb0000       .debug$S                   10000000     kernel32:KERNEL32.dll
 0000:fffb0000       .debug$S                   10000000     kernel32:KERNEL32.dll
 0000:fffb0000       .debug$S                   10000000     kernel32:KERNEL32.dll
 0000:fffb0000       .debug$S                   10000000     kernel32:KERNEL32.dll
 0000:fffb0000       .debug$S                   10000000     kernel32:KERNEL32.dll
 0000:fffb0000       .debug$S                   10000000     kernel32:KERNEL32.dll
 0000:fffb0000       .debug$S                   10000000     kernel32:KERNEL32.dll
 0000:fffb0000       .debug$S                   10000000     kernel32:KERNEL32.dll
 0000:fffb0000       .debug$S                   10000000     kernel32:KERNEL32.dll
 0000:fffb0000       .debug$S                   10000000     kernel32:KERNEL32.dll
 0000:fffb0000       .debug$S                   10000000     kernel32:KERNEL32.dll
 0000:fffb0000       .debug$S                   10000000     kernel32:KERNEL32.dll
 0000:fffb0000       .debug$S                   10000000     kernel32:KERNEL32.dll
 0000:fffb0000       .debug$S                   10000000     kernel32:KERNEL32.dll
 0000:fffb0000       .debug$S                   10000000     kernel32:KERNEL32.dll
 0000:fffb0000       .debug$S                   10000000     kernel32:KERNEL32.dll
 0000:fffb0000       .debug$S                   10000000     kernel32:KERNEL32.dll
 0000:fffb0000       .debug$S                   10000000     kernel32:KERNEL32.dll
 0000:fffb0000       .debug$S                   10000000     kernel32:KERNEL32.dll
 0000:fffb0000       .debug$S                   10000000     kernel32:KERNEL32.dll
 0000:fffb0000       .debug$S                   10000000     kernel32:KERNEL32.dll
 0000:fffb0000       .debug$S                   10000000     kernel32:KERNEL32.dll
 0000:fffb0000       .debug$S                   10000000     kernel32:KERNEL32.dll
 0000:fffb0000       .debug$S                   10000000     kernel32:KERNEL32.dll
 0000:fffb0000       .debug$S                   10000000     kernel32:KERNEL32.dll
 0000:fffb0000       .debug$S                   10000000     kernel32:KERNEL32.dll
 0000:fffb0000       .debug$S                   10000000     kernel32:KERNEL32.dll
 0000:fffb0000       .debug$S                   10000000     kernel32:KERNEL32.dll
 0000:fffb0000       .debug$S                   10000000     kernel32:KERNEL32.dll
 0000:fffb0000       .debug$S                   10000000     kernel32:KERNEL32.dll
 0000:fffb0000       .debug$S                   10000000     kernel32:KERNEL32.dll
 0000:fffb0000       .debug$S                   10000000     kernel32:KERNEL32.dll
 0000:fffb0000       .debug$S                   10000000     kernel32:KERNEL32.dll
 0000:fffb0000       .debug$S                   10000000     kernel32:KERNEL32.dll
 0000:fffb0000       .debug$S                   10000000     kernel32:KERNEL32.dll
 0000:fffb0000       .debug$S                   10000000     kernel32:KERNEL32.dll
 0000:fffb0000       .debug$S                   10000000     kernel32:KERNEL32.dll
 0000:fffb0000       .debug$S                   10000000     kernel32:KERNEL32.dll
 0000:fffb0000       .debug$S                   10000000     kernel32:KERNEL32.dll
 0000:fffb0000       .debug$S                   10000000     kernel32:KERNEL32.dll
 0000:fffb0000       .debug$S                   10000000     PhysXCommon_32:PhysXCommon_32.dll
 0000:fffb0000       .debug$S                   10000000     PhysXCommon_32:PhysXCommon_32.dll
 0000:fffb0000       .debug$S                   10000000     PhysXCommon_32:PhysXCommon_32.dll
 0000:fffb0000       .debug$S                   10000000     PhysXCommon_32:PhysXCommon_32.dll
 0000:fffb0000       .debug$S                   10000000     PhysXCommon_32:PhysXCommon_32.dll
 0000:fffb0000       .debug$S                   10000000     PhysXCommon_32:PhysXCommon_32.dll
 0000:fffb0000       .debug$S                   10000000     PhysXCommon_32:PhysXCommon_32.dll
 0000:fffb0000       .debug$S                   10000000     PhysXCommon_32:PhysXCommon_32.dll
 0000:fffb0000       .debug$S                   10000000     PhysXCommon_32:PhysXCommon_32.dll
 0000:fffb0000       .debug$S                   10000000     PhysXCommon_32:PhysXCommon_32.dll
 0000:fffb0000       .debug$S                   10000000     PhysXCommon_32:PhysXCommon_32.dll
 0000:fffb0000       .debug$S                   10000000     PhysXCommon_32:PhysXCommon_32.dll
 0000:fffb0000       .debug$S                   10000000     PhysXCommon_32:PhysXCommon_32.dll
 0000:fffb0000       .debug$S                   10000000     PhysXCommon_32:PhysXCommon_32.dll
 0000:fffb0000       .debug$S                   10000000     PhysXCommon_32:PhysXCommon_32.dll
 0000:fffb0000       .debug$S                   10000000     PhysXCommon_32:PhysXCommon_32.dll
 0000:fffb0000       .debug$S                   10000000     PhysXCommon_32:PhysXCommon_32.dll
 0000:fffb0000       .debug$S                   10000000     PhysXCommon_32:PhysXCommon_32.dll
 0000:fffb0000       .debug$S                   10000000     PhysXCommon_32:PhysXCommon_32.dll
 0000:fffb0000       .debug$S                   10000000     PhysXCommon_32:PhysXCommon_32.dll
 0000:fffb0000       .debug$S                   10000000     PhysXCommon_32:PhysXCommon_32.dll
 0000:fffb0000       .debug$S                   10000000     PhysXCommon_32:PhysXCommon_32.dll
 0000:fffb0000       .debug$S                   10000000     PhysXCommon_32:PhysXCommon_32.dll
 0000:fffb0000       .debug$S                   10000000     PhysXCommon_32:PhysXCommon_32.dll
 0000:fffb0000       .debug$S                   10000000     PhysXCommon_32:PhysXCommon_32.dll
 0000:fffb0000       .debug$S                   10000000     PhysXCommon_32:PhysXCommon_32.dll
 0000:fffb0000       .debug$S                   10000000     PhysXCommon_32:PhysXCommon_32.dll
 0000:fffb0000       .debug$S                   10000000     PhysXCommon_32:PhysXCommon_32.dll
 0000:fffb0000       .debug$S                   10000000     PhysXCommon_32:PhysXCommon_32.dll
 0000:fffb0000       .debug$S                   10000000     PhysXCommon_32:PhysXCommon_32.dll
 0000:fffb0000       .debug$S                   10000000     PhysXCommon_32:PhysXCommon_32.dll
 0000:fffb0000       .debug$S                   10000000     PhysXCommon_32:PhysXCommon_32.dll
 0000:fffb0000       .debug$S                   10000000     PhysXCommon_32:PhysXCommon_32.dll
 0000:fffb0000       .debug$S                   10000000     PhysXCommon_32:PhysXCommon_32.dll
 0000:fffb0000       .debug$S                   10000000     PhysXCommon_32:PhysXCommon_32.dll
 0000:fffb0000       .debug$S                   10000000     PhysXCommon_32:PhysXCommon_32.dll
 0000:fffb0000       .debug$S                   10000000     PhysXCommon_32:PhysXCommon_32.dll
 0000:fffb0000       .debug$S                   10000000     PhysXCommon_32:PhysXCommon_32.dll
 0000:fffb0000       .debug$S                   10000000     PhysXFoundation_32:PhysXFoundation_32.dll
 0000:fffb0000       .debug$S                   10000000     PhysXFoundation_32:PhysXFoundation_32.dll
 0000:fffb0000       .debug$S                   10000000     PhysXFoundation_32:PhysXFoundation_32.dll
 0000:fffb0000       .debug$S                   10000000     PhysXFoundation_32:PhysXFoundation_32.dll
 0000:fffb0000       .debug$S                   10000000     PhysXFoundation_32:PhysXFoundation_32.dll
 0000:fffb0000       .debug$S                   10000000     PhysXFoundation_32:PhysXFoundation_32.dll
 0000:fffb0000       .debug$S                   10000000     PhysXFoundation_32:PhysXFoundation_32.dll
 0000:fffb0000       .debug$S                   10000000     PhysXFoundation_32:PhysXFoundation_32.dll
 0000:fffb0000       .debug$S                   10000000     PhysXFoundation_32:PhysXFoundation_32.dll
 0000:fffb0000       .debug$S                   10000000     PhysXFoundation_32:PhysXFoundation_32.dll
 0000:fffb0000       .debug$S                   10000000     PhysXFoundation_32:PhysXFoundation_32.dll
 0001:00000000       ??__EmaxFError@_VecMathTests@aos@shdfnd@physx@@YAXXZ 10001000 f   Cooking.obj
 0001:00000020       ??__EmaxV3Error@_VecMathTests@aos@shdfnd@physx@@YAXXZ 10001020 f   Cooking.obj
 0001:00000030       ??__EmaxV4Error@_VecMathTests@aos@shdfnd@physx@@YAXXZ 10001030 f   Cooking.obj
 0001:00000050       ??__EminFError@_VecMathTests@aos@shdfnd@physx@@YAXXZ 10001050 f   Cooking.obj
 0001:00000070       ??__EminV3Error@_VecMathTests@aos@shdfnd@physx@@YAXXZ 10001070 f   Cooking.obj
 0001:00000080       ??__EminV4Error@_VecMathTests@aos@shdfnd@physx@@YAXXZ 10001080 f   Cooking.obj
 0001:000000a0       ??__EmaxFError@_VecMathTests@aos@shdfnd@physx@@YAXXZ 100010a0 f   BVHStructureBuilder.obj
 0001:000000c0       ??__EmaxV3Error@_VecMathTests@aos@shdfnd@physx@@YAXXZ 100010c0 f   BVHStructureBuilder.obj
 0001:000000d0       ??__EmaxV4Error@_VecMathTests@aos@shdfnd@physx@@YAXXZ 100010d0 f   BVHStructureBuilder.obj
 0001:000000f0       ??__EminFError@_VecMathTests@aos@shdfnd@physx@@YAXXZ 100010f0 f   BVHStructureBuilder.obj
 0001:00000110       ??__EminV3Error@_VecMathTests@aos@shdfnd@physx@@YAXXZ 10001110 f   BVHStructureBuilder.obj
 0001:00000120       ??__EminV4Error@_VecMathTests@aos@shdfnd@physx@@YAXXZ 10001120 f   BVHStructureBuilder.obj
 0001:00000140       ??__EmaxFError@_VecMathTests@aos@shdfnd@physx@@YAXXZ 10001140 f   RTreeCooking.obj
 0001:00000160       ??__EmaxV3Error@_VecMathTests@aos@shdfnd@physx@@YAXXZ 10001160 f   RTreeCooking.obj
 0001:00000170       ??__EmaxV4Error@_VecMathTests@aos@shdfnd@physx@@YAXXZ 10001170 f   RTreeCooking.obj
 0001:00000190       ??__EminFError@_VecMathTests@aos@shdfnd@physx@@YAXXZ 10001190 f   RTreeCooking.obj
 0001:000001b0       ??__EminV3Error@_VecMathTests@aos@shdfnd@physx@@YAXXZ 100011b0 f   RTreeCooking.obj
 0001:000001c0       ??__EminV4Error@_VecMathTests@aos@shdfnd@physx@@YAXXZ 100011c0 f   RTreeCooking.obj
 0001:000001e0       ??__EmaxFError@_VecMathTests@aos@shdfnd@physx@@YAXXZ 100011e0 f   MeshBuilder.obj
 0001:00000200       ??__EmaxV3Error@_VecMathTests@aos@shdfnd@physx@@YAXXZ 10001200 f   MeshBuilder.obj
 0001:00000210       ??__EmaxV4Error@_VecMathTests@aos@shdfnd@physx@@YAXXZ 10001210 f   MeshBuilder.obj
 0001:00000230       ??__EminFError@_VecMathTests@aos@shdfnd@physx@@YAXXZ 10001230 f   MeshBuilder.obj
 0001:00000250       ??__EminV3Error@_VecMathTests@aos@shdfnd@physx@@YAXXZ 10001250 f   MeshBuilder.obj
 0001:00000260       ??__EminV4Error@_VecMathTests@aos@shdfnd@physx@@YAXXZ 10001260 f   MeshBuilder.obj
 0001:00000280       ??__EmaxFError@_VecMathTests@aos@shdfnd@physx@@YAXXZ 10001280 f   TriangleMeshBuilder.obj
 0001:000002a0       ??__EmaxV3Error@_VecMathTests@aos@shdfnd@physx@@YAXXZ 100012a0 f   TriangleMeshBuilder.obj
 0001:000002b0       ??__EmaxV4Error@_VecMathTests@aos@shdfnd@physx@@YAXXZ 100012b0 f   TriangleMeshBuilder.obj
 0001:000002d0       ??__EminFError@_VecMathTests@aos@shdfnd@physx@@YAXXZ 100012d0 f   TriangleMeshBuilder.obj
 0001:000002f0       ??__EminV3Error@_VecMathTests@aos@shdfnd@physx@@YAXXZ 100012f0 f   TriangleMeshBuilder.obj
 0001:00000300       ??__EminV4Error@_VecMathTests@aos@shdfnd@physx@@YAXXZ 10001300 f   TriangleMeshBuilder.obj
 0001:00000320       ??__EmaxFError@_VecMathTests@aos@shdfnd@physx@@YAXXZ 10001320 f   BigConvexDataBuilder.obj
 0001:00000340       ??__EmaxV3Error@_VecMathTests@aos@shdfnd@physx@@YAXXZ 10001340 f   BigConvexDataBuilder.obj
 0001:00000350       ??__EmaxV4Error@_VecMathTests@aos@shdfnd@physx@@YAXXZ 10001350 f   BigConvexDataBuilder.obj
 0001:00000370       ??__EminFError@_VecMathTests@aos@shdfnd@physx@@YAXXZ 10001370 f   BigConvexDataBuilder.obj
 0001:00000390       ??__EminV3Error@_VecMathTests@aos@shdfnd@physx@@YAXXZ 10001390 f   BigConvexDataBuilder.obj
 0001:000003a0       ??__EminV4Error@_VecMathTests@aos@shdfnd@physx@@YAXXZ 100013a0 f   BigConvexDataBuilder.obj
 0001:000003c0       ??__EmaxFError@_VecMathTests@aos@shdfnd@physx@@YAXXZ 100013c0 f   ConvexHullBuilder.obj
 0001:000003e0       ??__EmaxV3Error@_VecMathTests@aos@shdfnd@physx@@YAXXZ 100013e0 f   ConvexHullBuilder.obj
 0001:000003f0       ??__EmaxV4Error@_VecMathTests@aos@shdfnd@physx@@YAXXZ 100013f0 f   ConvexHullBuilder.obj
 0001:00000410       ??__EminFError@_VecMathTests@aos@shdfnd@physx@@YAXXZ 10001410 f   ConvexHullBuilder.obj
 0001:00000430       ??__EminV3Error@_VecMathTests@aos@shdfnd@physx@@YAXXZ 10001430 f   ConvexHullBuilder.obj
 0001:00000440       ??__EminV4Error@_VecMathTests@aos@shdfnd@physx@@YAXXZ 10001440 f   ConvexHullBuilder.obj
 0001:00000460       ??__EmaxFError@_VecMathTests@aos@shdfnd@physx@@YAXXZ 10001460 f   ConvexHullUtils.obj
 0001:00000480       ??__EmaxV3Error@_VecMathTests@aos@shdfnd@physx@@YAXXZ 10001480 f   ConvexHullUtils.obj
 0001:00000490       ??__EmaxV4Error@_VecMathTests@aos@shdfnd@physx@@YAXXZ 10001490 f   ConvexHullUtils.obj
 0001:000004b0       ??__EminFError@_VecMathTests@aos@shdfnd@physx@@YAXXZ 100014b0 f   ConvexHullUtils.obj
 0001:000004d0       ??__EminV3Error@_VecMathTests@aos@shdfnd@physx@@YAXXZ 100014d0 f   ConvexHullUtils.obj
 0001:000004e0       ??__EminV4Error@_VecMathTests@aos@shdfnd@physx@@YAXXZ 100014e0 f   ConvexHullUtils.obj
 0001:00000500       ??__EmaxFError@_VecMathTests@aos@shdfnd@physx@@YAXXZ 10001500 f   ConvexMeshBuilder.obj
 0001:00000520       ??__EmaxV3Error@_VecMathTests@aos@shdfnd@physx@@YAXXZ 10001520 f   ConvexMeshBuilder.obj
 0001:00000530       ??__EmaxV4Error@_VecMathTests@aos@shdfnd@physx@@YAXXZ 10001530 f   ConvexMeshBuilder.obj
 0001:00000550       ??__EminFError@_VecMathTests@aos@shdfnd@physx@@YAXXZ 10001550 f   ConvexMeshBuilder.obj
 0001:00000570       ??__EminV3Error@_VecMathTests@aos@shdfnd@physx@@YAXXZ 10001570 f   ConvexMeshBuilder.obj
 0001:00000580       ??__EminV4Error@_VecMathTests@aos@shdfnd@physx@@YAXXZ 10001580 f   ConvexMeshBuilder.obj
 0001:000005a0       ??__EmaxFError@_VecMathTests@aos@shdfnd@physx@@YAXXZ 100015a0 f   VolumeIntegration.obj
 0001:000005c0       ??__EmaxV3Error@_VecMathTests@aos@shdfnd@physx@@YAXXZ 100015c0 f   VolumeIntegration.obj
 0001:000005d0       ??__EmaxV4Error@_VecMathTests@aos@shdfnd@physx@@YAXXZ 100015d0 f   VolumeIntegration.obj
 0001:000005f0       ??__EminFError@_VecMathTests@aos@shdfnd@physx@@YAXXZ 100015f0 f   VolumeIntegration.obj
 0001:00000610       ??__EminV3Error@_VecMathTests@aos@shdfnd@physx@@YAXXZ 10001610 f   VolumeIntegration.obj
 0001:00000620       ??__EminV4Error@_VecMathTests@aos@shdfnd@physx@@YAXXZ 10001620 f   VolumeIntegration.obj
 0001:000007c0       ?CreateDatabase@@YA_NPAVAdjTriangle@physx@@IPBVAdjEdge@@ABUADJACENCIESCREATE@2@@Z 100017c0 f   Adjacencies.obj
 0001:00000d60       ?UpdateLink@@YA_NIIIIPAVAdjTriangle@physx@@ABUADJACENCIESCREATE@2@@Z 10001d60 f   Adjacencies.obj
 0001:00007840       ?buildFromBounds@physx@@YAXAAURTree@Gu@1@PBUPxBounds3V@1@IAAV?$Array@IV?$ReflectionAllocator@I@shdfnd@physx@@@shdfnd@1@PAURemapCallback@RTreeCooker@1@AAT__m128@@4MW4Enum@PxMeshCookingHint@1@@Z 10008840 f   RTreeCooking.obj
 0001:0000aa70       ?buildAdjacencies@physx@@YAXPAUuint4@1@PAVPxVec3@1@PBV31@PBUuint3@1@I@Z 1000ba70 f   TriangleMeshBuilder.obj
 0001:0000bc10       ?findAdjacent@physx@@YAIPBVPxVec3@1@0PBUuint3@1@IIIABVPxPlane@1@PAUEdgeTriLookup@1@I@Z 1000cc10 f   TriangleMeshBuilder.obj
 0001:0000fbb0       ?checkPointsAABBValidity@local@@YA_NIPBVPxVec3@physx@@IMMAAV23@1AAIPAV23@_N@Z 10010bb0 f   ConvexHullLib.obj
 0001:00014840       ?ComputeInternalExtent@@YAXAAUConvexHullData@Gu@physx@@PBUHullPolygonData@23@@Z 10015840 f   ConvexMeshBuilder.obj
 0001:00015bc0       ?CheckFloodFillFace@Local@?7??extractHullPolygons@@YA_NAAIAAV?$Array@IV?$ReflectionAllocator@I@shdfnd@physx@@@shdfnd@physx@@ABVConvexPolygonsBuilder@5@PAV345@1@Z@SA_NIPBVAdjTriangle@5@PBI@Z 10016bc0 f   ConvexPolygonsBuilder.obj
 0001:00016130       ?FloodFill@Local@?7??extractHullPolygons@@YA_NAAIAAV?$Array@IV?$ReflectionAllocator@I@shdfnd@physx@@@shdfnd@physx@@ABVConvexPolygonsBuilder@5@PAV345@1@Z@SAX1PBVAdjTriangle@5@IPA_N@Z 10017130 f   ConvexPolygonsBuilder.obj
 0001:000161f0       ?TestDuplicateTriangles@@YA_NAAIPAU?$TriangleT@I@Gu@physx@@_N@Z 100171f0 f   ConvexPolygonsBuilder.obj
 0001:00016360       ?checkRedundantVertices@@YAXAAIAAV?$Array@IV?$ReflectionAllocator@I@shdfnd@physx@@@shdfnd@physx@@ABVConvexPolygonsBuilder@3@11@Z 10017360 f   ConvexPolygonsBuilder.obj
 0001:00018710       ?extractHullPolygons@@YA_NAAIAAV?$Array@IV?$ReflectionAllocator@I@shdfnd@physx@@@shdfnd@physx@@ABVConvexPolygonsBuilder@3@PAV123@1@Z 10019710 f   ConvexPolygonsBuilder.obj
 0001:00018fc0       ?findLineStrip@@YA_NAAV?$Array@IV?$ReflectionAllocator@I@shdfnd@physx@@@shdfnd@physx@@ABV?$Array@VPair@@V?$ReflectionAllocator@VPair@@@shdfnd@physx@@@23@@Z 10019fc0 f   ConvexPolygonsBuilder.obj
 0001:0001be60       $LN183                     1001ce60     QuickHullConvexHullLib.obj
 0001:0001cd7c       $LN330                     1001dd7c     QuickHullConvexHullLib.obj
 0001:0001e7c0       ?computeVolumeIntegrals@VolumeIntegratorEberly@?A0x566c3a38@physx@@QAE_NAAUPxIntegrals@3@ABVPxVec3@3@@Z 1001f7c0 f   VolumeIntegration.obj
 0001:0001f4b0       ?computeVolumeIntegralsSIMD@VolumeIntegratorEberly@?A0x566c3a38@physx@@QAE_NAAUPxIntegrals@3@ABVPxVec3@3@@Z 100204b0 f   VolumeIntegration.obj
 0001:0001fb78       $LN24                      10020b78     WindowsCookingDelayLoadHook.obj
 0001:00020420       $$000000                   10021420     LIBCMT:alloca16.obj
 0001:00020436       alloca_8                   10021436     LIBCMT:alloca16.obj
 0001:0002044c       ?<lambda_invoker_cdecl>@_Closure_wrapper_94051dd7_2@@CAXQAX@Z 1002144c f   libvcruntime:std_type_info.obj
 0001:00020460       $$000000                   10021460     LIBCMT:chkstk.obj
 0001:00020474       cs10                       10021474     LIBCMT:chkstk.obj
 0001:00020482       cs20                       10021482     LIBCMT:chkstk.obj
 0001:00020490       $$000000                   10021490     LIBCMT:ftol3.obj
 0001:000204a0       _ftoui3_default            100214a0     LIBCMT:ftol3.obj
 0001:000204af       _ftoui3_cvt                100214af     LIBCMT:ftol3.obj
 0001:000204b4       _ftoui3_notsafe            100214b4     LIBCMT:ftol3.obj
 0001:000204c3       _ftoui3_neg                100214c3     LIBCMT:ftol3.obj
 0001:000204ca       _ftoui3_NaN                100214ca     LIBCMT:ftol3.obj
 0001:000204e0       $$000000                   100214e0     LIBCMT:svml_ssinf4_dispatch.obj
 0001:00020500       $$000000                   10021500     LIBCMT:svml_ssinf4_dispatch.obj
 0001:00020531       smallvalue                 10021531     LIBCMT:svml_ssinf4_dispatch.obj
 0001:0002054a       ?dllmain_crt_dispatch@@YGHQAUHINSTANCE__@@KQAX@Z 1002154a f   LIBCMT:dll_dllmain.obj
 0001:0002059d       ?dllmain_crt_process_attach@@YAHQAUHINSTANCE__@@QAX@Z 1002159d f   LIBCMT:dll_dllmain.obj
 0001:000206a4       ?dllmain_crt_process_detach@@YAH_N@Z 100216a4 f   LIBCMT:dll_dllmain.obj
 0001:00020754       ?dllmain_dispatch@@YAHQAUHINSTANCE__@@KQAX@Z 10021754 f   LIBCMT:dll_dllmain.obj
 0001:0002085f       ?dllmain_raw@@YGHQAUHINSTANCE__@@KQAX@Z 1002185f f   LIBCMT:dll_dllmain.obj
 0001:00020a80       $$000000                   10021a80     LIBCMT:svml_ssinf4_sse2.obj
 0001:00020b28       _2TAG_PACKET_1_0_1         10021b28     LIBCMT:svml_ssinf4_sse2.obj
 0001:00020b4c       _2TAG_PACKET_0_0_1         10021b4c     LIBCMT:svml_ssinf4_sse2.obj
 0001:00020c36       _2TAG_PACKET_2_0_1         10021c36     LIBCMT:svml_ssinf4_sse2.obj
 0001:00020c40       $$000000                   10021c40     LIBCMT:svml_ssinf4_sse4.obj
 0001:00020d04       _B1_2                      10021d04     LIBCMT:svml_ssinf4_sse4.obj
 0001:00020d06       _B1_3                      10021d06     LIBCMT:svml_ssinf4_sse4.obj
 0001:00020d0e       _B1_4                      10021d0e     LIBCMT:svml_ssinf4_sse4.obj
 0001:00020d1d       _B1_5                      10021d1d     LIBCMT:svml_ssinf4_sse4.obj
 0001:00020d2c       _B1_8                      10021d2c     LIBCMT:svml_ssinf4_sse4.obj
 0001:00020d2e       _B1_9                      10021d2e     LIBCMT:svml_ssinf4_sse4.obj
 0001:00020d37       _B1_10                     10021d37     LIBCMT:svml_ssinf4_sse4.obj
 0001:00020d41       _B1_11                     10021d41     LIBCMT:svml_ssinf4_sse4.obj
 0001:00020d4b       _B1_12                     10021d4b     LIBCMT:svml_ssinf4_sse4.obj
 0001:00020d59       _B1_16                     10021d59     LIBCMT:svml_ssinf4_sse4.obj
 0001:00020d61       _B1_13                     10021d61     LIBCMT:svml_ssinf4_sse4.obj
 0001:000212d5       ___get_entropy             100222d5 f   LIBCMT:gs_support.obj
 0001:0002139c       ?find_pe_section@@YAPAU_IMAGE_SECTION_HEADER@@QAEI@Z 1002239c f   LIBCMT:utility.obj
 0001:00021800       $$000000                   10022800     LIBCMT:sehprolg4.obj
 0001:00021850       $$000000                   10022850     LIBCMT:svml_dtrig.obj
 0001:0002186f       _B1_2                      1002286f     LIBCMT:svml_dtrig.obj
 0001:00021876       _B1_20                     10022876     LIBCMT:svml_dtrig.obj
 0001:0002187a       _B1_3                      1002287a     LIBCMT:svml_dtrig.obj
 0001:00021891       _B1_4                      10022891     LIBCMT:svml_dtrig.obj
 0001:000218a2       _B1_5                      100228a2     LIBCMT:svml_dtrig.obj
 0001:000218a6       _B1_6                      100228a6     LIBCMT:svml_dtrig.obj
 0001:000218c2       _B1_7                      100228c2     LIBCMT:svml_dtrig.obj
 0001:0002192e       _B1_8                      1002292e     LIBCMT:svml_dtrig.obj
 0001:00021993       _B1_9                      10022993     LIBCMT:svml_dtrig.obj
 0001:000219d0       _B1_10                     100229d0     LIBCMT:svml_dtrig.obj
 0001:000219da       _B1_11                     100229da     LIBCMT:svml_dtrig.obj
 0001:00021a53       _B1_21                     10022a53     LIBCMT:svml_dtrig.obj
 0001:00021a58       _B1_12                     10022a58     LIBCMT:svml_dtrig.obj
 0001:00021a84       _B1_22                     10022a84     LIBCMT:svml_dtrig.obj
 0001:00021a87       _B1_13                     10022a87     LIBCMT:svml_dtrig.obj
 0001:00021b1e       _B1_14                     10022b1e     LIBCMT:svml_dtrig.obj
 0001:00021b31       _B1_15                     10022b31     LIBCMT:svml_dtrig.obj
 0001:00021b35       _B1_16                     10022b35     LIBCMT:svml_dtrig.obj
 0001:00021b44       _B1_17                     10022b44     LIBCMT:svml_dtrig.obj
 0001:00021b60       $$000000                   10022b60     LIBCMT:svml_dtrig.obj
 0001:00021b60       ___common_srl              10022b60 f   LIBCMT:svml_dtrig.obj
 0001:00021b84       _2TAG_PACKET_3_0_2         10022b84     LIBCMT:svml_dtrig.obj
 0001:00021b8f       _2TAG_PACKET_2_0_2         10022b8f     LIBCMT:svml_dtrig.obj
 0001:00021ba0       $$000000                   10022ba0     LIBCMT:svml_dtrig.obj
 0001:00021ba0       ___common_sll              10022ba0 f   LIBCMT:svml_dtrig.obj
 0001:00021bc4       _2TAG_PACKET_1_0_1         10022bc4     LIBCMT:svml_dtrig.obj
 0001:00021bce       _2TAG_PACKET_0_0_1         10022bce     LIBCMT:svml_dtrig.obj
 0001:00021be0       $$000000                   10022be0     LIBCMT:svml_s_sin_cout.obj
 0001:00021bec       _B1_2                      10022bec     LIBCMT:svml_s_sin_cout.obj
 0001:00021bf2       _B1_3                      10022bf2     LIBCMT:svml_s_sin_cout.obj
 0001:00021c11       _B1_4                      10022c11     LIBCMT:svml_s_sin_cout.obj
 0001:00021c27       _B1_5                      10022c27     LIBCMT:svml_s_sin_cout.obj
 0001:00021c41       _B1_6                      10022c41     LIBCMT:svml_s_sin_cout.obj
 0001:00021c4f       _B1_7                      10022c4f     LIBCMT:svml_s_sin_cout.obj
 0001:00021c53       _B1_8                      10022c53     LIBCMT:svml_s_sin_cout.obj
 0001:00021dbb       ?<lambda_invoker_cdecl>@_Closure_wrapper_94051dd7_1@@CAPAXI@Z 10022dbb f   libvcruntime:std_type_info.obj
 0001:00021ef0       $$000000                   10022ef0     libvcruntime:memset.obj
 0001:00021f35       XMMMov                     10022f35     libvcruntime:memset.obj
 0001:00021f70       LargeRangeBytes            10022f70     libvcruntime:memset.obj
 0001:00021fad       XmmMovSmall                10022fad     libvcruntime:memset.obj
 0001:00021fc0       XmmSmallLoop               10022fc0     libvcruntime:memset.obj
 0001:00021fc5       MidRangeBytes              10022fc5     libvcruntime:memset.obj
 0001:00021fe1       XMMTrailingBytes           10022fe1     libvcruntime:memset.obj
 0001:00021ff5       SmallMov                   10022ff5     libvcruntime:memset.obj
 0001:00021ffd       ByteLoop                   10022ffd     libvcruntime:memset.obj
 0001:0002200b       DwordTest                  1002300b     libvcruntime:memset.obj
 0001:0002201b       QwordTest                  1002301b     libvcruntime:memset.obj
 0001:00022030       QwordLoop                  10023030     libvcruntime:memset.obj
 0001:00022043       toend                      10023043     libvcruntime:memset.obj
 0001:00022050       $$000000                   10023050     libvcruntime:memcpy.obj
 0001:00022050       $$000000                   10023050     libvcruntime:memmove.obj
 0001:00022070       CopyUp                     10023070     libvcruntime:memcpy.obj
 0001:00022070       CopyUp                     10023070     libvcruntime:memmove.obj
 0001:00022094       CopyUpLargeMov             10023094     libvcruntime:memcpy.obj
 0001:00022094       CopyUpLargeMov             10023094     libvcruntime:memmove.obj
 0001:000220a7       CopyUpSSE2Check            100230a7     libvcruntime:memcpy.obj
 0001:000220a7       CopyUpSSE2Check            100230a7     libvcruntime:memmove.obj
 0001:000220c0       AtomChk                    100230c0     libvcruntime:memcpy.obj
 0001:000220c0       AtomChk                    100230c0     libvcruntime:memmove.obj
 0001:000220e6       PalignHead4                100230e6     libvcruntime:memcpy.obj
 0001:000220e6       PalignHead4                100230e6     libvcruntime:memmove.obj
 0001:000220f9       PalignHead8                100230f9     libvcruntime:memcpy.obj
 0001:000220f9       PalignHead8                100230f9     libvcruntime:memmove.obj
 0001:00022110       PalignLoop                 10023110     libvcruntime:memcpy.obj
 0001:00022110       PalignLoop                 10023110     libvcruntime:memmove.obj
 0001:00022122       MovPalign12                10023122     libvcruntime:memcpy.obj
 0001:00022122       MovPalign12                10023122     libvcruntime:memmove.obj
 0001:0002212c       PalignLoop12               1002312c     libvcruntime:memcpy.obj
 0001:0002212c       PalignLoop12               1002312c     libvcruntime:memmove.obj
 0001:0002217d       MovPalign8                 1002317d     libvcruntime:memcpy.obj
 0001:0002217d       MovPalign8                 1002317d     libvcruntime:memmove.obj
 0001:00022188       PalignLoop8                10023188     libvcruntime:memcpy.obj
 0001:00022188       PalignLoop8                10023188     libvcruntime:memmove.obj
 0001:000221d6       MovPalign4                 100231d6     libvcruntime:memcpy.obj
 0001:000221d6       MovPalign4                 100231d6     libvcruntime:memmove.obj
 0001:000221e0       PalignLoop4                100231e0     libvcruntime:memcpy.obj
 0001:000221e0       PalignLoop4                100231e0     libvcruntime:memmove.obj
 0001:0002222c       PalignTail                 1002322c     libvcruntime:memcpy.obj
 0001:0002222c       PalignTail                 1002322c     libvcruntime:memmove.obj
 0001:00022244       PalignTail4                10023244     libvcruntime:memcpy.obj
 0001:00022244       PalignTail4                10023244     libvcruntime:memmove.obj
 0001:00022257       PalignTail8                10023257     libvcruntime:memcpy.obj
 0001:00022257       PalignTail8                10023257     libvcruntime:memmove.obj
 0001:0002226e       PalignTailLE3              1002326e     libvcruntime:memcpy.obj
 0001:0002226e       PalignTailLE3              1002326e     libvcruntime:memmove.obj
 0001:00022277       Dword_align                10023277     libvcruntime:memcpy.obj
 0001:00022277       Dword_align                10023277     libvcruntime:memmove.obj
 0001:0002227f       Dword_up_align_loop        1002327f     libvcruntime:memcpy.obj
 0001:0002227f       Dword_up_align_loop        1002327f     libvcruntime:memmove.obj
 0001:00022292       Dword_align_Ok             10023292     libvcruntime:memcpy.obj
 0001:00022292       Dword_align_Ok             10023292     libvcruntime:memmove.obj
 0001:000222ac       ByteCopyUp                 100232ac     libvcruntime:memcpy.obj
 0001:000222ac       ByteCopyUp                 100232ac     libvcruntime:memmove.obj
 0001:000222b4       TrailingUpVec              100232b4     libvcruntime:memcpy.obj
 0001:000222b4       TrailingUpVec              100232b4     libvcruntime:memmove.obj
 0001:000222c4       TrailingUp0                100232c4     libvcruntime:memcpy.obj
 0001:000222c4       TrailingUp0                100232c4     libvcruntime:memmove.obj
 0001:000222cc       TrailingUp1                100232cc     libvcruntime:memcpy.obj
 0001:000222cc       TrailingUp1                100232cc     libvcruntime:memmove.obj
 0001:000222d8       TrailingUp2                100232d8     libvcruntime:memcpy.obj
 0001:000222d8       TrailingUp2                100232d8     libvcruntime:memmove.obj
 0001:000222ec       TrailingUp3                100232ec     libvcruntime:memcpy.obj
 0001:000222ec       TrailingUp3                100232ec     libvcruntime:memmove.obj
 0001:00022304       CopyDown                   10023304     libvcruntime:memcpy.obj
 0001:00022304       CopyDown                   10023304     libvcruntime:memmove.obj
 0001:00022329       CopyDownNotAligned         10023329     libvcruntime:memcpy.obj
 0001:00022329       CopyDownNotAligned         10023329     libvcruntime:memmove.obj
 0001:00022330       CopyDownAlignLoop          10023330     libvcruntime:memcpy.obj
 0001:00022330       CopyDownAlignLoop          10023330     libvcruntime:memmove.obj
 0001:0002233d       CopyDownAligned            1002333d     libvcruntime:memcpy.obj
 0001:0002233d       CopyDownAligned            1002333d     libvcruntime:memmove.obj
 0001:00022360       TrailingDownVec            10023360     libvcruntime:memcpy.obj
 0001:00022360       TrailingDownVec            10023360     libvcruntime:memmove.obj
 0001:00022370       TrailingDown0              10023370     libvcruntime:memcpy.obj
 0001:00022370       TrailingDown0              10023370     libvcruntime:memmove.obj
 0001:00022378       TrailingDown1              10023378     libvcruntime:memcpy.obj
 0001:00022378       TrailingDown1              10023378     libvcruntime:memmove.obj
 0001:00022388       TrailingDown2              10023388     libvcruntime:memcpy.obj
 0001:00022388       TrailingDown2              10023388     libvcruntime:memmove.obj
 0001:0002239c       TrailingDown3              1002339c     libvcruntime:memcpy.obj
 0001:0002239c       TrailingDown3              1002339c     libvcruntime:memmove.obj
 0001:000223b5       XmmMovLargeAlignTest       100233b5     libvcruntime:memcpy.obj
 0001:000223b5       XmmMovLargeAlignTest       100233b5     libvcruntime:memmove.obj
 0001:000223bd       XmmMovAlignLoop            100233bd     libvcruntime:memcpy.obj
 0001:000223bd       XmmMovAlignLoop            100233bd     libvcruntime:memmove.obj
 0001:000223cc       XmmMovLargeLoop            100233cc     libvcruntime:memcpy.obj
 0001:000223cc       XmmMovLargeLoop            100233cc     libvcruntime:memmove.obj
 0001:0002243c       XmmMovSmallTest            1002343c     libvcruntime:memcpy.obj
 0001:0002243c       XmmMovSmallTest            1002343c     libvcruntime:memmove.obj
 0001:00022441       XmmMovSmallLoop            10023441     libvcruntime:memcpy.obj
 0001:00022441       XmmMovSmallLoop            10023441     libvcruntime:memmove.obj
 0001:00022464       CopyDownSmall              10023464     libvcruntime:memcpy.obj
 0001:00022464       CopyDownSmall              10023464     libvcruntime:memmove.obj
 0001:0002246c       CopyDownDwordLoop          1002346c     libvcruntime:memcpy.obj
 0001:0002246c       CopyDownDwordLoop          1002346c     libvcruntime:memmove.obj
 0001:00022481       CopyDownByteTest           10023481     libvcruntime:memcpy.obj
 0001:00022481       CopyDownByteTest           10023481     libvcruntime:memmove.obj
 0001:00022485       CopyDownByteLoop           10023485     libvcruntime:memcpy.obj
 0001:00022485       CopyDownByteLoop           10023485     libvcruntime:memmove.obj
 0001:00022494       CopyDownReturn             10023494     libvcruntime:memcpy.obj
 0001:00022494       CopyDownReturn             10023494     libvcruntime:memmove.obj
 0001:000224a0       XmmCopy                    100234a0     libvcruntime:memcpy.obj
 0001:000224a0       XmmCopy                    100234a0     libvcruntime:memmove.obj
 0001:000224ad       XmmCopyAligned             100234ad     libvcruntime:memcpy.obj
 0001:000224ad       XmmCopyAligned             100234ad     libvcruntime:memmove.obj
 0001:000224c0       XmmCopyLargeLoop           100234c0     libvcruntime:memcpy.obj
 0001:000224c0       XmmCopyLargeLoop           100234c0     libvcruntime:memmove.obj
 0001:0002251d       XmmCopySmallTest           1002351d     libvcruntime:memcpy.obj
 0001:0002251d       XmmCopySmallTest           1002351d     libvcruntime:memmove.obj
 0001:00022530       XmmCopySmallLoop           10023530     libvcruntime:memcpy.obj
 0001:00022530       XmmCopySmallLoop           10023530     libvcruntime:memmove.obj
 0001:0002254b       CopyUpDwordMov             1002354b     libvcruntime:memcpy.obj
 0001:0002254b       CopyUpDwordMov             1002354b     libvcruntime:memmove.obj
 0001:00022550       CopyUpDwordTest            10023550     libvcruntime:memcpy.obj
 0001:00022550       CopyUpDwordTest            10023550     libvcruntime:memmove.obj
 0001:00022557       CopyUpDwordLoop            10023557     libvcruntime:memcpy.obj
 0001:00022557       CopyUpDwordLoop            10023557     libvcruntime:memmove.obj
 0001:00022566       CopyUpByteTest             10023566     libvcruntime:memcpy.obj
 0001:00022566       CopyUpByteTest             10023566     libvcruntime:memmove.obj
 0001:0002256d       CopyUpByteLoop             1002356d     libvcruntime:memcpy.obj
 0001:0002256d       CopyUpByteLoop             1002356d     libvcruntime:memmove.obj
 0001:00022580       CopyUpReturn               10023580     libvcruntime:memcpy.obj
 0001:00022580       CopyUpReturn               10023580     libvcruntime:memmove.obj
 0001:00022590       XmmCopyUnaligned           10023590     libvcruntime:memcpy.obj
 0001:00022590       XmmCopyUnaligned           10023590     libvcruntime:memmove.obj
 0001:000225a3       XmmAlignByte               100235a3     libvcruntime:memcpy.obj
 0001:000225a3       XmmAlignByte               100235a3     libvcruntime:memmove.obj
 0001:000225ac       XmmAlignDwordTest          100235ac     libvcruntime:memcpy.obj
 0001:000225ac       XmmAlignDwordTest          100235ac     libvcruntime:memmove.obj
 0001:000225b1       XmmAlignDwordLoop          100235b1     libvcruntime:memcpy.obj
 0001:000225b1       XmmAlignDwordLoop          100235b1     libvcruntime:memmove.obj
 0001:000225be       XmmAlignAdjustCnt          100235be     libvcruntime:memcpy.obj
 0001:000225be       XmmAlignAdjustCnt          100235be     libvcruntime:memmove.obj
 0001:000225d0       $$000000                   100235d0     libvcruntime:strstr.obj
 0001:00022613       strstr_sse_safeloop        10023613     libvcruntime:strstr.obj
 0001:0002263a       strstr_sse_search          1002363a     libvcruntime:strstr.obj
 0001:0002263a       strstr_sse_unsafe          1002363a     libvcruntime:strstr.obj
 0001:0002263e       strstr_sse_srchloop        1002363e     libvcruntime:strstr.obj
 0001:00022674       strstr_sse_srchchar        10023674     libvcruntime:strstr.obj
 0001:0002268b       strstr_sse_cmploop         1002368b     libvcruntime:strstr.obj
 0001:000226c6       strstr_sse_cmpchars        100236c6     libvcruntime:strstr.obj
 0001:000226cd       strstr_sse_cmpunsafe       100236cd     libvcruntime:strstr.obj
 0001:000226e4       strstr_sse_match           100236e4     libvcruntime:strstr.obj
 0001:000226e9       strstr_sse_not_found       100236e9     libvcruntime:strstr.obj
 0001:000226eb       strstr_sse_exit            100236eb     libvcruntime:strstr.obj
 0001:000226ef       strstr_sttni               100236ef     libvcruntime:strstr.obj
 0001:0002270b       strstr_sttni_setchars      1002370b     libvcruntime:strstr.obj
 0001:00022710       strstr_sttni_setloopchar   10023710     libvcruntime:strstr.obj
 0001:00022716       strstr_sttni_setloopnochar 10023716     libvcruntime:strstr.obj
 0001:0002272a       strstr_sttni_srchnext      1002372a     libvcruntime:strstr.obj
 0001:0002272d       strstr_sttni_srch          1002372d     libvcruntime:strstr.obj
 0001:00022731       strstr_sttni_srchloop      10023731     libvcruntime:strstr.obj
 0001:00022750       strstr_sttni_srchxmm       10023750     libvcruntime:strstr.obj
 0001:00022763       strstr_sttni_srchcheck     10023763     libvcruntime:strstr.obj
 0001:00022767       strstr_sttni_cmploop       10023767     libvcruntime:strstr.obj
 0001:0002279f       strstr_sttni_cmpchar       1002379f     libvcruntime:strstr.obj
 0001:000227ba       strstr_no_sse              100237ba     libvcruntime:strstr.obj
 0001:000227cd       findnext                   100237cd     libvcruntime:strstr.obj
 0001:000227e0       loop_start                 100237e0     libvcruntime:strstr.obj
 0001:000227e5       in_loop                    100237e5     libvcruntime:strstr.obj
 0001:000227ed       not_found                  100237ed     libvcruntime:strstr.obj
 0001:000227f3       first_char_found           100237f3     libvcruntime:strstr.obj
 0001:000227fc       two_first_chars_equal      100237fc     libvcruntime:strstr.obj
 0001:000227ff       compare_loop               100237ff     libvcruntime:strstr.obj
 0001:00022822       strchr_call                10023822     libvcruntime:strstr.obj
 0001:0002282e       match                      1002382e     libvcruntime:strstr.obj
 0001:00022835       empty_str2                 10023835     libvcruntime:strstr.obj
 0001:00022840       _ValidateLocalCookies      10023840 f   libvcruntime:chandler4.obj
 0001:00022ae0       ?_FilterSetCurrentException@@YAKPAU_EXCEPTION_POINTERS@@E@Z 10023ae0 f   libvcruntime:ehhelpers.obj
 0001:00023038       ??1TrackRecursion@?1??getDecoratedName@UnDecorator@@CA?AVDName@@XZ@QAE@XZ 10024038 f   libvcruntime:undname.obj
 0001:00024c34       $LN190                     10025c34     libvcruntime:undname.obj
 0001:00024c58       $LN189                     10025c58     libvcruntime:undname.obj
 0001:00024c6c       $LN191                     10025c6c     libvcruntime:undname.obj
 0001:00025b7a       $LN49                      10026b7a     libvcruntime:undname.obj
 0001:00026bbf       $LN292                     10027bbf     libvcruntime:undname.obj
 0001:00026bcb       $LN291                     10027bcb     libvcruntime:undname.obj
 0001:00026be3       $LN294                     10027be3     libvcruntime:undname.obj
 0001:00026bff       $LN293                     10027bff     libvcruntime:undname.obj
 0001:00026c17       $LN296                     10027c17     libvcruntime:undname.obj
 0001:00026c27       $LN295                     10027c27     libvcruntime:undname.obj
 0001:0002817d       $LN120                     1002917d     libvcruntime:undname.obj
 0001:00028199       $LN119                     10029199     libvcruntime:undname.obj
 0001:0002863d       $LN136                     1002963d     libvcruntime:undname.obj
 0001:00028f67       ?und_memcpy@@YAXPADPBDI@Z  10029f67 f   libvcruntime:undname.obj
 0001:00028f88       ?und_strncmp@@YAIPBD0I@Z   10029f88 f   libvcruntime:undname.obj
 0001:000290d0       $$000000                   1002a0d0     libvcruntime:strchr.obj
 0001:00029103       strchr_sse_loop            1002a103     libvcruntime:strchr.obj
 0001:00029127       strchr_sse_break           1002a127     libvcruntime:strchr.obj
 0001:00029138       strchr_no_sse2             1002a138     libvcruntime:strchr.obj
 0001:00029150       str_misaligned             1002a150     libvcruntime:strchr.obj
 0001:00029165       main_loop_start            1002a165     libvcruntime:strchr.obj
 0001:00029170       main_loop                  1002a170     libvcruntime:strchr.obj
 0001:000291ac       retnull                    1002a1ac     libvcruntime:strchr.obj
 0001:000291ae       retnull_bx                 1002a1ae     libvcruntime:strchr.obj
 0001:000291b2       found_bx                   1002a1b2     libvcruntime:strchr.obj
 0001:000291b7       chr_is_found               1002a1b7     libvcruntime:strchr.obj
 0001:000291df       byte_3                     1002a1df     libvcruntime:strchr.obj
 0001:000291e6       byte_2                     1002a1e6     libvcruntime:strchr.obj
 0001:000291ed       byte_1                     1002a1ed     libvcruntime:strchr.obj
 0001:000291f4       byte_0                     1002a1f4     libvcruntime:strchr.obj
 0001:00029200       $$000000                   1002a200     libvcruntime:exsup4.obj
 0001:00029232       _lu_top                    1002a232     libvcruntime:exsup4.obj
 0001:00029291       _lu_done                   1002a291     libvcruntime:exsup4.obj
 0001:000292a0       $$000000                   1002a2a0     libvcruntime:exsup4.obj
 0001:000292a0       __unwind_handler4          1002a2a0 f   libvcruntime:exsup4.obj
 0001:000292f0       $$000000                   1002a2f0     libvcruntime:exsup4.obj
 0001:00029310       $$000000                   1002a310     libvcruntime:exsup4.obj
 0001:00029330       $$000000                   1002a330     libvcruntime:exsup4.obj
 0001:00029345       ReturnPoint                1002a345     libvcruntime:exsup4.obj
 0001:00029350       $$000000                   1002a350     libvcruntime:exsup4.obj
 0001:00029930       $$000000                   1002a930     libvcruntime:exsup.obj
 0001:00029940       $$000000                   1002a940     libvcruntime:exsup.obj
 0001:0002994b       __NLG_Go                   1002a94b     libvcruntime:exsup.obj
 0001:00029960       $$000000                   1002a960     libvcruntime:exsup.obj
 0001:00029963       ?try_get_first_available_module@@YAPAUHINSTANCE__@@QBW4module_id@?A0x87e98a64@@0@Z 1002a963 f   libvcruntime:winapi_downlevel.obj
 0001:000299fd       ?try_get_function@@YAPAXW4function_id@?A0x87e98a64@@QBDQBW4module_id@2@2@Z 1002a9fd f   libvcruntime:winapi_downlevel.obj
 0001:00029b7c       ??$BuildCatchObjectHelperInternal@V__FrameHandler3@@@@YAHPAUEHExceptionRecord@@PAXPBU_s_HandlerType@@PBU_s_CatchableType@@@Z 1002ab7c f   libvcruntime:frame.obj
 0001:00029cba       ??$BuildCatchObjectInternal@V__FrameHandler3@@@@YAXPAUEHExceptionRecord@@PAXPBU_s_HandlerType@@PBU_s_CatchableType@@@Z 1002acba f   libvcruntime:frame.obj
 0001:00029d53       ??$CatchIt@V__FrameHandler3@@@@YAXPAUEHExceptionRecord@@PAUEHRegistrationNode@@PAU_CONTEXT@@PAXPBU_s_FuncInfo@@PBU_s_HandlerType@@PBU_s_CatchableType@@PBU_s_TryBlockMapEntry@@H1EE@Z 1002ad53 f   libvcruntime:frame.obj
 0001:00029dd3       ??$FindHandler@V__FrameHandler3@@@@YAXPAUEHExceptionRecord@@PAUEHRegistrationNode@@PAU_CONTEXT@@PAXPBU_s_FuncInfo@@EH1@Z 1002add3 f   libvcruntime:frame.obj
 0001:0002a17d       ??$FindHandlerForForeignException@V__FrameHandler3@@@@YAXPAUEHExceptionRecord@@PAUEHRegistrationNode@@PAU_CONTEXT@@PAXPBU_s_FuncInfo@@HH1@Z 1002b17d f   libvcruntime:frame.obj
 0001:0002a4ff       ?CallCatchBlock@@YAPAXPAUEHExceptionRecord@@PAUEHRegistrationNode@@PAU_CONTEXT@@PBU_s_FuncInfo@@PAXHK@Z 1002b4ff f   libvcruntime:frame.obj
 0001:0002a6c3       ?CallUnexpected@@YAXPBU_s_ESTypeList@@@Z 1002b6c3 f   libvcruntime:frame.obj
 0001:0002a6e3       __catch$?CallUnexpected@@YAXPBU_s_ESTypeList@@@Z$0 1002b6e3 f   libvcruntime:frame.obj
 0001:0002a702       ?ExFilterRethrow@@YAHPAU_EXCEPTION_POINTERS@@@Z 1002b702 f   libvcruntime:frame.obj
 0001:0002a84c       ?IsInExceptionSpec@@YAEPAUEHExceptionRecord@@PBU_s_ESTypeList@@@Z 1002b84c f   libvcruntime:frame.obj
 0001:0002a930       $$000000                   1002b930     libvcruntime:lowhelpr.obj
 0001:0002a96f       _NLG_Continue              1002b96f     libvcruntime:lowhelpr.obj
 0001:0002b43f       ??$?RV<lambda_03b1d95aef87969028cfba75ccab2455>@@AAV<lambda_6e4b09c48022b2350581041d5f6b0c4c>@@V<lambda_22bdf7517842c4b3e53723af5aa32b9e>@@@?$__crt_seh_guarded_call@X@@QAEX$$QAV<lambda_03b1d95aef87969028cfba75ccab2455>@@AAV<lambda_6e4b09c48022b2350581041d5f6b0c4c>@@$$QAV<lambda_22bdf7517842c4b3e53723af5aa32b9e>@@@Z 1002c43f f   libucrt:exit.obj
 0001:0002b48c       ??R<lambda_6e4b09c48022b2350581041d5f6b0c4c>@@QBE@XZ 1002c48c f   libucrt:exit.obj
 0001:0002b566       ?atexit_exception_filter@@YAHK@Z 1002c566 f   libucrt:exit.obj
 0001:0002b579       ?common_exit@@YAXHW4_crt_exit_cleanup_mode@@W4_crt_exit_return_mode@@@Z 1002c579 f   libucrt:exit.obj
 0001:0002b5dd       ?exit_or_terminate_process@@YAXI@Z 1002c5dd f   libucrt:exit.obj
 0001:0002b61f       ?is_managed_app@@YA_NXZ    1002c61f f   libucrt:exit.obj
 0001:0002b662       ?try_cor_exit_process@@YAXI@Z 1002c662 f   libucrt:exit.obj
 0001:0002b6f0       ??$common_configure_argv@D@@YAHW4_crt_argv_mode@@@Z 1002c6f0 f   libucrt:argv_parsing.obj
 0001:0002b826       ??$parse_command_line@D@@YAXPADPAPAD0PAI2@Z 1002c826 f   libucrt:argv_parsing.obj
 0001:0002b9f4       ??$common_initialize_environment_nolock@D@@YAHXZ 1002c9f4 f   libucrt:environment_initialization.obj
 0001:0002ba47       ??$create_environment@D@@YAQAPADQAD@Z 1002ca47 f   libucrt:environment_initialization.obj
 0001:0002bb17       ??$free_environment@D@@YAXQAPAD@Z 1002cb17 f   libucrt:environment_initialization.obj
 0001:0002bb17       ??$free_environment@_W@@YAXQAPA_W@Z 1002cb17 f   libucrt:environment_initialization.obj
 0001:0002bb6f       ??$uninitialize_environment_internal@D@@YAXAAPAPAD@Z 1002cb6f f   libucrt:environment_initialization.obj
 0001:0002bb8a       ??$uninitialize_environment_internal@_W@@YAXAAPAPA_W@Z 1002cb8a f   libucrt:environment_initialization.obj
 0001:0002bbe1       ??$?RV<lambda_69a2805e680e0e292e8ba93315fe43a8>@@AAV<lambda_f03950bc5685219e0bcd2087efbe011e>@@V<lambda_03fcd07e894ec930e3f35da366ca99d6>@@@?$__crt_seh_guarded_call@H@@QAEH$$QAV<lambda_69a2805e680e0e292e8ba93315fe43a8>@@AAV<lambda_f03950bc5685219e0bcd2087efbe011e>@@$$QAV<lambda_03fcd07e894ec930e3f35da366ca99d6>@@@Z 1002cbe1 f   libucrt:onexit.obj
 0001:0002bc3c       ??R<lambda_f03950bc5685219e0bcd2087efbe011e>@@QBEHXZ 1002cc3c f   libucrt:onexit.obj
 0001:0002bd6c       _initialize_global_variables 1002cd6c f   libucrt:initialization.obj
 0001:0002bd79       _initialize_c              1002cd79 f   libucrt:initialization.obj
 0001:0002bd93       _initialize_environment    1002cd93 f   libucrt:initialization.obj
 0001:0002bd93       _initialize_global_state_isolation 1002cd93 f   libucrt:initialization.obj
 0001:0002bd93       _report_memory_leaks       1002cd93 f   libucrt:initialization.obj
 0001:0002bd93       _uninitialize_c            1002cd93 f   libucrt:initialization.obj
 0001:0002bd93       _uninitialize_global_state_isolation 1002cd93 f   libucrt:initialization.obj
 0001:0002bd96       _uninitialize_environment  1002cd96 f   libucrt:initialization.obj
 0001:0002bd9e       _initialize_pointers       1002cd9e f   libucrt:initialization.obj
 0001:0002bdcc       _uninitialize_vcruntime    1002cdcc f   libucrt:initialization.obj
 0001:0002bdd5       _uninitialize_allocated_memory 1002cdd5 f   libucrt:initialization.obj
 0001:0002bdec       _uninitialize_allocated_io_buffers 1002cdec f   libucrt:initialization.obj
 0001:0002be5b       ??R<lambda_af42a3ee9806e9a7305d451646e05244>@@QBEXAAPAU__crt_multibyte_data@@@Z 1002ce5b f   libucrt:initialization.obj
 0001:0002bfd5       ??$common_vsprintf@Vformat_validation_base@__crt_stdio_output@@D@@YAH_KQADIQBDQAU__crt_locale_pointers@@1@Z 1002cfd5 f   libucrt:output.obj
 0001:0002c153       ??$common_vsprintf_s@D@@YAH_KQADIQBDQAU__crt_locale_pointers@@1@Z 1002d153 f   libucrt:output.obj
 0001:0002c7bd       $LN48                      1002d7bd     libucrt:output.obj
 0001:0002ccdc       $LN18                      1002dcdc     libucrt:output.obj
 0001:0002ccf0       $LN17                      1002dcf0     libucrt:output.obj
 0001:0002d670       $$000000                   1002e670     libucrt:strncmp.obj
 0001:0002d730       $$000000                   1002e730     libucrt:cos.obj
 0001:0002d780       $$000000                   1002e780     libucrt:sin.obj
 0001:0002db63       ??$?RV<lambda_15ade71b0218206bbe3333a0c9b79046>@@AAV<lambda_da44e0f8b0f19ba52fefafb335991732>@@V<lambda_207f2d024fc103971653565357d6cd41>@@@?$__crt_seh_guarded_call@X@@QAEX$$QAV<lambda_15ade71b0218206bbe3333a0c9b79046>@@AAV<lambda_da44e0f8b0f19ba52fefafb335991732>@@$$QAV<lambda_207f2d024fc103971653565357d6cd41>@@@Z 1002eb63 f   libucrt:per_thread_data.obj
 0001:0002dbb5       ??$?RV<lambda_38edbb1296d33220d7e4dd0ed76b244a>@@AAV<lambda_5ce1d447e08cb34b2473517608e21441>@@V<lambda_fb385d3da700c9147fc39e65dd577a8c>@@@?$__crt_seh_guarded_call@X@@QAEX$$QAV<lambda_38edbb1296d33220d7e4dd0ed76b244a>@@AAV<lambda_5ce1d447e08cb34b2473517608e21441>@@$$QAV<lambda_fb385d3da700c9147fc39e65dd577a8c>@@@Z 1002ebb5 f   libucrt:per_thread_data.obj
 0001:0002dc20       ??$?RV<lambda_6affb1475c98b40b75cdec977db92e3c>@@AAV<lambda_b8d4b9c228a6ecc3f80208dbb4b4a104>@@V<lambda_608742c3c92a14382c1684fc64f96c88>@@@?$__crt_seh_guarded_call@X@@QAEX$$QAV<lambda_6affb1475c98b40b75cdec977db92e3c>@@AAV<lambda_b8d4b9c228a6ecc3f80208dbb4b4a104>@@$$QAV<lambda_608742c3c92a14382c1684fc64f96c88>@@@Z 1002ec20 f   libucrt:per_thread_data.obj
 0001:0002dc75       ??$?RV<lambda_a7e850c220f1c8d1e6efeecdedd162c6>@@AAV<lambda_46720907175c18b6c9d2717bc0d2d362>@@V<lambda_9048902d66e8d99359bc9897bbb930a8>@@@?$__crt_seh_guarded_call@X@@QAEX$$QAV<lambda_a7e850c220f1c8d1e6efeecdedd162c6>@@AAV<lambda_46720907175c18b6c9d2717bc0d2d362>@@$$QAV<lambda_9048902d66e8d99359bc9897bbb930a8>@@@Z 1002ec75 f   libucrt:per_thread_data.obj
 0001:0002dccf       ?construct_ptd@@YAXQAU__acrt_ptd@@QAPAU__crt_locale_data@@@Z 1002eccf f   libucrt:per_thread_data.obj
 0001:0002dd68       ?destroy_fls@@YGXPAX@Z     1002ed68 f   libucrt:per_thread_data.obj
 0001:0002dd89       ?destroy_ptd@@YAXQAU__acrt_ptd@@@Z 1002ed89 f   libucrt:per_thread_data.obj
 0001:0002de56       ?replace_current_thread_locale_nolock@@YAXQAU__acrt_ptd@@QAU__crt_locale_data@@@Z 1002ee56 f   libucrt:per_thread_data.obj
 0001:0002e43d       ?<lambda_invoker_cdecl>@<lambda_838c7f62c73c983481e27c09e84b0b5d>@@CAHPBX0@Z 1002f43d f   libucrt:argv_wildcards.obj
 0001:0002e455       ??$__acrt_convert_wcs_mbs_cp@D_WV<lambda_62f6974d9771e494a5ea317cc32e971c>@@U__crt_win32_buffer_internal_dynamic_resizing@@@@YAHQBDAAV?$__crt_win32_buffer@_WU__crt_win32_buffer_internal_dynamic_resizing@@@@ABV<lambda_62f6974d9771e494a5ea317cc32e971c>@@I@Z 1002f455 f   libucrt:argv_wildcards.obj
 0001:0002e507       ??$__acrt_convert_wcs_mbs_cp@_WDV<lambda_28bda7af82a03b66c1cb3803a755f95d>@@U__crt_win32_buffer_internal_dynamic_resizing@@@@YAHQB_WAAV?$__crt_win32_buffer@DU__crt_win32_buffer_internal_dynamic_resizing@@@@ABV<lambda_28bda7af82a03b66c1cb3803a755f95d>@@I@Z 1002f507 f   libucrt:argv_wildcards.obj
 0001:0002e5f3       ??$common_expand_argv_wildcards@D@@YAHQAPADQAPAPAD@Z 1002f5f3 f   libucrt:argv_wildcards.obj
 0001:0002e7e2       ??$copy_and_add_argument_to_buffer@D@@YAHQBD0IAAV?$argument_list@D@?A0x5f5c8891@@@Z 1002f7e2 f   libucrt:argv_wildcards.obj
 0001:0002e893       ??$expand_argument_wildcards@D@@YAHQAD0AAV?$argument_list@D@?A0x5f5c8891@@@Z 1002f893 f   libucrt:argv_wildcards.obj
 0001:0002ebdd       ?expand_if_necessary@?$argument_list@D@?A0x5f5c8891@@AAEHXZ 1002fbdd f   libucrt:argv_wildcards.obj
 0001:0002ec6f       ??$__acrt_convert_wcs_mbs_cp@_WDV<lambda_0fec1a7b3f42a53036604e18c2d5e07e>@@U__crt_win32_buffer_no_resizing@@@@YAHQB_WAAV?$__crt_win32_buffer@DU__crt_win32_buffer_no_resizing@@@@ABV<lambda_0fec1a7b3f42a53036604e18c2d5e07e>@@I@Z 1002fc6f f   libucrt:getmodulefilenamea.obj
 0001:0002ee12       ??$?RV<lambda_ceb1ee4838e85a9d631eb091e2fbe199>@@AAV<lambda_ae742caa10f662c28703da3d2ea5e57e>@@V<lambda_cd08b5d6af4937fe54fc07d0c9bf6b37>@@@?$__crt_seh_guarded_call@X@@QAEX$$QAV<lambda_ceb1ee4838e85a9d631eb091e2fbe199>@@AAV<lambda_ae742caa10f662c28703da3d2ea5e57e>@@$$QAV<lambda_cd08b5d6af4937fe54fc07d0c9bf6b37>@@@Z 1002fe12 f   libucrt:mbctype.obj
 0001:0002ee5f       ??R<lambda_ae742caa10f662c28703da3d2ea5e57e>@@QBEXXZ 1002fe5f f   libucrt:mbctype.obj
 0001:0002eee2       ?CPtoLocaleName@@YAPB_WH@Z 1002fee2 f   libucrt:mbctype.obj
 0001:0002ef20       ?getSystemCP@@YAHH@Z       1002ff20 f   libucrt:mbctype.obj
 0001:0002ef91       ?setSBCS@@YAXPAU__crt_multibyte_data@@@Z 1002ff91 f   libucrt:mbctype.obj
 0001:0002eff6       ?setSBUpLow@@YAXPAU__crt_multibyte_data@@@Z 1002fff6 f   libucrt:mbctype.obj
 0001:0002f176       ?setmbcp_internal@@YAHH_NQAU__acrt_ptd@@QAPAU__crt_multibyte_data@@@Z 10030176 f   libucrt:mbctype.obj
 0001:0002f28a       ?update_thread_multibyte_data_internal@@YAPAU__crt_multibyte_data@@QAU__acrt_ptd@@QAPAU1@@Z 1003028a f   libucrt:mbctype.obj
 0001:0002f578       _memcpy_s                  10030578 f   libucrt:cfout.obj
 0001:0002f578       _memcpy_s                  10030578 f   libucrt:mbctype.obj
 0001:0002f5f9       ?x_ismbbtype_l@@YAHPAU__crt_locale_pointers@@IHH@Z 100305f9 f   libucrt:ismbbyte.obj
 0001:0002f7b4       ?find_end_of_double_null_terminated_sequence@@YAPB_WQB_W@Z 100307b4 f   libucrt:get_environment_from_os.obj
 0001:0002f8dc       ?try_get_AreFileApisANSI@@YAP6GHXZXZ 100308dc f   libucrt:winapi_thunks.obj
 0001:0002f8f6       ?try_get_LCMapStringEx@@YAP6GHPB_WK0HPA_WHPAU_nlsversioninfo@@PAXJ@ZXZ 100308f6 f   libucrt:winapi_thunks.obj
 0001:0002f910       ?try_get_LocaleNameToLCID@@YAP6GKPB_WK@ZXZ 10030910 f   libucrt:winapi_thunks.obj
 0001:0002f92a       ?try_get_first_available_module@@YAPAUHINSTANCE__@@QBW4module_id@?A0x391cf84c@@0@Z 1003092a f   libucrt:winapi_thunks.obj
 0001:0002f9f1       ?try_get_function@@YAPAXW4function_id@?A0x391cf84c@@QBDQBW4module_id@2@2@Z 100309f1 f   libucrt:winapi_thunks.obj
 0001:0002fd27       ?initialize_inherited_file_handles_nolock@@YAXXZ 10030d27 f   libucrt:ioinit.obj
 0001:0002fddd       ?initialize_stdio_handles_nolock@@YAXXZ 10030ddd f   libucrt:ioinit.obj
 0001:0003004e       ??$?RV<lambda_cbab9ec6f41b0180b23cc171c22676b0>@@AAV<lambda_44731a7d0e6d81c3e6aa82d741081786>@@V<lambda_4b292cb8dd18144e164572427af410ab>@@@?$__crt_seh_guarded_call@P6AXH@Z@@QAEP6AXH@Z$$QAV<lambda_cbab9ec6f41b0180b23cc171c22676b0>@@AAV<lambda_44731a7d0e6d81c3e6aa82d741081786>@@$$QAV<lambda_4b292cb8dd18144e164572427af410ab>@@@Z 1003104e f   libucrt:signal.obj
 0001:000300b2       ?get_global_action_nolock@@YAPAP6AXH@ZH@Z 100310b2 f   libucrt:signal.obj
 0001:000300f4       ?siglookup@@YAPAU__crt_signal_action_t@@HQAU1@@Z 100310f4 f   libucrt:signal.obj
 0001:00030354       ??$?RV<lambda_2866be3712abc81a800a822484c830d8>@@AAV<lambda_39ca0ed439415581b5b15c265174cece>@@V<lambda_2b24c74d71094a6cd0cb82e44167d71b>@@@?$__crt_seh_guarded_call@X@@QAEX$$QAV<lambda_2866be3712abc81a800a822484c830d8>@@AAV<lambda_39ca0ed439415581b5b15c265174cece>@@$$QAV<lambda_2b24c74d71094a6cd0cb82e44167d71b>@@@Z 10031354 f   libucrt:fflush.obj
 0001:000303e0       ??$?RV<lambda_2cc53f568c5a2bb6f192f930a45d44ea>@@AAV<lambda_ab61a845afdef5b7c387490eaf3616ee>@@V<lambda_c2ffc0b7726aa6be21d5f0026187e748>@@@?$__crt_seh_guarded_call@X@@QAEX$$QAV<lambda_2cc53f568c5a2bb6f192f930a45d44ea>@@AAV<lambda_ab61a845afdef5b7c387490eaf3616ee>@@$$QAV<lambda_c2ffc0b7726aa6be21d5f0026187e748>@@@Z 100313e0 f   libucrt:fflush.obj
 0001:0003048c       ?common_flush_all@@YAH_N@Z 1003148c f   libucrt:fflush.obj
 0001:000304d9       ?common_flush_all_should_try_to_flush_stream@@YA_NV__crt_stdio_stream@@QAH@Z 100314d9 f   libucrt:fflush.obj
 0001:0003050c       ?is_stream_flushable_or_commitable@@YA_NJ@Z 1003150c f   libucrt:fflush.obj
 0001:00030dfb       ?fe_to_nearest@@YA_NQBN_KF@Z 10031dfb f   libucrt:cvt.obj
 0001:00030e9e       ?fp_format_a@@YAHQBNPADIQADIH_NIQAU__crt_locale_pointers@@W4__acrt_rounding_mode@@@Z 10031e9e f   libucrt:cvt.obj
 0001:000311ad       ?fp_format_e@@YAHQBNQADI1IH_NIQAU__crt_locale_pointers@@W4__acrt_rounding_mode@@@Z 100321ad f   libucrt:cvt.obj
 0001:00031255       ?fp_format_e_internal@@YAHQADIH_NIQAU_strflt@@1QAU__crt_locale_pointers@@@Z 10032255 f   libucrt:cvt.obj
 0001:0003139d       ?fp_format_f@@YAHQBNQADI1IHQAU__crt_locale_pointers@@W4__acrt_rounding_mode@@@Z 1003239d f   libucrt:cvt.obj
 0001:0003142e       ?fp_format_f_internal@@YAHQADIHQAU_strflt@@_NQAU__crt_locale_pointers@@@Z 1003242e f   libucrt:cvt.obj
 0001:00031526       ?fp_format_g@@YAHQBNQADI1IH_NIW4__acrt_rounding_mode@@QAU__crt_locale_pointers@@@Z 10032526 f   libucrt:cvt.obj
 0001:000315f0       ?fp_format_nan_or_infinity@@YAHW4__acrt_fp_class@@_NPADI1@Z 100325f0 f   libucrt:cvt.obj
 0001:00031685       ?shift_bytes@@YAXQADI0H@Z  10032685 f   libucrt:cvt.obj
 0001:000316b9       ?should_round_up@@YA_NQBN_KFW4__acrt_rounding_mode@@@Z 100326b9 f   libucrt:cvt.obj
 0001:000318e4       ??$?RV<lambda_e5124f882df8998aaf41531e079ba474>@@AAV<lambda_3e16ef9562a7dcce91392c22ab16ea36>@@V<lambda_e25ca0880e6ef98be67edffd8c599615>@@@?$__crt_seh_guarded_call@X@@QAEX$$QAV<lambda_e5124f882df8998aaf41531e079ba474>@@AAV<lambda_3e16ef9562a7dcce91392c22ab16ea36>@@$$QAV<lambda_e25ca0880e6ef98be67edffd8c599615>@@@Z 100328e4 f   libucrt:wsetlocale.obj
 0001:00031a90       $$000000                   10032a90     libucrt:cos_impl.obj
 0001:00031b80       $$000000                   10032b80     libucrt:cos_pentium4.obj
 0001:00031d30       $$000000                   10032d30     libucrt:sin_impl.obj
 0001:00031e20       $$000000                   10032e20     libucrt:sin_pentium4.obj
 0001:0003287e       ??$common_tcsncpy_s@D@@YAHQADIQBDI@Z 1003387e f   libucrt:strncpy_s.obj
 0001:00032940       $$000000                   10033940     libucrt:strpbrk.obj
 0001:00032b47       ?__acrt_LCMapStringA_stat@@YAHPAU__crt_locale_pointers@@PB_WKPBDHPADHHH@Z 10033b47 f   libucrt:lcmapstringa.obj
 0001:00032d7a       ?initialize_multibyte@@YAHXZ 10033d7a f   libucrt:multibyte_initializer.obj
 0001:00032e25       ?GetTableIndexFromLocaleName@@YAHPB_W@Z 10033e25 f   libucrt:lcidtoname_downlevel.obj
 0001:00033130       ??$?RV<lambda_9e9de3de5fa147e2223d7db92bc10aa6>@@AAV<lambda_38ce7e780aa69e748d6df282ebc68efe>@@V<lambda_8ca6da459f0f6780f1cff60fdc3d00e5>@@@?$__crt_seh_guarded_call@H@@QAEH$$QAV<lambda_9e9de3de5fa147e2223d7db92bc10aa6>@@AAV<lambda_38ce7e780aa69e748d6df282ebc68efe>@@$$QAV<lambda_8ca6da459f0f6780f1cff60fdc3d00e5>@@@Z 10034130 f   libucrt:commit.obj
 0001:0003324f       ?write_double_translated_ansi_nolock@@YA?AUwrite_result@?A0x17268360@@HQBDI@Z 1003424f f   libucrt:write.obj
 0001:000335fb       ?write_double_translated_unicode_nolock@@YA?AUwrite_result@?A0x17268360@@QBDI@Z 100345fb f   libucrt:write.obj
 0001:00033663       ?write_requires_double_translation_nolock@@YA_NH@Z 10034663 f   libucrt:write.obj
 0001:000336d4       ?write_text_ansi_nolock@@YA?AUwrite_result@?A0x17268360@@HQBDI@Z 100346d4 f   libucrt:write.obj
 0001:000337af       ?write_text_utf16le_nolock@@YA?AUwrite_result@?A0x17268360@@HQBDI@Z 100347af f   libucrt:write.obj
 0001:00033898       ?write_text_utf8_nolock@@YA?AUwrite_result@?A0x17268360@@HQBDI@Z 10034898 f   libucrt:write.obj
 0001:00033e11       ??R<lambda_3d301b9e52f5099be73030e1f0bf487e>@@QBEIPBD@Z 10034e11 f   libucrt:mbrtowc.obj
 0001:00034042       ?should_round_up@@YA_NQBDHW4__acrt_has_trailing_digits@@W4__acrt_rounding_mode@@@Z 10035042 f   libucrt:_fptostr.obj
 0001:00035cb3       ?free_crt_array_internal@@YAXQAPBXI@Z 10036cb3 f   libucrt:inittime.obj
 0001:00035dd0       $$000000                   10036dd0     libucrt:87disp.obj
 0001:00036030       $$000000                   10037030     libucrt:common.obj
 0001:000361c0       $$000000                   100371c0     libucrt:genexcep.obj
 0001:00036284       ??$common_lseek_nolock@_J@@YA_JH_JH@Z 10037284 f   libucrt:lseek.obj
 0001:00036710       $$000000                   10037710     libucrt:log10_impl.obj
 0001:00036820       $$000000                   10037820     libucrt:ceil_pentium4.obj
 0001:0003693d       ?to_abstract_control@@YA?AW4__acrt_fenv_abstract_control@@W4__acrt_fenv_machine_sse_control@@@Z 1003793d f   libucrt:_fenvutils.obj
 0001:000369f9       ?to_abstract_control@@YA?AW4__acrt_fenv_abstract_control@@W4__acrt_fenv_machine_x87_control@@@Z 100379f9 f   libucrt:_fenvutils.obj
 0001:00036ab2       ?to_machine_sse_control@@YA?AW4__acrt_fenv_machine_sse_control@@W4__acrt_fenv_abstract_control@@@Z 10037ab2 f   libucrt:_fenvutils.obj
 0001:00036b7f       ?to_machine_x87_control@@YA?AW4__acrt_fenv_machine_x87_control@@W4__acrt_fenv_abstract_control@@@Z 10037b7f f   libucrt:_fenvutils.obj
 0001:00037020       $$000000                   10038020     libucrt:_strnicm.obj
 0001:00037081       ?__dcrt_lowio_initialize_console_output@@YAXXZ 10038081 f   libucrt:initcon.obj
 0001:0003712b       ??$?RV<lambda_218ce3db14220d0be481dae8ef3383b6>@@AAV<lambda_628dfdc04ba53c8bfc02c9951375f3f5>@@V<lambda_57dc472bd5c9d5f3b2cbca59b8a843ae>@@@?$__crt_seh_guarded_call@H@@QAEH$$QAV<lambda_218ce3db14220d0be481dae8ef3383b6>@@AAV<lambda_628dfdc04ba53c8bfc02c9951375f3f5>@@$$QAV<lambda_57dc472bd5c9d5f3b2cbca59b8a843ae>@@@Z 1003812b f   libucrt:close.obj
 0001:0003731b       ___hw_cw_sse2              1003831b f   libucrt:ieee87.obj
 0001:000377a1       __hw_cw                    100387a1 f   libucrt:ieee87.obj
 0001:00037840       $$000000                   10038840     libucrt:log10_pentium4.obj
 0001:00037ad0       $$000000                   10038ad0     libucrt:87tran.obj
 0001:000382f0       $$000000                   100392f0     LIBCMT:ulldvrm.obj
 0001:00038321       L1                         10039321     LIBCMT:ulldvrm.obj
 0001:0003832f       L3                         1003932f     LIBCMT:ulldvrm.obj
 0001:0003835d       L4                         1003935d     LIBCMT:ulldvrm.obj
 0001:00038366       L5                         10039366     LIBCMT:ulldvrm.obj
 0001:00038368       L2                         10039368     LIBCMT:ulldvrm.obj
 0001:00038390       $$000000                   10039390     LIBCMT:llmul.obj
 0001:000383a9       hard                       100393a9     LIBCMT:llmul.obj
 0001:000383d0       $$000000                   100393d0     LIBCMT:lldvrm.obj
 0001:000383f4       L1                         100393f4     LIBCMT:lldvrm.obj
 0001:00038410       L2                         10039410     LIBCMT:lldvrm.obj
 0001:0003843c       L3                         1003943c     LIBCMT:lldvrm.obj
 0001:0003844a       L5                         1003944a     LIBCMT:lldvrm.obj
 0001:00038478       L6                         10039478     LIBCMT:lldvrm.obj
 0001:00038481       L7                         10039481     LIBCMT:lldvrm.obj
 0001:00038483       L4                         10039483     LIBCMT:lldvrm.obj
 0001:00038495       L9                         10039495     LIBCMT:lldvrm.obj
 0001:000384a9       L8                         100394a9     LIBCMT:lldvrm.obj
 0001:000384b0       $$000000                   100394b0     LIBCMT:llshl.obj
 0001:000384c0       MORE32                     100394c0     LIBCMT:llshl.obj
 0001:000384ca       RETZERO                    100394ca     LIBCMT:llshl.obj
 0001:000384d0       $$000000                   100394d0     LIBCMT:ullshr.obj
 0001:000384e0       MORE32                     100394e0     LIBCMT:ullshr.obj
 0001:000384ea       RETZERO                    100394ea     LIBCMT:ullshr.obj
 0001:000384f0       $$000000                   100394f0     LIBCMT:ftol2.obj
 0001:00038500       $$000000                   10039500     LIBCMT:ftol2.obj
 0001:00038511       L3B                        10039511     LIBCMT:ftol2.obj
 0001:00038554       L3F                        10039554     LIBCMT:ftol2.obj
 0001:0003855c       L40                        1003955c     LIBCMT:ftol2.obj
 0001:0003856f       L41                        1003956f     LIBCMT:ftol2.obj
 0001:00038580       $$000000                   10039580     libvcruntime:strrchr.obj
 0001:000385bd       strrchr_sse_loop           100395bd     libvcruntime:strrchr.obj
 0001:000385ed       strrchr_sse_break          100395ed     libvcruntime:strrchr.obj
 0001:0003860d       strrchr_sttni              1003960d     libvcruntime:strrchr.obj
 0001:0003861f       strrchr_sttni_chars        1003961f     libvcruntime:strrchr.obj
 0001:00038634       strrchr_sttni_aligned      10039634     libvcruntime:strrchr.obj
 0001:00038638       strrchr_sttni_xmm          10039638     libvcruntime:strrchr.obj
 0001:0003864b       exit                       1003964b     libvcruntime:strrchr.obj
 0001:0003864e       strrchr_zero               1003964e     libvcruntime:strrchr.obj
 0001:00038673       strchr_zero_loop           10039673     libvcruntime:strrchr.obj
 0001:00038687       strchr_zero_result         10039687     libvcruntime:strrchr.obj
 0001:0003868e       strrchr_no_sse             1003968e     libvcruntime:strrchr.obj
 0001:000386b1       returndi                   100396b1     libvcruntime:strrchr.obj
 0001:000386b3       toend                      100396b3     libvcruntime:strrchr.obj
 0001:0003872f       __unwindfunclet$?getDecoratedName@UnDecorator@@CA?AVDName@@XZ$0 1003972f f   libvcruntime:undname.obj
 0001:0003873c       __ehhandler$?getDecoratedName@UnDecorator@@CA?AVDName@@XZ 1003973c f   libvcruntime:undname.obj
 0001:00038759       __ehhandler$?CallUnexpected@@YAXPBU_s_ESTypeList@@@Z 10039759 f   libvcruntime:frame.obj
 0002:00000128       ?minFError$initializer$@_VecMathTests@aos@shdfnd@physx@@3P6AXXZA 1003a128     Cooking.obj
 0002:0000012c       ?maxFError$initializer$@_VecMathTests@aos@shdfnd@physx@@3P6AXXZA 1003a12c     Cooking.obj
 0002:00000130       ?minV3Error$initializer$@_VecMathTests@aos@shdfnd@physx@@3P6AXXZA 1003a130     Cooking.obj
 0002:00000134       ?maxV3Error$initializer$@_VecMathTests@aos@shdfnd@physx@@3P6AXXZA 1003a134     Cooking.obj
 0002:00000138       ?minV4Error$initializer$@_VecMathTests@aos@shdfnd@physx@@3P6AXXZA 1003a138     Cooking.obj
 0002:0000013c       ?maxV4Error$initializer$@_VecMathTests@aos@shdfnd@physx@@3P6AXXZA 1003a13c     Cooking.obj
 0002:00000140       ?minFError$initializer$@_VecMathTests@aos@shdfnd@physx@@3P6AXXZA 1003a140     BVHStructureBuilder.obj
 0002:00000144       ?maxFError$initializer$@_VecMathTests@aos@shdfnd@physx@@3P6AXXZA 1003a144     BVHStructureBuilder.obj
 0002:00000148       ?minV3Error$initializer$@_VecMathTests@aos@shdfnd@physx@@3P6AXXZA 1003a148     BVHStructureBuilder.obj
 0002:0000014c       ?maxV3Error$initializer$@_VecMathTests@aos@shdfnd@physx@@3P6AXXZA 1003a14c     BVHStructureBuilder.obj
 0002:00000150       ?minV4Error$initializer$@_VecMathTests@aos@shdfnd@physx@@3P6AXXZA 1003a150     BVHStructureBuilder.obj
 0002:00000154       ?maxV4Error$initializer$@_VecMathTests@aos@shdfnd@physx@@3P6AXXZA 1003a154     BVHStructureBuilder.obj
 0002:00000158       ?minFError$initializer$@_VecMathTests@aos@shdfnd@physx@@3P6AXXZA 1003a158     RTreeCooking.obj
 0002:0000015c       ?maxFError$initializer$@_VecMathTests@aos@shdfnd@physx@@3P6AXXZA 1003a15c     RTreeCooking.obj
 0002:00000160       ?minV3Error$initializer$@_VecMathTests@aos@shdfnd@physx@@3P6AXXZA 1003a160     RTreeCooking.obj
 0002:00000164       ?maxV3Error$initializer$@_VecMathTests@aos@shdfnd@physx@@3P6AXXZA 1003a164     RTreeCooking.obj
 0002:00000168       ?minV4Error$initializer$@_VecMathTests@aos@shdfnd@physx@@3P6AXXZA 1003a168     RTreeCooking.obj
 0002:0000016c       ?maxV4Error$initializer$@_VecMathTests@aos@shdfnd@physx@@3P6AXXZA 1003a16c     RTreeCooking.obj
 0002:00000170       ?minFError$initializer$@_VecMathTests@aos@shdfnd@physx@@3P6AXXZA 1003a170     MeshBuilder.obj
 0002:00000174       ?maxFError$initializer$@_VecMathTests@aos@shdfnd@physx@@3P6AXXZA 1003a174     MeshBuilder.obj
 0002:00000178       ?minV3Error$initializer$@_VecMathTests@aos@shdfnd@physx@@3P6AXXZA 1003a178     MeshBuilder.obj
 0002:0000017c       ?maxV3Error$initializer$@_VecMathTests@aos@shdfnd@physx@@3P6AXXZA 1003a17c     MeshBuilder.obj
 0002:00000180       ?minV4Error$initializer$@_VecMathTests@aos@shdfnd@physx@@3P6AXXZA 1003a180     MeshBuilder.obj
 0002:00000184       ?maxV4Error$initializer$@_VecMathTests@aos@shdfnd@physx@@3P6AXXZA 1003a184     MeshBuilder.obj
 0002:00000188       ?minFError$initializer$@_VecMathTests@aos@shdfnd@physx@@3P6AXXZA 1003a188     TriangleMeshBuilder.obj
 0002:0000018c       ?maxFError$initializer$@_VecMathTests@aos@shdfnd@physx@@3P6AXXZA 1003a18c     TriangleMeshBuilder.obj
 0002:00000190       ?minV3Error$initializer$@_VecMathTests@aos@shdfnd@physx@@3P6AXXZA 1003a190     TriangleMeshBuilder.obj
 0002:00000194       ?maxV3Error$initializer$@_VecMathTests@aos@shdfnd@physx@@3P6AXXZA 1003a194     TriangleMeshBuilder.obj
 0002:00000198       ?minV4Error$initializer$@_VecMathTests@aos@shdfnd@physx@@3P6AXXZA 1003a198     TriangleMeshBuilder.obj
 0002:0000019c       ?maxV4Error$initializer$@_VecMathTests@aos@shdfnd@physx@@3P6AXXZA 1003a19c     TriangleMeshBuilder.obj
 0002:000001a0       ?minFError$initializer$@_VecMathTests@aos@shdfnd@physx@@3P6AXXZA 1003a1a0     BigConvexDataBuilder.obj
 0002:000001a4       ?maxFError$initializer$@_VecMathTests@aos@shdfnd@physx@@3P6AXXZA 1003a1a4     BigConvexDataBuilder.obj
 0002:000001a8       ?minV3Error$initializer$@_VecMathTests@aos@shdfnd@physx@@3P6AXXZA 1003a1a8     BigConvexDataBuilder.obj
 0002:000001ac       ?maxV3Error$initializer$@_VecMathTests@aos@shdfnd@physx@@3P6AXXZA 1003a1ac     BigConvexDataBuilder.obj
 0002:000001b0       ?minV4Error$initializer$@_VecMathTests@aos@shdfnd@physx@@3P6AXXZA 1003a1b0     BigConvexDataBuilder.obj
 0002:000001b4       ?maxV4Error$initializer$@_VecMathTests@aos@shdfnd@physx@@3P6AXXZA 1003a1b4     BigConvexDataBuilder.obj
 0002:000001b8       ?minFError$initializer$@_VecMathTests@aos@shdfnd@physx@@3P6AXXZA 1003a1b8     ConvexHullBuilder.obj
 0002:000001bc       ?maxFError$initializer$@_VecMathTests@aos@shdfnd@physx@@3P6AXXZA 1003a1bc     ConvexHullBuilder.obj
 0002:000001c0       ?minV3Error$initializer$@_VecMathTests@aos@shdfnd@physx@@3P6AXXZA 1003a1c0     ConvexHullBuilder.obj
 0002:000001c4       ?maxV3Error$initializer$@_VecMathTests@aos@shdfnd@physx@@3P6AXXZA 1003a1c4     ConvexHullBuilder.obj
 0002:000001c8       ?minV4Error$initializer$@_VecMathTests@aos@shdfnd@physx@@3P6AXXZA 1003a1c8     ConvexHullBuilder.obj
 0002:000001cc       ?maxV4Error$initializer$@_VecMathTests@aos@shdfnd@physx@@3P6AXXZA 1003a1cc     ConvexHullBuilder.obj
 0002:000001d0       ?minFError$initializer$@_VecMathTests@aos@shdfnd@physx@@3P6AXXZA 1003a1d0     ConvexHullUtils.obj
 0002:000001d4       ?maxFError$initializer$@_VecMathTests@aos@shdfnd@physx@@3P6AXXZA 1003a1d4     ConvexHullUtils.obj
 0002:000001d8       ?minV3Error$initializer$@_VecMathTests@aos@shdfnd@physx@@3P6AXXZA 1003a1d8     ConvexHullUtils.obj
 0002:000001dc       ?maxV3Error$initializer$@_VecMathTests@aos@shdfnd@physx@@3P6AXXZA 1003a1dc     ConvexHullUtils.obj
 0002:000001e0       ?minV4Error$initializer$@_VecMathTests@aos@shdfnd@physx@@3P6AXXZA 1003a1e0     ConvexHullUtils.obj
 0002:000001e4       ?maxV4Error$initializer$@_VecMathTests@aos@shdfnd@physx@@3P6AXXZA 1003a1e4     ConvexHullUtils.obj
 0002:000001e8       ?minFError$initializer$@_VecMathTests@aos@shdfnd@physx@@3P6AXXZA 1003a1e8     ConvexMeshBuilder.obj
 0002:000001ec       ?maxFError$initializer$@_VecMathTests@aos@shdfnd@physx@@3P6AXXZA 1003a1ec     ConvexMeshBuilder.obj
 0002:000001f0       ?minV3Error$initializer$@_VecMathTests@aos@shdfnd@physx@@3P6AXXZA 1003a1f0     ConvexMeshBuilder.obj
 0002:000001f4       ?maxV3Error$initializer$@_VecMathTests@aos@shdfnd@physx@@3P6AXXZA 1003a1f4     ConvexMeshBuilder.obj
 0002:000001f8       ?minV4Error$initializer$@_VecMathTests@aos@shdfnd@physx@@3P6AXXZA 1003a1f8     ConvexMeshBuilder.obj
 0002:000001fc       ?maxV4Error$initializer$@_VecMathTests@aos@shdfnd@physx@@3P6AXXZA 1003a1fc     ConvexMeshBuilder.obj
 0002:00000200       ?minFError$initializer$@_VecMathTests@aos@shdfnd@physx@@3P6AXXZA 1003a200     VolumeIntegration.obj
 0002:00000204       ?maxFError$initializer$@_VecMathTests@aos@shdfnd@physx@@3P6AXXZA 1003a204     VolumeIntegration.obj
 0002:00000208       ?minV3Error$initializer$@_VecMathTests@aos@shdfnd@physx@@3P6AXXZA 1003a208     VolumeIntegration.obj
 0002:0000020c       ?maxV3Error$initializer$@_VecMathTests@aos@shdfnd@physx@@3P6AXXZA 1003a20c     VolumeIntegration.obj
 0002:00000210       ?minV4Error$initializer$@_VecMathTests@aos@shdfnd@physx@@3P6AXXZA 1003a210     VolumeIntegration.obj
 0002:00000214       ?maxV4Error$initializer$@_VecMathTests@aos@shdfnd@physx@@3P6AXXZA 1003a214     VolumeIntegration.obj
 0002:00000360       ?minus1w@?A0x5f450188@aos@shdfnd@physx@@3QBMB 1003a360     Cooking.obj
 0002:00000370       ?gMaskXYZ@internalWindowsSimd@aos@shdfnd@physx@@3QBIB 1003a370     Cooking.obj
 0002:00000a40       ?minus1w@?A0x42c7a10d@aos@shdfnd@physx@@3QBMB 1003aa40     BVHStructureBuilder.obj
 0002:00000a50       ?gMaskXYZ@internalWindowsSimd@aos@shdfnd@physx@@3QBIB 1003aa50     BVHStructureBuilder.obj
 0002:00000ad0       ?minus1w@?A0xe754f739@aos@shdfnd@physx@@3QBMB 1003aad0     RTreeCooking.obj
 0002:00000ae0       ?gMaskXYZ@internalWindowsSimd@aos@shdfnd@physx@@3QBIB 1003aae0     RTreeCooking.obj
 0002:00000b20       ?stopAtTrisPerPage@physx@@3QBIB 1003ab20     RTreeCooking.obj
 0002:00000b5c       ?stopAtTrisPerLeaf@physx@@3QBIB 1003ab5c     RTreeCooking.obj
 0002:00000ce0       ?minus1w@?A0xbd896575@aos@shdfnd@physx@@3QBMB 1003ace0     MeshBuilder.obj
 0002:00000cf0       ?gMaskXYZ@internalWindowsSimd@aos@shdfnd@physx@@3QBIB 1003acf0     MeshBuilder.obj
 0002:00000d10       ?minus1w@?A0x3375a7c0@aos@shdfnd@physx@@3QBMB 1003ad10     TriangleMeshBuilder.obj
 0002:00000d20       ?gMaskXYZ@internalWindowsSimd@aos@shdfnd@physx@@3QBIB 1003ad20     TriangleMeshBuilder.obj
 0002:00001080       ?minus1w@?A0x48f60464@aos@shdfnd@physx@@3QBMB 1003b080     BigConvexDataBuilder.obj
 0002:00001090       ?gMaskXYZ@internalWindowsSimd@aos@shdfnd@physx@@3QBIB 1003b090     BigConvexDataBuilder.obj
 0002:00001110       ?minus1w@?A0xd782291c@aos@shdfnd@physx@@3QBMB 1003b110     ConvexHullBuilder.obj
 0002:00001120       ?gMaskXYZ@internalWindowsSimd@aos@shdfnd@physx@@3QBIB 1003b120     ConvexHullBuilder.obj
 0002:00001590       ?minus1w@?A0xc2f8c8eb@aos@shdfnd@physx@@3QBMB 1003b590     ConvexHullUtils.obj
 0002:000015a0       ?gMaskXYZ@internalWindowsSimd@aos@shdfnd@physx@@3QBIB 1003b5a0     ConvexHullUtils.obj
 0002:00001630       ?minus1w@?A0x19268949@aos@shdfnd@physx@@3QBMB 1003b630     ConvexMeshBuilder.obj
 0002:00001640       ?gMaskXYZ@internalWindowsSimd@aos@shdfnd@physx@@3QBIB 1003b640     ConvexMeshBuilder.obj
 0002:00001ba0       ?minus1w@?A0x566c3a38@aos@shdfnd@physx@@3QBMB 1003bba0     VolumeIntegration.obj
 0002:00001bb0       ?gMaskXYZ@internalWindowsSimd@aos@shdfnd@physx@@3QBIB 1003bbb0     VolumeIntegration.obj
 0002:00001ce0       _NaN                       1003bce0     LIBCMT:ftol3.obj
 0002:00001ce4       _onept5                    1003bce4     LIBCMT:ftol3.obj
 0002:00001ce8       _DP2to32                   1003bce8     LIBCMT:ftol3.obj
 0002:00001ce8       _Int32ToUInt32             1003bce8     LIBCMT:ftol3.obj
 0002:00001d00       L_abs_mask                 1003bd00     LIBCMT:svml_ssinf4_dispatch.obj
 0002:00001d10       L_real_one                 1003bd10     LIBCMT:svml_ssinf4_dispatch.obj
 0002:00001d20       L_one_half                 1003bd20     LIBCMT:svml_ssinf4_dispatch.obj
 0002:00001d30       L_two_to_neg_13            1003bd30     LIBCMT:svml_ssinf4_dispatch.obj
 0002:00001d40       L_pi_over_two              1003bd40     LIBCMT:svml_ssinf4_dispatch.obj
 0002:00001d50       L_pi_over_two2             1003bd50     LIBCMT:svml_ssinf4_dispatch.obj
 0002:00001e24       _GS_ExceptionPointers      1003be24     LIBCMT:gs_report.obj
 0002:00001e30       ?tokenTable@@3QBUStringLiteral@@B 1003be30     libvcruntime:undname.obj
 0002:00001eb0       ?nameTable@@3QBUStringLiteral@@B 1003beb0     libvcruntime:undname.obj
 0002:00002148       ?rttiTable@@3QBUStringLiteral@@B 1003c148     libvcruntime:undname.obj
 0002:00002170       ?IndirectionName@@3QBUStringLiteral@@B 1003c170     libvcruntime:undname.obj
 0002:000021a0       ?PrefixName@@3QBUStringLiteral@@B 1003c1a0     libvcruntime:undname.obj
 0002:00002c60       ?result@?1??IsValidIdentChar@@YA_ND@Z@4U<unnamed-type-result>@?1??InitValidIdentChar@@YA@XZ@B 1003cc60     libvcruntime:undname.obj
 0002:00002d98       ?module_names@?A0x87e98a64@@3QBQB_WB 1003cd98     libvcruntime:winapi_downlevel.obj
 0002:00002e40       ?candidate_modules@?1??try_get_FlsAlloc@@YAP6GKP6GXPAX@Z@ZXZ@4QBW4module_id@?A0x87e98a64@@B 1003ce40     libvcruntime:winapi_downlevel.obj
 0002:00002e54       ?candidate_modules@?1??try_get_FlsFree@@YAP6GHK@ZXZ@4QBW4module_id@?A0x87e98a64@@B 1003ce54     libvcruntime:winapi_downlevel.obj
 0002:00002e64       ?candidate_modules@?1??try_get_FlsGetValue@@YAP6GPAXK@ZXZ@4QBW4module_id@?A0x87e98a64@@B 1003ce64     libvcruntime:winapi_downlevel.obj
 0002:00002e78       ?candidate_modules@?1??try_get_FlsSetValue@@YAP6GHKPAX@ZXZ@4QBW4module_id@?A0x87e98a64@@B 1003ce78     libvcruntime:winapi_downlevel.obj
 0002:00002e8c       ?candidate_modules@?1??try_get_InitializeCriticalSectionEx@@YAP6GHPAU_RTL_CRITICAL_SECTION@@KK@ZXZ@4QBW4module_id@?A0x87e98a64@@B 1003ce8c     libvcruntime:winapi_downlevel.obj
 0002:00002ef0       ?_names@?1??_get_fname@@9@9 1003cef0     libucrt:fpexcept.obj
 0002:00003168       ___acrt_initializers       1003d168     libucrt:initialization.obj
 0002:00003618       _over                      1003d618     libucrt:fpctrl.obj
 0002:00003624       _under                     1003d624     libucrt:fpctrl.obj
 0002:00003630       ?errtable@@3QBUerrentry@?A0x31fdb9ec@@B 1003d630     libucrt:errno.obj
 0002:00003798       ?_mb_locale_names@@3QBQB_WB 1003d798     libucrt:mbctype.obj
 0002:000037d8       ?module_names@?A0x391cf84c@@3QBQB_WB 1003d7d8     libucrt:winapi_thunks.obj
 0002:00003c50       ?candidate_modules@?1??try_get_AreFileApisANSI@@YAP6GHXZXZ@4QBW4module_id@?A0x391cf84c@@B 1003dc50     libucrt:winapi_thunks.obj
 0002:00003c64       ?candidate_modules@?1??try_get_FlsAlloc@@YAP6GKP6GXPAX@Z@ZXZ@4QBW4module_id@?A0x391cf84c@@B 1003dc64     libucrt:winapi_thunks.obj
 0002:00003c6c       ?candidate_modules@?1??try_get_FlsFree@@YAP6GHK@ZXZ@4QBW4module_id@?A0x391cf84c@@B 1003dc6c     libucrt:winapi_thunks.obj
 0002:00003c74       ?candidate_modules@?1??try_get_FlsGetValue@@YAP6GPAXK@ZXZ@4QBW4module_id@?A0x391cf84c@@B 1003dc74     libucrt:winapi_thunks.obj
 0002:00003c7c       ?candidate_modules@?1??try_get_FlsSetValue@@YAP6GHKPAX@ZXZ@4QBW4module_id@?A0x391cf84c@@B 1003dc7c     libucrt:winapi_thunks.obj
 0002:00003c84       ?candidate_modules@?1??try_get_InitializeCriticalSectionEx@@YAP6GHPAU_RTL_CRITICAL_SECTION@@KK@ZXZ@4QBW4module_id@?A0x391cf84c@@B 1003dc84     libucrt:winapi_thunks.obj
 0002:00003c8c       ?candidate_modules@?1??try_get_LCMapStringEx@@YAP6GHPB_WK0HPA_WHPAU_nlsversioninfo@@PAXJ@ZXZ@4QBW4module_id@?A0x391cf84c@@B 1003dc8c     libucrt:winapi_thunks.obj
 0002:00003ca4       ?candidate_modules@?1??try_get_LocaleNameToLCID@@YAP6GKPB_WK@ZXZ@4QBW4module_id@?A0x391cf84c@@B 1003dca4     libucrt:winapi_thunks.obj
 0002:00003cc0       ?candidate_modules@?1??try_get_AppPolicyGetProcessTerminationMethod@@YAP6GJPAXPAW4AppPolicyProcessTerminationMethod@@@ZXZ@4QBW4module_id@?A0x391cf84c@@B 1003dcc0     libucrt:winapi_thunks.obj
 0002:000041b0       ?strings@?1??fp_format_nan_or_infinity@@YAHW4__acrt_fp_class@@_NPADI1@Z@4QAY03QBDA 1003e1b0     libucrt:cvt.obj
 0002:00004840       _NAME_                     1003e840     libucrt:cos_impl.obj
 0002:00004850       SC_1                       1003e850     libucrt:cos_pentium4.obj
 0002:00004860       SC_2                       1003e860     libucrt:cos_pentium4.obj
 0002:00004870       SC_3                       1003e870     libucrt:cos_pentium4.obj
 0002:00004880       SC_4                       1003e880     libucrt:cos_pentium4.obj
 0002:00004890       PI32INV                    1003e890     libucrt:cos_pentium4.obj
 0002:00004898       SHIFTER                    1003e898     libucrt:cos_pentium4.obj
 0002:000048a0       P_2                        1003e8a0     libucrt:cos_pentium4.obj
 0002:000048b0       P_1                        1003e8b0     libucrt:cos_pentium4.obj
 0002:000048b8       P_3                        1003e8b8     libucrt:cos_pentium4.obj
 0002:000048c0       TWO_POW_55                 1003e8c0     libucrt:cos_pentium4.obj
 0002:000048c8       TWO_POW_M55                1003e8c8     libucrt:cos_pentium4.obj
 0002:000048d0       ALL_ONES                   1003e8d0     libucrt:cos_pentium4.obj
 0002:000048d8       NEG_ZERO                   1003e8d8     libucrt:cos_pentium4.obj
 0002:000048e0       ONE                        1003e8e0     libucrt:cos_pentium4.obj
 0002:000048f0       SIGN_MASK                  1003e8f0     libucrt:cos_pentium4.obj
 0002:00004900       _NAME_                     1003e900     libucrt:sin_impl.obj
 0002:00004910       SC_1                       1003e910     libucrt:sin_pentium4.obj
 0002:00004920       SC_2                       1003e920     libucrt:sin_pentium4.obj
 0002:00004930       SC_3                       1003e930     libucrt:sin_pentium4.obj
 0002:00004940       SC_4                       1003e940     libucrt:sin_pentium4.obj
 0002:00004950       PI32INV                    1003e950     libucrt:sin_pentium4.obj
 0002:00004958       SHIFTER                    1003e958     libucrt:sin_pentium4.obj
 0002:00004960       P_2                        1003e960     libucrt:sin_pentium4.obj
 0002:00004970       P_1                        1003e970     libucrt:sin_pentium4.obj
 0002:00004978       P_3                        1003e978     libucrt:sin_pentium4.obj
 0002:00004980       TWO_POW_55                 1003e980     libucrt:sin_pentium4.obj
 0002:00004988       TWO_POW_M55                1003e988     libucrt:sin_pentium4.obj
 0002:00004990       ALL_ONES                   1003e990     libucrt:sin_pentium4.obj
 0002:00004998       NEG_ZERO                   1003e998     libucrt:sin_pentium4.obj
 0002:000049a0       ONE                        1003e9a0     libucrt:sin_pentium4.obj
 0002:000049b0       ?LcidToLocaleNameTable@?A0x881e4c05@@3QBULcidToLocaleName@1@B 1003e9b0     libucrt:lcidtoname_downlevel.obj
 0002:00005ad8       ?LocaleNameToIndexTable@?A0x881e4c05@@3QBULocaleNameIndex@1@B 1003fad8     libucrt:lcidtoname_downlevel.obj
 0002:0000742e       One                        1004142e     libucrt:87disp.obj
 0002:00007436       Three                      10041436     libucrt:87disp.obj
 0002:0000743e       XAMtoTagTab                1004143e     libucrt:87disp.obj
 0002:00007450       One                        10041450     libucrt:common.obj
 0002:00007464       DblMax                     10041464     libucrt:common.obj
 0002:0000746c       DblMin                     1004146c     libucrt:common.obj
 0002:00007474       IeeeAdjO                   10041474     libucrt:common.obj
 0002:0000747c       IeeeAdjU                   1004147c     libucrt:common.obj
 0002:00007484       _infinity                  10041484     libucrt:common.obj
 0002:0000748c       _zero                      1004148c     libucrt:common.obj
 0002:00007ca0       LOG_name                   10041ca0     libucrt:log10_impl.obj
 0002:00007cb0       _One                       10041cb0     libucrt:ceil_pentium4.obj
 0002:00007cc0       _Bns                       10041cc0     libucrt:ceil_pentium4.obj
 0002:00007cd0       _Zero                      10041cd0     libucrt:ceil_pentium4.obj
 0002:00007ce0       _S                         10041ce0     libucrt:ceil_pentium4.obj
 0002:00007cf0       _NegZero                   10041cf0     libucrt:ceil_pentium4.obj
 0002:00007d10       emask                      10041d10     libucrt:log10_pentium4.obj
 0002:00007d20       CC                         10041d20     libucrt:log10_pentium4.obj
 0002:00007d30       Magic                      10041d30     libucrt:log10_pentium4.obj
 0002:00007d40       hi_mask                    10041d40     libucrt:log10_pentium4.obj
 0002:00007d50       LOG10_2                    10041d50     libucrt:log10_pentium4.obj
 0002:00007d60       place_L                    10041d60     libucrt:log10_pentium4.obj
 0002:00007d80       One                        10041d80     libucrt:log10_pentium4.obj
 0002:00007d90       Zero                       10041d90     libucrt:log10_pentium4.obj
 0002:00007da0       Two52                      10041da0     libucrt:log10_pentium4.obj
 0002:00007db0       Infs                       10041db0     libucrt:log10_pentium4.obj
 0002:00007dc0       NaN                        10041dc0     libucrt:log10_pentium4.obj
 0002:00007dd0       coeff                      10041dd0     libucrt:log10_pentium4.obj
 0002:00007e2e       _log2max                   10041e2e     libucrt:87tran.obj
 0002:00007e38       _smallarg                  10041e38     libucrt:87tran.obj
 0002:00007e42       _half                      10041e42     libucrt:87tran.obj
 0002:00008690       two32                      10042690     LIBCMT:ftol2.obj
 0002:00008694       two63                      10042694     LIBCMT:ftol2.obj
 0002:00008698       _NaN                       10042698     LIBCMT:ftol2.obj
 0002:00008de0       __sehtable$?dllmain_crt_process_attach@@YAHQAUHINSTANCE__@@QAX@Z 10042de0     LIBCMT:dll_dllmain.obj
 0002:00008e00       __sehtable$?dllmain_crt_process_detach@@YAH_N@Z 10042e00     LIBCMT:dll_dllmain.obj
 0002:00008e28       __sehtable$?dllmain_dispatch@@YAHQAUHINSTANCE__@@KQAX@Z 10042e28     LIBCMT:dll_dllmain.obj
 0002:00008e48       __sehtable$___scrt_is_nonwritable_in_current_image 10042e48     LIBCMT:utility.obj
 0002:00008e68       __sehtable$___DestructExceptionObject 10042e68     libvcruntime:ehhelpers.obj
 0002:00008e88       __sehtable$___unDNameEx    10042e88     libvcruntime:undname.obj
 0002:00008ea4       __unwindtable$?getDecoratedName@UnDecorator@@CA?AVDName@@XZ 10042ea4     libvcruntime:undname.obj
 0002:00008eac       __ehfuncinfo$?getDecoratedName@UnDecorator@@CA?AVDName@@XZ 10042eac     libvcruntime:undname.obj
 0002:00008ed0       __sehtable$?FrameUnwindToState@__FrameHandler3@@SAXPAUEHRegistrationNode@@PAXPBU_s_FuncInfo@@H@Z 10042ed0     libvcruntime:frame.obj
 0002:00008ef8       __sehtable$?CallCatchBlock@@YAPAXPAUEHExceptionRecord@@PAUEHRegistrationNode@@PAU_CONTEXT@@PBU_s_FuncInfo@@PAXHK@Z 10042ef8     libvcruntime:frame.obj
 0002:00008f20       __catchsym$?CallUnexpected@@YAXPBU_s_ESTypeList@@@Z$2 10042f20     libvcruntime:frame.obj
 0002:00008f30       __unwindtable$?CallUnexpected@@YAXPBU_s_ESTypeList@@@Z 10042f30     libvcruntime:frame.obj
 0002:00008f40       __tryblocktable$?CallUnexpected@@YAXPBU_s_ESTypeList@@@Z 10042f40     libvcruntime:frame.obj
 0002:00008f54       __ehfuncinfo$?CallUnexpected@@YAXPBU_s_ESTypeList@@@Z 10042f54     libvcruntime:frame.obj
 0002:00008f78       __sehtable$??$BuildCatchObjectHelperInternal@V__FrameHandler3@@@@YAHPAUEHExceptionRecord@@PAXPBU_s_HandlerType@@PBU_s_CatchableType@@@Z 10042f78     libvcruntime:frame.obj
 0002:00008f98       __sehtable$??$BuildCatchObjectInternal@V__FrameHandler3@@@@YAXPAUEHExceptionRecord@@PAXPBU_s_HandlerType@@PBU_s_CatchableType@@@Z 10042f98     libvcruntime:frame.obj
 0002:00009008       __sehtable$??R<lambda_6e4b09c48022b2350581041d5f6b0c4c>@@QBE@XZ 10043008     libucrt:exit.obj
 0002:00009028       __sehtable$??$?RV<lambda_03b1d95aef87969028cfba75ccab2455>@@AAV<lambda_6e4b09c48022b2350581041d5f6b0c4c>@@V<lambda_22bdf7517842c4b3e53723af5aa32b9e>@@@?$__crt_seh_guarded_call@X@@QAEX$$QAV<lambda_03b1d95aef87969028cfba75ccab2455>@@AAV<lambda_6e4b09c48022b2350581041d5f6b0c4c>@@$$QAV<lambda_22bdf7517842c4b3e53723af5aa32b9e>@@@Z 10043028     libucrt:exit.obj
 0002:00009048       __sehtable$??$?RV<lambda_69a2805e680e0e292e8ba93315fe43a8>@@AAV<lambda_f03950bc5685219e0bcd2087efbe011e>@@V<lambda_03fcd07e894ec930e3f35da366ca99d6>@@@?$__crt_seh_guarded_call@H@@QAEH$$QAV<lambda_69a2805e680e0e292e8ba93315fe43a8>@@AAV<lambda_f03950bc5685219e0bcd2087efbe011e>@@$$QAV<lambda_03fcd07e894ec930e3f35da366ca99d6>@@@Z 10043048     libucrt:onexit.obj
 0002:00009068       __sehtable$_terminate      10043068     libucrt:terminate.obj
 0002:00009088       __sehtable$___set_fpsr_sse2 10043088     libucrt:fpctrl.obj
 0002:000090a8       __sehtable$??$?RV<lambda_15ade71b0218206bbe3333a0c9b79046>@@AAV<lambda_da44e0f8b0f19ba52fefafb335991732>@@V<lambda_207f2d024fc103971653565357d6cd41>@@@?$__crt_seh_guarded_call@X@@QAEX$$QAV<lambda_15ade71b0218206bbe3333a0c9b79046>@@AAV<lambda_da44e0f8b0f19ba52fefafb335991732>@@$$QAV<lambda_207f2d024fc103971653565357d6cd41>@@@Z 100430a8     libucrt:per_thread_data.obj
 0002:000090c8       __sehtable$??$?RV<lambda_a7e850c220f1c8d1e6efeecdedd162c6>@@AAV<lambda_46720907175c18b6c9d2717bc0d2d362>@@V<lambda_9048902d66e8d99359bc9897bbb930a8>@@@?$__crt_seh_guarded_call@X@@QAEX$$QAV<lambda_a7e850c220f1c8d1e6efeecdedd162c6>@@AAV<lambda_46720907175c18b6c9d2717bc0d2d362>@@$$QAV<lambda_9048902d66e8d99359bc9897bbb930a8>@@@Z 100430c8     libucrt:per_thread_data.obj
 0002:000090e8       __sehtable$??$?RV<lambda_38edbb1296d33220d7e4dd0ed76b244a>@@AAV<lambda_5ce1d447e08cb34b2473517608e21441>@@V<lambda_fb385d3da700c9147fc39e65dd577a8c>@@@?$__crt_seh_guarded_call@X@@QAEX$$QAV<lambda_38edbb1296d33220d7e4dd0ed76b244a>@@AAV<lambda_5ce1d447e08cb34b2473517608e21441>@@$$QAV<lambda_fb385d3da700c9147fc39e65dd577a8c>@@@Z 100430e8     libucrt:per_thread_data.obj
 0002:00009108       __sehtable$??$?RV<lambda_6affb1475c98b40b75cdec977db92e3c>@@AAV<lambda_b8d4b9c228a6ecc3f80208dbb4b4a104>@@V<lambda_608742c3c92a14382c1684fc64f96c88>@@@?$__crt_seh_guarded_call@X@@QAEX$$QAV<lambda_6affb1475c98b40b75cdec977db92e3c>@@AAV<lambda_b8d4b9c228a6ecc3f80208dbb4b4a104>@@$$QAV<lambda_608742c3c92a14382c1684fc64f96c88>@@@Z 10043108     libucrt:per_thread_data.obj
 0002:00009128       __sehtable$?update_thread_multibyte_data_internal@@YAPAU__crt_multibyte_data@@QAU__acrt_ptd@@QAPAU1@@Z 10043128     libucrt:mbctype.obj
 0002:00009148       __sehtable$??$?RV<lambda_ceb1ee4838e85a9d631eb091e2fbe199>@@AAV<lambda_ae742caa10f662c28703da3d2ea5e57e>@@V<lambda_cd08b5d6af4937fe54fc07d0c9bf6b37>@@@?$__crt_seh_guarded_call@X@@QAEX$$QAV<lambda_ceb1ee4838e85a9d631eb091e2fbe199>@@AAV<lambda_ae742caa10f662c28703da3d2ea5e57e>@@$$QAV<lambda_cd08b5d6af4937fe54fc07d0c9bf6b37>@@@Z 10043148     libucrt:mbctype.obj
 0002:00009168       __sehtable$___acrt_initialize_lowio 10043168     libucrt:ioinit.obj
 0002:00009188       __sehtable$__query_new_handler 10043188     libucrt:new_handler.obj
 0002:000091a8       __sehtable$_raise          100431a8     libucrt:signal.obj
 0002:000091c8       __sehtable$??$?RV<lambda_cbab9ec6f41b0180b23cc171c22676b0>@@AAV<lambda_44731a7d0e6d81c3e6aa82d741081786>@@V<lambda_4b292cb8dd18144e164572427af410ab>@@@?$__crt_seh_guarded_call@P6AXH@Z@@QAEP6AXH@Z$$QAV<lambda_cbab9ec6f41b0180b23cc171c22676b0>@@AAV<lambda_44731a7d0e6d81c3e6aa82d741081786>@@$$QAV<lambda_4b292cb8dd18144e164572427af410ab>@@@Z 100431c8     libucrt:signal.obj
 0002:000091e8       __sehtable$??$?RV<lambda_2866be3712abc81a800a822484c830d8>@@AAV<lambda_39ca0ed439415581b5b15c265174cece>@@V<lambda_2b24c74d71094a6cd0cb82e44167d71b>@@@?$__crt_seh_guarded_call@X@@QAEX$$QAV<lambda_2866be3712abc81a800a822484c830d8>@@AAV<lambda_39ca0ed439415581b5b15c265174cece>@@$$QAV<lambda_2b24c74d71094a6cd0cb82e44167d71b>@@@Z 100431e8     libucrt:fflush.obj
 0002:00009208       __sehtable$??$?RV<lambda_2cc53f568c5a2bb6f192f930a45d44ea>@@AAV<lambda_ab61a845afdef5b7c387490eaf3616ee>@@V<lambda_c2ffc0b7726aa6be21d5f0026187e748>@@@?$__crt_seh_guarded_call@X@@QAEX$$QAV<lambda_2cc53f568c5a2bb6f192f930a45d44ea>@@AAV<lambda_ab61a845afdef5b7c387490eaf3616ee>@@$$QAV<lambda_c2ffc0b7726aa6be21d5f0026187e748>@@@Z 10043208     libucrt:fflush.obj
 0002:00009228       __sehtable$??$?RV<lambda_e5124f882df8998aaf41531e079ba474>@@AAV<lambda_3e16ef9562a7dcce91392c22ab16ea36>@@V<lambda_e25ca0880e6ef98be67edffd8c599615>@@@?$__crt_seh_guarded_call@X@@QAEX$$QAV<lambda_e5124f882df8998aaf41531e079ba474>@@AAV<lambda_3e16ef9562a7dcce91392c22ab16ea36>@@$$QAV<lambda_e25ca0880e6ef98be67edffd8c599615>@@@Z 10043228     libucrt:wsetlocale.obj
 0002:00009248       __sehtable$___acrt_update_thread_locale_data 10043248     libucrt:locale_refcounting.obj
 0002:00009268       __sehtable$___acrt_lowio_ensure_fh_exists 10043268     libucrt:osfinfo.obj
 0002:00009288       __sehtable$??$?RV<lambda_9e9de3de5fa147e2223d7db92bc10aa6>@@AAV<lambda_38ce7e780aa69e748d6df282ebc68efe>@@V<lambda_8ca6da459f0f6780f1cff60fdc3d00e5>@@@?$__crt_seh_guarded_call@H@@QAEH$$QAV<lambda_9e9de3de5fa147e2223d7db92bc10aa6>@@AAV<lambda_38ce7e780aa69e748d6df282ebc68efe>@@$$QAV<lambda_8ca6da459f0f6780f1cff60fdc3d00e5>@@@Z 10043288     libucrt:commit.obj
 0002:000092a8       __sehtable$__write         100432a8     libucrt:write.obj
 0002:000092c8       __sehtable$__fcloseall     100432c8     libucrt:closeall.obj
 0002:000092e8       __sehtable$_fclose         100432e8     libucrt:fclose.obj
 0002:00009308       __sehtable$??$?RV<lambda_218ce3db14220d0be481dae8ef3383b6>@@AAV<lambda_628dfdc04ba53c8bfc02c9951375f3f5>@@V<lambda_57dc472bd5c9d5f3b2cbca59b8a843ae>@@@?$__crt_seh_guarded_call@H@@QAEH$$QAV<lambda_218ce3db14220d0be481dae8ef3383b6>@@AAV<lambda_628dfdc04ba53c8bfc02c9951375f3f5>@@$$QAV<lambda_57dc472bd5c9d5f3b2cbca59b8a843ae>@@@Z 10043308     libucrt:close.obj
 0002:00009328       __sehtable$__IsNonwritableInCurrentImage 10043328     LIBCMT:pesect.obj
 0002:00009e30       .edata                     10043e30     PhysXCooking_32.exp
 0002:00009e58       rgpv                       10043e58     PhysXCooking_32.exp
 0002:0000a040       rgszName                   10044040     PhysXCooking_32.exp
 0002:0000a228       rgwOrd                     10044228     PhysXCooking_32.exp
 0002:0000a31c       szName                     1004431c     PhysXCooking_32.exp
 0002:0000a330       $N00001                    10044330     PhysXCooking_32.exp
 0002:0000a35d       $N00002                    1004435d     PhysXCooking_32.exp
 0002:0000a383       $N00003                    10044383     PhysXCooking_32.exp
 0002:0000a3bc       $N00004                    100443bc     PhysXCooking_32.exp
 0002:0000a3e1       $N00005                    100443e1     PhysXCooking_32.exp
 0002:0000a40c       $N00006                    1004440c     PhysXCooking_32.exp
 0002:0000a42b       $N00007                    1004442b     PhysXCooking_32.exp
 0002:0000a45d       $N00008                    1004445d     PhysXCooking_32.exp
 0002:0000a475       $N00009                    10044475     PhysXCooking_32.exp
 0002:0000a494       $N00010                    10044494     PhysXCooking_32.exp
 0002:0000a4bb       $N00011                    100444bb     PhysXCooking_32.exp
 0002:0000a4e0       $N00012                    100444e0     PhysXCooking_32.exp
 0002:0000a50d       $N00013                    1004450d     PhysXCooking_32.exp
 0002:0000a538       $N00014                    10044538     PhysXCooking_32.exp
 0002:0000a568       $N00015                    10044568     PhysXCooking_32.exp
 0002:0000a58c       $N00016                    1004458c     PhysXCooking_32.exp
 0002:0000a5b5       $N00017                    100445b5     PhysXCooking_32.exp
 0002:0000a5d9       $N00018                    100445d9     PhysXCooking_32.exp
 0002:0000a5f7       $N00019                    100445f7     PhysXCooking_32.exp
 0002:0000a62b       $N00020                    1004462b     PhysXCooking_32.exp
 0002:0000a653       $N00021                    10044653     PhysXCooking_32.exp
 0002:0000a679       $N00022                    10044679     PhysXCooking_32.exp
 0002:0000a6a1       $N00023                    100446a1     PhysXCooking_32.exp
 0002:0000a6b9       $N00024                    100446b9     PhysXCooking_32.exp
 0002:0000a6dd       $N00025                    100446dd     PhysXCooking_32.exp
 0002:0000a6fb       $N00026                    100446fb     PhysXCooking_32.exp
 0002:0000a719       $N00027                    10044719     PhysXCooking_32.exp
 0002:0000a738       $N00028                    10044738     PhysXCooking_32.exp
 0002:0000a76b       $N00029                    1004476b     PhysXCooking_32.exp
 0002:0000a7a0       $N00030                    100447a0     PhysXCooking_32.exp
 0002:0000a7d1       $N00031                    100447d1     PhysXCooking_32.exp
 0002:0000a800       $N00032                    10044800     PhysXCooking_32.exp
 0002:0000a82a       $N00033                    1004482a     PhysXCooking_32.exp
 0002:0000a84f       $N00034                    1004484f     PhysXCooking_32.exp
 0002:0000a87d       $N00035                    1004487d     PhysXCooking_32.exp
 0002:0000a8a9       $N00036                    100448a9     PhysXCooking_32.exp
 0002:0000a8d6       $N00037                    100448d6     PhysXCooking_32.exp
 0002:0000a901       $N00038                    10044901     PhysXCooking_32.exp
 0002:0000a92f       $N00039                    1004492f     PhysXCooking_32.exp
 0002:0000a962       $N00040                    10044962     PhysXCooking_32.exp
 0002:0000a993       $N00041                    10044993     PhysXCooking_32.exp
 0002:0000a9c2       $N00042                    100449c2     PhysXCooking_32.exp
 0002:0000a9f1       $N00043                    100449f1     PhysXCooking_32.exp
 0002:0000aa1a       $N00044                    10044a1a     PhysXCooking_32.exp
 0002:0000aa36       $N00045                    10044a36     PhysXCooking_32.exp
 0002:0000aa5f       $N00046                    10044a5f     PhysXCooking_32.exp
 0002:0000aa82       $N00047                    10044a82     PhysXCooking_32.exp
 0002:0000aab2       $N00048                    10044ab2     PhysXCooking_32.exp
 0002:0000aad8       $N00049                    10044ad8     PhysXCooking_32.exp
 0002:0000ab05       $N00050                    10044b05     PhysXCooking_32.exp
 0002:0000ab2f       $N00051                    10044b2f     PhysXCooking_32.exp
 0002:0000ab5b       $N00052                    10044b5b     PhysXCooking_32.exp
 0002:0000ab83       $N00053                    10044b83     PhysXCooking_32.exp
 0002:0000abb0       $N00054                    10044bb0     PhysXCooking_32.exp
 0002:0000abd8       $N00055                    10044bd8     PhysXCooking_32.exp
 0002:0000abff       $N00056                    10044bff     PhysXCooking_32.exp
 0002:0000ac2b       $N00057                    10044c2b     PhysXCooking_32.exp
 0002:0000ac52       $N00058                    10044c52     PhysXCooking_32.exp
 0002:0000ac8b       $N00059                    10044c8b     PhysXCooking_32.exp
 0002:0000acb4       $N00060                    10044cb4     PhysXCooking_32.exp
 0002:0000ace7       $N00061                    10044ce7     PhysXCooking_32.exp
 0002:0000ad1b       $N00062                    10044d1b     PhysXCooking_32.exp
 0002:0000ad55       $N00063                    10044d55     PhysXCooking_32.exp
 0002:0000ad9b       $N00064                    10044d9b     PhysXCooking_32.exp
 0002:0000ade9       $N00065                    10044de9     PhysXCooking_32.exp
 0002:0000ae1b       $N00066                    10044e1b     PhysXCooking_32.exp
 0002:0000ae4e       $N00067                    10044e4e     PhysXCooking_32.exp
 0002:0000ae83       $N00068                    10044e83     PhysXCooking_32.exp
 0002:0000aea9       $N00069                    10044ea9     PhysXCooking_32.exp
 0002:0000aeef       $N00070                    10044eef     PhysXCooking_32.exp
 0002:0000af34       $N00071                    10044f34     PhysXCooking_32.exp
 0002:0000af8b       $N00072                    10044f8b     PhysXCooking_32.exp
 0002:0000afd1       $N00073                    10044fd1     PhysXCooking_32.exp
 0002:0000affb       $N00074                    10044ffb     PhysXCooking_32.exp
 0002:0000b029       $N00075                    10045029     PhysXCooking_32.exp
 0002:0000b077       $N00076                    10045077     PhysXCooking_32.exp
 0002:0000b121       $N00077                    10045121     PhysXCooking_32.exp
 0002:0000b17d       $N00078                    1004517d     PhysXCooking_32.exp
 0002:0000b1a8       $N00079                    100451a8     PhysXCooking_32.exp
 0002:0000b1d3       $N00080                    100451d3     PhysXCooking_32.exp
 0002:0000b207       $N00081                    10045207     PhysXCooking_32.exp
 0002:0000b22f       $N00082                    1004522f     PhysXCooking_32.exp
 0002:0000b26a       $N00083                    1004526a     PhysXCooking_32.exp
 0002:0000b295       $N00084                    10045295     PhysXCooking_32.exp
 0002:0000b2c6       $N00085                    100452c6     PhysXCooking_32.exp
 0002:0000b311       $N00086                    10045311     PhysXCooking_32.exp
 0002:0000b342       $N00087                    10045342     PhysXCooking_32.exp
 0002:0000b379       $N00088                    10045379     PhysXCooking_32.exp
 0002:0000b3b0       $N00089                    100453b0     PhysXCooking_32.exp
 0002:0000b3eb       $N00090                    100453eb     PhysXCooking_32.exp
 0002:0000b42d       $N00091                    1004542d     PhysXCooking_32.exp
 0002:0000b45b       $N00092                    1004545b     PhysXCooking_32.exp
 0002:0000b4d2       $N00093                    100454d2     PhysXCooking_32.exp
 0002:0000b52d       $N00094                    1004552d     PhysXCooking_32.exp
 0002:0000b558       $N00095                    10045558     PhysXCooking_32.exp
 0002:0000b58b       $N00096                    1004558b     PhysXCooking_32.exp
 0002:0000b5c3       $N00097                    100455c3     PhysXCooking_32.exp
 0002:0000b5ff       $N00098                    100455ff     PhysXCooking_32.exp
 0002:0000b633       $N00099                    10045633     PhysXCooking_32.exp
 0002:0000b65f       $N00100                    1004565f     PhysXCooking_32.exp
 0002:0000b68b       $N00101                    1004568b     PhysXCooking_32.exp
 0002:0000b6b4       $N00102                    100456b4     PhysXCooking_32.exp
 0002:0000b6de       $N00103                    100456de     PhysXCooking_32.exp
 0002:0000b70a       $N00104                    1004570a     PhysXCooking_32.exp
 0002:0000b729       $N00105                    10045729     PhysXCooking_32.exp
 0002:0000b763       $N00106                    10045763     PhysXCooking_32.exp
 0002:0000b793       $N00107                    10045793     PhysXCooking_32.exp
 0002:0000b7c4       $N00108                    100457c4     PhysXCooking_32.exp
 0002:0000b804       $N00109                    10045804     PhysXCooking_32.exp
 0002:0000b830       $N00110                    10045830     PhysXCooking_32.exp
 0002:0000b853       $N00111                    10045853     PhysXCooking_32.exp
 0002:0000b881       $N00112                    10045881     PhysXCooking_32.exp
 0002:0000b8b2       $N00113                    100458b2     PhysXCooking_32.exp
 0002:0000b8d7       $N00114                    100458d7     PhysXCooking_32.exp
 0002:0000b903       $N00115                    10045903     PhysXCooking_32.exp
 0002:0000b92a       $N00116                    1004592a     PhysXCooking_32.exp
 0002:0000b949       $N00117                    10045949     PhysXCooking_32.exp
 0002:0000b98d       $N00118                    1004598d     PhysXCooking_32.exp
 0002:0000b9c9       $N00119                    100459c9     PhysXCooking_32.exp
 0002:0000ba05       $N00120                    10045a05     PhysXCooking_32.exp
 0002:0000ba36       $N00121                    10045a36     PhysXCooking_32.exp
 0002:0000ba46       $N00122                    10045a46     PhysXCooking_32.exp
 0002:0000bbc0       .idata$6                   10045bc0     kernel32:KERNEL32.dll
 0003:00000000       ?MAXDOT_MINANG@local@@3MB  10047000     ConvexHullUtils.obj
 0003:00000004       ?MAXDOT_MINANG@local@@3MB  10047004     QuickHullConvexHullLib.obj
 0003:00000040       ?prefix@?1??getDimension@UnDecorator@@CA?AVDName@@_N@Z@4UStringLiteral@@A 10047040     libvcruntime:undname.obj
 0003:00000050       ?__vcrt_flsindex@@3KA      10047050     libvcruntime:per_thread_data.obj
 0003:00000080       ?__DAZ_ENABLED@?1??__set_fpsr_sse2@@9@9 10047080     libucrt:fpctrl.obj
 0003:00000084       ?errno_no_memory@@3HA      10047084     libucrt:errno.obj
 0003:00000088       ?doserrno_no_memory@@3KA   10047088     libucrt:errno.obj
 0003:0000008c       ?__acrt_flsindex@@3KA      1004708c     libucrt:per_thread_data.obj
 0003:000002b0       __mbctypes                 100472b0     libucrt:mbctype.obj
 0003:000003b8       __mbcasemaps               100473b8     libucrt:mbctype.obj
 0003:000004b8       ?__rgctypeflag@@3PADA      100474b8     libucrt:mbctype.obj
 0003:000004c0       ?__rgcode_page_info@@3PAUcode_page_info@@A 100474c0     libucrt:mbctype.obj
 0003:00000880       ?__dcrt_lowio_console_output_handle@@3PAXA 10047880     libucrt:initcon.obj
 0003:00000e80       ?maxV3Error@_VecMathTests@aos@shdfnd@physx@@3T__m128@@B 10047e80     Cooking.obj
 0003:00000e90       ?minFError@_VecMathTests@aos@shdfnd@physx@@3T__m128@@B 10047e90     Cooking.obj
 0003:00000ea0       ?maxV4Error@_VecMathTests@aos@shdfnd@physx@@3T__m128@@B 10047ea0     Cooking.obj
 0003:00000eb0       ?minV4Error@_VecMathTests@aos@shdfnd@physx@@3T__m128@@B 10047eb0     Cooking.obj
 0003:00000ec0       ?minV3Error@_VecMathTests@aos@shdfnd@physx@@3T__m128@@B 10047ec0     Cooking.obj
 0003:00000ed0       ?maxFError@_VecMathTests@aos@shdfnd@physx@@3T__m128@@B 10047ed0     Cooking.obj
 0003:00000ee0       ?maxV3Error@_VecMathTests@aos@shdfnd@physx@@3T__m128@@B 10047ee0     BVHStructureBuilder.obj
 0003:00000ef0       ?minFError@_VecMathTests@aos@shdfnd@physx@@3T__m128@@B 10047ef0     BVHStructureBuilder.obj
 0003:00000f00       ?maxV4Error@_VecMathTests@aos@shdfnd@physx@@3T__m128@@B 10047f00     BVHStructureBuilder.obj
 0003:00000f10       ?minV4Error@_VecMathTests@aos@shdfnd@physx@@3T__m128@@B 10047f10     BVHStructureBuilder.obj
 0003:00000f20       ?minV3Error@_VecMathTests@aos@shdfnd@physx@@3T__m128@@B 10047f20     BVHStructureBuilder.obj
 0003:00000f30       ?maxFError@_VecMathTests@aos@shdfnd@physx@@3T__m128@@B 10047f30     BVHStructureBuilder.obj
 0003:00000f40       ?maxV3Error@_VecMathTests@aos@shdfnd@physx@@3T__m128@@B 10047f40     RTreeCooking.obj
 0003:00000f50       ?minFError@_VecMathTests@aos@shdfnd@physx@@3T__m128@@B 10047f50     RTreeCooking.obj
 0003:00000f60       ?maxV4Error@_VecMathTests@aos@shdfnd@physx@@3T__m128@@B 10047f60     RTreeCooking.obj
 0003:00000f70       ?minV4Error@_VecMathTests@aos@shdfnd@physx@@3T__m128@@B 10047f70     RTreeCooking.obj
 0003:00000f80       ?minV3Error@_VecMathTests@aos@shdfnd@physx@@3T__m128@@B 10047f80     RTreeCooking.obj
 0003:00000f90       ?maxFError@_VecMathTests@aos@shdfnd@physx@@3T__m128@@B 10047f90     RTreeCooking.obj
 0003:00000fa0       ?maxV3Error@_VecMathTests@aos@shdfnd@physx@@3T__m128@@B 10047fa0     MeshBuilder.obj
 0003:00000fb0       ?minFError@_VecMathTests@aos@shdfnd@physx@@3T__m128@@B 10047fb0     MeshBuilder.obj
 0003:00000fc0       ?maxV4Error@_VecMathTests@aos@shdfnd@physx@@3T__m128@@B 10047fc0     MeshBuilder.obj
 0003:00000fd0       ?minV4Error@_VecMathTests@aos@shdfnd@physx@@3T__m128@@B 10047fd0     MeshBuilder.obj
 0003:00000fe0       ?minV3Error@_VecMathTests@aos@shdfnd@physx@@3T__m128@@B 10047fe0     MeshBuilder.obj
 0003:00000ff0       ?maxFError@_VecMathTests@aos@shdfnd@physx@@3T__m128@@B 10047ff0     MeshBuilder.obj
 0003:00001000       ?maxV3Error@_VecMathTests@aos@shdfnd@physx@@3T__m128@@B 10048000     TriangleMeshBuilder.obj
 0003:00001010       ?minFError@_VecMathTests@aos@shdfnd@physx@@3T__m128@@B 10048010     TriangleMeshBuilder.obj
 0003:00001020       ?maxV4Error@_VecMathTests@aos@shdfnd@physx@@3T__m128@@B 10048020     TriangleMeshBuilder.obj
 0003:00001030       ?minV4Error@_VecMathTests@aos@shdfnd@physx@@3T__m128@@B 10048030     TriangleMeshBuilder.obj
 0003:00001040       ?minV3Error@_VecMathTests@aos@shdfnd@physx@@3T__m128@@B 10048040     TriangleMeshBuilder.obj
 0003:00001050       ?maxFError@_VecMathTests@aos@shdfnd@physx@@3T__m128@@B 10048050     TriangleMeshBuilder.obj
 0003:00001060       ?maxV3Error@_VecMathTests@aos@shdfnd@physx@@3T__m128@@B 10048060     BigConvexDataBuilder.obj
 0003:00001070       ?minFError@_VecMathTests@aos@shdfnd@physx@@3T__m128@@B 10048070     BigConvexDataBuilder.obj
 0003:00001080       ?maxV4Error@_VecMathTests@aos@shdfnd@physx@@3T__m128@@B 10048080     BigConvexDataBuilder.obj
 0003:00001090       ?minV4Error@_VecMathTests@aos@shdfnd@physx@@3T__m128@@B 10048090     BigConvexDataBuilder.obj
 0003:000010a0       ?minV3Error@_VecMathTests@aos@shdfnd@physx@@3T__m128@@B 100480a0     BigConvexDataBuilder.obj
 0003:000010b0       ?maxFError@_VecMathTests@aos@shdfnd@physx@@3T__m128@@B 100480b0     BigConvexDataBuilder.obj
 0003:000010c0       ?maxV3Error@_VecMathTests@aos@shdfnd@physx@@3T__m128@@B 100480c0     ConvexHullBuilder.obj
 0003:000010d0       ?minFError@_VecMathTests@aos@shdfnd@physx@@3T__m128@@B 100480d0     ConvexHullBuilder.obj
 0003:000010e0       ?maxV4Error@_VecMathTests@aos@shdfnd@physx@@3T__m128@@B 100480e0     ConvexHullBuilder.obj
 0003:000010f0       ?minV4Error@_VecMathTests@aos@shdfnd@physx@@3T__m128@@B 100480f0     ConvexHullBuilder.obj
 0003:00001100       ?minV3Error@_VecMathTests@aos@shdfnd@physx@@3T__m128@@B 10048100     ConvexHullBuilder.obj
 0003:00001110       ?maxFError@_VecMathTests@aos@shdfnd@physx@@3T__m128@@B 10048110     ConvexHullBuilder.obj
 0003:00001120       ?maxV3Error@_VecMathTests@aos@shdfnd@physx@@3T__m128@@B 10048120     ConvexHullUtils.obj
 0003:00001130       ?minFError@_VecMathTests@aos@shdfnd@physx@@3T__m128@@B 10048130     ConvexHullUtils.obj
 0003:00001140       ?maxV4Error@_VecMathTests@aos@shdfnd@physx@@3T__m128@@B 10048140     ConvexHullUtils.obj
 0003:00001150       ?minV4Error@_VecMathTests@aos@shdfnd@physx@@3T__m128@@B 10048150     ConvexHullUtils.obj
 0003:00001160       ?minV3Error@_VecMathTests@aos@shdfnd@physx@@3T__m128@@B 10048160     ConvexHullUtils.obj
 0003:00001170       ?maxFError@_VecMathTests@aos@shdfnd@physx@@3T__m128@@B 10048170     ConvexHullUtils.obj
 0003:00001180       ?maxV3Error@_VecMathTests@aos@shdfnd@physx@@3T__m128@@B 10048180     ConvexMeshBuilder.obj
 0003:00001190       ?minFError@_VecMathTests@aos@shdfnd@physx@@3T__m128@@B 10048190     ConvexMeshBuilder.obj
 0003:000011a0       ?maxV4Error@_VecMathTests@aos@shdfnd@physx@@3T__m128@@B 100481a0     ConvexMeshBuilder.obj
 0003:000011b0       ?minV4Error@_VecMathTests@aos@shdfnd@physx@@3T__m128@@B 100481b0     ConvexMeshBuilder.obj
 0003:000011c0       ?minV3Error@_VecMathTests@aos@shdfnd@physx@@3T__m128@@B 100481c0     ConvexMeshBuilder.obj
 0003:000011d0       ?maxFError@_VecMathTests@aos@shdfnd@physx@@3T__m128@@B 100481d0     ConvexMeshBuilder.obj
 0003:000011e0       ?maxV3Error@_VecMathTests@aos@shdfnd@physx@@3T__m128@@B 100481e0     VolumeIntegration.obj
 0003:000011f0       ?minFError@_VecMathTests@aos@shdfnd@physx@@3T__m128@@B 100481f0     VolumeIntegration.obj
 0003:00001200       ?maxV4Error@_VecMathTests@aos@shdfnd@physx@@3T__m128@@B 10048200     VolumeIntegration.obj
 0003:00001210       ?minV4Error@_VecMathTests@aos@shdfnd@physx@@3T__m128@@B 10048210     VolumeIntegration.obj
 0003:00001220       ?minV3Error@_VecMathTests@aos@shdfnd@physx@@3T__m128@@B 10048220     VolumeIntegration.obj
 0003:00001230       ?maxFError@_VecMathTests@aos@shdfnd@physx@@3T__m128@@B 10048230     VolumeIntegration.obj
 0003:00001240       ?gCookingDelayLoadHook@@3PBVPxDelayLoadHook@physx@@B 10048240     WindowsCookingDelayLoadHook.obj
 0003:00001270       ?__proc_attached@@3HA      10048270     LIBCMT:dll_dllmain.obj
 0003:00001298       ?is_initialized_as_dll@@3_NA 10048298     LIBCMT:utility.obj
 0003:00001299       ?module_local_atexit_table_initialized@@3_NA 10048299     LIBCMT:utility.obj
 0003:0000129c       ?module_local_atexit_table@@3U_onexit_table_t@@A 1004829c     LIBCMT:utility.obj
 0003:000012a8       ?module_local_at_quick_exit_table@@3U_onexit_table_t@@A 100482a8     LIBCMT:utility.obj
 0003:000012b8       _GS_ExceptionRecord        100482b8     LIBCMT:gs_report.obj
 0003:00001308       _GS_ContextRecord          10048308     LIBCMT:gs_report.obj
 0003:00001604       ?heap@@3V_HeapManager@@A   10048604     libvcruntime:undname.obj
 0003:00001618       ?__vcrt_startup_thread_ptd@@3U__vcrt_ptd@@A 10048618     libvcruntime:per_thread_data.obj
 0003:00001640       ___vcrt_lock_table         10048640     libvcruntime:locks.obj
 0003:00001658       ___vcrt_locks_initialized  10048658     libvcruntime:locks.obj
 0003:0000165c       ?module_handles@@3PAPAUHINSTANCE__@@A 1004865c     libvcruntime:winapi_downlevel.obj
 0003:00001668       ?function_pointers@@3PAPAXA 10048668     libvcruntime:winapi_downlevel.obj
 0003:0000167c       ?c_termination_complete@@3JA 1004867c     libucrt:exit.obj
 0003:00001680       ?thread_local_exit_callback_func@@3P6GXPAXK0@ZA 10048680     libucrt:exit.obj
 0003:00001688       ?program_name@?1???$common_configure_argv@D@@YAHW4_crt_argv_mode@@@Z@4PADA 10048688     libucrt:argv_parsing.obj
 0003:000017b8       ?user_matherr@@3V?$dual_state_global@P6AHPAU_exception@@@Z@__crt_state_management@@A 100487b8     libucrt:matherr.obj
 0003:000017c0       ?__acrt_lock_table@@3PAU_RTL_CRITICAL_SECTION@@A 100487c0     libucrt:locks.obj
 0003:00001910       ?__acrt_locks_initialized@@3IA 10048910     libucrt:locks.obj
 0003:00001914       ?__acrt_invalid_parameter_handler@@3V?$dual_state_global@P6AXPB_W00II@Z@__crt_state_management@@A 10048914     libucrt:invalid_parameter.obj
 0003:00001924       ?fSystemSet@@3HA           10048924     libucrt:mbctype.obj
 0003:00001928       ?initialized@?1??__acrt_initialize_multibyte@@9@4_NA 10048928     libucrt:mbctype.obj
 0003:00001948       ?module_handles@@3PAPAUHINSTANCE__@@A 10048948     libucrt:winapi_thunks.obj
 0003:00001998       ?encoded_function_pointers@@3PAPAXA 10048998     libucrt:winapi_thunks.obj
 0003:00001c2c       ?__acrt_new_handler@@3V?$dual_state_global@P6AHI@Z@__crt_state_management@@A 10048c2c     libucrt:new_handler.obj
 0003:00001c30       ?ctrlc_action@@3V?$dual_state_global@P6AXH@Z@__crt_state_management@@A 10048c30     libucrt:signal.obj
 0003:00001c34       ?ctrlbreak_action@@3V?$dual_state_global@P6AXH@Z@__crt_state_management@@A 10048c34     libucrt:signal.obj
 0003:00001c38       ?abort_action@@3V?$dual_state_global@P6AXH@Z@__crt_state_management@@A 10048c38     libucrt:signal.obj
 0003:00001c3c       ?term_action@@3V?$dual_state_global@P6AXH@Z@__crt_state_management@@A 10048c3c     libucrt:signal.obj
 0003:00001c54       ?internal_state@?1??_mbtowc_l@@9@4U_Mbstatet@@A 10048c54     libucrt:mbtowc.obj
 0003:00001c5c       ?enable_percent_n@@3IA     10048c5c     libucrt:printf_count_output.obj
 0003:00001c64       ?__acrt_global_new_mode@@3V?$dual_state_global@J@__crt_state_management@@A 10048c64     libucrt:new_mode.obj
 0003:00001c74       ?__acrt_app_type@@3W4_crt_app_type@@A 10048c74     libucrt:report_runtime_error.obj
 0003:00001c78       ?internal_pst@?1??__mbrtoc32_utf8@__crt_mbstring@@YAIPA_UPBDIPAU_Mbstatet@@@Z@4U3@A 10048c78     libucrt:mbrtoc32.obj
 0003:00001c80       __pmatherr_set             10048c80     libucrt:libm_error.obj
 0004:00000000       _static_const_table        10049000     LIBCMT:svml_ssinf4_sse2.obj
 0004:00000100       __e02PI                    10049100     LIBCMT:svml_dtrig.obj
 0004:000002a0       __e04PI                    100492a0     LIBCMT:svml_dtrig.obj
 0004:00000430       _2il0floatpacket_0         10049430     LIBCMT:svml_dtrig.obj
 0004:00000440       _2il0floatpacket_1         10049440     LIBCMT:svml_dtrig.obj
 0004:00000448       __d02PI                    10049448     LIBCMT:svml_dtrig.obj
 0004:00000458       __DP4                      10049458     LIBCMT:svml_dtrig.obj
 0004:00000478       __dPI02                    10049478     LIBCMT:svml_dtrig.obj
 0004:00000488       __d04PI                    10049488     LIBCMT:svml_dtrig.obj
 0004:00000498       __QP4                      10049498     LIBCMT:svml_dtrig.obj
 0004:000004b8       __dPI04                    100494b8     LIBCMT:svml_dtrig.obj
 0004:00002600       __vmlsSinHATab             1004b600     LIBCMT:svml_s_sin_cout.obj
 0005:000000a0       $R000000                   1004c0a0     PhysXCooking.res
 0005:000003d0       $R000330                   1004c3d0     PhysXCooking.res
