 PhysXCommon_32

 Timestamp is 624d42b0 (Wed Apr  6 09:35:12 2022)

 Preferred load address is 10000000

 Start         Length     Name                   Class
 0001:00000000 00004320H .text$di                CODE
 0001:00004320 0013019fH .text$mn                CODE
 0001:001344bf 00000047H .text$x                 CODE
 0002:00000000 00000120H .idata$5                DATA
 0002:00000120 00000004H .00cfg                  DATA
 0002:00000124 00000004H .CRT$XCA                DATA
 0002:00000128 000009fcH .CRT$XCU                DATA
 0002:00000b24 00000004H .CRT$XCZ                DATA
 0002:00000b28 00000004H .CRT$XIA                DATA
 0002:00000b2c 0000000cH .CRT$XIC                DATA
 0002:00000b38 00000004H .CRT$XIZ                DATA
 0002:00000b3c 00000004H .CRT$XPA                DATA
 0002:00000b40 00000008H .CRT$XPX                DATA
 0002:00000b48 00000004H .CRT$XPXA               DATA
 0002:00000b4c 00000004H .CRT$XPZ                DATA
 0002:00000b50 00000004H .CRT$XTA                DATA
 0002:00000b54 0000000cH .CRT$XTZ                DATA
 0002:00000b58 00000000H .gfids$y                DATA
 0002:00000b60 0000cbe0H .rdata                  DATA
 0002:0000d740 00000000H .rdata$CastGuardVftablesA DATA
 0002:0000d740 00000000H .rdata$CastGuardVftablesC DATA
 0002:0000d740 0000028cH .rdata$r                DATA
 0002:0000d9cc 00000018H .rdata$sxdata           DATA
 0002:0000d9e4 00000040H .rdata$voltmd           DATA
 0002:0000da24 00000408H .rdata$zzzdbg           DATA
 0002:0000de2c 00000004H .rtc$IAA                DATA
 0002:0000de30 00000004H .rtc$IZZ                DATA
 0002:0000de34 00000004H .rtc$TAA                DATA
 0002:0000de38 00000008H .rtc$TZZ                DATA
 0002:0000de40 00000564H .xdata$x                DATA
 0002:0000e3a4 00000020H .didat$2                DATA
 0002:0000e3c4 00000020H .didat$3                DATA
 0002:0000e3e4 00000044H .didat$4                DATA
 0002:0000e428 00000300H .didat$6                DATA
 0002:0000e728 00000048H .didat$7                DATA
 0002:0000e770 00009c30H .edata                  DATA
 0002:000183a0 00000014H .idata$2                DATA
 0002:000183b4 00000014H .idata$3                DATA
 0002:000183c8 00000120H .idata$4                DATA
 0002:000184e8 00000534H .idata$6                DATA
 0003:00000000 00000fe0H .data                   DATA
 0003:00000fe0 00000468H .data$r                 DATA
 0003:00001448 000000b4H .data$rs                DATA
 0003:000014fc 00000044H .didat$5                DATA
 0003:00001540 000032c8H .bss                    DATA
 0004:00000000 00002608H _RDATA                  DATA
 0005:00000000 000000a0H .rsrc$01                DATA
 0005:000000a0 000004b0H .rsrc$02                DATA

  Address         Publics by Value              Rva+Base       Lib:Object

 0000:00000000       ___hybrid_code_map_count   00000000     <absolute>
 0000:00000000       ___guard_iat_table         00000000     <absolute>
 0000:00000000       ___x64_code_ranges_to_entry_points_count 00000000     <absolute>
 0000:00000000       ___x64_code_ranges_to_entry_points 00000000     <absolute>
 0000:00000000       ___arm64x_redirection_metadata 00000000     <absolute>
 0000:00000000       __except_list              00000000     <absolute>
 0000:00000000       ___arm64x_extra_rfe_table  00000000     <absolute>
 0000:00000000       ___guard_longjmp_table     00000000     <absolute>
 0000:00000000       ___hybrid_code_map         00000000     <absolute>
 0000:00000000       ___arm64x_extra_rfe_table_size 00000000     <absolute>
 0000:00000000       ___guard_longjmp_count     00000000     <absolute>
 0000:00000000       ___guard_eh_cont_count     00000000     <absolute>
 0000:00000000       ___guard_iat_count         00000000     <absolute>
 0000:00000000       ___guard_check_icall_a64n_fptr 00000000     <absolute>
 0000:00000000       ___arm64x_redirection_metadata_count 00000000     <absolute>
 0000:00000000       ___arm64x_native_entrypoint 00000000     <absolute>
 0000:00000000       ___hybrid_auxiliary_iat    00000000     <absolute>
 0000:00000000       ___dynamic_value_reloc_table 00000000     <absolute>
 0000:00000000       ___guard_eh_cont_table     00000000     <absolute>
 0000:00000000       ___guard_fids_count        00000000     <absolute>
 0000:00000000       ___AbsoluteZero            00000000     <absolute>
 0000:00000000       ___enclave_config          00000000     <absolute>
 0000:00000000       ___guard_fids_table        00000000     <absolute>
 0000:00000000       ___hybrid_auxiliary_iat_copy 00000000     <absolute>
 0000:00000006       ___safe_se_handler_count   00000006     <absolute>
 0000:00000100       ___guard_flags             00000100     <absolute>
 0000:00000000       ___ImageBase               10000000     <linker-defined>
 0001:00004320       ??_GCollection@Cm@physx@@UAEPAXI@Z 10005320 f i CmCollection.obj
 0001:00004320       ??_ECollection@Cm@physx@@UAEPAXI@Z 10005320 f i CmCollection.obj
 0001:00004390       ??_EPxCollection@physx@@MAEPAXI@Z 10005390 f i CmCollection.obj
 0001:00004390       ??_GPxCollection@physx@@MAEPAXI@Z 10005390 f i CmCollection.obj
 0001:000043c0       ?PxCreateCollection@@YAPAVPxCollection@physx@@XZ 100053c0 f   CmCollection.obj
 0001:000044c0       ?add@Collection@Cm@physx@@UAEXAAVPxBase@3@_K@Z 100054c0 f   CmCollection.obj
 0001:000045a0       ?add@Collection@Cm@physx@@UAEXAAVPxCollection@3@@Z 100055a0 f   CmCollection.obj
 0001:00004700       ?addId@Collection@Cm@physx@@UAEXAAVPxBase@3@_K@Z 10005700 f   CmCollection.obj
 0001:00004790       ?contains@Collection@Cm@physx@@UBE_NAAVPxBase@3@@Z 10005790 f   CmCollection.obj
 0001:000047b0       ?create@?$HashBase@V?$Pair@$$CB_KPAVPxBase@physx@@@shdfnd@physx@@_KU?$Hash@_K@23@UGetKey@?$HashMapBase@_KPAVPxBase@physx@@U?$Hash@_K@shdfnd@2@VNonTrackingAllocator@42@@internal@23@VNonTrackingAllocator@23@$00@internal@shdfnd@physx@@QAEPAV?$Pair@$$CB_KPAVPxBase@physx@@@34@AB_KAA_N@Z 100057b0 f i CmCollection.obj
 0001:00004890       ?create@?$HashBase@V?$Pair@QAVPxBase@physx@@_K@shdfnd@physx@@PAVPxBase@3@U?$Hash@PAVPxBase@physx@@@23@UGetKey@?$HashMapBase@PAVPxBase@physx@@_KU?$Hash@PAVPxBase@physx@@@shdfnd@2@VNonTrackingAllocator@42@@internal@23@VNonTrackingAllocator@23@$00@internal@shdfnd@physx@@QAEPAV?$Pair@QAVPxBase@physx@@_K@34@ABQAVPxBase@4@AA_N@Z 10005890 f i CmCollection.obj
 0001:000049b0       ?erase@?$HashBase@V?$Pair@QAVPxBase@physx@@_K@shdfnd@physx@@PAVPxBase@3@U?$Hash@PAVPxBase@physx@@@23@UGetKey@?$HashMapBase@PAVPxBase@physx@@_KU?$Hash@PAVPxBase@physx@@@shdfnd@2@VNonTrackingAllocator@42@@internal@23@VNonTrackingAllocator@23@$00@internal@shdfnd@physx@@QAE_NABQAVPxBase@4@@Z 100059b0 f i CmCollection.obj
 0001:00004ac0       ?erase@?$HashMapBase@_KPAVPxBase@physx@@U?$Hash@_K@shdfnd@2@VNonTrackingAllocator@42@@internal@shdfnd@physx@@QAE_NAB_K@Z 10005ac0 f i CmCollection.obj
 0001:00004ba0       ?find@?$HashMapBase@PAVPxBase@physx@@_KU?$Hash@PAVPxBase@physx@@@shdfnd@2@VNonTrackingAllocator@42@@internal@shdfnd@physx@@QBEPBV?$Pair@QAVPxBase@physx@@_K@34@ABQAVPxBase@4@@Z 10005ba0 f i CmCollection.obj
 0001:00004c20       ?find@?$HashMapBase@_KPAVPxBase@physx@@U?$Hash@_K@shdfnd@2@VNonTrackingAllocator@42@@internal@shdfnd@physx@@QBEPBV?$Pair@$$CB_KPAVPxBase@physx@@@34@AB_K@Z 10005c20 f i CmCollection.obj
 0001:00004c80       ?find@Collection@Cm@physx@@UBEPAVPxBase@3@_K@Z 10005c80 f   CmCollection.obj
 0001:00004ca0       ?getId@Collection@Cm@physx@@UBE_KABVPxBase@3@@Z 10005ca0 f   CmCollection.obj
 0001:00004ce0       ?getIds@Collection@Cm@physx@@UBEIPA_KII@Z 10005ce0 f   CmCollection.obj
 0001:00004d90       ?getNbIds@Collection@Cm@physx@@UBEIXZ 10005d90 f   CmCollection.obj
 0001:00004d90       ?getNbRows@HeightField@Gu@physx@@UBEIXZ 10005d90 f   GuBounds.obj
 0001:00004da0       ?getNbObjects@Collection@Cm@physx@@UBEIXZ 10005da0 f   CmCollection.obj
 0001:00004db0       ?getObject@Collection@Cm@physx@@UBEAAVPxBase@3@I@Z 10005db0 f   CmCollection.obj
 0001:00004dc0       ?getObjects@Collection@Cm@physx@@UBEIPAPAVPxBase@3@II@Z 10005dc0 f   CmCollection.obj
 0001:00004e00       ?hash@?$HashBase@V?$Pair@$$CB_KPAVPxBase@physx@@@shdfnd@physx@@_KU?$Hash@_K@23@UGetKey@?$HashMapBase@_KPAVPxBase@physx@@U?$Hash@_K@shdfnd@2@VNonTrackingAllocator@42@@internal@23@VNonTrackingAllocator@23@$00@internal@shdfnd@physx@@ABEIAB_KI@Z 10005e00 f i CmCollection.obj
 0001:00004e90       ?release@Collection@Cm@physx@@UAEXXZ 10005e90 f i CmCollection.obj
 0001:00004ea0       ?remove@Collection@Cm@physx@@UAEXAAVPxBase@3@@Z 10005ea0 f   CmCollection.obj
 0001:00004ef0       ?remove@Collection@Cm@physx@@UAEXAAVPxCollection@3@@Z 10005ef0 f   CmCollection.obj
 0001:000050c0       ?removeId@Collection@Cm@physx@@UAEX_K@Z 100060c0 f   CmCollection.obj
 0001:00005120       ?reserveInternal@?$HashBase@V?$Pair@$$CB_KPAVPxBase@physx@@@shdfnd@physx@@_KU?$Hash@_K@23@UGetKey@?$HashMapBase@_KPAVPxBase@physx@@U?$Hash@_K@shdfnd@2@VNonTrackingAllocator@42@@internal@23@VNonTrackingAllocator@23@$00@internal@shdfnd@physx@@AAEXI@Z 10006120 f i CmCollection.obj
 0001:00005350       ?reserveInternal@?$HashBase@V?$Pair@QAVPxBase@physx@@_K@shdfnd@physx@@PAVPxBase@3@U?$Hash@PAVPxBase@physx@@@23@UGetKey@?$HashMapBase@PAVPxBase@physx@@_KU?$Hash@PAVPxBase@physx@@@shdfnd@2@VNonTrackingAllocator@42@@internal@23@VNonTrackingAllocator@23@$00@internal@shdfnd@physx@@AAEXI@Z 10006350 f i CmCollection.obj
 0001:000054f0       ??0PtrTable@Cm@physx@@QAE@W4PxEMPTY@2@@Z 100064f0 f i CmPtrTable.obj
 0001:00005510       ??0PtrTable@Cm@physx@@QAE@XZ 10006510 f   CmPtrTable.obj
 0001:00005520       @_guard_check_icall_nop@4  10006520 f   LIBCMT:guard_support.obj
 0001:00005520       ?profile@Callback@RTree@Gu@physx@@UAEXXZ 10006520 f   GuMidphaseRTree.obj
 0001:00005520       ??1Box@Gu@physx@@QAE@XZ    10006520 f   GuBounds.obj
 0001:00005520       ??1PtrTable@Cm@physx@@QAE@XZ 10006520 f   CmPtrTable.obj
 0001:00005520       ??1MaterialIndicesStruct@physx@@QAE@XZ 10006520 f   GuGeometryUnion.obj
 0001:00005520       ??1HeightFieldData@Gu@physx@@QAE@XZ 10006520 f   GuBounds.obj
 0001:00005520       ??1AABBTreeBuildNode@Gu@physx@@QAE@XZ 10006520 f   GuAABBTreeBuild.obj
 0001:00005530       ??4CmModuleUpdateLoader@Cm@physx@@QAEAAV012@ABV012@@Z 10006530 f i CmWindowsModuleUpdateLoader.obj
 0001:00005530       ??4BuildStats@Gu@physx@@QAEAAU012@ABU012@@Z 10006530 f i GuAABBTreeBuild.obj
 0001:00005530       ??4MaterialIndicesStruct@physx@@QAEAAU01@ABU01@@Z 10006530 f i GuGeometryUnion.obj
 0001:00005530       ??4PtrTable@Cm@physx@@QAEAAU012@ABU012@@Z 10006530 f i CmPtrTable.obj
 0001:00005550       ?add@PtrTable@Cm@physx@@QAEXPAXAAVPtrTableStorageManager@23@@Z 10006550 f   CmPtrTable.obj
 0001:00005610       ?clear@PtrTable@Cm@physx@@QAEXAAVPtrTableStorageManager@23@@Z 10006610 f   CmPtrTable.obj
 0001:00005670       ?exportExtraData@PtrTable@Cm@physx@@QAEXAAVPxSerializationContext@3@@Z 10006670 f   CmPtrTable.obj
 0001:000056a0       ?find@PtrTable@Cm@physx@@QBEIPBX@Z 100066a0 f   CmPtrTable.obj
 0001:000056d0       ?getBinaryMetaData@PtrTable@Cm@physx@@SAXAAVPxOutputStream@3@@Z 100066d0 f   CmPtrTable.obj
 0001:000058b0       ?getCount@PtrTable@Cm@physx@@QBEIXZ 100068b0 f i CmPtrTable.obj
 0001:000058c0       ?getPtrs@PtrTable@Cm@physx@@QAEPAPAXXZ 100068c0 f i CmPtrTable.obj
 0001:000058c0       ?getPtrs@PtrTable@Cm@physx@@QBEPBQAXXZ 100068c0 f i CmPtrTable.obj
 0001:000058d0       ?importExtraData@PtrTable@Cm@physx@@QAEXAAVPxDeserializationContext@3@@Z 100068d0 f   CmPtrTable.obj
 0001:00005900       ?realloc@PtrTable@Cm@physx@@AAEXIIAAVPtrTableStorageManager@23@@Z 10006900 f   CmPtrTable.obj
 0001:00005970       ?replaceWithLast@PtrTable@Cm@physx@@QAEXIAAVPtrTableStorageManager@23@@Z 10006970 f   CmPtrTable.obj
 0001:00005a40       ??0RadixSort@Cm@physx@@QAE@XZ 10006a40 f   CmRadixSort.obj
 0001:00005a80       ??1RadixSort@Cm@physx@@UAE@XZ 10006a80 f   CmRadixSort.obj
 0001:00005a90       ??_ERadixSort@Cm@physx@@UAEPAXI@Z 10006a90 f i CmRadixSort.obj
 0001:00005b00       ?getBounds@BVHStructure@Gu@physx@@UBEPBVPxBounds3@3@XZ 10006b00 f i GuBVHStructure.obj
 0001:00005b00       ?GetNbHits@RadixSort@Cm@physx@@QBEIXZ 10006b00 f i CmRadixSort.obj
 0001:00005b00       ?getTriangles@TriangleMesh@Gu@physx@@UBEPBXXZ 10006b00 f i GuTriangleMesh.obj
 0001:00005b10       ?getVertices@TriangleMesh@Gu@physx@@UBEPBVPxVec3@3@XZ 10006b10 f i GuTriangleMesh.obj
 0001:00005b10       ?getPos@AABBTreeBuildNode@Gu@physx@@QBEPBV123@XZ 10006b10 f i GuAABBTreeBuild.obj
 0001:00005b10       ?GetNbTotalCalls@RadixSort@Cm@physx@@QBEIXZ 10006b10 f i CmRadixSort.obj
 0001:00005b20       ?raw_length@DNameStatusNode@@UBEHXZ 10006b20 f i libvcruntime:undname.obj
 0001:00005b20       ?length@pcharNode@@UBEHXZ  10006b20 f i libvcruntime:undname.obj
 0001:00005b20       ?GetNbVerts@BigConvexData@physx@@QBEIXZ 10006b20 f i GuMetaData.obj
 0001:00005b20       ?length@DNameStatusNode@@UBEHXZ 10006b20 f i libvcruntime:undname.obj
 0001:00005b20       ?GetRanks@RadixSort@Cm@physx@@QBEPBIXZ 10006b20 f i CmRadixSort.obj
 0001:00005b20       ?raw_length@pcharNode@@UBEHXZ 10006b20 f i libvcruntime:undname.obj
 0001:00005b30       ?getHeightField@HeightFieldUtil@Gu@physx@@QBEABVHeightField@23@XZ 10006b30 f i GuCCTSweepTests.obj
 0001:00005b30       ?GetRecyclable@RadixSort@Cm@physx@@QBEPAIXZ 10006b30 f i CmRadixSort.obj
 0001:00005b30       ?raw_length@pairNode@@UBEHXZ 10006b30 f i libvcruntime:undname.obj
 0001:00005b30       ?getReferenceCount@ConvexMesh@Gu@physx@@UBEIXZ 10006b30 f i GuConvexMesh.obj
 0001:00005b30       ?getReferenceCount@HeightField@Gu@physx@@UBEIXZ 10006b30 f i GuHeightField.obj
 0001:00005b30       ?getReferenceCount@TriangleMesh@Gu@physx@@UBEIXZ 10006b30 f i GuTriangleMesh.obj
 0001:00005b40       ?SetBuffers@RadixSort@Cm@physx@@QAE_NPAI00PAPAI@Z 10006b40 f   CmRadixSort.obj
 0001:00005b90       ?Sort@RadixSort@Cm@physx@@QAEAAV123@PBIIW4RadixHint@23@@Z 10006b90 f   CmRadixSort.obj
 0001:00006170       ?Sort@RadixSort@Cm@physx@@QAEAAV123@PBMI@Z 10007170 f   CmRadixSort.obj
 0001:00006850       ?invalidateRanks@RadixSort@Cm@physx@@QAEXXZ 10007850 f i CmRadixSort.obj
 0001:00006860       ??0RadixSortBuffered@Cm@physx@@QAE@XZ 10007860 f   CmRadixSortBuffered.obj
 0001:00006880       ??1RadixSortBuffered@Cm@physx@@UAE@XZ 10007880 f   CmRadixSortBuffered.obj
 0001:000068e0       ??_ERadixSortBuffered@Cm@physx@@UAEPAXI@Z 100078e0 f i CmRadixSortBuffered.obj
 0001:000069b0       ?CheckResize@RadixSortBuffered@Cm@physx@@AAEXI@Z 100079b0 f i CmRadixSortBuffered.obj
 0001:000069e0       ?Resize@RadixSortBuffered@Cm@physx@@AAE_NI@Z 100079e0 f   CmRadixSortBuffered.obj
 0001:00006a80       ?Sort@RadixSortBuffered@Cm@physx@@QAEAAV123@PBIIW4RadixHint@23@@Z 10007a80 f   CmRadixSortBuffered.obj
 0001:00006b00       ?Sort@RadixSortBuffered@Cm@physx@@QAEAAV123@PBMI@Z 10007b00 f   CmRadixSortBuffered.obj
 0001:00006b70       ?reset@RadixSortBuffered@Cm@physx@@QAEXXZ 10007b70 f   CmRadixSortBuffered.obj
 0001:00006bc0       ??0DebugText@Cm@physx@@QAA@ABVPxVec3@2@MPBDZZ 10007bc0 f   CmRenderOutput.obj
 0001:00006c20       ??0DebugText@Cm@physx@@QAE@ABU012@@Z 10007c20 f i CmRenderOutput.obj
 0001:00006c20       ??0DebugText@Cm@physx@@QAE@$$QAU012@@Z 10007c20 f i CmRenderOutput.obj
 0001:00006c70       ??0PxDebugLine@physx@@QAE@ABVPxVec3@1@0ABI@Z 10007c70 f i CmRenderOutput.obj
 0001:00006cb0       ??0PxDebugTriangle@physx@@QAE@ABVPxVec3@1@00ABI@Z 10007cb0 f i CmRenderOutput.obj
 0001:00006d10       ??4PxMat44@physx@@QAEAAV01@ABV01@@Z 10007d10 f i CmRenderOutput.obj
 0001:00006d10       ??0PxMat44@physx@@QAE@ABV01@@Z 10007d10 f i CmRenderOutput.obj
 0001:00006d80       ??0RenderOutput@Cm@physx@@QAE@AAVRenderBuffer@12@@Z 10007d80 f i CmRenderOutput.obj
 0001:00006e40       ??0RenderOutput@Cm@physx@@QAE@ABV012@@Z 10007e40 f i CmRenderOutput.obj
 0001:00006ea0       ??4DebugText@Cm@physx@@QAEAAU012@ABU012@@Z 10007ea0 f i CmRenderOutput.obj
 0001:00006ea0       ??4DebugText@Cm@physx@@QAEAAU012@$$QAU012@@Z 10007ea0 f i CmRenderOutput.obj
 0001:00006f30       ??6Cm@physx@@YAAAVRenderOutput@01@AAV201@ABUDebugArc@01@@Z 10007f30 f   CmRenderOutput.obj
 0001:00007020       ??6Cm@physx@@YAAAVRenderOutput@01@AAV201@ABUDebugArrow@01@@Z 10008020 f   CmRenderOutput.obj
 0001:00007400       ??6Cm@physx@@YAAAVRenderOutput@01@AAV201@ABUDebugBasis@01@@Z 10008400 f   CmRenderOutput.obj
 0001:00007510       ??6Cm@physx@@YAAAVRenderOutput@01@AAV201@ABUDebugBox@01@@Z 10008510 f   CmRenderOutput.obj
 0001:00007a10       ??6Cm@physx@@YAAAVRenderOutput@01@AAV201@ABUDebugCircle@01@@Z 10008a10 f   CmRenderOutput.obj
 0001:00007ae0       ??6RenderOutput@Cm@physx@@QAEAAV012@ABUDebugText@12@@Z 10008ae0 f   CmRenderOutput.obj
 0001:00007cc0       ??6RenderOutput@Cm@physx@@QAEAAV012@ABVPxMat44@2@@Z 10008cc0 f   CmRenderOutput.obj
 0001:00007ce0       ??6RenderOutput@Cm@physx@@QAEAAV012@ABVPxTransform@2@@Z 10008ce0 f   CmRenderOutput.obj
 0001:00007e80       ??6RenderOutput@Cm@physx@@QAEAAV012@I@Z 10008e80 f   CmRenderOutput.obj
 0001:00007e90       ??6RenderOutput@Cm@physx@@QAEAAV012@VPxVec3@2@@Z 10008e90 f   CmRenderOutput.obj
 0001:00008270       ??6RenderOutput@Cm@physx@@QAEAAV012@W4Primitive@012@@Z 10009270 f   CmRenderOutput.obj
 0001:00008290       ?allocate@?$Array@DV?$ReflectionAllocator@D@shdfnd@physx@@@shdfnd@physx@@IAEPADI@Z 10009290 f i CmRenderOutput.obj
 0001:000082f0       ?allocate@?$Array@UPxDebugLine@physx@@V?$ReflectionAllocator@UPxDebugLine@physx@@@shdfnd@2@@shdfnd@physx@@IAEPAUPxDebugLine@3@I@Z 100092f0 f i CmRenderOutput.obj
 0001:00008360       ?allocate@?$Array@UPxDebugPoint@physx@@V?$ReflectionAllocator@UPxDebugPoint@physx@@@shdfnd@2@@shdfnd@physx@@IAEPAUPxDebugPoint@3@I@Z 10009360 f i CmRenderOutput.obj
 0001:000083d0       ?allocate@?$Array@UPxDebugText@physx@@V?$ReflectionAllocator@UPxDebugText@physx@@@shdfnd@2@@shdfnd@physx@@IAEPAUPxDebugText@3@I@Z 100093d0 f i CmRenderOutput.obj
 0001:00008440       ?allocate@?$Array@UPxDebugTriangle@physx@@V?$ReflectionAllocator@UPxDebugTriangle@physx@@@shdfnd@2@@shdfnd@physx@@IAEPAUPxDebugTriangle@3@I@Z 10009440 f i CmRenderOutput.obj
 0001:000084b0       ?copy@?$Array@UPxDebugLine@physx@@V?$ReflectionAllocator@UPxDebugLine@physx@@@shdfnd@2@@shdfnd@physx@@KAXPAUPxDebugLine@3@0PBU43@@Z 100094b0 f i CmRenderOutput.obj
 0001:00008520       ?copy@?$Array@UPxDebugPoint@physx@@V?$ReflectionAllocator@UPxDebugPoint@physx@@@shdfnd@2@@shdfnd@physx@@KAXPAUPxDebugPoint@3@0PBU43@@Z 10009520 f i CmRenderOutput.obj
 0001:00008570       ?copy@?$Array@UPxDebugText@physx@@V?$ReflectionAllocator@UPxDebugText@physx@@@shdfnd@2@@shdfnd@physx@@KAXPAUPxDebugText@3@0PBU43@@Z 10009570 f i CmRenderOutput.obj
 0001:000085d0       ?copy@?$Array@UPxDebugTriangle@physx@@V?$ReflectionAllocator@UPxDebugTriangle@physx@@@shdfnd@2@@shdfnd@physx@@KAXPAUPxDebugTriangle@3@0PBU43@@Z 100095d0 f i CmRenderOutput.obj
 0001:00008650       ?growAndPushBack@?$Array@DV?$ReflectionAllocator@D@shdfnd@physx@@@shdfnd@physx@@IAEAADABD@Z 10009650 f i CmRenderOutput.obj
 0001:000086d0       ?growAndPushBack@?$Array@UPxDebugLine@physx@@V?$ReflectionAllocator@UPxDebugLine@physx@@@shdfnd@2@@shdfnd@physx@@IAEAAUPxDebugLine@3@ABU43@@Z 100096d0 f i CmRenderOutput.obj
 0001:00008780       ?growAndPushBack@?$Array@UPxDebugPoint@physx@@V?$ReflectionAllocator@UPxDebugPoint@physx@@@shdfnd@2@@shdfnd@physx@@IAEAAUPxDebugPoint@3@ABU43@@Z 10009780 f i CmRenderOutput.obj
 0001:00008810       ?growAndPushBack@?$Array@UPxDebugText@physx@@V?$ReflectionAllocator@UPxDebugText@physx@@@shdfnd@2@@shdfnd@physx@@IAEAAUPxDebugText@3@ABU43@@Z 10009810 f i CmRenderOutput.obj
 0001:000088b0       ?growAndPushBack@?$Array@UPxDebugTriangle@physx@@V?$ReflectionAllocator@UPxDebugTriangle@physx@@@shdfnd@2@@shdfnd@physx@@IAEAAUPxDebugTriangle@3@ABU43@@Z 100098b0 f i CmRenderOutput.obj
 0001:00008980       ?outputCapsule@RenderOutput@Cm@physx@@QAEAAV123@MMABVPxMat44@3@@Z 10009980 f   CmRenderOutput.obj
 0001:00009480       ?outputSegment@RenderOutput@Cm@physx@@QAEXABVPxVec3@3@0@Z 1000a480 f i CmRenderOutput.obj
 0001:00009510       ?recreate@?$Array@DV?$ReflectionAllocator@D@shdfnd@physx@@@shdfnd@physx@@IAEXI@Z 1000a510 f i CmRenderOutput.obj
 0001:00009570       ?recreate@?$Array@UPxDebugLine@physx@@V?$ReflectionAllocator@UPxDebugLine@physx@@@shdfnd@2@@shdfnd@physx@@IAEXI@Z 1000a570 f i CmRenderOutput.obj
 0001:000095d0       ?reserveSegments@RenderOutput@Cm@physx@@QAEPAUPxDebugLine@3@I@Z 1000a5d0 f i CmRenderOutput.obj
 0001:00009630       ?visualizeAngularLimit@Cm@physx@@YAXAAVRenderOutput@12@MABVPxTransform@2@MM_N@Z 1000a630 f   CmVisualization.obj
 0001:000097c0       ?visualizeDoubleCone@Cm@physx@@YAXAAVRenderOutput@12@MABVPxTransform@2@M_N@Z 1000a7c0 f   CmVisualization.obj
 0001:000099f0       ?visualizeJointFrames@Cm@physx@@YAXAAVRenderOutput@12@MABVPxTransform@2@1@Z 1000a9f0 f   CmVisualization.obj
 0001:00009ab0       ?visualizeLimitCone@Cm@physx@@YAXAAVRenderOutput@12@MABVPxTransform@2@MM_N@Z 1000aab0 f   CmVisualization.obj
 0001:00009cc0       ?visualizeLinearLimit@Cm@physx@@YAXAAVRenderOutput@12@MABVPxTransform@2@1M_N@Z 1000acc0 f   CmVisualization.obj
 0001:00009ef0       ??0CmModuleUpdateLoader@Cm@physx@@QAE@PBD@Z 1000aef0 f   CmWindowsModuleUpdateLoader.obj
 0001:00009f20       ??1CmModuleUpdateLoader@Cm@physx@@QAE@XZ 1000af20 f   CmWindowsModuleUpdateLoader.obj
 0001:00009f40       ?LoadModule@CmModuleUpdateLoader@Cm@physx@@QAEPAUHINSTANCE__@@PBD0@Z 1000af40 f   CmWindowsModuleUpdateLoader.obj
 0001:00009f70       ?commonDelayHook@@YGP6GHXZIPAUDelayLoadInfo@@@Z 1000af70 f   CmWindowsDelayLoadHook.obj
 0001:0000a010       _PxSetPhysXCommonDelayLoadHook 1000b010 f   CmWindowsDelayLoadHook.obj
 0001:0000a020       ??4Box@Gu@physx@@QAEABV012@ABV012@@Z 1000b020 f i GuBounds.obj
 0001:0000a020       ??0Box@Gu@physx@@QAE@ABV012@@Z 1000b020 f i GuBounds.obj
 0001:0000a090       ??0Box@Gu@physx@@QAE@ABVPxVec3@2@0ABVPxMat33@2@@Z 1000b090 f i GuBounds.obj
 0001:0000a100       ?getPaddedBounds@HeightFieldData@Gu@physx@@QBEABVCenterExtentsPadded@23@XZ 1000b100 f i GuBounds.obj
 0001:0000a100       ??0AABBTreeBuildNode@Gu@physx@@QAE@XZ 1000b100 f i GuAABBTreeBuild.obj
 0001:0000a100       ??0Box@Gu@physx@@QAE@XZ    1000b100 f i GuBounds.obj
 0001:0000a100       ?getAABB@AABBTreeBuildNode@Gu@physx@@QBEABVPxBounds3@3@XZ 1000b100 f i GuAABBTreeBuild.obj
 0001:0000a100       ?getGeometry@GeometryUnion@Gu@physx@@QBEABVPxGeometry@3@XZ 1000b100 f i GuGeometryUnion.obj
 0001:0000a110       ??4HeightFieldData@Gu@physx@@QAEAAU012@$$QAU012@@Z 1000b110 f i GuBounds.obj
 0001:0000a110       ??0HeightFieldData@Gu@physx@@QAE@ABU012@@Z 1000b110 f i GuBounds.obj
 0001:0000a110       ??0HeightFieldData@Gu@physx@@QAE@$$QAU012@@Z 1000b110 f i GuBounds.obj
 0001:0000a110       ??4HeightFieldData@Gu@physx@@QAEAAU012@ABU012@@Z 1000b110 f i GuBounds.obj
 0001:0000a180       ??0BigConvexData@physx@@QAE@W4PxEMPTY@1@@Z 1000b180 f i GuMetaData.obj
 0001:0000a180       ??0MaterialIndicesStruct@physx@@QAE@W4PxEMPTY@1@@Z 1000b180 f i GuGeometryUnion.obj
 0001:0000a180       ??0HeightFieldData@Gu@physx@@QAE@W4PxEMPTY@2@@Z 1000b180 f i GuBounds.obj
 0001:0000a180       ??0GeometryUnion@Gu@physx@@QAE@W4PxEMPTY@2@@Z 1000b180 f i GuGeometryUnion.obj
 0001:0000a190       ??0HeightFieldData@Gu@physx@@QAE@XZ 1000b190 f i GuBounds.obj
 0001:0000a1a0       ??0PxQuat@physx@@QAE@ABVPxMat33@1@@Z 1000b1a0 f i GuBounds.obj
 0001:0000a360       ??0ShapeData@Gu@physx@@QAE@ABVPxGeometry@2@ABVPxTransform@2@M@Z 1000b360 f   GuBounds.obj
 0001:0000a890       ??1PxHeightField@physx@@MAE@XZ 1000b890 f i GuBounds.obj
 0001:0000a890       ??1PxConvexMesh@physx@@MAE@XZ 1000b890 f i GuBounds.obj
 0001:0000a8a0       ??_EPxBase@physx@@MAEPAXI@Z 1000b8a0 f i GuBounds.obj
 0001:0000a8a0       ??_EPxBVHStructure@physx@@MAEPAXI@Z 1000b8a0 f i GuBVHStructure.obj
 0001:0000a8a0       ??_EPxTriangleMesh@physx@@MAEPAXI@Z 1000b8a0 f i GuTriangleMesh.obj
 0001:0000a8a0       ??_GPxBVHStructure@physx@@MAEPAXI@Z 1000b8a0 f i GuBVHStructure.obj
 0001:0000a8a0       ??_GPxTriangleMesh@physx@@MAEPAXI@Z 1000b8a0 f i GuTriangleMesh.obj
 0001:0000a8a0       ??_GPxBase@physx@@MAEPAXI@Z 1000b8a0 f i GuBounds.obj
 0001:0000a8d0       ??_H@YGXPAXIIP6EPAX0@Z@Z   1000b8d0 f i GuBounds.obj
 0001:0000a900       ?computeAABBExtent@Box@Gu@physx@@QBE?AVPxVec3@3@XZ 1000b900 f i GuBounds.obj
 0001:0000a9b0       ?computeBounds@Gu@physx@@YAXAAVPxBounds3@2@ABVPxGeometry@2@ABVPxTransform@2@MPIBVCenterExtentsPadded@12@M@Z 1000b9b0 f   GuBounds.obj
 0001:0000b3b0       ?computeBoundsWithCCDThreshold@Gu@physx@@YAMAAVVec3p@12@0ABVPxGeometry@2@ABVPxTransform@2@PIBVCenterExtentsPadded@12@@Z 1000c3b0 f   GuBounds.obj
 0001:0000b540       ?computeBoxPoints@Box@Gu@physx@@QBEXPIAVPxVec3@3@@Z 1000c540 f i GuBounds.obj
 0001:0000c4d0       ?getConcreteTypeName@PxConvexMesh@physx@@UBEPBDXZ 1000d4d0 f i GuBounds.obj
 0001:0000c4e0       ?getConcreteTypeName@PxHeightField@physx@@UBEPBDXZ 1000d4e0 f i GuBounds.obj
 0001:0000c4f0       ?getConvexEdgeThreshold@HeightField@Gu@physx@@UBEMXZ 1000d4f0 f i GuBounds.obj
 0001:0000c500       ?getFlags@HeightField@Gu@physx@@UBE?AV?$PxFlags@W4Enum@PxHeightFieldFlag@physx@@G@3@XZ 1000d500 f i GuBounds.obj
 0001:0000c510       ?getFormat@HeightField@Gu@physx@@UBE?AW4Enum@PxHeightFieldFormat@3@XZ 1000d510 f i GuBounds.obj
 0001:0000c510       ?getTrianglesRemap@TriangleMesh@Gu@physx@@UBEPBIXZ 1000d510 f i GuTriangleMesh.obj
 0001:0000c520       ?getHeight@HeightField@Gu@physx@@UBEMMM@Z 1000d520 f i GuBounds.obj
 0001:0000c580       ?getHeightInternal2@HeightField@Gu@physx@@QBEMIMM@Z 1000d580 f i GuBounds.obj
 0001:0000c6d0       ?getIndexBuffer@ConvexMesh@Gu@physx@@UBEPBEXZ 1000d6d0 f i GuBounds.obj
 0001:0000c710       ?getNbColumns@HeightField@Gu@physx@@UBEIXZ 1000d710 f i GuBounds.obj
 0001:0000c720       ?getNbPolygons@ConvexMesh@Gu@physx@@UBEIXZ 1000d720 f i GuBounds.obj
 0001:0000c730       ?getNbVertices@ConvexMesh@Gu@physx@@UBEIXZ 1000d730 f i GuBounds.obj
 0001:0000c740       ?getSample@HeightField@Gu@physx@@UBEABUPxHeightFieldSample@3@II@Z 1000d740 f i GuBounds.obj
 0001:0000c760       ?getSampleStride@HeightField@Gu@physx@@UBEIXZ 1000d760 f i GuBounds.obj
 0001:0000c770       ?getTimestamp@HeightField@Gu@physx@@UBEIXZ 1000d770 f i GuBounds.obj
 0001:0000c780       ?getTransform@Box@Gu@physx@@QBE?AVPxTransform@3@XZ 1000d780 f i GuBounds.obj
 0001:0000c7d0       ?getTriangleMaterialIndex@HeightField@Gu@physx@@UBEGI@Z 1000d7d0 f i GuBounds.obj
 0001:0000c800       ?getTriangleNormal@HeightField@Gu@physx@@UBE?AVPxVec3@3@I@Z 1000d800 f i GuBounds.obj
 0001:0000c8f0       ?getVertices@ConvexMesh@Gu@physx@@UBEPBVPxVec3@3@XZ 1000d8f0 f i GuBounds.obj
 0001:0000c900       ?isKindOf@PxBase@physx@@MBE_NPBD@Z 1000d900 f i GuBounds.obj
 0001:0000c950       ?isKindOf@PxConvexMesh@physx@@MBE_NPBD@Z 1000d950 f i GuBounds.obj
 0001:0000c9d0       ?isKindOf@PxHeightField@physx@@MBE_NPBD@Z 1000d9d0 f i GuBounds.obj
 0001:0000ca50       ?isReleasable@PxBase@physx@@UBE_NXZ 1000da50 f i GuBounds.obj
 0001:0000ca60       ?isValid@Box@Gu@physx@@QBE_NXZ 1000da60 f i GuBounds.obj
 0001:0000ca80       ?preExportDataReset@ConvexMesh@Gu@physx@@QAEXXZ 1000da80 f i GuBounds.obj
 0001:0000ca80       ?preExportDataReset@HeightField@Gu@physx@@QAEXXZ 1000da80 f i GuBounds.obj
 0001:0000ca90       ?rotate@Box@Gu@physx@@QBE?AVPxVec3@3@ABV43@@Z 1000da90 f i GuBounds.obj
 0001:0000cb10       ?rotateInv@Box@Gu@physx@@QBE?AVPxVec3@3@ABV43@@Z 1000db10 f i GuBounds.obj
 0001:0000cb90       ?setAxes@Box@Gu@physx@@QAEXABVPxVec3@3@00@Z 1000db90 f i GuBounds.obj
 0001:0000cbe0       ?setEmpty@Box@Gu@physx@@QAEXXZ 1000dbe0 f i GuBounds.obj
 0001:0000cc50       ?transform@Box@Gu@physx@@QBE?AVPxVec3@3@ABV43@@Z 1000dc50 f i GuBounds.obj
 0001:0000cce0       ?computeOBBPoints@Gu@physx@@YAXPIAVPxVec3@2@ABV32@1111@Z 1000dce0 f   GuBox.obj
 0001:0000cf40       ?create@Box@Gu@physx@@QAEXABVCapsule@23@@Z 1000df40 f   GuBox.obj
 0001:0000d180       ?getBoxEdges@Gu@physx@@YAPBEXZ 1000e180 f   GuBox.obj
 0001:0000d190       ?computeBasis@shdfnd@physx@@YAXABVPxVec3@2@0AAV32@11@Z 1000e190 f i GuCapsule.obj
 0001:0000d320       ?computeBoxAroundCapsule@Gu@physx@@YAXABVCapsule@12@AAVBox@12@@Z 1000e320 f   GuCapsule.obj
 0001:0000d4a0       ??0HeightFieldUtil@Gu@physx@@QAE@ABVPxHeightFieldGeometry@2@@Z 1000e4a0 f i GuCCTSweepTests.obj
 0001:0000d4a0       ??0HeightFieldTraceUtil@Gu@physx@@QAE@ABVPxHeightFieldGeometry@2@@Z 1000e4a0 f i GuCCTSweepTests.obj
 0001:0000d4e0       ??4HeightFieldUtil@Gu@physx@@QAEAAV012@ABV012@@Z 1000e4e0 f i GuCCTSweepTests.obj
 0001:0000d4e0       ??4HeightFieldTraceUtil@Gu@physx@@QAEAAV012@ABV012@@Z 1000e4e0 f i GuCCTSweepTests.obj
 0001:0000d4e0       ??4HeightFieldTraceUtil@Gu@physx@@QAEAAV012@$$QAV012@@Z 1000e4e0 f i GuCCTSweepTests.obj
 0001:0000d500       ??4HeightFieldUtil@Gu@physx@@QAEAAV012@$$QAV012@@Z 1000e500 f i GuCCTSweepTests.obj
 0001:0000d530       ??_E?$EntityReport@I@Gu@physx@@UAEPAXI@Z 1000e530 f i GuCCTSweepTests.obj
 0001:0000d530       ??_G?$EntityReport@I@Gu@physx@@UAEPAXI@Z 1000e530 f i GuCCTSweepTests.obj
 0001:0000d590       ?ceilUp@HeightFieldTraceUtil@Gu@physx@@SAMM@Z 1000e590 f i GuCCTSweepTests.obj
 0001:0000d5d0       ?computePointNormal@HeightFieldUtil@Gu@physx@@QBE?AVPxVec3@3@IABV43@ABVPxTransform@3@MMMMAAM@Z 1000e5d0 f i GuCCTSweepTests.obj
 0001:0000d9e0       ?floorDown@HeightFieldTraceUtil@Gu@physx@@SAMM@Z 1000e9e0 f i GuCCTSweepTests.obj
 0001:0000da50       ?getFeatureIndex@HeightFieldUtil@Gu@physx@@SAII@Z 1000ea50 f i GuCCTSweepTests.obj
 0001:0000da60       ?getFeatureType@HeightFieldUtil@Gu@physx@@SA?AW4Feature@123@I@Z 1000ea60 f i GuCCTSweepTests.obj
 0001:0000da70       ?getHeightAtShapePoint@HeightFieldUtil@Gu@physx@@QBEMMM@Z 1000ea70 f i GuCCTSweepTests.obj
 0001:0000dae0       ?GetValencies@BigConvexData@physx@@QBEPBUValency@Gu@2@XZ 1000eae0 f i GuMetaData.obj
 0001:0000dae0       ?getNbVertices@TriangleMesh@Gu@physx@@UBEIXZ 1000eae0 f i GuTriangleMesh.obj
 0001:0000dae0       ?getHeightFieldGeometry@HeightFieldUtil@Gu@physx@@QBEABVPxHeightFieldGeometry@3@XZ 1000eae0 f i GuCCTSweepTests.obj
 0001:0000daf0       ?getNormalAtShapePoint@HeightFieldUtil@Gu@physx@@QBE?AVPxVec3@3@MM@Z 1000eaf0 f i GuCCTSweepTests.obj
 0001:0000dba0       ?getNormal_2@HeightField@Gu@physx@@QBE?AVPxVec3@3@IMMMMM@Z 1000eba0 f i GuCCTSweepTests.obj
 0001:0000dca0       ?getOneOverColumnScale@HeightFieldUtil@Gu@physx@@QBEMXZ 1000eca0 f i GuCCTSweepTests.obj
 0001:0000dcb0       ?getOneOverHeightScale@HeightFieldUtil@Gu@physx@@QBEMXZ 1000ecb0 f i GuCCTSweepTests.obj
 0001:0000dcc0       ?getOneOverRowScale@HeightFieldUtil@Gu@physx@@QBEMXZ 1000ecc0 f i GuCCTSweepTests.obj
 0001:0000dcd0       ?getVertexNormal@HeightFieldUtil@Gu@physx@@QBE?AVPxVec3@3@I@Z 1000ecd0 f i GuCCTSweepTests.obj
 0001:0000dd00       ?hf2shapen@HeightFieldUtil@Gu@physx@@QBE?AVPxVec3@3@ABV43@@Z 1000ed00 f i GuCCTSweepTests.obj
 0001:0000dd00       ?shape2hfp@HeightFieldUtil@Gu@physx@@QBE?AVPxVec3@3@ABV43@@Z 1000ed00 f i GuCCTSweepTests.obj
 0001:0000dd40       ?hf2shapep@HeightFieldUtil@Gu@physx@@QBE?AVPxVec3@3@ABV43@@Z 1000ed40 f i GuCCTSweepTests.obj
 0001:0000dd80       ?hf2worldn@HeightFieldUtil@Gu@physx@@QBE?AVPxVec3@3@ABVPxTransform@3@ABV43@@Z 1000ed80 f i GuCCTSweepTests.obj
 0001:0000deb0       ?hf2worldp@HeightFieldUtil@Gu@physx@@QBE?AVPxVec3@3@ABVPxTransform@3@ABV43@@Z 1000eeb0 f i GuCCTSweepTests.obj
 0001:0000dff0       ?isCollisionVertex@HeightFieldUtil@Gu@physx@@QBE_NIII@Z 1000eff0 f i GuCCTSweepTests.obj
 0001:0000e010       ?isQueryVertex@HeightFieldUtil@Gu@physx@@QBE_NIII@Z 1000f010 f i GuCCTSweepTests.obj
 0001:0000e0a0       ?isShapePointOnHeightField@HeightFieldUtil@Gu@physx@@QBE_NMM@Z 1000f0a0 f i GuCCTSweepTests.obj
 0001:0000e100       ?makeFeatureCode@HeightFieldUtil@Gu@physx@@SAIIW4Feature@123@@Z 1000f100 f i GuCCTSweepTests.obj
 0001:0000e260       ?poseExtent@PxBounds3@physx@@SA?AV12@ABVPxTransform@2@ABVPxVec3@2@@Z 1000f260 f i GuCCTSweepTests.obj
 0001:0000e460       ?sweepBoxTriangles_Precise@Gu@physx@@YA_NIPBVPxTriangle@2@_NABVPxBoxGeometry@2@ABVPxTransform@2@ABVPxVec3@2@MAAUPxSweepHit@2@PBIMV?$PxFlags@W4Enum@PxHitFlag@physx@@G@2@@Z 1000f460 f   GuCCTSweepTests.obj
 0001:0000f2f0       ?sweepBox_BoxGeom_Precise@@YA_NABVPxGeometry@physx@@ABVPxTransform@2@ABVPxBoxGeometry@2@1ABVBox@Gu@2@ABVPxVec3@2@MAAUPxSweepHit@2@V?$PxFlags@W4Enum@PxHitFlag@physx@@G@2@M@Z 100102f0 f   GuCCTSweepTests.obj
 0001:0000f4d0       ?sweepBox_CapsuleGeom_Precise@@YA_NABVPxGeometry@physx@@ABVPxTransform@2@ABVPxBoxGeometry@2@1ABVBox@Gu@2@ABVPxVec3@2@MAAUPxSweepHit@2@V?$PxFlags@W4Enum@PxHitFlag@physx@@G@2@M@Z 100104d0 f   GuCCTSweepTests.obj
 0001:0000f890       ?sweepBox_HeightFieldGeom_Precise@@YA_NABVPxGeometry@physx@@ABVPxTransform@2@ABVPxBoxGeometry@2@1ABVBox@Gu@2@ABVPxVec3@2@MAAUPxSweepHit@2@V?$PxFlags@W4Enum@PxHitFlag@physx@@G@2@M@Z 10010890 f   GuCCTSweepTests.obj
 0001:0000faa0       ?sweepBox_SphereGeom_Precise@@YA_NABVPxGeometry@physx@@ABVPxTransform@2@ABVPxBoxGeometry@2@1ABVBox@Gu@2@ABVPxVec3@2@MAAUPxSweepHit@2@V?$PxFlags@W4Enum@PxHitFlag@physx@@G@2@M@Z 10010aa0 f   GuCCTSweepTests.obj
 0001:0000fd30       ?sweepCapsule_BoxGeom_Precise@@YA_NABVPxGeometry@physx@@ABVPxTransform@2@ABVPxCapsuleGeometry@2@1ABVCapsule@Gu@2@ABVPxVec3@2@MAAUPxSweepHit@2@V?$PxFlags@W4Enum@PxHitFlag@physx@@G@2@M@Z 10010d30 f   GuCCTSweepTests.obj
 0001:00010360       ?computePenetration@PxGeometryQuery@physx@@SA_NAAVPxVec3@2@AAMABVPxGeometry@2@ABVPxTransform@2@23@Z 10011360 f   GuGeometryQuery.obj
 0001:00010460       ?getWorldBounds@PxGeometryQuery@physx@@SA?AVPxBounds3@2@ABVPxGeometry@2@ABVPxTransform@2@M@Z 10011460 f   GuGeometryQuery.obj
 0001:000104c0       ?isFinite@PxQuat@physx@@QBE_NXZ 100114c0 f i GuGeometryQuery.obj
 0001:00010550       ?isValid@PxGeometryQuery@physx@@SA_NABVPxGeometry@2@@Z 10011550 f   GuGeometryQuery.obj
 0001:000107b0       ?overlap@PxGeometryQuery@physx@@SA_NABVPxGeometry@2@ABVPxTransform@2@01@Z 100117b0 f   GuGeometryQuery.obj
 0001:00010830       ?pointDistance@PxGeometryQuery@physx@@SAMABVPxVec3@2@ABVPxGeometry@2@ABVPxTransform@2@PAV32@@Z 10011830 f   GuGeometryQuery.obj
 0001:00010f10       ?raycast@PxGeometryQuery@physx@@SAIABVPxVec3@2@0ABVPxGeometry@2@ABVPxTransform@2@MV?$PxFlags@W4Enum@PxHitFlag@physx@@G@2@IPIAUPxRaycastHit@2@@Z 10011f10 f   GuGeometryQuery.obj
 0001:00010f80       ?sweep@PxGeometryQuery@physx@@SA_NABVPxVec3@2@MABVPxGeometry@2@ABVPxTransform@2@12AAUPxSweepHit@2@V?$PxFlags@W4Enum@PxHitFlag@physx@@G@2@M@Z 10011f80 f   GuGeometryQuery.obj
 0001:000113c0       ??0GeometryUnion@Gu@physx@@QAE@ABVPxGeometry@2@@Z 100123c0 f i GuGeometryUnion.obj
 0001:000113e0       ??0GeometryUnion@Gu@physx@@QAE@XZ 100123e0 f i GuGeometryUnion.obj
 0001:000113f0       ??0MaterialIndicesStruct@physx@@QAE@XZ 100123f0 f i GuGeometryUnion.obj
 0001:00011400       ??4GeometryUnion@Gu@physx@@QAEAAV012@$$QAV012@@Z 10012400 f i GuGeometryUnion.obj
 0001:00011400       ??4GeometryUnion@Gu@physx@@QAEAAV012@ABV012@@Z 10012400 f i GuGeometryUnion.obj
 0001:00011430       ?allocate@MaterialIndicesStruct@physx@@QAEXG@Z 10012430 f i GuGeometryUnion.obj
 0001:00011480       ?deallocate@MaterialIndicesStruct@physx@@QAEXXZ 10012480 f i GuGeometryUnion.obj
 0001:000114b0       ?getNumAxes@SeparatingAxes@Gu@physx@@QBEIXZ 100124b0 f i GuMTD.obj
 0001:000114b0       ?getCount@BuildStats@Gu@physx@@QBEIXZ 100124b0 f i GuAABBTreeBuild.obj
 0001:000114b0       ?getType@GeometryUnion@Gu@physx@@QBE?AW4Enum@PxGeometryType@3@XZ 100124b0 f i GuGeometryUnion.obj
 0001:000114c0       ?set@GeometryUnion@Gu@physx@@QAEXABVPxGeometry@3@@Z 100124c0 f   GuGeometryUnion.obj
 0001:00011680       ?computeBoundsAroundVertices@Gu@physx@@YAXAAVPxBounds3@2@IPIBVPxVec3@2@@Z 10012680 f   GuInternal.obj
 0001:00011710       ?computeBoxPoints@Gu@physx@@YAXABVPxBounds3@2@PIAVPxVec3@2@@Z 10012710 f   GuInternal.obj
 0001:000117b0       ?computeSweptBox@Gu@physx@@YAXAAVBox@12@ABVPxVec3@2@1ABVPxMat33@2@1M@Z 100127b0 f   GuInternal.obj
 0001:00011c80       ?getPlane@Gu@physx@@YA?AVPxPlane@2@ABVPxTransform@2@@Z 10012c80 f   GuInternal.obj
 0001:00011d20       ??0GuMeshFactory@physx@@QAE@XZ 10012d20 f   GuMeshFactory.obj
 0001:00011ef0       ??0TriangleMeshData@Gu@physx@@QAE@XZ 10012ef0 f i GuMeshFactory.obj
 0001:00011f90       ??1GuMeshFactory@physx@@MAE@XZ 10012f90 f   GuMeshFactory.obj
 0001:00012030       ??1MeshDataBase@Gu@physx@@UAE@XZ 10013030 f i GuMeshFactory.obj
 0001:000120d0       ??1TriangleMeshData@Gu@physx@@UAE@XZ 100130d0 f i GuMeshFactory.obj
 0001:00012150       ??_EGuMeshFactory@physx@@MAEPAXI@Z 10013150 f i GuMeshFactory.obj
 0001:00012210       ??_EBV4TriangleData@Gu@physx@@UAEPAXI@Z 10013210 f i GuMeshFactory.obj
 0001:00012210       ??_GBV4TriangleData@Gu@physx@@UAEPAXI@Z 10013210 f i GuMeshFactory.obj
 0001:00012270       ??_GMeshDataBase@Gu@physx@@UAEPAXI@Z 10013270 f i GuMeshFactory.obj
 0001:00012270       ??_EMeshDataBase@Gu@physx@@UAEPAXI@Z 10013270 f i GuMeshFactory.obj
 0001:000122b0       ??_ERTreeTriangleData@Gu@physx@@UAEPAXI@Z 100132b0 f i GuMeshFactory.obj
 0001:000122b0       ??_GRTreeTriangleData@Gu@physx@@UAEPAXI@Z 100132b0 f i GuMeshFactory.obj
 0001:00012330       ??_ETriangleMeshData@Gu@physx@@UAEPAXI@Z 10013330 f i GuMeshFactory.obj
 0001:00012330       ??_GTriangleMeshData@Gu@physx@@UAEPAXI@Z 10013330 f i GuMeshFactory.obj
 0001:00012370       ?__global_array_delete@@YAXPAXI@Z 10013370 f i GuMeshFactory.obj
 0001:00012380       ?__global_delete@@YAXPAXI@Z 10013380 f i GuMeshFactory.obj
 0001:00012390       ?addBVHStructure@GuMeshFactory@physx@@QAEXPAVBVHStructure@Gu@2@_N@Z 10013390 f   GuMeshFactory.obj
 0001:000123f0       ?addConvexMesh@GuMeshFactory@physx@@QAEXPAVConvexMesh@Gu@2@_N@Z 100133f0 f   GuMeshFactory.obj
 0001:00012450       ?addFactoryListener@GuMeshFactory@physx@@QAEXAAVGuMeshFactoryListener@2@@Z 10013450 f   GuMeshFactory.obj
 0001:000124b0       ?addHeightField@GuMeshFactory@physx@@QAEXPAVHeightField@Gu@2@_N@Z 100134b0 f   GuMeshFactory.obj
 0001:00012510       ?addTriangleMesh@GuMeshFactory@physx@@QAEXPAVTriangleMesh@Gu@2@_N@Z 10013510 f   GuMeshFactory.obj
 0001:00012570       ?create@?$HashBase@PAVBVHStructure@Gu@physx@@PAV123@U?$Hash@PAVBVHStructure@Gu@physx@@@shdfnd@3@UGetKey@?$HashSetBase@PAVBVHStructure@Gu@physx@@U?$Hash@PAVBVHStructure@Gu@physx@@@shdfnd@3@VNonTrackingAllocator@53@$00@internal@53@VNonTrackingAllocator@53@$00@internal@shdfnd@physx@@QAEPAPAVBVHStructure@Gu@4@ABQAV564@AA_N@Z 10013570 f i GuMeshFactory.obj
 0001:00012570       ?create@?$HashBase@PAVConvexMesh@Gu@physx@@PAV123@U?$Hash@PAVConvexMesh@Gu@physx@@@shdfnd@3@UGetKey@?$HashSetBase@PAVConvexMesh@Gu@physx@@U?$Hash@PAVConvexMesh@Gu@physx@@@shdfnd@3@VNonTrackingAllocator@53@$00@internal@53@VNonTrackingAllocator@53@$00@internal@shdfnd@physx@@QAEPAPAVConvexMesh@Gu@4@ABQAV564@AA_N@Z 10013570 f i GuMeshFactory.obj
 0001:00012570       ?create@?$HashBase@PAVHeightField@Gu@physx@@PAV123@U?$Hash@PAVHeightField@Gu@physx@@@shdfnd@3@UGetKey@?$HashSetBase@PAVHeightField@Gu@physx@@U?$Hash@PAVHeightField@Gu@physx@@@shdfnd@3@VNonTrackingAllocator@53@$00@internal@53@VNonTrackingAllocator@53@$00@internal@shdfnd@physx@@QAEPAPAVHeightField@Gu@4@ABQAV564@AA_N@Z 10013570 f i GuMeshFactory.obj
 0001:00012570       ?create@?$HashBase@PAVTriangleMesh@Gu@physx@@PAV123@U?$Hash@PAVTriangleMesh@Gu@physx@@@shdfnd@3@UGetKey@?$HashSetBase@PAVTriangleMesh@Gu@physx@@U?$Hash@PAVTriangleMesh@Gu@physx@@@shdfnd@3@VNonTrackingAllocator@53@$00@internal@53@VNonTrackingAllocator@53@$00@internal@shdfnd@physx@@QAEPAPAVTriangleMesh@Gu@4@ABQAV564@AA_N@Z 10013570 f i GuMeshFactory.obj
 0001:000126a0       ?createBVHStructure@GuMeshFactory@physx@@IAEPAVPxBVHStructure@2@AAUBVHStructureData@Gu@2@@Z 100136a0 f   GuMeshFactory.obj
 0001:00012760       ?createBVHStructure@GuMeshFactory@physx@@QAEPAVPxBVHStructure@2@AAVPxInputStream@2@@Z 10013760 f   GuMeshFactory.obj
 0001:00012840       ?createBVHStructure@GuMeshFactory@physx@@QAEPAVPxBVHStructure@2@PAX@Z 10013840 f   GuMeshFactory.obj
 0001:00012850       ?createConvexMesh@GuMeshFactory@physx@@IAEPAVPxConvexMesh@2@AAUConvexHullInitData@Gu@2@@Z 10013850 f   GuMeshFactory.obj
 0001:00012910       ?createConvexMesh@GuMeshFactory@physx@@QAEPAVPxConvexMesh@2@AAVPxInputStream@2@@Z 10013910 f   GuMeshFactory.obj
 0001:000129f0       ?createConvexMesh@GuMeshFactory@physx@@QAEPAVPxConvexMesh@2@PAX@Z 100139f0 f   GuMeshFactory.obj
 0001:00012a00       ?createHeightField@GuMeshFactory@physx@@QAEPAVPxHeightField@2@AAVPxInputStream@2@@Z 10013a00 f   GuMeshFactory.obj
 0001:00012ae0       ?createHeightField@GuMeshFactory@physx@@QAEPAVPxHeightField@2@PAX@Z 10013ae0 f   GuMeshFactory.obj
 0001:00012ba0       ?createTriangleMesh@GuMeshFactory@physx@@IAEPAVPxTriangleMesh@2@AAVTriangleMeshData@Gu@2@@Z 10013ba0 f   GuMeshFactory.obj
 0001:00012cd0       ?createTriangleMesh@GuMeshFactory@physx@@QAEPAVPxTriangleMesh@2@AAVPxInputStream@2@@Z 10013cd0 f   GuMeshFactory.obj
 0001:00012d10       ?createTriangleMesh@GuMeshFactory@physx@@QAEPAVPxTriangleMesh@2@PAX@Z 10013d10 f   GuMeshFactory.obj
 0001:00012d20       ?erase@?$HashBase@PAVTriangleMesh@Gu@physx@@PAV123@U?$Hash@PAVTriangleMesh@Gu@physx@@@shdfnd@3@UGetKey@?$HashSetBase@PAVTriangleMesh@Gu@physx@@U?$Hash@PAVTriangleMesh@Gu@physx@@@shdfnd@3@VNonTrackingAllocator@53@$00@internal@53@VNonTrackingAllocator@53@$00@internal@shdfnd@physx@@QAE_NABQAVTriangleMesh@Gu@4@@Z 10013d20 f i GuMeshFactory.obj
 0001:00012d20       ?erase@?$HashBase@PAVHeightField@Gu@physx@@PAV123@U?$Hash@PAVHeightField@Gu@physx@@@shdfnd@3@UGetKey@?$HashSetBase@PAVHeightField@Gu@physx@@U?$Hash@PAVHeightField@Gu@physx@@@shdfnd@3@VNonTrackingAllocator@53@$00@internal@53@VNonTrackingAllocator@53@$00@internal@shdfnd@physx@@QAE_NABQAVHeightField@Gu@4@@Z 10013d20 f i GuMeshFactory.obj
 0001:00012d20       ?erase@?$HashBase@PAVBVHStructure@Gu@physx@@PAV123@U?$Hash@PAVBVHStructure@Gu@physx@@@shdfnd@3@UGetKey@?$HashSetBase@PAVBVHStructure@Gu@physx@@U?$Hash@PAVBVHStructure@Gu@physx@@@shdfnd@3@VNonTrackingAllocator@53@$00@internal@53@VNonTrackingAllocator@53@$00@internal@shdfnd@physx@@QAE_NABQAVBVHStructure@Gu@4@@Z 10013d20 f i GuMeshFactory.obj
 0001:00012d20       ?erase@?$HashBase@PAVConvexMesh@Gu@physx@@PAV123@U?$Hash@PAVConvexMesh@Gu@physx@@@shdfnd@3@UGetKey@?$HashSetBase@PAVConvexMesh@Gu@physx@@U?$Hash@PAVConvexMesh@Gu@physx@@@shdfnd@3@VNonTrackingAllocator@53@$00@internal@53@VNonTrackingAllocator@53@$00@internal@shdfnd@physx@@QAE_NABQAVConvexMesh@Gu@4@@Z 10013d20 f i GuMeshFactory.obj
 0001:00012e20       ?getBVHStructures@GuMeshFactory@physx@@QBEIPAPAVPxBVHStructure@2@II@Z 10013e20 f   GuMeshFactory.obj
 0001:00012e90       ?getConvexMeshes@GuMeshFactory@physx@@QBEIPAPAVPxConvexMesh@2@II@Z 10013e90 f   GuMeshFactory.obj
 0001:00012ef0       ?getHeightFields@GuMeshFactory@physx@@QBEIPAPAVPxHeightField@2@II@Z 10013ef0 f   GuMeshFactory.obj
 0001:00012f50       ?getNbBVHStructures@GuMeshFactory@physx@@QBEIXZ 10013f50 f   GuMeshFactory.obj
 0001:00012f80       ?getNbConvexMeshes@GuMeshFactory@physx@@QBEIXZ 10013f80 f   GuMeshFactory.obj
 0001:00012fa0       ?getNbHeightFields@GuMeshFactory@physx@@QBEIXZ 10013fa0 f   GuMeshFactory.obj
 0001:00012fc0       ?getNbTriangleMeshes@GuMeshFactory@physx@@QBEIXZ 10013fc0 f   GuMeshFactory.obj
 0001:00012fe0       ?getTriangleMeshes@GuMeshFactory@physx@@QBEIPAPAVPxTriangleMesh@2@II@Z 10013fe0 f   GuMeshFactory.obj
 0001:00013040       ?growAndPushBack@?$Array@PAVGuMeshFactoryListener@physx@@V?$ReflectionAllocator@PAVGuMeshFactoryListener@physx@@@shdfnd@2@@shdfnd@physx@@IAEAAPAVGuMeshFactoryListener@3@ABQAV43@@Z 10014040 f i GuMeshFactory.obj
 0001:00013db0       ?notifyFactoryListener@GuMeshFactory@physx@@QAEXPBVPxBase@2@G@Z 10014db0 f   GuMeshFactory.obj
 0001:00013df0       ?release@GuMeshFactory@physx@@QAEXXZ 10014df0 f   GuMeshFactory.obj
 0001:00013e70       ?removeBVHStructure@GuMeshFactory@physx@@QAE_NAAVPxBVHStructure@2@@Z 10014e70 f   GuMeshFactory.obj
 0001:00013eb0       ?removeConvexMesh@GuMeshFactory@physx@@QAE_NAAVPxConvexMesh@2@@Z 10014eb0 f   GuMeshFactory.obj
 0001:00013ef0       ?removeFactoryListener@GuMeshFactory@physx@@QAEXAAVGuMeshFactoryListener@2@@Z 10014ef0 f   GuMeshFactory.obj
 0001:00013f50       ?removeHeightField@GuMeshFactory@physx@@QAE_NAAVPxHeightField@2@@Z 10014f50 f   GuMeshFactory.obj
 0001:00013f90       ?removeTriangleMesh@GuMeshFactory@physx@@QAE_NAAVPxTriangleMesh@2@@Z 10014f90 f   GuMeshFactory.obj
 0001:00013fd0       ?reserveInternal@?$HashBase@PAVHeightField@Gu@physx@@PAV123@U?$Hash@PAVHeightField@Gu@physx@@@shdfnd@3@UGetKey@?$HashSetBase@PAVHeightField@Gu@physx@@U?$Hash@PAVHeightField@Gu@physx@@@shdfnd@3@VNonTrackingAllocator@53@$00@internal@53@VNonTrackingAllocator@53@$00@internal@shdfnd@physx@@AAEXI@Z 10014fd0 f i GuMeshFactory.obj
 0001:00013fd0       ?reserveInternal@?$HashBase@PAVTriangleMesh@Gu@physx@@PAV123@U?$Hash@PAVTriangleMesh@Gu@physx@@@shdfnd@3@UGetKey@?$HashSetBase@PAVTriangleMesh@Gu@physx@@U?$Hash@PAVTriangleMesh@Gu@physx@@@shdfnd@3@VNonTrackingAllocator@53@$00@internal@53@VNonTrackingAllocator@53@$00@internal@shdfnd@physx@@AAEXI@Z 10014fd0 f i GuMeshFactory.obj
 0001:00013fd0       ?reserveInternal@?$HashBase@PAVBVHStructure@Gu@physx@@PAV123@U?$Hash@PAVBVHStructure@Gu@physx@@@shdfnd@3@UGetKey@?$HashSetBase@PAVBVHStructure@Gu@physx@@U?$Hash@PAVBVHStructure@Gu@physx@@@shdfnd@3@VNonTrackingAllocator@53@$00@internal@53@VNonTrackingAllocator@53@$00@internal@shdfnd@physx@@AAEXI@Z 10014fd0 f i GuMeshFactory.obj
 0001:00013fd0       ?reserveInternal@?$HashBase@PAVConvexMesh@Gu@physx@@PAV123@U?$Hash@PAVConvexMesh@Gu@physx@@@shdfnd@3@UGetKey@?$HashSetBase@PAVConvexMesh@Gu@physx@@U?$Hash@PAVConvexMesh@Gu@physx@@@shdfnd@3@VNonTrackingAllocator@53@$00@internal@53@VNonTrackingAllocator@53@$00@internal@shdfnd@physx@@AAEXI@Z 10014fd0 f i GuMeshFactory.obj
 0001:00014170       ??4BigConvexData@physx@@QAEAAV01@ABV01@@Z 10015170 f i GuMetaData.obj
 0001:00014190       ?getNbBounds@BVHStructure@Gu@physx@@UBEIXZ 10015190 f i GuBVHStructure.obj
 0001:00014190       ?getNbTriangles@TriangleMesh@Gu@physx@@UBEIXZ 10015190 f i GuTriangleMesh.obj
 0001:00014190       ?GetAdjacentVerts@BigConvexData@physx@@QBEPBEXZ 10015190 f i GuMetaData.obj
 0001:000141a0       ?GetValency@BigConvexData@physx@@QBEGI@Z 100151a0 f i GuMetaData.obj
 0001:000141a0       ?GetNbNeighbors@BigConvexData@physx@@QBEGI@Z 100151a0 f i GuMetaData.obj
 0001:000141b0       ?GetNbSamples@BigConvexData@physx@@QBEIXZ 100151b0 f i GuMetaData.obj
 0001:000141c0       ?GetNeighbors@BigConvexData@physx@@QBEPBEI@Z 100151c0 f i GuMetaData.obj
 0001:000141e0       ?GetOffset@BigConvexData@physx@@QBEGI@Z 100151e0 f i GuMetaData.obj
 0001:000141f0       ?GetSubdiv@BigConvexData@physx@@QBEIXZ 100151f0 f i GuMetaData.obj
 0001:00014200       ?getBinaryMetaData@BV4Tree@Gu@physx@@SAXAAVPxOutputStream@3@@Z 10015200 f   GuMetaData.obj
 0001:00014650       ?getBinaryMetaData@BV4TriangleMesh@Gu@physx@@SAXAAVPxOutputStream@3@@Z 10015650 f   GuMetaData.obj
 0001:000149c0       ?getBinaryMetaData@BigConvexData@physx@@SAXAAVPxOutputStream@2@@Z 100159c0 f   GuMetaData.obj
 0001:00014d30       ?getBinaryMetaData@ConvexMesh@Gu@physx@@SAXAAVPxOutputStream@3@@Z 10015d30 f   GuMetaData.obj
 0001:00015570       ?getBinaryMetaData@GeometryUnion@Gu@physx@@SAXAAVPxOutputStream@3@@Z 10016570 f   GuMetaData.obj
 0001:00015e70       ?getBinaryMetaData@HeightField@Gu@physx@@SAXAAVPxOutputStream@3@@Z 10016e70 f   GuMetaData.obj
 0001:000163b0       ?getBinaryMetaData@MaterialIndicesStruct@physx@@SAXAAVPxOutputStream@2@@Z 100173b0 f   GuMetaData.obj
 0001:00016540       ?getBinaryMetaData@RTree@Gu@physx@@SAXAAVPxOutputStream@3@@Z 10017540 f   GuMetaData.obj
 0001:00016940       ?getBinaryMetaData@RTreeTriangleMesh@Gu@physx@@SAXAAVPxOutputStream@3@@Z 10017940 f   GuMetaData.obj
 0001:00017330       ?getBinaryMetaData@TriangleMesh@Gu@physx@@SAXAAVPxOutputStream@3@@Z 10018330 f   GuMetaData.obj
 0001:00018bc0       ?doSupport@?$SupportLocalImpl@VConvexHullV@Gu@physx@@@Gu@physx@@UBE?AT__m128@@ABT4@@Z 10019bc0 f i GuMTD.obj
 0001:00018c70       ?doSupport@?$SupportLocalImpl@VConvexHullV@Gu@physx@@@Gu@physx@@UBEXABT__m128@@AAT4@1@Z 10019c70 f i GuMTD.obj
 0001:00018f80       ?populateVerts@?$SupportLocalImpl@VConvexHullV@Gu@physx@@@Gu@physx@@UBEXPBEIPBVPxVec3@3@PAT__m128@@@Z 10019f80 f i GuMTD.obj
 0001:00018ff0       ??_G?$SupportLocalImpl@VConvexHullV@Gu@physx@@@Gu@physx@@UAEPAXI@Z 10019ff0 f i GuMTD.obj
 0001:00018ff0       ??_G?$SupportLocalImpl@VBoxV@Gu@physx@@@Gu@physx@@UAEPAXI@Z 10019ff0 f i GuMTD.obj
 0001:00018ff0       ??_G?$SupportLocalImpl@VConvexHullNoScaleV@Gu@physx@@@Gu@physx@@UAEPAXI@Z 10019ff0 f i GuMTD.obj
 0001:00018ff0       ??_E?$SupportLocalImpl@VTriangleV@Gu@physx@@@Gu@physx@@UAEPAXI@Z 10019ff0 f i GuPCMContactConvexCommon.obj
 0001:00018ff0       ??_E?$SupportLocalImpl@VConvexHullNoScaleV@Gu@physx@@@Gu@physx@@UAEPAXI@Z 10019ff0 f i GuMTD.obj
 0001:00018ff0       ??_G?$SupportLocalImpl@VTriangleV@Gu@physx@@@Gu@physx@@UAEPAXI@Z 10019ff0 f i GuPCMContactConvexCommon.obj
 0001:00018ff0       ??_E?$SupportLocalImpl@VBoxV@Gu@physx@@@Gu@physx@@UAEPAXI@Z 10019ff0 f i GuMTD.obj
 0001:00018ff0       ??_E?$SupportLocalImpl@VConvexHullV@Gu@physx@@@Gu@physx@@UAEPAXI@Z 10019ff0 f i GuMTD.obj
 0001:00019020       ?doSupport@?$SupportLocalImpl@VConvexHullNoScaleV@Gu@physx@@@Gu@physx@@UBE?AT__m128@@ABT4@@Z 1001a020 f i GuMTD.obj
 0001:00019050       ?doSupport@?$SupportLocalImpl@VConvexHullNoScaleV@Gu@physx@@@Gu@physx@@UBEXABT__m128@@AAT4@1@Z 1001a050 f i GuMTD.obj
 0001:000191a0       ?populateVerts@?$SupportLocalImpl@VConvexHullNoScaleV@Gu@physx@@@Gu@physx@@UBEXPBEIPBVPxVec3@3@PAT__m128@@@Z 1001a1a0 f i GuMTD.obj
 0001:000191a0       ?populateVerts@?$SupportLocalImpl@VBoxV@Gu@physx@@@Gu@physx@@UBEXPBEIPBVPxVec3@3@PAT__m128@@@Z 1001a1a0 f i GuMTD.obj
 0001:000191e0       ?doSupport@?$SupportLocalImpl@VBoxV@Gu@physx@@@Gu@physx@@UBE?AT__m128@@ABT4@@Z 1001a1e0 f i GuMTD.obj
 0001:00019210       ?doSupport@?$SupportLocalImpl@VBoxV@Gu@physx@@@Gu@physx@@UBEXABT__m128@@AAT4@1@Z 1001a210 f i GuMTD.obj
 0001:00019270       ??_GSupportLocal@Gu@physx@@UAEPAXI@Z 1001a270 f i GuMTD.obj
 0001:00019270       ??_ESupportLocal@Gu@physx@@UAEPAXI@Z 1001a270 f i GuMTD.obj
 0001:0001ad00       ??$gjk@U?$LocalConvex@VCapsuleV@Gu@physx@@@Gu@physx@@U?$LocalConvex@VConvexHullV@Gu@physx@@@23@@Gu@physx@@YA?AW4GjkStatus@01@ABU?$LocalConvex@VCapsuleV@Gu@physx@@@01@ABU?$LocalConvex@VConvexHullV@Gu@physx@@@01@ABT__m128@@2AAT5@333@Z 1001bd00 f i GuMTD.obj
 0001:0001bc80       ??0MultiplePersistentContactManifold@Gu@physx@@QAE@XZ 1001cc80 f i GuMTD.obj
 0001:0001bd00       ??0PolygonalBox@Gu@physx@@QAE@ABV012@@Z 1001cd00 f i GuMTD.obj
 0001:0001bf80       ??0SeparatingAxes@Gu@physx@@QAE@ABV012@@Z 1001cf80 f i GuMTD.obj
 0001:0001bf80       ??0SeparatingAxes@Gu@physx@@QAE@$$QAV012@@Z 1001cf80 f i GuMTD.obj
 0001:0001c040       ??0SeparatingAxes@Gu@physx@@QAE@XZ 1001d040 f i GuMTD.obj
 0001:0001c050       ??4MultiplePersistentContactManifold@Gu@physx@@QAEAAV012@$$QAV012@@Z 1001d050 f i GuMTD.obj
 0001:0001c140       ??4MultiplePersistentContactManifold@Gu@physx@@QAEAAV012@ABV012@@Z 1001d140 f i GuMTD.obj
 0001:0001c160       ??4SeparatingAxes@Gu@physx@@QAEAAV012@$$QAV012@@Z 1001d160 f i GuMTD.obj
 0001:0001c160       ??4SeparatingAxes@Gu@physx@@QAEAAV012@ABV012@@Z 1001d160 f i GuMTD.obj
 0001:0001c230       ??_G?$LocalConvex@VConvexHullNoScaleV@Gu@physx@@@Gu@physx@@UAEPAXI@Z 1001d230 f i GuPCMContactBoxConvex.obj
 0001:0001c230       ??_G?$LocalConvex@VCapsuleV@Gu@physx@@@Gu@physx@@UAEPAXI@Z 1001d230 f i GuMTD.obj
 0001:0001c230       ??_GGjkConvexBase@Gu@physx@@UAEPAXI@Z 1001d230 f i GuMTD.obj
 0001:0001c230       ??_G?$LocalConvex@VBoxV@Gu@physx@@@Gu@physx@@UAEPAXI@Z 1001d230 f i GuSweepTests.obj
 0001:0001c230       ??_G?$LocalConvex@VConvexHullV@Gu@physx@@@Gu@physx@@UAEPAXI@Z 1001d230 f i GuMTD.obj
 0001:0001c230       ??_E?$LocalConvex@VConvexHullNoScaleV@Gu@physx@@@Gu@physx@@UAEPAXI@Z 1001d230 f i GuPCMContactBoxConvex.obj
 0001:0001c230       ??_E?$LocalConvex@VConvexHullV@Gu@physx@@@Gu@physx@@UAEPAXI@Z 1001d230 f i GuMTD.obj
 0001:0001c230       ??_G?$LocalConvex@VTriangleV@Gu@physx@@@Gu@physx@@UAEPAXI@Z 1001d230 f i GuSweepTests.obj
 0001:0001c230       ??_E?$LocalConvex@VTriangleV@Gu@physx@@@Gu@physx@@UAEPAXI@Z 1001d230 f i GuSweepTests.obj
 0001:0001c230       ??_E?$LocalConvex@VBoxV@Gu@physx@@@Gu@physx@@UAEPAXI@Z 1001d230 f i GuSweepTests.obj
 0001:0001c230       ??_EGjkConvexBase@Gu@physx@@UAEPAXI@Z 1001d230 f i GuMTD.obj
 0001:0001c230       ??_E?$LocalConvex@VCapsuleV@Gu@physx@@@Gu@physx@@UAEPAXI@Z 1001d230 f i GuMTD.obj
 0001:0001c9c0       ?clearManifold@MultiplePersistentContactManifold@Gu@physx@@QAEXXZ 1001d9c0 f i GuMTD.obj
 0001:0001ff70       ?getAxes@SeparatingAxes@Gu@physx@@QBEPBVPxVec3@3@XZ 10020f70 f i GuMTD.obj
 0001:0001ff80       ?getCenter@?$LocalConvex@VBoxV@Gu@physx@@@Gu@physx@@UBE?AT__m128@@XZ 10020f80 f i GuSweepTests.obj
 0001:0001ff80       ?getCenter@?$LocalConvex@VConvexHullNoScaleV@Gu@physx@@@Gu@physx@@UBE?AT__m128@@XZ 10020f80 f i GuPCMContactBoxConvex.obj
 0001:0001ff80       ?getCenter@?$LocalConvex@VCapsuleV@Gu@physx@@@Gu@physx@@UBE?AT__m128@@XZ 10020f80 f i GuMTD.obj
 0001:0001ff80       ?getCenter@?$LocalConvex@VTriangleV@Gu@physx@@@Gu@physx@@UBE?AT__m128@@XZ 10020f80 f i GuSweepTests.obj
 0001:0001ff80       ?getCenter@?$LocalConvex@VConvexHullV@Gu@physx@@@Gu@physx@@UBE?AT__m128@@XZ 10020f80 f i GuMTD.obj
 0001:0001ff90       ?getEmptyManifold@MultiplePersistentContactManifold@Gu@physx@@QAEPAVSinglePersistentContactManifold@23@XZ 10020f90 f i GuMTD.obj
 0001:0001ffb0       ?getManifold@MultiplePersistentContactManifold@Gu@physx@@QAEPAVSinglePersistentContactManifold@23@I@Z 10020fb0 f i GuMTD.obj
 0001:0001ffd0       ?getSweepMargin@?$LocalConvex@VCapsuleV@Gu@physx@@@Gu@physx@@UBE?AT__m128@@XZ 10020fd0 f i GuMTD.obj
 0001:0001ffd0       ?getSweepMargin@?$RelativeConvex@VCapsuleV@Gu@physx@@@Gu@physx@@UBE?AT__m128@@XZ 10020fd0 f i GuCCDSweepPrimitives.obj
 0001:0001ffe0       ?getSweepMargin@?$RelativeConvex@VConvexHullNoScaleV@Gu@physx@@@Gu@physx@@UBE?AT__m128@@XZ 10020fe0 f i GuPCMContactConvexConvex.obj
 0001:0001ffe0       ?getSweepMargin@?$RelativeConvex@VConvexHullV@Gu@physx@@@Gu@physx@@UBE?AT__m128@@XZ 10020fe0 f i GuOverlapTests.obj
 0001:0001ffe0       ?getSweepMargin@?$LocalConvex@VConvexHullV@Gu@physx@@@Gu@physx@@UBE?AT__m128@@XZ 10020fe0 f i GuMTD.obj
 0001:0001ffe0       ?getSweepMargin@?$LocalConvex@VConvexHullNoScaleV@Gu@physx@@@Gu@physx@@UBE?AT__m128@@XZ 10020fe0 f i GuPCMContactBoxConvex.obj
 0001:0001ffe0       ?getSweepMargin@?$RelativeConvex@VBoxV@Gu@physx@@@Gu@physx@@UBE?AT__m128@@XZ 10020fe0 f i GuOverlapTests.obj
 0001:0001ffe0       ?getSweepMargin@?$LocalConvex@VBoxV@Gu@physx@@@Gu@physx@@UBE?AT__m128@@XZ 10020fe0 f i GuSweepTests.obj
 0001:00020000       ?hillClimbing@ConvexHullV@Gu@physx@@QBEIABT__m128@@@Z 10021000 f i GuMTD.obj
 0001:000202c0       ?initialize@MultiplePersistentContactManifold@Gu@physx@@QAEXXZ 100212c0 f i GuMTD.obj
 0001:00020330       ?invalidate@MultiplePersistentContactManifold@Gu@physx@@QAEIABVPsTransformV@aos@shdfnd@3@ABT__m128@@1@Z 10021330 f i GuMTD.obj
 0001:000203c0       ?invalidate@MultiplePersistentContactManifold@Gu@physx@@QAEIABVPsTransformV@aos@shdfnd@3@ABT__m128@@@Z 100213c0 f i GuMTD.obj
 0001:00020450       ?maxTransformPositionDelta@MultiplePersistentContactManifold@Gu@physx@@QAE?AT__m128@@ABT4@@Z 10021450 f i GuMTD.obj
 0001:00020490       ?maxTransformQuatDelta@MultiplePersistentContactManifold@Gu@physx@@QAE?AT__m128@@ABT4@@Z 10021490 f i GuMTD.obj
 0001:000204d0       ?pointConvexDistance@@YA_NAAVPxVec3@physx@@0AAMABV12@PBVConvexMesh@Gu@2@ABVPxMeshScale@2@ABVPxTransform@2@@Z 100214d0 f   GuMTD.obj
 0001:00021120       ?reduceManifoldContactsInDifferentPatches@MultiplePersistentContactManifold@Gu@physx@@QAEIPAPAUPCMContactPatch@23@IPAVMeshPersistentContact@23@IABT__m128@@@Z 10022120 f i GuMTD.obj
 0001:00021280       ?refineContactPatchConnective@MultiplePersistentContactManifold@Gu@physx@@QAEXPAPAUPCMContactPatch@23@IPAVMeshPersistentContact@23@ABT__m128@@@Z 10022280 f i GuMTD.obj
 0001:00021340       ?refreshManifold@MultiplePersistentContactManifold@Gu@physx@@QAEXABVPsMatTransformV@aos@shdfnd@3@ABT__m128@@1@Z 10022340 f i GuMTD.obj
 0001:00021420       ?reset@SeparatingAxes@Gu@physx@@QAEXXZ 10022420 f i GuMTD.obj
 0001:00021430       ?setRelativeTransform@MultiplePersistentContactManifold@Gu@physx@@QAEXABVPsTransformV@aos@shdfnd@3@@Z 10022430 f i GuMTD.obj
 0001:00021450       ?support@?$LocalConvex@VCapsuleV@Gu@physx@@@Gu@physx@@UBE?AT__m128@@ABT4@@Z 10022450 f i GuMTD.obj
 0001:000214b0       ?support@?$LocalConvex@VCapsuleV@Gu@physx@@@Gu@physx@@UBE?AT__m128@@ABT4@AAH@Z 100224b0 f i GuMTD.obj
 0001:00021530       ?support@?$LocalConvex@VConvexHullV@Gu@physx@@@Gu@physx@@UBE?AT__m128@@ABT4@@Z 10022530 f i GuMTD.obj
 0001:000215e0       ?support@?$LocalConvex@VConvexHullV@Gu@physx@@@Gu@physx@@UBE?AT__m128@@ABT4@AAH@Z 100225e0 f i GuMTD.obj
 0001:00021690       ?supportPoint@?$LocalConvex@VCapsuleV@Gu@physx@@@Gu@physx@@UBE?AT__m128@@H@Z 10022690 f i GuMTD.obj
 0001:000216b0       ?supportPoint@?$LocalConvex@VConvexHullV@Gu@physx@@@Gu@physx@@UBE?AT__m128@@H@Z 100226b0 f i GuMTD.obj
 0001:00021700       ?supportVertexIndex@ConvexHullV@Gu@physx@@QBEIABT__m128@@@Z 10022700 f i GuMTD.obj
 0001:000217b0       ?toBuffer@MultiplePersistentContactManifold@Gu@physx@@QAEXPIAE@Z 100227b0 f i GuMTD.obj
 0001:00021890       ?supportPoint@?$RelativeConvex@VBoxV@Gu@physx@@@Gu@physx@@UBE?AT__m128@@H@Z 10022890 f i GuOverlapTests.obj
 0001:000218f0       ?support@?$RelativeConvex@VBoxV@Gu@physx@@@Gu@physx@@UBE?AT__m128@@ABT4@@Z 100228f0 f i GuOverlapTests.obj
 0001:00021970       ?support@?$RelativeConvex@VBoxV@Gu@physx@@@Gu@physx@@UBE?AT__m128@@ABT4@AAH@Z 10022970 f i GuOverlapTests.obj
 0001:00021a00       ?getCenter@?$RelativeConvex@VConvexHullNoScaleV@Gu@physx@@@Gu@physx@@UBE?AT__m128@@XZ 10022a00 f i GuPCMContactConvexConvex.obj
 0001:00021a00       ?getCenter@?$RelativeConvex@VBoxV@Gu@physx@@@Gu@physx@@UBE?AT__m128@@XZ 10022a00 f i GuOverlapTests.obj
 0001:00021a00       ?getCenter@?$RelativeConvex@VCapsuleV@Gu@physx@@@Gu@physx@@UBE?AT__m128@@XZ 10022a00 f i GuCCDSweepPrimitives.obj
 0001:00021a00       ?getCenter@?$RelativeConvex@VTriangleV@Gu@physx@@@Gu@physx@@UBE?AT__m128@@XZ 10022a00 f i GuCCDSweepPrimitives.obj
 0001:00021a00       ?getCenter@?$RelativeConvex@VConvexHullV@Gu@physx@@@Gu@physx@@UBE?AT__m128@@XZ 10022a00 f i GuOverlapTests.obj
 0001:00021a40       ??_G?$RelativeConvex@VConvexHullNoScaleV@Gu@physx@@@Gu@physx@@UAEPAXI@Z 10022a40 f i GuPCMContactConvexConvex.obj
 0001:00021a40       ??_G?$RelativeConvex@VBoxV@Gu@physx@@@Gu@physx@@UAEPAXI@Z 10022a40 f i GuOverlapTests.obj
 0001:00021a40       ??_G?$RelativeConvex@VConvexHullV@Gu@physx@@@Gu@physx@@UAEPAXI@Z 10022a40 f i GuOverlapTests.obj
 0001:00021a40       ??_E?$RelativeConvex@VConvexHullNoScaleV@Gu@physx@@@Gu@physx@@UAEPAXI@Z 10022a40 f i GuPCMContactConvexConvex.obj
 0001:00021a40       ??_E?$RelativeConvex@VBoxV@Gu@physx@@@Gu@physx@@UAEPAXI@Z 10022a40 f i GuOverlapTests.obj
 0001:00021a40       ??_G?$RelativeConvex@VTriangleV@Gu@physx@@@Gu@physx@@UAEPAXI@Z 10022a40 f i GuCCDSweepPrimitives.obj
 0001:00021a40       ??_G?$RelativeConvex@VCapsuleV@Gu@physx@@@Gu@physx@@UAEPAXI@Z 10022a40 f i GuCCDSweepPrimitives.obj
 0001:00021a40       ??_E?$RelativeConvex@VTriangleV@Gu@physx@@@Gu@physx@@UAEPAXI@Z 10022a40 f i GuCCDSweepPrimitives.obj
 0001:00021a40       ??_E?$RelativeConvex@VConvexHullV@Gu@physx@@@Gu@physx@@UAEPAXI@Z 10022a40 f i GuOverlapTests.obj
 0001:00021a40       ??_E?$RelativeConvex@VCapsuleV@Gu@physx@@@Gu@physx@@UAEPAXI@Z 10022a40 f i GuCCDSweepPrimitives.obj
 0001:00023e00       ?supportPoint@?$RelativeConvex@VConvexHullV@Gu@physx@@@Gu@physx@@UBE?AT__m128@@H@Z 10024e00 f i GuOverlapTests.obj
 0001:00023e80       ?support@?$RelativeConvex@VConvexHullV@Gu@physx@@@Gu@physx@@UBE?AT__m128@@ABT4@@Z 10024e80 f i GuOverlapTests.obj
 0001:00023f80       ?support@?$RelativeConvex@VConvexHullV@Gu@physx@@@Gu@physx@@UBE?AT__m128@@ABT4@AAH@Z 10024f80 f i GuOverlapTests.obj
 0001:000240b0       ??$gjk@U?$RelativeConvex@VBoxV@Gu@physx@@@Gu@physx@@U?$LocalConvex@VConvexHullV@Gu@physx@@@23@@Gu@physx@@YA?AW4GjkStatus@01@ABU?$RelativeConvex@VBoxV@Gu@physx@@@01@ABU?$LocalConvex@VConvexHullV@Gu@physx@@@01@ABT__m128@@2AAT5@333@Z 100250b0 f i GuOverlapTests.obj
 0001:00025080       ??$gjk@U?$RelativeConvex@VConvexHullV@Gu@physx@@@Gu@physx@@U?$LocalConvex@VConvexHullV@Gu@physx@@@23@@Gu@physx@@YA?AW4GjkStatus@01@ABU?$RelativeConvex@VConvexHullV@Gu@physx@@@01@ABU?$LocalConvex@VConvexHullV@Gu@physx@@@01@ABT__m128@@2AAT5@333@Z 10026080 f i GuOverlapTests.obj
 0001:00026170       ?ComputeCubemapNearestOffset@physx@@YAIABVPxVec3@1@I@Z 10027170 f i GuOverlapTests.obj
 0001:000262b0       ?getOverlapFuncTable@Gu@physx@@YAPAY06Q6A_NABVPxGeometry@2@ABVPxTransform@2@01PAUTriggerCache@12@@ZXZ 100272b0 f   GuOverlapTests.obj
 0001:00027ff0       ?registerHeightFields@Gu@physx@@YAXXZ 10028ff0 f   GuOverlapTests.obj
 0001:00028030       ?raycast_box@@YAIABVPxGeometry@physx@@ABVPxTransform@2@ABVPxVec3@2@2MV?$PxFlags@W4Enum@PxHitFlag@physx@@G@2@IPIAUPxRaycastHit@2@@Z 10029030 f   GuRaycastTests.obj
 0001:00028670       ?raycast_sphere@@YAIABVPxGeometry@physx@@ABVPxTransform@2@ABVPxVec3@2@2MV?$PxFlags@W4Enum@PxHitFlag@physx@@G@2@IPIAUPxRaycastHit@2@@Z 10029670 f   GuRaycastTests.obj
 0001:000287e0       ?raycast_capsule@@YAIABVPxGeometry@physx@@ABVPxTransform@2@ABVPxVec3@2@2MV?$PxFlags@W4Enum@PxHitFlag@physx@@G@2@IPIAUPxRaycastHit@2@@Z 100297e0 f   GuRaycastTests.obj
 0001:00028ce0       ?raycast_plane@@YAIABVPxGeometry@physx@@ABVPxTransform@2@ABVPxVec3@2@2MV?$PxFlags@W4Enum@PxHitFlag@physx@@G@2@IPIAUPxRaycastHit@2@@Z 10029ce0 f   GuRaycastTests.obj
 0001:00028e10       ?raycast_convexMesh@@YAIABVPxGeometry@physx@@ABVPxTransform@2@ABVPxVec3@2@2MV?$PxFlags@W4Enum@PxHitFlag@physx@@G@2@IPIAUPxRaycastHit@2@@Z 10029e10 f   GuRaycastTests.obj
 0001:00029ae0       ?raycast_triangleMesh@@YAIABVPxGeometry@physx@@ABVPxTransform@2@ABVPxVec3@2@2MV?$PxFlags@W4Enum@PxHitFlag@physx@@G@2@IPIAUPxRaycastHit@2@@Z 1002aae0 f   GuRaycastTests.obj
 0001:0002b260       ??Dphysx@@YA?AVMatrix34@Cm@0@ABVPxMeshScale@0@ABVPxTransform@0@@Z 1002c260 f i GuRaycastTests.obj
 0001:0002be40       ?getRaycastFuncTable@Gu@physx@@YAAAY06Q6AIABVPxGeometry@2@ABVPxTransform@2@ABVPxVec3@2@2MV?$PxFlags@W4Enum@PxHitFlag@physx@@G@2@IPIAUPxRaycastHit@2@@ZXZ 1002ce40 f   GuRaycastTests.obj
 0001:0002be50       ?raycast_heightField@@YAIABVPxGeometry@physx@@ABVPxTransform@2@ABVPxVec3@2@2MV?$PxFlags@W4Enum@PxHitFlag@physx@@G@2@IPIAUPxRaycastHit@2@@Z 1002ce50 f   GuRaycastTests.obj
 0001:0002c660       ?registerHeightFields_Raycasts@@YAXXZ 1002d660 f   GuRaycastTests.obj
 0001:0002c670       ?ReadHeader@Gu@physx@@YA_NEEEEAAIAA_NAAVPxInputStream@2@@Z 1002d670 f   GuSerialize.obj
 0001:0002c770       ?ReadIndices@Gu@physx@@YAXGIPAGAAVPxInputStream@2@_N@Z 1002d770 f   GuSerialize.obj
 0001:0002c880       ?StoreIndices@Gu@physx@@YAXGIPBGAAVPxOutputStream@2@_N@Z 1002d880 f   GuSerialize.obj
 0001:0002c910       ?StoreIndices@Gu@physx@@YAXIIPBIAAVPxOutputStream@2@_N@Z 1002d910 f   GuSerialize.obj
 0001:0002ca10       ?WriteHeader@Gu@physx@@YA_NEEEEI_NAAVPxOutputStream@2@@Z 1002da10 f   GuSerialize.obj
 0001:0002cb00       ?computeMaxIndex@physx@@YAGPBGI@Z 1002db00 f   GuSerialize.obj
 0001:0002cb40       ?computeMaxIndex@physx@@YAIPBII@Z 1002db40 f   GuSerialize.obj
 0001:0002cb70       ?readChunk@physx@@YAXAAC000AAVPxInputStream@1@@Z 1002db70 f   GuSerialize.obj
 0001:0002cbb0       ?readDword@physx@@YAI_NAAVPxInputStream@1@@Z 1002dbb0 f   GuSerialize.obj
 0001:0002cbf0       ?readFloat@physx@@YAM_NAAVPxInputStream@1@@Z 1002dbf0 f   GuSerialize.obj
 0001:0002cc30       ?readFloatBuffer@physx@@YA_NPAMI_NAAVPxInputStream@1@@Z 1002dc30 f   GuSerialize.obj
 0001:0002cc90       ?readHeader@physx@@YA_NCCCCAAIAA_NAAVPxInputStream@1@@Z 1002dc90 f   GuSerialize.obj
 0001:0002cd80       ?readIndices@physx@@YAXIIPAIAAVPxInputStream@1@_N@Z 1002dd80 f   GuSerialize.obj
 0001:0002ce40       ?readWord@physx@@YAG_NAAVPxInputStream@1@@Z 1002de40 f   GuSerialize.obj
 0001:0002ce70       ?readWordBuffer@physx@@YAXPAGI_NAAVPxInputStream@1@@Z 1002de70 f   GuSerialize.obj
 0001:0002ceb0       ?storeIndices@physx@@YAXIIPBIAAVPxOutputStream@1@_N@Z 1002deb0 f   GuSerialize.obj
 0001:0002cf80       ?writeDword@physx@@YAXI_NAAVPxOutputStream@1@@Z 1002df80 f   GuSerialize.obj
 0001:0002cf80       ?writeFloat@physx@@YAXM_NAAVPxOutputStream@1@@Z 1002df80 f   GuSerialize.obj
 0001:0002cfc0       ?writeFloatBuffer@physx@@YAXPBMI_NAAVPxOutputStream@1@@Z 1002dfc0 f   GuSerialize.obj
 0001:0002d040       ?writeHeader@physx@@YA_NCCCCI_NAAVPxOutputStream@1@@Z 1002e040 f   GuSerialize.obj
 0001:0002d130       ?writeWord@physx@@YAXG_NAAVPxOutputStream@1@@Z 1002e130 f   GuSerialize.obj
 0001:0002d160       ?writeWordBuffer@physx@@YAXPBGI_NAAVPxOutputStream@1@@Z 1002e160 f   GuSerialize.obj
 0001:0002d1d0       ??0FastVertex2ShapeScaling@Cm@physx@@QAE@XZ 1002e1d0 f i GuSweepMTD.obj
 0001:0002d260       ??Dphysx@@YA?AVMatrix34@Cm@0@ABVPxTransform@0@ABVPxMeshScale@0@@Z 1002e260 f i GuSweepMTD.obj
 0001:0002d870       ??_E?$MeshHitCallback@UPxRaycastHit@physx@@@Gu@physx@@UAEPAXI@Z 1002e870 f i GuSweepMTD.obj
 0001:0002d870       ??_G?$MeshHitCallback@UPxRaycastHit@physx@@@Gu@physx@@UAEPAXI@Z 1002e870 f i GuSweepMTD.obj
 0001:0002d8a0       ??_EMeshMTDGenerationCallback@@UAEPAXI@Z 1002e8a0 f i GuSweepMTD.obj
 0001:0002d8a0       ??_GMeshMTDGenerationCallback@@UAEPAXI@Z 1002e8a0 f i GuSweepMTD.obj
 0001:0002d8d0       ??_GMidPhaseQueryLocalReport@@UAEPAXI@Z 1002e8d0 f i GuSweepMTD.obj
 0001:0002d8d0       ??_EMidPhaseQueryLocalReport@@UAEPAXI@Z 1002e8d0 f i GuSweepMTD.obj
 0001:0002d900       ?allocate@?$ReflectionAllocator@I@shdfnd@physx@@QAEPAXIPBDH@Z 1002e900 f i GuSweepMTD.obj
 0001:0002dce0       ?computeBox_HeightFieldMTD@Gu@physx@@YA_NABVPxHeightFieldGeometry@2@ABVPxTransform@2@ABVBox@12@1M_NIAAUPxSweepHit@2@@Z 1002ece0 f   GuSweepMTD.obj
 0001:0002ec90       ?computeBox_TriangleMeshMTD@Gu@physx@@YA_NABVPxTriangleMeshGeometry@2@ABVPxTransform@2@ABVBox@12@1M_NAAUPxSweepHit@2@@Z 1002fc90 f   GuSweepMTD.obj
 0001:0002f970       ?computeCapsule_CapsuleMTD@Gu@physx@@YA_NABVCapsule@12@0AAUPxSweepHit@2@@Z 10030970 f   GuSweepMTD.obj
 0001:0002fb70       ?computeCapsule_HeightFieldMTD@Gu@physx@@YA_NABVPxHeightFieldGeometry@2@ABVPxTransform@2@AAVCapsuleV@12@M_NIAAUPxSweepHit@2@@Z 10030b70 f   GuSweepMTD.obj
 0001:00030200       ?computeCapsule_TriangleMeshMTD@Gu@physx@@YA_NABVPxTriangleMeshGeometry@2@ABVPxTransform@2@AAVCapsuleV@12@M_NAAUPxSweepHit@2@@Z 10031200 f   GuSweepMTD.obj
 0001:00030920       ?computeConvex_HeightFieldMTD@Gu@physx@@YA_NABVPxHeightFieldGeometry@2@ABVPxTransform@2@ABVPxConvexMeshGeometry@2@1M_NIAAUPxSweepHit@2@@Z 10031920 f   GuSweepMTD.obj
 0001:00031d50       ?computeConvex_TriangleMeshMTD@Gu@physx@@YA_NABVPxTriangleMeshGeometry@2@ABVPxTransform@2@ABVPxConvexMeshGeometry@2@1M_NAAUPxSweepHit@2@@Z 10032d50 f   GuSweepMTD.obj
 0001:00033100       ?computePlane_BoxMTD@Gu@physx@@YA_NABVPxPlane@2@ABVBox@12@AAUPxSweepHit@2@@Z 10034100 f   GuSweepMTD.obj
 0001:00033340       ?computePlane_CapsuleMTD@Gu@physx@@YA_NABVPxPlane@2@ABVCapsule@12@AAUPxSweepHit@2@@Z 10034340 f   GuSweepMTD.obj
 0001:00033430       ?computePlane_ConvexMTD@Gu@physx@@YA_NABVPxPlane@2@ABVPxConvexMeshGeometry@2@ABVPxTransform@2@AAUPxSweepHit@2@@Z 10034430 f   GuSweepMTD.obj
 0001:00033890       ?computeSphere_CapsuleMTD@Gu@physx@@YA_NABVSphere@12@ABVCapsule@12@AAUPxSweepHit@2@@Z 10034890 f   GuSweepMTD.obj
 0001:00033a20       ?computeSphere_SphereMTD@Gu@physx@@YA_NABVSphere@12@0AAUPxSweepHit@2@@Z 10034a20 f   GuSweepMTD.obj
 0001:00033b00       ?getInverse@PxMat33@physx@@QBE?BV12@XZ 10034b00 f i GuSweepMTD.obj
 0001:00033d50       ?growAndPushBack@?$Array@IV?$ReflectionAllocator@I@shdfnd@physx@@@shdfnd@physx@@IAEAAIABI@Z 10034d50 f i GuSweepMTD.obj
 0001:00033df0       ?init@FastVertex2ShapeScaling@Cm@physx@@QAEXABVPxVec3@3@ABVPxQuat@3@@Z 10034df0 f i GuSweepMTD.obj
 0001:000341a0       ?onEvent@MidPhaseQueryLocalReport@@UAE_NIPAI@Z 100351a0 f i GuSweepMTD.obj
 0001:000341f0       ?processHit@MeshMTDGenerationCallback@@UAE_NABUPxRaycastHit@physx@@ABVPxVec3@3@11AAMPBI@Z 100351f0 f i GuSweepMTD.obj
 0001:00034230       ?recreate@?$Array@IV?$ReflectionAllocator@I@shdfnd@physx@@@shdfnd@physx@@IAEXI@Z 10035230 f i GuSweepMTD.obj
 0001:000342b0       ??$gjkPenetration@U?$LocalConvex@VCapsuleV@Gu@physx@@@Gu@physx@@U?$LocalConvex@VConvexHullV@Gu@physx@@@23@@Gu@physx@@YA?AW4GjkStatus@01@ABU?$LocalConvex@VCapsuleV@Gu@physx@@@01@ABU?$LocalConvex@VConvexHullV@Gu@physx@@@01@ABT__m128@@2_NPIAE4AAEAAUGjkOutput@01@@Z 100352b0 f i GuSweepSharedTests.obj
 0001:00035bb0       ??$gjkPenetration@U?$RelativeConvex@VBoxV@Gu@physx@@@Gu@physx@@U?$LocalConvex@VConvexHullV@Gu@physx@@@23@@Gu@physx@@YA?AW4GjkStatus@01@ABU?$RelativeConvex@VBoxV@Gu@physx@@@01@ABU?$LocalConvex@VConvexHullV@Gu@physx@@@01@ABT__m128@@2_NPIAE4AAEAAUGjkOutput@01@@Z 10036bb0 f i GuSweepSharedTests.obj
 0001:00037510       ??$gjkPenetration@U?$RelativeConvex@VConvexHullV@Gu@physx@@@Gu@physx@@U?$LocalConvex@VConvexHullV@Gu@physx@@@23@@Gu@physx@@YA?AW4GjkStatus@01@ABU?$RelativeConvex@VConvexHullV@Gu@physx@@@01@ABU?$LocalConvex@VConvexHullV@Gu@physx@@@01@ABT__m128@@2_NPIAE4AAEAAUGjkOutput@01@@Z 10038510 f i GuSweepSharedTests.obj
 0001:00038ed0       ??$gjkRaycast@U?$LocalConvex@VCapsuleV@Gu@physx@@@Gu@physx@@U?$LocalConvex@VConvexHullV@Gu@physx@@@23@@Gu@physx@@YA_NABU?$LocalConvex@VCapsuleV@Gu@physx@@@01@ABU?$LocalConvex@VConvexHullV@Gu@physx@@@01@ABT__m128@@222AAT4@33M@Z 10039ed0 f i GuSweepSharedTests.obj
 0001:00039da0       ??$gjkRaycast@U?$RelativeConvex@VBoxV@Gu@physx@@@Gu@physx@@U?$LocalConvex@VConvexHullV@Gu@physx@@@23@@Gu@physx@@YA_NABU?$RelativeConvex@VBoxV@Gu@physx@@@01@ABU?$LocalConvex@VConvexHullV@Gu@physx@@@01@ABT__m128@@222AAT4@33M@Z 1003ada0 f i GuSweepSharedTests.obj
 0001:0003ace0       ??$gjkRaycast@U?$RelativeConvex@VConvexHullV@Gu@physx@@@Gu@physx@@U?$LocalConvex@VConvexHullV@Gu@physx@@@23@@Gu@physx@@YA_NABU?$RelativeConvex@VConvexHullV@Gu@physx@@@01@ABU?$LocalConvex@VConvexHullV@Gu@physx@@@01@ABT__m128@@222AAT4@33M@Z 1003bce0 f i GuSweepSharedTests.obj
 0001:0003bd10       ??$gjkRaycastPenetration@U?$LocalConvex@VCapsuleV@Gu@physx@@@Gu@physx@@U?$LocalConvex@VConvexHullV@Gu@physx@@@23@@Gu@physx@@YA_NABU?$LocalConvex@VCapsuleV@Gu@physx@@@01@ABU?$LocalConvex@VConvexHullV@Gu@physx@@@01@ABT__m128@@222AAT4@33M_N@Z 1003cd10 f i GuSweepSharedTests.obj
 0001:0003bf10       ??$gjkRaycastPenetration@U?$RelativeConvex@VBoxV@Gu@physx@@@Gu@physx@@U?$LocalConvex@VConvexHullV@Gu@physx@@@23@@Gu@physx@@YA_NABU?$RelativeConvex@VBoxV@Gu@physx@@@01@ABU?$LocalConvex@VConvexHullV@Gu@physx@@@01@ABT__m128@@222AAT4@33M_N@Z 1003cf10 f i GuSweepSharedTests.obj
 0001:0003c170       ??$gjkRaycastPenetration@U?$RelativeConvex@VConvexHullV@Gu@physx@@@Gu@physx@@U?$LocalConvex@VConvexHullV@Gu@physx@@@23@@Gu@physx@@YA_NABU?$RelativeConvex@VConvexHullV@Gu@physx@@@01@ABU?$LocalConvex@VConvexHullV@Gu@physx@@@01@ABT__m128@@222AAT4@33M_N@Z 1003d170 f i GuSweepSharedTests.obj
 0001:0003c3d0       ??0?$RelativeConvex@VConvexHullV@Gu@physx@@@Gu@physx@@QAE@ABVConvexHullV@12@ABVPsMatTransformV@aos@shdfnd@2@@Z 1003d3d0 f i GuSweepSharedTests.obj
 0001:0003c880       ?sweepBox_ConvexGeom@@YA_NABVPxGeometry@physx@@ABVPxTransform@2@ABVPxBoxGeometry@2@1ABVBox@Gu@2@ABVPxVec3@2@MAAUPxSweepHit@2@V?$PxFlags@W4Enum@PxHitFlag@physx@@G@2@M@Z 1003d880 f   GuSweepSharedTests.obj
 0001:0003d620       ?sweepBox_PlaneGeom@@YA_NABVPxGeometry@physx@@ABVPxTransform@2@ABVPxBoxGeometry@2@1ABVBox@Gu@2@ABVPxVec3@2@MAAUPxSweepHit@2@V?$PxFlags@W4Enum@PxHitFlag@physx@@G@2@M@Z 1003e620 f   GuSweepSharedTests.obj
 0001:0003d9e0       ?sweepCapsuleTriangles@Gu@physx@@YA_NIPBVPxTriangle@2@_NABVPxCapsuleGeometry@2@ABVPxTransform@2@ABVPxVec3@2@MAAUPxSweepHit@2@PBIMV?$PxFlags@W4Enum@PxHitFlag@physx@@G@2@@Z 1003e9e0 f   GuSweepSharedTests.obj
 0001:0003db70       ?sweepCapsule_CapsuleGeom@@YA_NABVPxGeometry@physx@@ABVPxTransform@2@ABVPxCapsuleGeometry@2@1ABVCapsule@Gu@2@ABVPxVec3@2@MAAUPxSweepHit@2@V?$PxFlags@W4Enum@PxHitFlag@physx@@G@2@M@Z 1003eb70 f   GuSweepSharedTests.obj
 0001:0003dd20       ?sweepCapsule_ConvexGeom@@YA_NABVPxGeometry@physx@@ABVPxTransform@2@ABVPxCapsuleGeometry@2@1ABVCapsule@Gu@2@ABVPxVec3@2@MAAUPxSweepHit@2@V?$PxFlags@W4Enum@PxHitFlag@physx@@G@2@M@Z 1003ed20 f   GuSweepSharedTests.obj
 0001:0003ea70       ?sweepCapsule_PlaneGeom@@YA_NABVPxGeometry@physx@@ABVPxTransform@2@ABVPxCapsuleGeometry@2@1ABVCapsule@Gu@2@ABVPxVec3@2@MAAUPxSweepHit@2@V?$PxFlags@W4Enum@PxHitFlag@physx@@G@2@M@Z 1003fa70 f   GuSweepSharedTests.obj
 0001:0003ed30       ?sweepCapsule_SphereGeom@@YA_NABVPxGeometry@physx@@ABVPxTransform@2@ABVPxCapsuleGeometry@2@1ABVCapsule@Gu@2@ABVPxVec3@2@MAAUPxSweepHit@2@V?$PxFlags@W4Enum@PxHitFlag@physx@@G@2@M@Z 1003fd30 f   GuSweepSharedTests.obj
 0001:0003eec0       ?sweepConvex_BoxGeom@@YA_NABVPxGeometry@physx@@ABVPxTransform@2@ABVPxConvexMeshGeometry@2@1ABVPxVec3@2@MAAUPxSweepHit@2@V?$PxFlags@W4Enum@PxHitFlag@physx@@G@2@M@Z 1003fec0 f   GuSweepSharedTests.obj
 0001:0003f0a0       ?sweepConvex_CapsuleGeom@@YA_NABVPxGeometry@physx@@ABVPxTransform@2@ABVPxConvexMeshGeometry@2@1ABVPxVec3@2@MAAUPxSweepHit@2@V?$PxFlags@W4Enum@PxHitFlag@physx@@G@2@M@Z 100400a0 f   GuSweepSharedTests.obj
 0001:0003f290       ?sweepConvex_ConvexGeom@@YA_NABVPxGeometry@physx@@ABVPxTransform@2@ABVPxConvexMeshGeometry@2@1ABVPxVec3@2@MAAUPxSweepHit@2@V?$PxFlags@W4Enum@PxHitFlag@physx@@G@2@M@Z 10040290 f   GuSweepSharedTests.obj
 0001:000402e0       ?sweepConvex_PlaneGeom@@YA_NABVPxGeometry@physx@@ABVPxTransform@2@ABVPxConvexMeshGeometry@2@1ABVPxVec3@2@MAAUPxSweepHit@2@V?$PxFlags@W4Enum@PxHitFlag@physx@@G@2@M@Z 100412e0 f   GuSweepSharedTests.obj
 0001:00040730       ?sweepConvex_SphereGeom@@YA_NABVPxGeometry@physx@@ABVPxTransform@2@ABVPxConvexMeshGeometry@2@1ABVPxVec3@2@MAAUPxSweepHit@2@V?$PxFlags@W4Enum@PxHitFlag@physx@@G@2@M@Z 10041730 f   GuSweepSharedTests.obj
 0001:000412f0       ?sweepCapsule_BoxGeom@@YA_NABVPxGeometry@physx@@ABVPxTransform@2@ABVPxCapsuleGeometry@2@1ABVCapsule@Gu@2@ABVPxVec3@2@MAAUPxSweepHit@2@V?$PxFlags@W4Enum@PxHitFlag@physx@@G@2@M@Z 100422f0 f   GuSweepTests.obj
 0001:00041b80       ?sweepBox_SphereGeom@@YA_NABVPxGeometry@physx@@ABVPxTransform@2@ABVPxBoxGeometry@2@1ABVBox@Gu@2@ABVPxVec3@2@MAAUPxSweepHit@2@V?$PxFlags@W4Enum@PxHitFlag@physx@@G@2@M@Z 10042b80 f   GuSweepTests.obj
 0001:00042230       ?sweepBox_CapsuleGeom@@YA_NABVPxGeometry@physx@@ABVPxTransform@2@ABVPxBoxGeometry@2@1ABVBox@Gu@2@ABVPxVec3@2@MAAUPxSweepHit@2@V?$PxFlags@W4Enum@PxHitFlag@physx@@G@2@M@Z 10043230 f   GuSweepTests.obj
 0001:00042a60       ?sweepBox_BoxGeom@@YA_NABVPxGeometry@physx@@ABVPxTransform@2@ABVPxBoxGeometry@2@1ABVBox@Gu@2@ABVPxVec3@2@MAAUPxSweepHit@2@V?$PxFlags@W4Enum@PxHitFlag@physx@@G@2@M@Z 10043a60 f   GuSweepTests.obj
 0001:000433e0       ??$gjkPenetration@U?$LocalConvex@VCapsuleV@Gu@physx@@@Gu@physx@@U?$LocalConvex@VBoxV@Gu@physx@@@23@@Gu@physx@@YA?AW4GjkStatus@01@ABU?$LocalConvex@VCapsuleV@Gu@physx@@@01@ABU?$LocalConvex@VBoxV@Gu@physx@@@01@ABT__m128@@2_NPIAE4AAEAAUGjkOutput@01@@Z 100443e0 f i GuSweepTests.obj
 0001:00044c60       ??$gjkPenetration@U?$RelativeConvex@VBoxV@Gu@physx@@@Gu@physx@@U?$LocalConvex@VBoxV@Gu@physx@@@23@@Gu@physx@@YA?AW4GjkStatus@01@ABU?$RelativeConvex@VBoxV@Gu@physx@@@01@ABU?$LocalConvex@VBoxV@Gu@physx@@@01@ABT__m128@@2_NPIAE4AAEAAUGjkOutput@01@@Z 10045c60 f i GuSweepTests.obj
 0001:00046520       ??$gjkRaycast@U?$LocalConvex@VCapsuleV@Gu@physx@@@Gu@physx@@U?$LocalConvex@VBoxV@Gu@physx@@@23@@Gu@physx@@YA_NABU?$LocalConvex@VCapsuleV@Gu@physx@@@01@ABU?$LocalConvex@VBoxV@Gu@physx@@@01@ABT__m128@@222AAT4@33M@Z 10047520 f i GuSweepTests.obj
 0001:00047290       ??$gjkRaycast@U?$LocalConvex@VTriangleV@Gu@physx@@@Gu@physx@@U?$LocalConvex@VBoxV@Gu@physx@@@23@@Gu@physx@@YA_NABU?$LocalConvex@VTriangleV@Gu@physx@@@01@ABU?$LocalConvex@VBoxV@Gu@physx@@@01@ABT__m128@@222AAT4@33M@Z 10048290 f i GuSweepTests.obj
 0001:00048090       ??$gjkRaycast@U?$RelativeConvex@VBoxV@Gu@physx@@@Gu@physx@@U?$LocalConvex@VBoxV@Gu@physx@@@23@@Gu@physx@@YA_NABU?$RelativeConvex@VBoxV@Gu@physx@@@01@ABU?$LocalConvex@VBoxV@Gu@physx@@@01@ABT__m128@@222AAT4@33M@Z 10049090 f i GuSweepTests.obj
 0001:00048e70       ??$gjkRaycastPenetration@U?$LocalConvex@VCapsuleV@Gu@physx@@@Gu@physx@@U?$LocalConvex@VBoxV@Gu@physx@@@23@@Gu@physx@@YA_NABU?$LocalConvex@VCapsuleV@Gu@physx@@@01@ABU?$LocalConvex@VBoxV@Gu@physx@@@01@ABT__m128@@222AAT4@33M_N@Z 10049e70 f i GuSweepTests.obj
 0001:00049070       ??$gjkRaycastPenetration@U?$RelativeConvex@VBoxV@Gu@physx@@@Gu@physx@@U?$LocalConvex@VBoxV@Gu@physx@@@23@@Gu@physx@@YA_NABU?$RelativeConvex@VBoxV@Gu@physx@@@01@ABU?$LocalConvex@VBoxV@Gu@physx@@@01@ABT__m128@@222AAT4@33M_N@Z 1004a070 f i GuSweepTests.obj
 0001:000492d0       ?getSweepFuncTable@Gu@physx@@YAABUGeomSweepFuncs@12@XZ 1004a2d0 f   GuSweepTests.obj
 0001:000492e0       ?getSweepMargin@?$LocalConvex@VTriangleV@Gu@physx@@@Gu@physx@@UBE?AT__m128@@XZ 1004a2e0 f i GuSweepTests.obj
 0001:000492e0       ?getSweepMargin@?$RelativeConvex@VTriangleV@Gu@physx@@@Gu@physx@@UBE?AT__m128@@XZ 1004a2e0 f i GuCCDSweepPrimitives.obj
 0001:00049300       ?registerHeightFields_Sweeps@@YAXXZ 1004a300 f   GuSweepTests.obj
 0001:00049340       ?support@?$LocalConvex@VBoxV@Gu@physx@@@Gu@physx@@UBE?AT__m128@@ABT4@@Z 1004a340 f i GuSweepTests.obj
 0001:00049370       ?support@?$LocalConvex@VBoxV@Gu@physx@@@Gu@physx@@UBE?AT__m128@@ABT4@AAH@Z 1004a370 f i GuSweepTests.obj
 0001:000493b0       ?support@?$LocalConvex@VTriangleV@Gu@physx@@@Gu@physx@@UBE?AT__m128@@ABT4@@Z 1004a3b0 f i GuSweepTests.obj
 0001:00049450       ?support@?$LocalConvex@VTriangleV@Gu@physx@@@Gu@physx@@UBE?AT__m128@@ABT4@AAH@Z 1004a450 f i GuSweepTests.obj
 0001:00049540       ?supportPoint@?$LocalConvex@VBoxV@Gu@physx@@@Gu@physx@@UBE?AT__m128@@H@Z 1004a540 f i GuSweepTests.obj
 0001:00049580       ?supportPoint@?$LocalConvex@VTriangleV@Gu@physx@@@Gu@physx@@UBE?AT__m128@@H@Z 1004a580 f i GuSweepTests.obj
 0001:000495a0       ?sweepBoxTriangles@Gu@physx@@YA_NIPBVPxTriangle@2@_NABVPxBoxGeometry@2@ABVPxTransform@2@ABVPxVec3@2@MAAUPxSweepHit@2@PBIMV?$PxFlags@W4Enum@PxHitFlag@physx@@G@2@@Z 1004a5a0 f   GuSweepTests.obj
 0001:0004a0a0       ??$copy@V?$ReflectionAllocator@USlab@NodeAllocator@Gu@physx@@@shdfnd@physx@@@?$Array@USlab@NodeAllocator@Gu@physx@@V?$ReflectionAllocator@USlab@NodeAllocator@Gu@physx@@@shdfnd@4@@shdfnd@physx@@IAEXABV012@@Z 1004b0a0 f i GuAABBTreeBuild.obj
 0001:0004a110       ??4AABBTreeBuildNode@Gu@physx@@QAEAAV012@ABV012@@Z 1004b110 f i GuAABBTreeBuild.obj
 0001:0004a110       ??0PxMat33@physx@@QAE@ABV01@@Z 1004b110 f i GuMidphaseBV4.obj
 0001:0004a110       ??0AABBTreeBuildNode@Gu@physx@@QAE@ABV012@@Z 1004b110 f i GuAABBTreeBuild.obj
 0001:0004a150       ??0AABBTreeBuildParams@Gu@physx@@QAE@IIPBVPxBounds3@2@@Z 1004b150 f i GuAABBTreeBuild.obj
 0001:0004a170       ??0BuildStats@Gu@physx@@QAE@XZ 1004b170 f i GuAABBTreeBuild.obj
 0001:0004a180       ??0NodeAllocator@Gu@physx@@QAE@ABV012@@Z 1004b180 f i GuAABBTreeBuild.obj
 0001:0004a1b0       ??0NodeAllocator@Gu@physx@@QAE@XZ 1004b1b0 f   GuAABBTreeBuild.obj
 0001:0004a1e0       ?reset@AABBTreeBuildParams@Gu@physx@@QAEXXZ 1004b1e0 f i GuAABBTreeBuild.obj
 0001:0004a1e0       ??1AABBTreeBuildParams@Gu@physx@@QAE@XZ 1004b1e0 f i GuAABBTreeBuild.obj
 0001:0004a220       ??1NodeAllocator@Gu@physx@@QAE@XZ 1004b220 f   GuAABBTreeBuild.obj
 0001:0004a250       ??4AABBTreeBuildParams@Gu@physx@@QAEAAV012@ABV012@@Z 1004b250 f i GuAABBTreeBuild.obj
 0001:0004a260       ??4BuildStats@Gu@physx@@QAEAAU012@$$QAU012@@Z 1004b260 f i GuAABBTreeBuild.obj
 0001:0004a280       ??4NodeAllocator@Gu@physx@@QAEAAV012@ABV012@@Z 1004b280 f i GuAABBTreeBuild.obj
 0001:0004a310       ??_FAABBTreeBuildParams@Gu@physx@@QAEXXZ 1004b310 f i GuAABBTreeBuild.obj
 0001:0004a330       ?_buildHierarchy@AABBTreeBuildNode@Gu@physx@@QAEXAAVAABBTreeBuildParams@23@AAUBuildStats@23@AAVNodeAllocator@23@QAI@Z 1004b330 f   GuAABBTreeBuild.obj
 0001:0004a390       ?allocate@?$Array@USlab@NodeAllocator@Gu@physx@@V?$ReflectionAllocator@USlab@NodeAllocator@Gu@physx@@@shdfnd@4@@shdfnd@physx@@IAEPAUSlab@NodeAllocator@Gu@3@I@Z 1004b390 f i GuAABBTreeBuild.obj
 0001:0004a400       ?buildAABBTree@Gu@physx@@YA_NAAVAABBTreeBuildParams@12@AAVNodeAllocator@12@AAUBuildStats@12@AAPAI@Z 1004b400 f   GuAABBTreeBuild.obj
 0001:0004a480       ?getBiNode@NodeAllocator@Gu@physx@@QAEPAVAABBTreeBuildNode@23@XZ 1004b480 f   GuAABBTreeBuild.obj
 0001:0004a590       ?getNbPrimitives@AABBTreeBuildNode@Gu@physx@@QBEIXZ 1004b590 f i GuAABBTreeBuild.obj
 0001:0004a590       ?getNbRuntimePrimitives@AABBTreeBuildNode@Gu@physx@@QBEIXZ 1004b590 f i GuAABBTreeBuild.obj
 0001:0004a5a0       ?getNeg@AABBTreeBuildNode@Gu@physx@@QBEPBV123@XZ 1004b5a0 f i GuAABBTreeBuild.obj
 0001:0004a5b0       ?getPrimitives@AABBTreeBuildNode@Gu@physx@@QBEPBIPBI@Z 1004b5b0 f i GuAABBTreeBuild.obj
 0001:0004a5b0       ?getPrimitives@AABBTreeBuildNode@Gu@physx@@QAEPAIPAI@Z 1004b5b0 f i GuAABBTreeBuild.obj
 0001:0004a5c0       ?growAndPushBack@?$Array@USlab@NodeAllocator@Gu@physx@@V?$ReflectionAllocator@USlab@NodeAllocator@Gu@physx@@@shdfnd@4@@shdfnd@physx@@IAEAAUSlab@NodeAllocator@Gu@3@ABU4563@@Z 1004b5c0 f i GuAABBTreeBuild.obj
 0001:0004a680       ?increaseCount@BuildStats@Gu@physx@@QAEXI@Z 1004b680 f i GuAABBTreeBuild.obj
 0001:0004a690       ?init@NodeAllocator@Gu@physx@@QAEXII@Z 1004b690 f   GuAABBTreeBuild.obj
 0001:0004a7b0       ?initAABBTreeBuild@Gu@physx@@YA_NAAVAABBTreeBuildParams@12@AAVNodeAllocator@12@AAUBuildStats@12@AAPAI@Z 1004b7b0 f   GuAABBTreeBuild.obj
 0001:0004a970       ?isLeaf@AABBTreeBuildNode@Gu@physx@@QBE_NXZ 1004b970 f i GuAABBTreeBuild.obj
 0001:0004a980       ?recreate@?$Array@USlab@NodeAllocator@Gu@physx@@V?$ReflectionAllocator@USlab@NodeAllocator@Gu@physx@@@shdfnd@4@@shdfnd@physx@@IAEXI@Z 1004b980 f i GuAABBTreeBuild.obj
 0001:0004a9f0       ?release@NodeAllocator@Gu@physx@@QAEXXZ 1004b9f0 f   GuAABBTreeBuild.obj
 0001:0004aa70       ?reset@BuildStats@Gu@physx@@QAEXXZ 1004ba70 f i GuAABBTreeBuild.obj
 0001:0004aa80       ?resize@?$Array@USlab@NodeAllocator@Gu@physx@@V?$ReflectionAllocator@USlab@NodeAllocator@Gu@physx@@@shdfnd@4@@shdfnd@physx@@QAEXIABUSlab@NodeAllocator@Gu@3@@Z 1004ba80 f i GuAABBTreeBuild.obj
 0001:0004aae0       ?setCount@BuildStats@Gu@physx@@QAEXI@Z 1004bae0 f i GuAABBTreeBuild.obj
 0001:0004aaf0       ?setNbRunTimePrimitives@AABBTreeBuildNode@Gu@physx@@QAEXI@Z 1004baf0 f i GuAABBTreeBuild.obj
 0001:0004ab00       ?subdivide@AABBTreeBuildNode@Gu@physx@@QAEXABVAABBTreeBuildParams@23@AAUBuildStats@23@AAVNodeAllocator@23@QAI@Z 1004bb00 f   GuAABBTreeBuild.obj
 0001:0004ad20       ??0BVHStructure@Gu@physx@@QAE@PAVGuMeshFactory@2@@Z 1004bd20 f   GuBVHStructure.obj
 0001:0004ad80       ??0BVHStructure@Gu@physx@@QAE@PAVGuMeshFactory@2@AAUBVHStructureData@12@@Z 1004bd80 f   GuBVHStructure.obj
 0001:0004ade0       ??R?$AABBTreeOverlap@UAABBAABBTest@Gu@physx@@UBVHTree@23@UBVHNode@23@IUBVHCallback@23@@Gu@physx@@QAE_NPBIPBVPxBounds3@2@ABUBVHTree@12@ABUAABBAABBTest@12@AAUBVHCallback@12@@Z 1004bde0 f i GuBVHStructure.obj
 0001:0004b0b0       ??R?$AABBTreeRaycast@$00UBVHTree@Gu@physx@@UBVHNode@23@IUBVHCallback@23@@Gu@physx@@QAE_NPBIPBVPxBounds3@2@ABUBVHTree@12@ABVPxVec3@2@3AAM3AAUBVHCallback@12@@Z 1004c0b0 f i GuBVHStructure.obj
 0001:0004b7a0       ??R?$AABBTreeRaycast@$0A@UBVHTree@Gu@physx@@UBVHNode@23@IUBVHCallback@23@@Gu@physx@@QAE_NPBIPBVPxBounds3@2@ABUBVHTree@12@ABVPxVec3@2@3AAM3AAUBVHCallback@12@@Z 1004c7a0 f i GuBVHStructure.obj
 0001:0004bdfc       ??_EBVHStructure@Gu@physx@@W7AEPAXI@Z 1004cdfc f i GuBVHStructure.obj
 0001:0004be10       ??_GBVHStructure@Gu@physx@@UAEPAXI@Z 1004ce10 f i GuBVHStructure.obj
 0001:0004be10       ??_EBVHStructure@Gu@physx@@UAEPAXI@Z 1004ce10 f i GuBVHStructure.obj
 0001:0004be60       ??_GRefCountable@Cm@physx@@UAEPAXI@Z 1004ce60 f i GuBVHStructure.obj
 0001:0004be60       ??_ERefCountable@Cm@physx@@UAEPAXI@Z 1004ce60 f i GuBVHStructure.obj
 0001:0004be90       ?allocate@?$Array@PBUBVHNode@Gu@physx@@V?$InlineAllocator@$0EAA@V?$ReflectionAllocator@PBUBVHNode@Gu@physx@@@shdfnd@physx@@@shdfnd@3@@shdfnd@physx@@IAEPAPBUBVHNode@Gu@3@I@Z 1004ce90 f i GuBVHStructure.obj
 0001:0004bf20       ?createVolumes@BVHStructure@Gu@physx@@ABEXXZ 1004cf20 f   GuBVHStructure.obj
 0001:0004bf80       ?getConcreteTypeName@PxBVHStructure@physx@@UBEPBDXZ 1004cf80 f i GuBVHStructure.obj
 0001:0004bf90       ?isKindOf@PxBVHStructure@physx@@MBE_NPBD@Z 1004cf90 f i GuBVHStructure.obj
 0001:0004c010       ?load@BVHStructure@Gu@physx@@QAE_NAAVPxInputStream@3@@Z 1004d010 f   GuBVHStructure.obj
 0001:0004c160       ?onRefCountZero@BVHStructure@Gu@physx@@UAEXXZ 1004d160 f   GuBVHStructure.obj
 0001:0004c240       ?onRefCountZero@RefCountable@Cm@physx@@UAEXXZ 1004d240 f i GuBVHStructure.obj
 0001:0004c250       ?overlap@BVHStructure@Gu@physx@@UBEIABVPxBounds3@3@IPIAI@Z 1004d250 f   GuBVHStructure.obj
 0001:0004c330       ?raycast@BVHStructure@Gu@physx@@UBEIABVPxVec3@3@0MIPIAI@Z 1004d330 f   GuBVHStructure.obj
 0001:0004c3b0       ?recreate@?$Array@PBUBVHNode@Gu@physx@@V?$InlineAllocator@$0EAA@V?$ReflectionAllocator@PBUBVHNode@Gu@physx@@@shdfnd@physx@@@shdfnd@3@@shdfnd@physx@@IAEXI@Z 1004d3b0 f i GuBVHStructure.obj
 0001:0004c440       ?release@ConvexMesh@Gu@physx@@UAEXXZ 1004d440 f   GuConvexMesh.obj
 0001:0004c440       ?release@HeightField@Gu@physx@@UAEXXZ 1004d440 f   GuHeightField.obj
 0001:0004c440       ?release@BVHStructure@Gu@physx@@UAEXXZ 1004d440 f   GuBVHStructure.obj
 0001:0004c440       ?release@TriangleMesh@Gu@physx@@UAEXXZ 1004d440 f   GuTriangleMesh.obj
 0001:0004c460       ?resizeUninitialized@?$Array@PBUBVHNode@Gu@physx@@V?$InlineAllocator@$0EAA@V?$ReflectionAllocator@PBUBVHNode@Gu@physx@@@shdfnd@physx@@@shdfnd@3@@shdfnd@physx@@QAEXI@Z 1004d460 f i GuBVHStructure.obj
 0001:0004c490       ?sweep@BVHStructure@Gu@physx@@UBEIABVPxBounds3@3@ABVPxVec3@3@MIPIAI@Z 1004d490 f   GuBVHStructure.obj
 0001:0004c580       ??_ERayMeshColliderCallback@@UAEPAXI@Z 1004d580 f   GuMidphaseRTree.obj
 0001:0004c580       ??_GRayMeshColliderCallback@@UAEPAXI@Z 1004d580 f   GuMidphaseRTree.obj
 0001:0004c5b0       ?SweepAnyShapeHeightfield@Gu@physx@@YAMABUCCDShape@12@0ABVPxTransform@2@111MAAVPxVec3@2@2MAAIM@Z 1004d5b0 f   GuCCDSweepConvexMesh.obj
 0001:0004d8a0       ?SweepAnyShapeMesh@Gu@physx@@YAMABUCCDShape@12@0ABVPxTransform@2@111MAAVPxVec3@2@2MAAIM@Z 1004e8a0 f   GuCCDSweepConvexMesh.obj
 0001:0004f160       ?SweepEstimateAnyShapeHeightfield@Gu@physx@@YAMABUCCDShape@12@0ABVPxTransform@2@111MM@Z 10050160 f   GuCCDSweepConvexMesh.obj
 0001:0004fab0       ?SweepEstimateAnyShapeMesh@Gu@physx@@YAMABUCCDShape@12@0ABVPxTransform@2@111MM@Z 10050ab0 f   GuCCDSweepConvexMesh.obj
 0001:0004fda0       ?allocate@?$Array@IV?$InlineAllocator@$0BAA@V?$ReflectionAllocator@I@shdfnd@physx@@@shdfnd@physx@@@shdfnd@physx@@IAEPAII@Z 10050da0 f i GuCCDSweepConvexMesh.obj
 0001:00050920       ?growAndPushBack@?$Array@IV?$InlineAllocator@$0BAA@V?$ReflectionAllocator@I@shdfnd@physx@@@shdfnd@physx@@@shdfnd@physx@@IAEAAIABI@Z 10051920 f i GuCCDSweepConvexMesh.obj
 0001:00051010       ?recreate@?$Array@IV?$InlineAllocator@$0BAA@V?$ReflectionAllocator@I@shdfnd@physx@@@shdfnd@physx@@@shdfnd@physx@@IAEXI@Z 10052010 f i GuCCDSweepConvexMesh.obj
 0001:000510a0       ?resize@?$Array@IV?$InlineAllocator@$0BAA@V?$ReflectionAllocator@I@shdfnd@physx@@@shdfnd@physx@@@shdfnd@physx@@QAEXIABI@Z 100520a0 f i GuCCDSweepConvexMesh.obj
 0001:00051150       ?resize@?$Array@IV?$ReflectionAllocator@I@shdfnd@physx@@@shdfnd@physx@@QAEXIABI@Z 10052150 f i GuCCDSweepConvexMesh.obj
 0001:000511f0       ?transformBoxOrthonormal@physx@@YA?AVBox@Gu@1@ABV231@ABVPxTransform@1@@Z 100521f0 f i GuCCDSweepConvexMesh.obj
 0001:00051680       ?UnimplementedSweep@Gu@physx@@YAMABUCCDShape@12@0ABVPxTransform@2@111MAAVPxVec3@2@2MAAIM@Z 10052680 f   GuCCDSweepPrimitives.obj
 0001:00051690       ??$SweepGeomGeom@VCapsuleV@Gu@physx@@V123@@Gu@physx@@YAMABUCCDShape@01@0ABVPxTransform@1@111MAAVPxVec3@1@2MAAIM@Z 10052690 f i GuCCDSweepPrimitives.obj
 0001:000517d0       ??$SweepGeomGeom@VCapsuleV@Gu@physx@@VBoxV@23@@Gu@physx@@YAMABUCCDShape@01@0ABVPxTransform@1@111MAAVPxVec3@1@2MAAIM@Z 100527d0 f i GuCCDSweepPrimitives.obj
 0001:00051910       ??$SweepGeomGeom@VCapsuleV@Gu@physx@@VConvexHullV@23@@Gu@physx@@YAMABUCCDShape@01@0ABVPxTransform@1@111MAAVPxVec3@1@2MAAIM@Z 10052910 f i GuCCDSweepPrimitives.obj
 0001:00051ed0       ??$SweepGeomGeom@VBoxV@Gu@physx@@V123@@Gu@physx@@YAMABUCCDShape@01@0ABVPxTransform@1@111MAAVPxVec3@1@2MAAIM@Z 10052ed0 f i GuCCDSweepPrimitives.obj
 0001:00052020       ??$SweepGeomGeom@VBoxV@Gu@physx@@VConvexHullV@23@@Gu@physx@@YAMABUCCDShape@01@0ABVPxTransform@1@111MAAVPxVec3@1@2MAAIM@Z 10053020 f i GuCCDSweepPrimitives.obj
 0001:000525e0       ??$SweepGeomGeom@VConvexHullV@Gu@physx@@V123@@Gu@physx@@YAMABUCCDShape@01@0ABVPxTransform@1@111MAAVPxVec3@1@2MAAIM@Z 100535e0 f i GuCCDSweepPrimitives.obj
 0001:00052fa0       ?UnimplementedTriangleSweep@Gu@physx@@YAMABVGeometryUnion@12@0ABVPxTransform@2@111MAAVPxVec3@2@2ABVFastVertex2ShapeScaling@Cm@2@AAVTriangleV@12@M@Z 10053fa0 f   GuCCDSweepPrimitives.obj
 0001:00052fb0       ??$SweepGeomTriangles@VCapsuleV@Gu@physx@@@Gu@physx@@YAMABVGeometryUnion@01@0ABVPxTransform@1@111MAAVPxVec3@1@2ABVFastVertex2ShapeScaling@Cm@1@AAVTriangleV@01@M@Z 10053fb0 f i GuCCDSweepPrimitives.obj
 0001:00053070       ??$SweepGeomTriangles@VBoxV@Gu@physx@@@Gu@physx@@YAMABVGeometryUnion@01@0ABVPxTransform@1@111MAAVPxVec3@1@2ABVFastVertex2ShapeScaling@Cm@1@AAVTriangleV@01@M@Z 10054070 f i GuCCDSweepPrimitives.obj
 0001:00053130       ??$SweepGeomTriangles@VConvexHullV@Gu@physx@@@Gu@physx@@YAMABVGeometryUnion@01@0ABVPxTransform@1@111MAAVPxVec3@1@2ABVFastVertex2ShapeScaling@Cm@1@AAVTriangleV@01@M@Z 10054130 f i GuCCDSweepPrimitives.obj
 0001:00053650       ?supportPoint@?$RelativeConvex@VCapsuleV@Gu@physx@@@Gu@physx@@UBE?AT__m128@@H@Z 10054650 f i GuCCDSweepPrimitives.obj
 0001:000536a0       ?support@?$RelativeConvex@VCapsuleV@Gu@physx@@@Gu@physx@@UBE?AT__m128@@ABT4@@Z 100546a0 f i GuCCDSweepPrimitives.obj
 0001:00053750       ?support@?$RelativeConvex@VCapsuleV@Gu@physx@@@Gu@physx@@UBE?AT__m128@@ABT4@AAH@Z 10054750 f i GuCCDSweepPrimitives.obj
 0001:00053820       ?supportPoint@?$RelativeConvex@VTriangleV@Gu@physx@@@Gu@physx@@UBE?AT__m128@@H@Z 10054820 f i GuCCDSweepPrimitives.obj
 0001:00053870       ?support@?$RelativeConvex@VTriangleV@Gu@physx@@@Gu@physx@@UBE?AT__m128@@ABT4@@Z 10054870 f i GuCCDSweepPrimitives.obj
 0001:00053960       ?support@?$RelativeConvex@VTriangleV@Gu@physx@@@Gu@physx@@UBE?AT__m128@@ABT4@AAH@Z 10054960 f i GuCCDSweepPrimitives.obj
 0001:00056b00       ??$gjkPenetration@U?$RelativeConvex@VCapsuleV@Gu@physx@@@Gu@physx@@U?$LocalConvex@VBoxV@Gu@physx@@@23@@Gu@physx@@YA?AW4GjkStatus@01@ABU?$RelativeConvex@VCapsuleV@Gu@physx@@@01@ABU?$LocalConvex@VBoxV@Gu@physx@@@01@ABT__m128@@2_NPIAE4AAEAAUGjkOutput@01@@Z 10057b00 f i GuCCDSweepPrimitives.obj
 0001:000583e0       ??$gjkPenetration@U?$RelativeConvex@VCapsuleV@Gu@physx@@@Gu@physx@@U?$LocalConvex@VCapsuleV@Gu@physx@@@23@@Gu@physx@@YA?AW4GjkStatus@01@ABU?$RelativeConvex@VCapsuleV@Gu@physx@@@01@ABU?$LocalConvex@VCapsuleV@Gu@physx@@@01@ABT__m128@@2_NPIAE4AAEAAUGjkOutput@01@@Z 100593e0 f i GuCCDSweepPrimitives.obj
 0001:00059d00       ??$gjkPenetration@U?$RelativeConvex@VCapsuleV@Gu@physx@@@Gu@physx@@U?$LocalConvex@VConvexHullV@Gu@physx@@@23@@Gu@physx@@YA?AW4GjkStatus@01@ABU?$RelativeConvex@VCapsuleV@Gu@physx@@@01@ABU?$LocalConvex@VConvexHullV@Gu@physx@@@01@ABT__m128@@2_NPIAE4AAEAAUGjkOutput@01@@Z 1005ad00 f i GuCCDSweepPrimitives.obj
 0001:0005b6a0       ??$gjkPenetration@U?$RelativeConvex@VTriangleV@Gu@physx@@@Gu@physx@@U?$LocalConvex@VBoxV@Gu@physx@@@23@@Gu@physx@@YA?AW4GjkStatus@01@ABU?$RelativeConvex@VTriangleV@Gu@physx@@@01@ABU?$LocalConvex@VBoxV@Gu@physx@@@01@ABT__m128@@2_NPIAE4AAEAAUGjkOutput@01@@Z 1005c6a0 f i GuCCDSweepPrimitives.obj
 0001:0005d010       ??$gjkPenetration@U?$RelativeConvex@VTriangleV@Gu@physx@@@Gu@physx@@U?$LocalConvex@VCapsuleV@Gu@physx@@@23@@Gu@physx@@YA?AW4GjkStatus@01@ABU?$RelativeConvex@VTriangleV@Gu@physx@@@01@ABU?$LocalConvex@VCapsuleV@Gu@physx@@@01@ABT__m128@@2_NPIAE4AAEAAUGjkOutput@01@@Z 1005e010 f i GuCCDSweepPrimitives.obj
 0001:0005e9c0       ??$gjkPenetration@U?$RelativeConvex@VTriangleV@Gu@physx@@@Gu@physx@@U?$LocalConvex@VConvexHullV@Gu@physx@@@23@@Gu@physx@@YA?AW4GjkStatus@01@ABU?$RelativeConvex@VTriangleV@Gu@physx@@@01@ABU?$LocalConvex@VConvexHullV@Gu@physx@@@01@ABT__m128@@2_NPIAE4AAEAAUGjkOutput@01@@Z 1005f9c0 f i GuCCDSweepPrimitives.obj
 0001:00060410       ??$gjkRaycast@U?$RelativeConvex@VCapsuleV@Gu@physx@@@Gu@physx@@U?$LocalConvex@VBoxV@Gu@physx@@@23@@Gu@physx@@YA_NABU?$RelativeConvex@VCapsuleV@Gu@physx@@@01@ABU?$LocalConvex@VBoxV@Gu@physx@@@01@ABT__m128@@222AAT4@33M@Z 10061410 f i GuCCDSweepPrimitives.obj
 0001:00061220       ??$gjkRaycast@U?$RelativeConvex@VCapsuleV@Gu@physx@@@Gu@physx@@U?$LocalConvex@VCapsuleV@Gu@physx@@@23@@Gu@physx@@YA_NABU?$RelativeConvex@VCapsuleV@Gu@physx@@@01@ABU?$LocalConvex@VCapsuleV@Gu@physx@@@01@ABT__m128@@222AAT4@33M@Z 10062220 f i GuCCDSweepPrimitives.obj
 0001:000620a0       ??$gjkRaycast@U?$RelativeConvex@VCapsuleV@Gu@physx@@@Gu@physx@@U?$LocalConvex@VConvexHullV@Gu@physx@@@23@@Gu@physx@@YA_NABU?$RelativeConvex@VCapsuleV@Gu@physx@@@01@ABU?$LocalConvex@VConvexHullV@Gu@physx@@@01@ABT__m128@@222AAT4@33M@Z 100630a0 f i GuCCDSweepPrimitives.obj
 0001:00063010       ??$gjkRaycast@U?$RelativeConvex@VTriangleV@Gu@physx@@@Gu@physx@@U?$LocalConvex@VBoxV@Gu@physx@@@23@@Gu@physx@@YA_NABU?$RelativeConvex@VTriangleV@Gu@physx@@@01@ABU?$LocalConvex@VBoxV@Gu@physx@@@01@ABT__m128@@222AAT4@33M@Z 10064010 f i GuCCDSweepPrimitives.obj
 0001:00063ec0       ??$gjkRaycast@U?$RelativeConvex@VTriangleV@Gu@physx@@@Gu@physx@@U?$LocalConvex@VCapsuleV@Gu@physx@@@23@@Gu@physx@@YA_NABU?$RelativeConvex@VTriangleV@Gu@physx@@@01@ABU?$LocalConvex@VCapsuleV@Gu@physx@@@01@ABT__m128@@222AAT4@33M@Z 10064ec0 f i GuCCDSweepPrimitives.obj
 0001:00064e00       ??$gjkRaycast@U?$RelativeConvex@VTriangleV@Gu@physx@@@Gu@physx@@U?$LocalConvex@VConvexHullV@Gu@physx@@@23@@Gu@physx@@YA_NABU?$RelativeConvex@VTriangleV@Gu@physx@@@01@ABU?$LocalConvex@VConvexHullV@Gu@physx@@@01@ABT__m128@@222AAT4@33M@Z 10065e00 f i GuCCDSweepPrimitives.obj
 0001:00065e10       ??$gjkRaycastPenetration@U?$RelativeConvex@VCapsuleV@Gu@physx@@@Gu@physx@@U?$LocalConvex@VBoxV@Gu@physx@@@23@@Gu@physx@@YA_NABU?$RelativeConvex@VCapsuleV@Gu@physx@@@01@ABU?$LocalConvex@VBoxV@Gu@physx@@@01@ABT__m128@@222AAT4@33M_N@Z 10066e10 f i GuCCDSweepPrimitives.obj
 0001:00066070       ??$gjkRaycastPenetration@U?$RelativeConvex@VCapsuleV@Gu@physx@@@Gu@physx@@U?$LocalConvex@VCapsuleV@Gu@physx@@@23@@Gu@physx@@YA_NABU?$RelativeConvex@VCapsuleV@Gu@physx@@@01@ABU?$LocalConvex@VCapsuleV@Gu@physx@@@01@ABT__m128@@222AAT4@33M_N@Z 10067070 f i GuCCDSweepPrimitives.obj
 0001:000662d0       ??$gjkRaycastPenetration@U?$RelativeConvex@VCapsuleV@Gu@physx@@@Gu@physx@@U?$LocalConvex@VConvexHullV@Gu@physx@@@23@@Gu@physx@@YA_NABU?$RelativeConvex@VCapsuleV@Gu@physx@@@01@ABU?$LocalConvex@VConvexHullV@Gu@physx@@@01@ABT__m128@@222AAT4@33M_N@Z 100672d0 f i GuCCDSweepPrimitives.obj
 0001:00066530       ??$gjkRaycastPenetration@U?$RelativeConvex@VTriangleV@Gu@physx@@@Gu@physx@@U?$LocalConvex@VBoxV@Gu@physx@@@23@@Gu@physx@@YA_NABU?$RelativeConvex@VTriangleV@Gu@physx@@@01@ABU?$LocalConvex@VBoxV@Gu@physx@@@01@ABT__m128@@222AAT4@33M_N@Z 10067530 f i GuCCDSweepPrimitives.obj
 0001:00066790       ??$gjkRaycastPenetration@U?$RelativeConvex@VTriangleV@Gu@physx@@@Gu@physx@@U?$LocalConvex@VCapsuleV@Gu@physx@@@23@@Gu@physx@@YA_NABU?$RelativeConvex@VTriangleV@Gu@physx@@@01@ABU?$LocalConvex@VCapsuleV@Gu@physx@@@01@ABT__m128@@222AAT4@33M_N@Z 10067790 f i GuCCDSweepPrimitives.obj
 0001:000669f0       ??$gjkRaycastPenetration@U?$RelativeConvex@VTriangleV@Gu@physx@@@Gu@physx@@U?$LocalConvex@VConvexHullV@Gu@physx@@@23@@Gu@physx@@YA_NABU?$RelativeConvex@VTriangleV@Gu@physx@@@01@ABU?$LocalConvex@VConvexHullV@Gu@physx@@@01@ABT__m128@@222AAT4@33M_N@Z 100679f0 f i GuCCDSweepPrimitives.obj
 0001:00066c50       ?SweepShapeShape@Gu@physx@@YAMABUCCDShape@12@0ABVPxTransform@2@111MAAVPxVec3@2@2MAAIM@Z 10067c50 f   GuCCDSweepPrimitives.obj
 0001:00066cc0       ?SweepShapeTriangle@Gu@physx@@YAMABVGeometryUnion@12@0ABVPxTransform@2@111MAAVPxVec3@2@2ABVFastVertex2ShapeScaling@Cm@2@AAVTriangleV@12@M@Z 10067cc0 f   GuCCDSweepPrimitives.obj
 0001:00066d20       ?barycentricCoordinates@Gu@physx@@YAXABT__m128@@000AAT3@1@Z 10067d20 f   GuBarycentricCoordinates.obj
 0001:00066e50       ?barycentricCoordinates@Gu@physx@@YAXABT__m128@@00AAT3@@Z 10067e50 f   GuBarycentricCoordinates.obj
 0001:00066ed0       ?addAxis@SeparatingAxes@Gu@physx@@QAE_NABVPxVec3@3@@Z 10067ed0 f   GuSeparatingAxes.obj
 0001:00066f60       ?contactBoxBox@Gu@physx@@YA_NABVGeometryUnion@12@0ABVPxTransform@2@1ABUNarrowPhaseParams@12@AAUCache@12@AAVContactBuffer@12@PAVRenderOutput@Cm@2@@Z 10067f60 f   GuContactBoxBox.obj
 0001:0006b420       ?contactCapsuleBox@Gu@physx@@YA_NABVGeometryUnion@12@0ABVPxTransform@2@1ABUNarrowPhaseParams@12@AAUCache@12@AAVContactBuffer@12@PAVRenderOutput@Cm@2@@Z 1006c420 f   GuContactCapsuleBox.obj
 0001:0006b9f0       ?contactCapsuleCapsule@Gu@physx@@YA_NABVGeometryUnion@12@0ABVPxTransform@2@1ABUNarrowPhaseParams@12@AAUCache@12@AAVContactBuffer@12@PAVRenderOutput@Cm@2@@Z 1006c9f0 f   GuContactCapsuleCapsule.obj
 0001:0006e5b0       ?contactCapsuleConvex@Gu@physx@@YA_NABVGeometryUnion@12@0ABVPxTransform@2@1ABUNarrowPhaseParams@12@AAUCache@12@AAVContactBuffer@12@PAVRenderOutput@Cm@2@@Z 1006f5b0 f   GuContactCapsuleConvex.obj
 0001:00070a80       ?contactCapsuleHeightfield@Gu@physx@@YA_NABVGeometryUnion@12@0ABVPxTransform@2@1ABUNarrowPhaseParams@12@AAUCache@12@AAVContactBuffer@12@PAVRenderOutput@Cm@2@@Z 10071a80 f   GuContactCapsuleMesh.obj
 0001:00071270       ?contactCapsuleMesh@Gu@physx@@YA_NABVGeometryUnion@12@0ABVPxTransform@2@1ABUNarrowPhaseParams@12@AAUCache@12@AAVContactBuffer@12@PAVRenderOutput@Cm@2@@Z 10072270 f   GuContactCapsuleMesh.obj
 0001:000722e0       ?transformFast@PxBounds3@physx@@SA?AV12@ABVPxTransform@2@ABV12@@Z 100732e0 f i GuContactCapsuleMesh.obj
 0001:00072640       ?transformQueryBounds@FastVertex2ShapeScaling@Cm@physx@@QBEXAAVPxVec3@3@0AAVPxMat33@3@@Z 10073640 f i GuContactCapsuleMesh.obj
 0001:00076580       ?contactBoxConvex@Gu@physx@@YA_NABVGeometryUnion@12@0ABVPxTransform@2@1ABUNarrowPhaseParams@12@AAUCache@12@AAVContactBuffer@12@PAVRenderOutput@Cm@2@@Z 10077580 f   GuContactConvexConvex.obj
 0001:000766b0       ?contactConvexConvex@Gu@physx@@YA_NABVGeometryUnion@12@0ABVPxTransform@2@1ABUNarrowPhaseParams@12@AAUCache@12@AAVContactBuffer@12@PAVRenderOutput@Cm@2@@Z 100776b0 f   GuContactConvexConvex.obj
 0001:00077020       ??_EConvexMeshContactGenerationCallback@@UAEPAXI@Z 10078020 f i GuContactConvexMesh.obj
 0001:00077020       ??_GConvexMeshContactGenerationCallback@@UAEPAXI@Z 10078020 f i GuContactConvexMesh.obj
 0001:00077080       ?addData@?$CacheMap@UCachedEdge@Gu@physx@@$0IA@@Gu@physx@@QAE_NABUCachedEdge@23@@Z 10078080 f i GuContactConvexMesh.obj
 0001:00077150       ?addData@?$CacheMap@UCachedVertex@Gu@physx@@$0IA@@Gu@physx@@QAE_NABUCachedVertex@23@@Z 10078150 f i GuContactConvexMesh.obj
 0001:000771e0       ?allocate@?$Array@IV?$InlineAllocator@$0BBAA@V?$ReflectionAllocator@I@shdfnd@physx@@@shdfnd@physx@@@shdfnd@physx@@IAEPAII@Z 100781e0 f i GuContactConvexMesh.obj
 0001:000775b0       ?contactBoxHeightfield@Gu@physx@@YA_NABVGeometryUnion@12@0ABVPxTransform@2@1ABUNarrowPhaseParams@12@AAUCache@12@AAVContactBuffer@12@PAVRenderOutput@Cm@2@@Z 100785b0 f   GuContactConvexMesh.obj
 0001:000776a0       ?contactBoxMesh@Gu@physx@@YA_NABVGeometryUnion@12@0ABVPxTransform@2@1ABUNarrowPhaseParams@12@AAUCache@12@AAVContactBuffer@12@PAVRenderOutput@Cm@2@@Z 100786a0 f   GuContactConvexMesh.obj
 0001:00077810       ?contactConvexHeightfield@Gu@physx@@YA_NABVGeometryUnion@12@0ABVPxTransform@2@1ABUNarrowPhaseParams@12@AAUCache@12@AAVContactBuffer@12@PAVRenderOutput@Cm@2@@Z 10078810 f   GuContactConvexMesh.obj
 0001:000778f0       ?contactConvexMesh@Gu@physx@@YA_NABVGeometryUnion@12@0ABVPxTransform@2@1ABUNarrowPhaseParams@12@AAUCache@12@AAVContactBuffer@12@PAVRenderOutput@Cm@2@@Z 100788f0 f   GuContactConvexMesh.obj
 0001:00078ce0       ?contains@?$CacheMap@UCachedEdge@Gu@physx@@$0IA@@Gu@physx@@QBE_NABUCachedEdge@23@@Z 10079ce0 f i GuContactConvexMesh.obj
 0001:0007b0f0       ?processHit@ConvexMeshContactGenerationCallback@@UAE_NABUPxRaycastHit@physx@@ABVPxVec3@3@11AAMPBI@Z 1007c0f0 f i GuContactConvexMesh.obj
 0001:0007b810       ?recreate@?$Array@IV?$InlineAllocator@$0BBAA@V?$ReflectionAllocator@I@shdfnd@physx@@@shdfnd@physx@@@shdfnd@physx@@IAEXI@Z 1007c810 f i GuContactConvexMesh.obj
 0001:0007c6d0       ?contactPlaneBox@Gu@physx@@YA_NABVGeometryUnion@12@0ABVPxTransform@2@1ABUNarrowPhaseParams@12@AAUCache@12@AAVContactBuffer@12@PAVRenderOutput@Cm@2@@Z 1007d6d0 f   GuContactPlaneBox.obj
 0001:0007d500       ?contactPlaneCapsule@Gu@physx@@YA_NABVGeometryUnion@12@0ABVPxTransform@2@1ABUNarrowPhaseParams@12@AAUCache@12@AAVContactBuffer@12@PAVRenderOutput@Cm@2@@Z 1007e500 f   GuContactPlaneCapsule.obj
 0001:0007dbe0       ?contactPlaneConvex@Gu@physx@@YA_NABVGeometryUnion@12@0ABVPxTransform@2@1ABUNarrowPhaseParams@12@AAUCache@12@AAVContactBuffer@12@PAVRenderOutput@Cm@2@@Z 1007ebe0 f   GuContactPlaneConvex.obj
 0001:0007e6f0       ??4ContactPoint@Gu@physx@@QAEAAU012@ABU012@@Z 1007f6f0 f i GuContactPolygonPolygon.obj
 0001:0007f2f0       ?contactPolygonPolygonExt@Gu@physx@@YA_NIPBVPxVec3@2@PBEABVMatrix34@Cm@2@ABVPxPlane@2@ABVPxMat33@2@I01234ABV32@22IIAAVContactBuffer@12@_N5M@Z 100802f0 f   GuContactPolygonPolygon.obj
 0001:000803c0       ?findRotationMatrixFromZ@Gu@physx@@YA?AVPxMat33@2@ABVPxVec3@2@@Z 100813c0 f   GuContactPolygonPolygon.obj
 0001:000807e0       ?contactSphereBox@Gu@physx@@YA_NABVGeometryUnion@12@0ABVPxTransform@2@1ABUNarrowPhaseParams@12@AAUCache@12@AAVContactBuffer@12@PAVRenderOutput@Cm@2@@Z 100817e0 f   GuContactSphereBox.obj
 0001:00080de0       ?contactSphereCapsule@Gu@physx@@YA_NABVGeometryUnion@12@0ABVPxTransform@2@1ABUNarrowPhaseParams@12@AAUCache@12@AAVContactBuffer@12@PAVRenderOutput@Cm@2@@Z 10081de0 f   GuContactSphereCapsule.obj
 0001:00081520       ??0PxMat44@physx@@QAE@W4PxIDENTITY@1@@Z 10082520 f i GuContactSphereMesh.obj
 0001:00081b60       ?contactSphereHeightfield@Gu@physx@@YA_NABVGeometryUnion@12@0ABVPxTransform@2@1ABUNarrowPhaseParams@12@AAUCache@12@AAVContactBuffer@12@PAVRenderOutput@Cm@2@@Z 10082b60 f   GuContactSphereMesh.obj
 0001:000826e0       ?contactSphereMesh@Gu@physx@@YA_NABVGeometryUnion@12@0ABVPxTransform@2@1ABUNarrowPhaseParams@12@AAUCache@12@AAVContactBuffer@12@PAVRenderOutput@Cm@2@@Z 100836e0 f   GuContactSphereMesh.obj
 0001:00085290       ?contactSpherePlane@Gu@physx@@YA_NABVGeometryUnion@12@0ABVPxTransform@2@1ABUNarrowPhaseParams@12@AAUCache@12@AAVContactBuffer@12@PAVRenderOutput@Cm@2@@Z 10086290 f   GuContactSpherePlane.obj
 0001:00085430       ?contactSphereSphere@Gu@physx@@YA_NABVGeometryUnion@12@0ABVPxTransform@2@1ABUNarrowPhaseParams@12@AAUCache@12@AAVContactBuffer@12@PAVRenderOutput@Cm@2@@Z 10086430 f   GuContactSphereSphere.obj
 0001:00085570       ?selectNormal@Gu@physx@@YA_NEMM@Z 10086570 f   GuFeatureCode.obj
 0001:00085620       ??0BigConvexData@physx@@QAE@XZ 10086620 f   GuBigConvexData.obj
 0001:00085640       ??1BigConvexData@physx@@QAE@XZ 10086640 f   GuBigConvexData.obj
 0001:000856a0       ?ComputeNearestOffset@BigConvexData@physx@@QBEIABVPxVec3@2@@Z 100866a0 f   GuBigConvexData.obj
 0001:00085740       ?ComputeOffset@BigConvexData@physx@@QBEIABVPxVec3@2@@Z 10086740 f   GuBigConvexData.obj
 0001:000857d0       ?CreateOffsets@BigConvexData@physx@@IAEXXZ 100867d0 f   GuBigConvexData.obj
 0001:00085800       ?CubemapLookup@physx@@YA?AW4CubeIndex@1@ABVPxVec3@1@AAM1@Z 10086800 f i GuBigConvexData.obj
 0001:000858b0       ?Load@BigConvexData@physx@@QAE_NAAVPxInputStream@2@@Z 100868b0 f   GuBigConvexData.obj
 0001:00085980       ?VLoad@BigConvexData@physx@@IAE_NAAVPxInputStream@2@@Z 10086980 f   GuBigConvexData.obj
 0001:00085ac0       ?exportExtraData@BigConvexData@physx@@QAEXAAVPxSerializationContext@2@@Z 10086ac0 f   GuBigConvexData.obj
 0001:00085b20       ?importExtraData@BigConvexData@physx@@QAEXAAVPxDeserializationContext@2@@Z 10086b20 f   GuBigConvexData.obj
 0001:00085b80       ?findUniqueConvexEdges@Gu@physx@@YAIIPIAUConvexEdge@12@IPIBUHullPolygonData@12@PIBE@Z 10086b80 f   GuConvexHelper.obj
 0001:00085cb0       ?getConvexData@Gu@physx@@YA_NABVGeometryUnion@12@AAVFastVertex2ShapeScaling@Cm@2@AAVPxBounds3@2@AAUPolygonalData@12@@Z 10086cb0 f   GuConvexHelper.obj
 0001:00085f10       ?getScaledConvex@Gu@physx@@YAXAAPAVPxVec3@2@AAPAEPAV32@PAE_NPBV32@PBEIABVFastVertex2ShapeScaling@Cm@2@@Z 10086f10 f   GuConvexHelper.obj
 0001:00086000       ??0ConvexMesh@Gu@physx@@QAE@AAVGuMeshFactory@2@AAUConvexHullInitData@12@@Z 10087000 f   GuConvexMesh.obj
 0001:000860f0       ??0ConvexMesh@Gu@physx@@QAE@XZ 100870f0 f   GuConvexMesh.obj
 0001:000861b0       ??1ConvexMesh@Gu@physx@@UAE@XZ 100871b0 f   GuConvexMesh.obj
 0001:00086220       ??_EConvexMesh@Gu@physx@@UAEPAXI@Z 10087220 f i GuConvexMesh.obj
 0001:00086339       ??_EConvexMesh@Gu@physx@@W7AEPAXI@Z 10087339 f i GuConvexMesh.obj
 0001:00086350       ??_EPxHeightField@physx@@MAEPAXI@Z 10087350 f i GuHeightField.obj
 0001:00086350       ??_EPxConvexMesh@physx@@MAEPAXI@Z 10087350 f i GuConvexMesh.obj
 0001:000863c0       ?acquireReference@HeightField@Gu@physx@@UAEXXZ 100873c0 f   GuHeightField.obj
 0001:000863c0       ?acquireReference@TriangleMesh@Gu@physx@@UAEXXZ 100873c0 f   GuTriangleMesh.obj
 0001:000863c0       ?acquireReference@ConvexMesh@Gu@physx@@UAEXXZ 100873c0 f   GuConvexMesh.obj
 0001:000863d0       ?computeBufferSize@Gu@physx@@YAIABUConvexHullData@12@I@Z 100873d0 f i GuConvexMesh.obj
 0001:000867c0       ?createObject@ConvexMesh@Gu@physx@@SAPAV123@AAPAEAAVPxDeserializationContext@3@@Z 100877c0 f   GuConvexMesh.obj
 0001:00086810       ?exportExtraData@ConvexMesh@Gu@physx@@UAEXAAVPxSerializationContext@3@@Z 10087810 f   GuConvexMesh.obj
 0001:000868b0       ?getLocalBounds@ConvexMesh@Gu@physx@@UBE?AVPxBounds3@3@XZ 100878b0 f   GuConvexMesh.obj
 0001:00086910       ?getMassInformation@ConvexMesh@Gu@physx@@UBEXAAMAAVPxMat33@3@AAVPxVec3@3@@Z 10087910 f   GuConvexMesh.obj
 0001:00086970       ?getPolygonData@ConvexMesh@Gu@physx@@UBE_NIAAUPxHullPolygon@3@@Z 10087970 f   GuConvexMesh.obj
 0001:000869c0       ?importExtraData@ConvexMesh@Gu@physx@@QAEXAAVPxDeserializationContext@3@@Z 100879c0 f   GuConvexMesh.obj
 0001:00086a60       ?isGpuCompatible@ConvexMesh@Gu@physx@@UBE_NXZ 10087a60 f   GuConvexMesh.obj
 0001:00086a80       ?load@ConvexMesh@Gu@physx@@QAE_NAAVPxInputStream@3@@Z 10087a80 f   GuConvexMesh.obj
 0001:00086cb0       ?onRefCountZero@ConvexMesh@Gu@physx@@UAEXXZ 10087cb0 f   GuConvexMesh.obj
 0001:00086d80       ?requiresObjects@ConvexMesh@Gu@physx@@UAEXAAVPxProcessPxBaseCallback@3@@Z 10087d80 f i GuConvexMesh.obj
 0001:00086d80       ?requiresObjects@HeightField@Gu@physx@@UAEXAAVPxProcessPxBaseCallback@3@@Z 10087d80 f i GuHeightField.obj
 0001:00086d80       ?requiresObjects@TriangleMesh@Gu@physx@@UAEXAAVPxProcessPxBaseCallback@3@@Z 10087d80 f i GuTriangleMesh.obj
 0001:00086d90       ??Dphysx@@YA?AVMatrix34@Cm@0@ABVPxMeshScale@0@ABV120@@Z 10087d90 f i GuConvexUtilsInternal.obj
 0001:00087330       ?computeHullOBB@Gu@physx@@YAXAAVBox@12@ABVPxBounds3@2@MABVMatrix34@Cm@2@2ABVFastVertex2ShapeScaling@62@_N@Z 10088330 f   GuConvexUtilsInternal.obj
 0001:00087770       ?computeOBBAroundConvex@Gu@physx@@YAXAAVBox@12@ABVPxConvexMeshGeometry@2@PBVPxConvexMesh@2@ABVPxTransform@2@@Z 10088770 f   GuConvexUtilsInternal.obj
 0001:00088160       ?computeVertexSpaceOBB@Gu@physx@@YAXAAVBox@12@ABV312@ABVPxTransform@2@ABVPxMeshScale@2@@Z 10089160 f   GuConvexUtilsInternal.obj
 0001:00088510       ?transform@physx@@YA?AVBox@Gu@1@ABVMatrix34@Cm@1@ABV231@@Z 10089510 f i GuConvexUtilsInternal.obj
 0001:00088750       ?localSearch@physx@@YAXAAIABVPxVec3@1@PBV21@PBUBigConvexRawData@Gu@1@@Z 10089750 f   GuHillClimbing.obj
 0001:000888b0       ??0PCMPolygonalBox@Gu@physx@@QAE@ABVPxVec3@2@@Z 100898b0 f   GuPCMShapeConvex.obj
 0001:000888b0       ??0PolygonalBox@Gu@physx@@QAE@ABVPxVec3@2@@Z 100898b0 f   GuShapeConvex.obj
 0001:000894d0       ?getPolygonalData@PolygonalBox@Gu@physx@@QBEXPIAUPolygonalData@23@@Z 1008a4d0 f   GuShapeConvex.obj
 0001:00089550       ?getPolygonalData_Convex@Gu@physx@@YAXPIAUPolygonalData@12@PIBUConvexHullData@12@ABVFastVertex2ShapeScaling@Cm@2@@Z 1008a550 f   GuShapeConvex.obj
 0001:00089670       ?distancePointBoxSquared@Gu@physx@@YAMABVPxVec3@2@00ABVPxMat33@2@PAV32@@Z 1008a670 f   GuDistancePointBox.obj
 0001:000897d0       ?closestPtPointTriangle@Gu@physx@@YA?AVPxVec3@2@ABV32@000AAM1@Z 1008a7d0 f   GuDistancePointTriangle.obj
 0001:00089c90       ?distancePointTriangleSquared@Gu@physx@@YA?AT__m128@@ABT3@000AAT3@11@Z 1008ac90 f   GuDistancePointTriangle.obj
 0001:0008ad10       ?distanceSegmentBoxSquared@Gu@physx@@YAMABVPxVec3@2@000ABVPxMat33@2@PAMPAV32@@Z 1008bd10 f   GuDistanceSegmentBox.obj
 0001:0008b3e0       ?distanceSegmentSegmentSquared4@Gu@physx@@YA?AT__m128@@ABT3@000000000AAT3@1@Z 1008c3e0 f   GuDistanceSegmentSegment.obj
 0001:0008b710       ?distanceSegmentSegmentSquared@Gu@physx@@YA?AT__m128@@ABT3@000AAT3@1@Z 1008c710 f   GuDistanceSegmentSegment.obj
 0001:0008b8b0       ?distanceSegmentSegmentSquared@Gu@physx@@YAMABVPxVec3@2@000PAM1@Z 1008c8b0 f   GuDistanceSegmentSegment.obj
 0001:0008bb10       ?distanceSegmentSegmentSquared@Gu@physx@@YAMABVPxVec3@2@0M00MPAM1@Z 1008cb10 f   GuDistanceSegmentSegment.obj
 0001:0008c210       ?distanceSegmentTriangleSquared@Gu@physx@@YA?AT__m128@@ABT3@0000AAT3@1@Z 1008d210 f   GuDistanceSegmentTriangle.obj
 0001:0008c910       ?distanceSegmentTriangleSquared@Gu@physx@@YAMABVPxVec3@2@0000PAM11@Z 1008d910 f   GuDistanceSegmentTriangle.obj
 0001:0008ea90       ?PenetrationDepth@EPA@Gu@physx@@QAE?AW4GjkStatus@23@ABUGjkConvex@23@0PIBT__m128@@1E_NT6@AAUGjkOutput@23@@Z 1008fa90 f   GuEPA.obj
 0001:0008f300       ?addFacet@EPA@Gu@physx@@QAEPAVFacet@23@IIIABT__m128@@@Z 10090300 f   GuEPA.obj
 0001:0008f720       ?epaPenetration@Gu@physx@@YA?AW4GjkStatus@12@ABUGjkConvex@12@0PIBE1E_NT__m128@@AAUGjkOutput@12@@Z 10090720 f   GuEPA.obj
 0001:0008f820       ?expandSegment@EPA@Gu@physx@@QAE_NABUGjkConvex@23@0AAHABT__m128@@@Z 10090820 f   GuEPA.obj
 0001:0008f950       ?expandTriangle@EPA@Gu@physx@@QAE_NAAHABT__m128@@@Z 10090950 f   GuEPA.obj
 0001:0008f9c0       ?silhouette@Facet@Gu@physx@@QAEXABT__m128@@PIBT4@1AAVEdgeBuffer@23@AAV?$InlineDeferredIDPool@$0EA@@Cm@3@@Z 100909c0 f   GuEPA.obj
 0001:0008fb70       ?closestPtPointTetrahedron@Gu@physx@@YA?AT__m128@@PIAT3@00AAI@Z 10090b70 f   GuGJKSimplex.obj
 0001:000903c0       ?closestPtPointTetrahedron@Gu@physx@@YA?AT__m128@@PIAT3@00PIAH1AAI@Z 100913c0 f   GuGJKSimplex.obj
 0001:00092300       ??$gjk@UGjkConvex@Gu@physx@@U123@@Gu@physx@@YA?AW4GjkStatus@01@ABUGjkConvex@01@0ABT__m128@@1AAT4@222@Z 10093300 f i GuGJKTest.obj
 0001:00093150       ??$gjkPenetration@UGjkConvex@Gu@physx@@U123@@Gu@physx@@YA?AW4GjkStatus@01@ABUGjkConvex@01@0ABT__m128@@1_NPIAE3AAEAAUGjkOutput@01@@Z 10094150 f i GuGJKTest.obj
 0001:000949a0       ?testEpaPenetration@Gu@physx@@YA?AW4GjkStatus@12@AAUGjkConvex@12@0PBE1EAAUGjkOutput@12@@Z 100959a0 f   GuGJKTest.obj
 0001:000949d0       ?testGjk@Gu@physx@@YA?AW4GjkStatus@12@AAUGjkConvex@12@0ABT__m128@@1AAT5@222@Z 100959d0 f   GuGJKTest.obj
 0001:000949e0       ?testGjkPenetration@Gu@physx@@YA?AW4GjkStatus@12@AAUGjkConvex@12@0ABT__m128@@1PAE2AAEAAUGjkOutput@12@@Z 100959e0 f   GuGJKTest.obj
 0001:00094a10       ??0HeightField@Gu@physx@@QAE@AAVGuMeshFactory@2@AAUHeightFieldData@12@@Z 10095a10 f   GuHeightField.obj
 0001:00094a80       ??0HeightField@Gu@physx@@QAE@PAVGuMeshFactory@2@@Z 10095a80 f   GuHeightField.obj
 0001:00094b00       ??1HeightField@Gu@physx@@UAE@XZ 10095b00 f   GuHeightField.obj
 0001:00094b50       ??_EHeightField@Gu@physx@@UAEPAXI@Z 10095b50 f i GuHeightField.obj
 0001:00094c72       ??_EHeightField@Gu@physx@@W7AEPAXI@Z 10095c72 f i GuHeightField.obj
 0001:00094c80       ?computeCellCoordinates@HeightField@Gu@physx@@QBEIMMAAM0@Z 10095c80 f   GuHeightField.obj
 0001:00094da0       ?createObject@HeightField@Gu@physx@@SAPAV123@AAPAEAAVPxDeserializationContext@3@@Z 10095da0 f   GuHeightField.obj
 0001:00094e00       ?exportExtraData@HeightField@Gu@physx@@UAEXAAVPxSerializationContext@3@@Z 10095e00 f   GuHeightField.obj
 0001:00094e30       ?getEdgeTriangleIndices@physx@@YAIABVHeightField@Gu@1@ABUEdgeData@1@PIAI@Z 10095e30 f   GuHeightField.obj
 0001:00094f50       ?getVertexEdgeIndices@physx@@YAIABVHeightField@Gu@1@IIIQAUEdgeData@1@@Z 10095f50 f   GuHeightField.obj
 0001:00095140       ?importExtraData@HeightField@Gu@physx@@QAEXAAVPxDeserializationContext@3@@Z 10096140 f   GuHeightField.obj
 0001:00095170       ?isCollisionVertexPreca@HeightField@Gu@physx@@QBE_NIIIG@Z 10096170 f   GuHeightField.obj
 0001:000951e0       ?isConvexVertex@HeightField@Gu@physx@@QBE_NIII@Z 100961e0 f i GuHeightField.obj
 0001:00095290       ?isSolidVertex@HeightField@Gu@physx@@QBE_NIIIGAA_N@Z 10096290 f   GuHeightField.obj
 0001:000953f0       ?load@HeightField@Gu@physx@@QAE_NAAVPxInputStream@3@@Z 100963f0 f   GuHeightField.obj
 0001:00095670       ?loadFromDesc@HeightField@Gu@physx@@QAE_NABVPxHeightFieldDesc@3@@Z 10096670 f   GuHeightField.obj
 0001:000958d0       ?modifySamples@HeightField@Gu@physx@@UAE_NHHABVPxHeightFieldDesc@3@_N@Z 100968d0 f   GuHeightField.obj
 0001:00095bb0       ?onRefCountZero@HeightField@Gu@physx@@UAEXXZ 10096bb0 f   GuHeightField.obj
 0001:00095c20       ?parseTrianglesForCollisionVertices@HeightField@Gu@physx@@QAEXG@Z 10096c20 f   GuHeightField.obj
 0001:00096080       ?releaseMemory@HeightField@Gu@physx@@QAEXXZ 10097080 f   GuHeightField.obj
 0001:000960b0       ?resizeAndClear@?$BitMapBase@VNonTrackingAllocator@shdfnd@physx@@@Cm@physx@@QAEXI@Z 100970b0 f i GuHeightField.obj
 0001:00096140       ?saveCells@HeightField@Gu@physx@@UBEIPAXI@Z 10097140 f   GuHeightField.obj
 0001:00096170       ?computeLocalBounds@HeightFieldUtil@Gu@physx@@QBEXAAVPxBounds3@3@@Z 10097170 f   GuHeightFieldUtil.obj
 0001:00096240       ?findClosestPointOnEdge@HeightFieldUtil@Gu@physx@@QBEMIIIIABVPxVec3@3@AAV43@@Z 10097240 f   GuHeightFieldUtil.obj
 0001:00096570       ?findClosestPointsOnCell@HeightFieldUtil@Gu@physx@@QBEIIIVPxVec3@3@PIAV43@PIAI_N33@Z 10097570 f   GuHeightFieldUtil.obj
 0001:00096d20       ?findProjectionOnTriangle@HeightFieldUtil@Gu@physx@@QBE_NIIIABVPxVec3@3@AAV43@@Z 10097d20 f   GuHeightFieldUtil.obj
 0001:00097000       ?getEdge@HeightFieldUtil@Gu@physx@@QBEXIIIIAAVPxVec3@3@0@Z 10098000 f   GuHeightFieldUtil.obj
 0001:000972a0       ?getEdgeFaceIndex@HeightFieldUtil@Gu@physx@@QBEII@Z 100982a0 f   GuHeightFieldUtil.obj
 0001:00097430       ?getEdgeFaceIndex@HeightFieldUtil@Gu@physx@@QBEIIIII@Z 10098430 f   GuHeightFieldUtil.obj
 0001:000975b0       ?getEdgeFaceIndex@HeightFieldUtil@Gu@physx@@QBEIIIPIBI@Z 100985b0 f   GuHeightFieldUtil.obj
 0001:00097630       ?getFaceIndexAtShapePoint@HeightFieldUtil@Gu@physx@@QBEIMM@Z 10098630 f   GuHeightFieldUtil.obj
 0001:00097730       ?getTriangle@HeightFieldUtil@Gu@physx@@QBEIABVPxTransform@3@AAVPxTriangle@3@PAI2I_N3@Z 10098730 f   GuHeightFieldUtil.obj
 0001:000982c0       ?getTriangleAdjacencyIndices@HeightField@Gu@physx@@QBEXIIIIAAI00@Z 100992c0 f i GuHeightFieldUtil.obj
 0001:00098450       ?getTriangleVertexIndices@HeightField@Gu@physx@@QBEXIAAI00@Z 10099450 f i GuHeightFieldUtil.obj
 0001:000984e0       ?getVertexFaceIndex@HeightFieldUtil@Gu@physx@@QBEIIII@Z 100994e0 f   GuHeightFieldUtil.obj
 0001:00098720       ?getVertexNormal@HeightFieldUtil@Gu@physx@@QBE?AVPxVec3@3@III@Z 10099720 f   GuHeightFieldUtil.obj
 0001:00098a40       ?overlapAABBTriangles@HeightFieldUtil@Gu@physx@@QBE_NABVPxTransform@3@ABVPxBounds3@3@IPAV?$EntityReport@I@23@@Z 10099a40 f   GuHeightFieldUtil.obj
 0001:00099160       ??$traceSegment@UTriggerTraceSegmentCallback@Gu@physx@@$0A@$0A@@HeightFieldTraceUtil@Gu@physx@@QBEXABVPxVec3@2@0MPAUTriggerTraceSegmentCallback@12@ABVPxBounds3@2@_NPBV32@@Z 1009a160 f i GuOverlapTestsHF.obj
 0001:0009a460       ?GeomOverlapCallback_BoxHeightfield@@YA_NABVPxGeometry@physx@@ABVPxTransform@2@01PAUTriggerCache@Gu@2@@Z 1009b460 f   GuOverlapTestsHF.obj
 0001:0009a7c0       ?GeomOverlapCallback_CapsuleHeightfield@@YA_NABVPxGeometry@physx@@ABVPxTransform@2@01PAUTriggerCache@Gu@2@@Z 1009b7c0 f   GuOverlapTestsHF.obj
 0001:0009aa70       ?GeomOverlapCallback_ConvexHeightfield@@YA_NABVPxGeometry@physx@@ABVPxTransform@2@01PAUTriggerCache@Gu@2@@Z 1009ba70 f   GuOverlapTestsHF.obj
 0001:0009aae0       ?GeomOverlapCallback_SphereHeightfield@@YA_NABVPxGeometry@physx@@ABVPxTransform@2@01PAUTriggerCache@Gu@2@@Z 1009bae0 f   GuOverlapTestsHF.obj
 0001:0009ac80       ?checkOverlapAABB_heightFieldGeom@Gu@physx@@YA_NABVPxGeometry@2@ABVPxTransform@2@ABVPxBounds3@2@@Z 1009bc80 f   GuOverlapTestsHF.obj
 0001:0009e2b0       ??$gjkRaycast@U?$LocalConvex@VTriangleV@Gu@physx@@@Gu@physx@@U?$LocalConvex@VConvexHullV@Gu@physx@@@23@@Gu@physx@@YA_NABU?$LocalConvex@VTriangleV@Gu@physx@@@01@ABU?$LocalConvex@VConvexHullV@Gu@physx@@@01@ABT__m128@@222AAT4@33M@Z 1009f2b0 f i GuSweepsHF.obj
 0001:0009f210       ??$traceSegment@VConvexTraceSegmentReport@@$0A@$00@HeightFieldTraceUtil@Gu@physx@@QBEXABVPxVec3@2@0MPAVConvexTraceSegmentReport@@ABVPxBounds3@2@_NPBV32@@Z 100a0210 f i GuSweepsHF.obj
 0001:0009f210       ??$traceSegment@VBoxTraceSegmentReport@@$0A@$00@HeightFieldTraceUtil@Gu@physx@@QBEXABVPxVec3@2@0MPAVBoxTraceSegmentReport@@ABVPxBounds3@2@_NPBV32@@Z 100a0210 f i GuSweepsHF.obj
 0001:0009f210       ??$traceSegment@VCapsuleTraceSegmentReport@@$0A@$00@HeightFieldTraceUtil@Gu@physx@@QBEXABVPxVec3@2@0MPAVCapsuleTraceSegmentReport@@ABVPxBounds3@2@_NPBV32@@Z 100a0210 f i GuSweepsHF.obj
 0001:0009fbf0       ??0ConvexTraceSegmentReport@@QAE@ABVHeightFieldUtil@Gu@physx@@ABUConvexHullData@23@ABVPxMeshScale@3@ABVPxTransform@3@3ABVPxVec3@3@MV?$PxFlags@W4Enum@PxHitFlag@physx@@G@3@M@Z 100a0bf0 f i GuSweepsHF.obj
 0001:000a05d0       ??_EBoxTraceSegmentReport@@UAEPAXI@Z 100a15d0 f i GuSweepsHF.obj
 0001:000a05d0       ??_GBoxTraceSegmentReport@@UAEPAXI@Z 100a15d0 f i GuSweepsHF.obj
 0001:000a0600       ??_GCapsuleTraceSegmentReport@@UAEPAXI@Z 100a1600 f i GuSweepsHF.obj
 0001:000a0600       ??_ECapsuleTraceSegmentReport@@UAEPAXI@Z 100a1600 f i GuSweepsHF.obj
 0001:000a0630       ??_GConvexTraceSegmentReport@@UAEPAXI@Z 100a1630 f i GuSweepsHF.obj
 0001:000a0630       ??_EConvexTraceSegmentReport@@UAEPAXI@Z 100a1630 f i GuSweepsHF.obj
 0001:000a0660       ??_GHeightFieldTraceSegmentReport@@UAEPAXI@Z 100a1660 f i GuSweepsHF.obj
 0001:000a0660       ??_EHeightFieldTraceSegmentReport@@UAEPAXI@Z 100a1660 f i GuSweepsHF.obj
 0001:000a0690       ?finalizeHit@ConvexTraceSegmentReport@@QAE_NAAUPxSweepHit@physx@@ABVPxHeightFieldGeometry@3@ABVPxTransform@3@ABVPxConvexMeshGeometry@3@2ABVPxVec3@3@M@Z 100a1690 f i GuSweepsHF.obj
 0001:000a0890       ?onEvent@BoxTraceSegmentReport@@UAE_NIPAI@Z 100a1890 f i GuSweepsHF.obj
 0001:000a0d10       ?onEvent@CapsuleTraceSegmentReport@@UAE_NIPAI@Z 100a1d10 f i GuSweepsHF.obj
 0001:000a0e90       ?onEvent@ConvexTraceSegmentReport@@UAE_NIPAI@Z 100a1e90 f i GuSweepsHF.obj
 0001:000a1450       ?prepare@?$OverlapTraceSegment@VBoxTraceSegmentReport@@@HeightFieldTraceUtil@Gu@physx@@QAEXABVPxVec3@4@00AAM1@Z 100a2450 f i GuSweepsHF.obj
 0001:000a1450       ?prepare@?$OverlapTraceSegment@VConvexTraceSegmentReport@@@HeightFieldTraceUtil@Gu@physx@@QAEXABVPxVec3@4@00AAM1@Z 100a2450 f i GuSweepsHF.obj
 0001:000a1450       ?prepare@?$OverlapTraceSegment@VCapsuleTraceSegmentReport@@@HeightFieldTraceUtil@Gu@physx@@QAEXABVPxVec3@4@00AAM1@Z 100a2450 f i GuSweepsHF.obj
 0001:000a1720       ?sweepBox_HeightFieldGeom@@YA_NABVPxGeometry@physx@@ABVPxTransform@2@ABVPxBoxGeometry@2@1ABVBox@Gu@2@ABVPxVec3@2@MAAUPxSweepHit@2@V?$PxFlags@W4Enum@PxHitFlag@physx@@G@2@M@Z 100a2720 f   GuSweepsHF.obj
 0001:000a2660       ?sweepCapsule_HeightFieldGeom@@YA_NABVPxGeometry@physx@@ABVPxTransform@2@ABVPxCapsuleGeometry@2@1ABVCapsule@Gu@2@ABVPxVec3@2@MAAUPxSweepHit@2@V?$PxFlags@W4Enum@PxHitFlag@physx@@G@2@M@Z 100a3660 f   GuSweepsHF.obj
 0001:000a3040       ?sweepConvex_HeightFieldGeom@@YA_NABVPxGeometry@physx@@ABVPxTransform@2@ABVPxConvexMeshGeometry@2@1ABVPxVec3@2@MAAUPxSweepHit@2@V?$PxFlags@W4Enum@PxHitFlag@physx@@G@2@M@Z 100a4040 f   GuSweepsHF.obj
 0001:000a3b20       ?testVertexIndex@?$OverlapTraceSegment@VBoxTraceSegmentReport@@@HeightFieldTraceUtil@Gu@physx@@QAE_NI@Z 100a4b20 f i GuSweepsHF.obj
 0001:000a3b20       ?testVertexIndex@?$OverlapTraceSegment@VCapsuleTraceSegmentReport@@@HeightFieldTraceUtil@Gu@physx@@QAE_NI@Z 100a4b20 f i GuSweepsHF.obj
 0001:000a3b20       ?testVertexIndex@?$OverlapTraceSegment@VConvexTraceSegmentReport@@@HeightFieldTraceUtil@Gu@physx@@QAE_NI@Z 100a4b20 f i GuSweepsHF.obj
 0001:000a3c40       ?visitCells@?$OverlapTraceSegment@VCapsuleTraceSegmentReport@@@HeightFieldTraceUtil@Gu@physx@@QAE_NABUOverlapRectangle@1234@@Z 100a4c40 f i GuSweepsHF.obj
 0001:000a3c40       ?visitCells@?$OverlapTraceSegment@VBoxTraceSegmentReport@@@HeightFieldTraceUtil@Gu@physx@@QAE_NABUOverlapRectangle@1234@@Z 100a4c40 f i GuSweepsHF.obj
 0001:000a3c40       ?visitCells@?$OverlapTraceSegment@VConvexTraceSegmentReport@@@HeightFieldTraceUtil@Gu@physx@@QAE_NABUOverlapRectangle@1234@@Z 100a4c40 f i GuSweepsHF.obj
 0001:000a3e00       ?intersectOBBOBB@Gu@physx@@YA_NABVPxVec3@2@0ABVPxMat33@2@001_N@Z 100a4e00 f   GuIntersectionBoxBox.obj
 0001:000a4740       ?intersectCapsuleTriangle@Gu@physx@@YA_NABVPxVec3@2@000ABVCapsule@12@ABUCapsuleTriangleOverlapData@12@@Z 100a5740 f   GuIntersectionCapsuleTriangle.obj
 0001:000a5310       ?intersectEdgeEdge@Gu@physx@@YA_NABVPxVec3@2@0000AAMAAV32@@Z 100a6310 f   GuIntersectionEdgeEdge.obj
 0001:000a5620       ?intersectRayAABB2@Gu@physx@@YA_NABT__m128@@0000AAT3@1@Z 100a6620 f   GuIntersectionRayBox.obj
 0001:000a56f0       ?intersectRayAABB2@Gu@physx@@YA_NABVPxVec3@2@000MAAM1@Z 100a66f0 f   GuIntersectionRayBox.obj
 0001:000a5880       ?intersectRayAABB@Gu@physx@@YAHABVPxVec3@2@000AAM1@Z 100a6880 f   GuIntersectionRayBox.obj
 0001:000a5990       ?rayAABBIntersect2@Gu@physx@@YAIABVPxVec3@2@000AAV32@AAM@Z 100a6990 f   GuIntersectionRayBox.obj
 0001:000a5b30       ?intersectRayCapsuleInternal@Gu@physx@@YAIABVPxVec3@2@000MQAM@Z 100a6b30 f   GuIntersectionRayCapsule.obj
 0001:000a63b0       ?intersectRaySphere@Gu@physx@@YA_NABVPxVec3@2@0M0MAAMPAV32@@Z 100a73b0 f   GuIntersectionRaySphere.obj
 0001:000a65b0       ?intersectRaySphereBasic@Gu@physx@@YA_NABVPxVec3@2@0M0MAAMPAV32@@Z 100a75b0 f   GuIntersectionRaySphere.obj
 0001:000a66d0       ?intersectSphereBox@Gu@physx@@YA_NABVSphere@12@ABVBox@12@@Z 100a76d0 f   GuIntersectionSphereBox.obj
 0001:000a6880       ?intersectTriangleBox@Gu@physx@@YAHABVBoxPadded@12@ABVPxVec3@2@11@Z 100a7880 f   GuIntersectionTriangleBox.obj
 0001:000a6dc0       ?intersectTriangleBoxBV4@@YAHABVPxVec3@physx@@00ABVPxMat33@2@00@Z 100a7dc0 f   GuIntersectionTriangleBox.obj
 0001:000a71f0       ?intersectTriangleBox_ReferenceCode@Gu@physx@@YAHABVPxVec3@2@0000@Z 100a81f0 f   GuIntersectionTriangleBox.obj
 0001:000a7af0       ?intersectTriangleBox_Unsafe@Gu@physx@@YAHABVPxVec3@2@0000@Z 100a8af0 f   GuIntersectionTriangleBox.obj
 0001:000a7ed0       ??0BV4Tree@Gu@physx@@QAE@PAVSourceMesh@12@ABVPxBounds3@2@@Z 100a8ed0 f   GuBV4.obj
 0001:000a7fd0       ??0BV4Tree@Gu@physx@@QAE@W4PxEMPTY@2@@Z 100a8fd0 f   GuBV4.obj
 0001:000a7fe0       ??0BV4Tree@Gu@physx@@QAE@XZ 100a8fe0 f   GuBV4.obj
 0001:000a8050       ??0SourceMesh@Gu@physx@@QAE@XZ 100a9050 f   GuBV4.obj
 0001:000a8080       ??0SourceMeshBase@Gu@physx@@QAE@XZ 100a9080 f   GuBV4.obj
 0001:000a8080       ??0AABBTree@Gu@physx@@QAE@XZ 100a9080 f   GuBV4Build.obj
 0001:000a80a0       ??1BV4Tree@Gu@physx@@QAE@XZ 100a90a0 f   GuBV4.obj
 0001:000a80b0       ??1SourceMesh@Gu@physx@@QAE@XZ 100a90b0 f   GuBV4.obj
 0001:000a80b0       ??1SourceMeshBase@Gu@physx@@QAE@XZ 100a90b0 f   GuBV4.obj
 0001:000a80e0       ??4BV4Tree@Gu@physx@@QAEXAAV012@@Z 100a90e0 f   GuBV4.obj
 0001:000a81a0       ??4SourceMesh@Gu@physx@@QAEXAAV012@@Z 100a91a0 f   GuBV4.obj
 0001:000a8200       ?exportExtraData@BV4Tree@Gu@physx@@QAEXAAVPxSerializationContext@3@@Z 100a9200 f   GuBV4.obj
 0001:000a8230       ?importExtraData@BV4Tree@Gu@physx@@QAEXAAVPxDeserializationContext@3@@Z 100a9230 f   GuBV4.obj
 0001:000a8260       ?init@BV32Tree@Gu@physx@@QAE_NPAVSourceMesh@23@ABVPxBounds3@3@@Z 100a9260 f   GuBV32.obj
 0001:000a8260       ?init@BV4Tree@Gu@physx@@QAE_NPAVSourceMesh@23@ABVPxBounds3@3@@Z 100a9260 f   GuBV4.obj
 0001:000a8300       ?load@BV4Tree@Gu@physx@@QAE_NAAVPxInputStream@3@_N@Z 100a9300 f   GuBV4.obj
 0001:000a84a0       ?release@BV4Tree@Gu@physx@@QAEXXZ 100a94a0 f   GuBV4.obj
 0001:000a8510       ?remapTopology@SourceMesh@Gu@physx@@QAEXPBI@Z 100a9510 f   GuBV4.obj
 0001:000a8730       ??0BVData@@QAE@XZ          100a9730 f   GuBV4Build.obj
 0001:000a8770       ??1AABBTree@Gu@physx@@QAE@XZ 100a9770 f   GuBV4Build.obj
 0001:000a8780       ?BuildBV4Ex@Gu@physx@@YA_NAAVBV4Tree@12@AAVSourceMesh@12@MI@Z 100a9780 f   GuBV4Build.obj
 0001:000a9860       ?allocateNode@BV4BuildParams@@QAEPAUBV4Node@@XZ 100aa860 f   GuBV4Build.obj
 0001:000a9930       ?buildFromMesh@AABBTree@Gu@physx@@QAE_NAAVSourceMesh@23@I@Z 100aa930 f   GuBV4Build.obj
 0001:000aa3b0       ?release@AABBTree@Gu@physx@@QAEXXZ 100ab3b0 f   GuBV4Build.obj
 0001:000aa640       ?walk@AABBTree@Gu@physx@@QBEIP6A_NPBVAABBTreeNode@23@IPAX@Z1@Z 100ab640 f   GuBV4Build.obj
 0001:000ac940       ?GenericSweep_AABB_CB@@YAXABVBox@Gu@physx@@ABVPxVec3@3@MABVBV4Tree@23@P6A_NPAX111IAAM@Z3I@Z 100ad940 f   GuBV4_AABBSweep.obj
 0001:000aca50       ?Sweep_AABB_BV4@@YAHABVBox@Gu@physx@@ABVPxVec3@3@MABVBV4Tree@23@PIAVSweepHit@23@I@Z 100ada50 f   GuBV4_AABBSweep.obj
 0001:000b11f0       ?BV4_OverlapBoxAll@@YAIABVBox@Gu@physx@@ABVBV4Tree@23@PIBVPxMat44@3@PAIIAA_N@Z 100b21f0 f   GuBV4_BoxOverlap.obj
 0001:000b1a40       ?BV4_OverlapBoxAny@@YAHABVBox@Gu@physx@@ABVBV4Tree@23@PIBVPxMat44@3@@Z 100b2a40 f   GuBV4_BoxOverlap.obj
 0001:000b2260       ?BV4_OverlapBoxCB@@YAXABVBox@Gu@physx@@ABVBV4Tree@23@P6A_NPAXABVPxVec3@3@33IPBI@Z2@Z 100b3260 f   GuBV4_BoxOverlap.obj
 0001:000b2730       ?BV4_OverlapCapsuleAll@@YAIABVCapsule@Gu@physx@@ABVBV4Tree@23@PIBVPxMat44@3@PAIIAA_N@Z 100b3730 f   GuBV4_BoxOverlap.obj
 0001:000b2f20       ?BV4_OverlapCapsuleAny@@YAHABVCapsule@Gu@physx@@ABVBV4Tree@23@PIBVPxMat44@3@@Z 100b3f20 f   GuBV4_BoxOverlap.obj
 0001:000b5320       ?BV4_CapsuleSweepSingle@@YAHABVCapsule@Gu@physx@@ABVPxVec3@3@MABVBV4Tree@23@PIAVSweepHit@23@I@Z 100b6320 f   GuBV4_CapsuleSweep.obj
 0001:000b87d0       ?BV4_CapsuleSweepSingleAA@@YAHABVCapsule@Gu@physx@@ABVPxVec3@3@MABVBV4Tree@23@PIAVSweepHit@23@I@Z 100b97d0 f   GuBV4_CapsuleSweepAA.obj
 0001:000bd570       ?BV4_BoxSweepSingle@@YAHABVBox@Gu@physx@@ABVPxVec3@3@MABVBV4Tree@23@PIBVPxMat44@3@PIAVSweepHit@23@I@Z 100be570 f   GuBV4_OBBSweep.obj
 0001:000bdbf0       ?BV4_GenericSweepCB@@YAXABVBox@Gu@physx@@ABVPxVec3@3@MABVBV4Tree@23@P6A_NPAX111IAAM@Z3_N@Z 100bebf0 f   GuBV4_OBBSweep.obj
 0001:000bddd0       ?Sweep_OBB_BV4@@YAHABVBox@Gu@physx@@ABVPxVec3@3@MABVBV4Tree@23@PIAVSweepHit@23@I@Z 100bedd0 f   GuBV4_OBBSweep.obj
 0001:000bfd90       ?BV4_RaycastCB@@YAXABVPxVec3@physx@@0ABVBV4Tree@Gu@2@PIBVPxMat44@2@MMIP6A?AW4HitCode@42@PAX000IMMM@Z3@Z 100c0d90 f   GuBV4_Raycast.obj
 0001:000c00e0       ?BV4_RaycastSingle@@YAHABVPxVec3@physx@@0ABVBV4Tree@Gu@2@PIBVPxMat44@2@PIAUPxRaycastHit@2@MMIV?$PxFlags@W4Enum@PxHitFlag@physx@@G@2@@Z 100c10e0 f   GuBV4_Raycast.obj
 0001:000c1e50       ?BV4_OverlapSphereAll@@YAIABVSphere@Gu@physx@@ABVBV4Tree@23@PIBVPxMat44@3@PAIIAA_N@Z 100c2e50 f   GuBV4_SphereOverlap.obj
 0001:000c20c0       ?BV4_OverlapSphereAny@@YAHABVSphere@Gu@physx@@ABVBV4Tree@23@PIBVPxMat44@3@@Z 100c30c0 f   GuBV4_SphereOverlap.obj
 0001:000c3eb0       ?BV4_GenericSweepCB_Old@@YAXABVPxVec3@physx@@00MABVBV4Tree@Gu@2@PIBVPxMat44@2@P6A_NPAX000IAAM@Z3@Z 100c4eb0 f   GuBV4_SphereSweep.obj
 0001:000c4220       ?BV4_SphereSweepSingle@@YAHABVSphere@Gu@physx@@ABVPxVec3@3@MABVBV4Tree@23@PIBVPxMat44@3@PIAVSweepHit@23@I@Z 100c5220 f   GuBV4_SphereSweep.obj
 0001:000c5360       ?computeSweepData@physx@@YAMABVPxTriangleMeshGeometry@1@AAVPxVec3@1@11M@Z 100c6360 f i GuMidphaseBV4.obj
 0001:000c6700       ?intersectBoxVsMesh_BV4@Gu@physx@@YA_NABVBox@12@ABVTriangleMesh@12@ABVPxTransform@2@ABVPxMeshScale@2@PAULimitedResults@12@@Z 100c7700 f   GuMidphaseBV4.obj
 0001:000c72d0       ?intersectCapsuleVsMesh_BV4@Gu@physx@@YA_NABVCapsule@12@ABVTriangleMesh@12@ABVPxTransform@2@ABVPxMeshScale@2@PAULimitedResults@12@@Z 100c82d0 f   GuMidphaseBV4.obj
 0001:000c7b70       ?intersectOBB_BV4@Gu@physx@@YAXPBVTriangleMesh@12@ABVBox@12@AAU?$MeshHitCallback@UPxRaycastHit@physx@@@12@_N3@Z 100c8b70 f   GuMidphaseBV4.obj
 0001:000c7b90       ?intersectSphereVsMesh_BV4@Gu@physx@@YA_NABVSphere@12@ABVTriangleMesh@12@ABVPxTransform@2@ABVPxMeshScale@2@PAULimitedResults@12@@Z 100c8b90 f   GuMidphaseBV4.obj
 0001:000c8330       ?raycast_triangleMesh_BV4@Gu@physx@@YAIPBVTriangleMesh@12@ABVPxTriangleMeshGeometry@2@ABVPxTransform@2@ABVPxVec3@2@3MV?$PxFlags@W4Enum@PxHitFlag@physx@@G@2@IPIAUPxRaycastHit@2@@Z 100c9330 f   GuMidphaseBV4.obj
 0001:000c9110       ?sweepBox_MeshGeom_BV4@Gu@physx@@YA_NPBVTriangleMesh@12@ABVPxTriangleMeshGeometry@2@ABVPxTransform@2@ABVBox@12@ABVPxVec3@2@MAAUPxSweepHit@2@V?$PxFlags@W4Enum@PxHitFlag@physx@@G@2@M@Z 100ca110 f   GuMidphaseBV4.obj
 0001:000cab50       ?sweepCapsule_MeshGeom_BV4@Gu@physx@@YA_NPBVTriangleMesh@12@ABVPxTriangleMeshGeometry@2@ABVPxTransform@2@ABVCapsule@12@ABVPxVec3@2@MAAUPxSweepHit@2@V?$PxFlags@W4Enum@PxHitFlag@physx@@G@2@M@Z 100cbb50 f   GuMidphaseBV4.obj
 0001:000cb740       ?sweepConvex_MeshGeom_BV4@Gu@physx@@YAXPBVTriangleMesh@12@ABVBox@12@ABVPxVec3@2@MAAUSweepConvexMeshHitCallback@12@_N@Z 100cc740 f   GuMidphaseBV4.obj
 0001:000cb780       ?transform@PxMeshScale@physx@@QBE?AVPxVec3@2@ABV32@@Z 100cc780 f i GuMidphaseBV4.obj
 0001:000cb970       ?findOverlapHeightField@PxMeshQuery@physx@@SAIABVPxGeometry@2@ABVPxTransform@2@ABVPxHeightFieldGeometry@2@1PAIIIAA_N@Z 100cc970 f   GuMeshQuery.obj
 0001:000cc030       ?findOverlapTriangleMesh@PxMeshQuery@physx@@SAIABVPxGeometry@2@ABVPxTransform@2@ABVPxTriangleMeshGeometry@2@1PAIIIAA_N@Z 100cd030 f   GuMeshQuery.obj
 0001:000cc310       ?getTriangle@PxMeshQuery@physx@@SAXABVPxHeightFieldGeometry@2@ABVPxTransform@2@IAAVPxTriangle@2@PAI3@Z 100cd310 f   GuMeshQuery.obj
 0001:000cc380       ?getTriangle@PxMeshQuery@physx@@SAXABVPxTriangleMeshGeometry@2@ABVPxTransform@2@IAAVPxTriangle@2@PAI3@Z 100cd380 f   GuMeshQuery.obj
 0001:000cc7e0       ?sweep@PxMeshQuery@physx@@SA_NABVPxVec3@2@MABVPxGeometry@2@ABVPxTransform@2@IPBVPxTriangle@2@AAUPxSweepHit@2@V?$PxFlags@W4Enum@PxHitFlag@physx@@G@2@PBIM_N@Z 100cd7e0 f   GuMeshQuery.obj
 0001:000cc950       ??$collide@$00$00@MeshRayCollider@@SAXABVPxVec3@physx@@0M_NPBVRTreeTriangleMesh@Gu@2@AAU?$MeshHitCallback@UPxRaycastHit@physx@@@42@PBV12@@Z 100cd950 f i GuMidphaseRTree.obj
 0001:000ccc00       ??$collide@$00$0A@@MeshRayCollider@@SAXABVPxVec3@physx@@0M_NPBVRTreeTriangleMesh@Gu@2@AAU?$MeshHitCallback@UPxRaycastHit@physx@@@42@PBV12@@Z 100cdc00 f i GuMidphaseRTree.obj
 0001:000ccd60       ??$collide@$0A@$00@MeshRayCollider@@SAXABVPxVec3@physx@@0M_NPBVRTreeTriangleMesh@Gu@2@AAU?$MeshHitCallback@UPxRaycastHit@physx@@@42@PBV12@@Z 100cdd60 f i GuMidphaseRTree.obj
 0001:000cf410       ??0?$RayRTreeCallback@$00$0A@@@QAE@MAAU?$MeshHitCallback@UPxRaycastHit@physx@@@Gu@physx@@HPBXPBVPxVec3@3@ABV43@3M_N2@Z 100d0410 f i GuMidphaseRTree.obj
 0001:000cf530       ??0?$RayRTreeCallback@$0A@$0A@@@QAE@MAAU?$MeshHitCallback@UPxRaycastHit@physx@@@Gu@physx@@HPBXPBVPxVec3@3@ABV43@3M_N2@Z 100d0530 f i GuMidphaseRTree.obj
 0001:000cf640       ??1?$RayRTreeCallback@$0A@$0A@@@UAE@XZ 100d0640 f i GuMidphaseRTree.obj
 0001:000cf640       ??1?$RayRTreeCallback@$00$0A@@@UAE@XZ 100d0640 f i GuMidphaseRTree.obj
 0001:000cf6a0       ??4PxRaycastHit@physx@@QAEAAU01@ABU01@@Z 100d06a0 f i GuMidphaseRTree.obj
 0001:000cf707       ??_E?$RayRTreeCallback@$00$00@@W3AEPAXI@Z 100d0707 f i GuMidphaseRTree.obj
 0001:000cf70f       ??_E?$RayRTreeCallback@$00$0A@@@W3AEPAXI@Z 100d070f f i GuMidphaseRTree.obj
 0001:000cf70f       ??_E?$RayRTreeCallback@$0A@$0A@@@W3AEPAXI@Z 100d070f f i GuMidphaseRTree.obj
 0001:000cf717       ??_E?$RayRTreeCallback@$0A@$00@@W3AEPAXI@Z 100d0717 f i GuMidphaseRTree.obj
 0001:000cf7b0       ??_E?$RayRTreeCallback@$00$00@@UAEPAXI@Z 100d07b0 f i GuMidphaseRTree.obj
 0001:000cf7b0       ??_G?$RayRTreeCallback@$00$00@@UAEPAXI@Z 100d07b0 f i GuMidphaseRTree.obj
 0001:000cf820       ??_G?$RayRTreeCallback@$00$0A@@@UAEPAXI@Z 100d0820 f i GuMidphaseRTree.obj
 0001:000cf820       ??_G?$RayRTreeCallback@$0A@$0A@@@UAEPAXI@Z 100d0820 f i GuMidphaseRTree.obj
 0001:000cf820       ??_E?$RayRTreeCallback@$0A@$0A@@@UAEPAXI@Z 100d0820 f i GuMidphaseRTree.obj
 0001:000cf820       ??_E?$RayRTreeCallback@$00$0A@@@UAEPAXI@Z 100d0820 f i GuMidphaseRTree.obj
 0001:000cf890       ??_G?$RayRTreeCallback@$0A@$00@@UAEPAXI@Z 100d0890 f i GuMidphaseRTree.obj
 0001:000cf890       ??_E?$RayRTreeCallback@$0A@$00@@UAEPAXI@Z 100d0890 f i GuMidphaseRTree.obj
 0001:000cf900       ??_ECallback@RTree@Gu@physx@@UAEPAXI@Z 100d0900 f i GuMidphaseRTree.obj
 0001:000cf900       ??_GCallback@RTree@Gu@physx@@UAEPAXI@Z 100d0900 f i GuMidphaseRTree.obj
 0001:000cf930       ??_GCallbackRaycast@RTree@Gu@physx@@UAEPAXI@Z 100d0930 f i GuMidphaseRTree.obj
 0001:000cf930       ??_ECallbackRefit@RTree@Gu@physx@@UAEPAXI@Z 100d0930 f i GuTriangleMeshRTree.obj
 0001:000cf930       ??_ECallbackRaycast@RTree@Gu@physx@@UAEPAXI@Z 100d0930 f i GuMidphaseRTree.obj
 0001:000cf930       ??_GCallbackRefit@RTree@Gu@physx@@UAEPAXI@Z 100d0930 f i GuTriangleMeshRTree.obj
 0001:000cf960       ?collideOBB@MeshRayCollider@@SAXABVBox@Gu@physx@@_NPBVRTreeTriangleMesh@34@AAU?$MeshHitCallback@UPxRaycastHit@physx@@@34@1@Z 100d0960 f   GuMidphaseRTree.obj
 0001:000cfd70       ?intersectBoxVsMesh_RTREE@Gu@physx@@YA_NABVBox@12@ABVTriangleMesh@12@ABVPxTransform@2@ABVPxMeshScale@2@PAULimitedResults@12@@Z 100d0d70 f   GuMidphaseRTree.obj
 0001:000cfdf0       ?intersectCapsuleVsMesh_RTREE@Gu@physx@@YA_NABVCapsule@12@ABVTriangleMesh@12@ABVPxTransform@2@ABVPxMeshScale@2@PAULimitedResults@12@@Z 100d0df0 f   GuMidphaseRTree.obj
 0001:000cfe70       ?intersectOBB_RTREE@Gu@physx@@YAXPBVTriangleMesh@12@ABVBox@12@AAU?$MeshHitCallback@UPxRaycastHit@physx@@@12@_N3@Z 100d0e70 f   GuMidphaseRTree.obj
 0001:000cfe90       ?intersectSphereVsMesh_RTREE@Gu@physx@@YA_NABVSphere@12@ABVTriangleMesh@12@ABVPxTransform@2@ABVPxMeshScale@2@PAULimitedResults@12@@Z 100d0e90 f   GuMidphaseRTree.obj
 0001:000d0b00       ?processHit@RayMeshColliderCallback@@UAE_NABUPxRaycastHit@physx@@ABVPxVec3@3@11AAMPBI@Z 100d1b00 f i GuMidphaseRTree.obj
 0001:000d11f0       ?processResults@?$RayRTreeCallback@$00$00@@UAE_NIPAI@Z 100d21f0 f i GuMidphaseRTree.obj
 0001:000d15d0       ?processResults@?$RayRTreeCallback@$00$00@@UAE_NIPAIAAM@Z 100d25d0 f i GuMidphaseRTree.obj
 0001:000d19a0       ?processResults@?$RayRTreeCallback@$00$0A@@@UAE_NIPAI@Z 100d29a0 f i GuMidphaseRTree.obj
 0001:000d19a0       ?processResults@?$RayRTreeCallback@$0A@$0A@@@UAE_NIPAI@Z 100d29a0 f i GuMidphaseRTree.obj
 0001:000d1cd0       ?processResults@?$RayRTreeCallback@$00$0A@@@UAE_NIPAIAAM@Z 100d2cd0 f i GuMidphaseRTree.obj
 0001:000d1cd0       ?processResults@?$RayRTreeCallback@$0A@$0A@@@UAE_NIPAIAAM@Z 100d2cd0 f i GuMidphaseRTree.obj
 0001:000d1fe0       ?processResults@?$RayRTreeCallback@$0A@$00@@UAE_NIPAI@Z 100d2fe0 f i GuMidphaseRTree.obj
 0001:000d2710       ?processResults@?$RayRTreeCallback@$0A@$00@@UAE_NIPAIAAM@Z 100d3710 f i GuMidphaseRTree.obj
 0001:000d2e20       ?raycast_triangleMesh_RTREE@Gu@physx@@YAIPBVTriangleMesh@12@ABVPxTriangleMeshGeometry@2@ABVPxTransform@2@ABVPxVec3@2@3MV?$PxFlags@W4Enum@PxHitFlag@physx@@G@2@IPIAUPxRaycastHit@2@@Z 100d3e20 f   GuMidphaseRTree.obj
 0001:000d3680       ?sweepBox_MeshGeom_RTREE@Gu@physx@@YA_NPBVTriangleMesh@12@ABVPxTriangleMeshGeometry@2@ABVPxTransform@2@ABVBox@12@ABVPxVec3@2@MAAUPxSweepHit@2@V?$PxFlags@W4Enum@PxHitFlag@physx@@G@2@M@Z 100d4680 f   GuMidphaseRTree.obj
 0001:000d4e60       ?sweepCapsule_MeshGeom_RTREE@Gu@physx@@YA_NPBVTriangleMesh@12@ABVPxTriangleMeshGeometry@2@ABVPxTransform@2@ABVCapsule@12@ABVPxVec3@2@MAAUPxSweepHit@2@V?$PxFlags@W4Enum@PxHitFlag@physx@@G@2@M@Z 100d5e60 f   GuMidphaseRTree.obj
 0001:000d5780       ?sweepConvex_MeshGeom_RTREE@Gu@physx@@YAXPBVTriangleMesh@12@ABVBox@12@ABVPxVec3@2@MAAUSweepConvexMeshHitCallback@12@_N@Z 100d6780 f   GuMidphaseRTree.obj
 0001:000d57e0       ??$gjk@U?$RelativeConvex@VTriangleV@Gu@physx@@@Gu@physx@@U?$LocalConvex@VConvexHullV@Gu@physx@@@23@@Gu@physx@@YA?AW4GjkStatus@01@ABU?$RelativeConvex@VTriangleV@Gu@physx@@@01@ABU?$LocalConvex@VConvexHullV@Gu@physx@@@01@ABT__m128@@2AAT5@333@Z 100d67e0 f i GuOverlapTestsMesh.obj
 0001:000d68c0       ??0ConvexVsMeshOverlapCallback@@QAE@ABVConvexMesh@Gu@physx@@ABVPxMeshScale@3@ABVFastVertex2ShapeScaling@Cm@3@ABVPxTransform@3@3_NABVBox@23@@Z 100d78c0 f i GuOverlapTestsMesh.obj
 0001:000d7200       ??_GConvexVsMeshOverlapCallback@@UAEPAXI@Z 100d8200 f i GuOverlapTestsMesh.obj
 0001:000d7200       ??_EConvexVsMeshOverlapCallback@@UAEPAXI@Z 100d8200 f i GuOverlapTestsMesh.obj
 0001:000d7230       ?GeomOverlapCallback_BoxMesh@@YA_NABVPxGeometry@physx@@ABVPxTransform@2@01PAUTriggerCache@Gu@2@@Z 100d8230 f   GuOverlapTestsMesh.obj
 0001:000d7330       ?GeomOverlapCallback_CapsuleMesh@@YA_NABVPxGeometry@physx@@ABVPxTransform@2@01PAUTriggerCache@Gu@2@@Z 100d8330 f   GuOverlapTestsMesh.obj
 0001:000d7430       ?GeomOverlapCallback_ConvexMesh@@YA_NABVPxGeometry@physx@@ABVPxTransform@2@01PAUTriggerCache@Gu@2@@Z 100d8430 f   GuOverlapTestsMesh.obj
 0001:000d7a40       ?GeomOverlapCallback_SphereMesh@@YA_NABVPxGeometry@physx@@ABVPxTransform@2@01PAUTriggerCache@Gu@2@@Z 100d8a40 f   GuOverlapTestsMesh.obj
 0001:000d7aa0       ?checkOverlapAABB_triangleGeom@Gu@physx@@YA_NABVPxGeometry@2@ABVPxTransform@2@ABVPxBounds3@2@@Z 100d8aa0 f   GuOverlapTestsMesh.obj
 0001:000d7b70       ?processHit@ConvexVsMeshOverlapCallback@@UAE_NABUPxRaycastHit@physx@@ABVPxVec3@3@11AAMPBI@Z 100d8b70 f i GuOverlapTestsMesh.obj
 0001:000d7f30       ??0RTree@Gu@physx@@QAE@W4PxEMPTY@2@@Z 100d8f30 f   GuRTree.obj
 0001:000d7f40       ?exportExtraData@RTree@Gu@physx@@QAEXAAVPxSerializationContext@3@@Z 100d8f40 f   GuRTree.obj
 0001:000d7f70       ?importExtraData@RTree@Gu@physx@@QAEXAAVPxDeserializationContext@3@@Z 100d8f70 f   GuRTree.obj
 0001:000d7fa0       ?load@RTree@Gu@physx@@QAE_NAAVPxInputStream@3@I_N@Z 100d8fa0 f   GuRTree.obj
 0001:000d81f0       ?refitAllStaticTree@RTree@Gu@physx@@QAEXAAUCallbackRefit@123@PAVPxBounds3@3@@Z 100d91f0 f   GuRTree.obj
 0001:000d84c0       ?validate@RTree@Gu@physx@@QAEXPAUCallbackRefit@123@@Z 100d94c0 f   GuRTree.obj
 0001:000d85c0       ?validateRecursive@RTree@Gu@physx@@IAEXIURTreeNodeQ@23@PAURTreePage@23@PAUCallbackRefit@123@@Z 100d95c0 f   GuRTree.obj
 0001:000d86d0       ??$traverseRay@$00@RTree@Gu@physx@@QBEXABVPxVec3@2@0IPAIPAUCallbackRaycast@012@PBV32@M@Z 100d96d0 f i GuRTreeQueries.obj
 0001:000d89f0       ??$traverseRay@$0A@@RTree@Gu@physx@@QBEXABVPxVec3@2@0IPAIPAUCallbackRaycast@012@PBV32@M@Z 100d99f0 f i GuRTreeQueries.obj
 0001:000d8ca0       ?traverseAABB@RTree@Gu@physx@@QBEXABVPxVec3@3@0IPAIPAUCallback@123@@Z 100d9ca0 f   GuRTreeQueries.obj
 0001:000d8e50       ?traverseOBB@RTree@Gu@physx@@QBEXABVBox@23@IPAIPAUCallback@123@@Z 100d9e50 f   GuRTreeQueries.obj
 0001:000d97f0       ??0SweepBoxMeshHitCallback@Gu@physx@@QAE@W4Enum@CallbackMode@12@ABVMatrix34Padded@12@M_NABVBox@12@ABVPxVec3@2@44ABV?$PxFlags@W4Enum@PxHitFlag@physx@@G@2@M2M@Z 100da7f0 f   GuSweepsMesh.obj
 0001:000d9900       ??0SweepCapsuleMeshHitCallback@Gu@physx@@QAE@AAUPxSweepHit@2@ABVMatrix34@Cm@2@M_NABVCapsule@12@ABVPxVec3@2@ABV?$PxFlags@W4Enum@PxHitFlag@physx@@G@2@2M@Z 100da900 f   GuSweepsMesh.obj
 0001:000d99d0       ??0SweepConvexMeshHitCallback@Gu@physx@@QAE@ABUConvexHullData@12@ABVPxMeshScale@2@ABVFastVertex2ShapeScaling@Cm@2@ABVPxTransform@2@3ABVPxVec3@2@MV?$PxFlags@W4Enum@PxHitFlag@physx@@G@2@_NM6M@Z 100da9d0 f   GuSweepsMesh.obj
 0001:000da3b0       ??_ESweepBoxMeshHitCallback@Gu@physx@@UAEPAXI@Z 100db3b0 f i GuSweepsMesh.obj
 0001:000da3b0       ??_GSweepBoxMeshHitCallback@Gu@physx@@UAEPAXI@Z 100db3b0 f i GuSweepsMesh.obj
 0001:000da3e0       ??_GSweepCapsuleMeshHitCallback@Gu@physx@@UAEPAXI@Z 100db3e0 f i GuSweepsMesh.obj
 0001:000da3e0       ??_ESweepCapsuleMeshHitCallback@Gu@physx@@UAEPAXI@Z 100db3e0 f i GuSweepsMesh.obj
 0001:000da410       ??_GSweepConvexMeshHitCallback@Gu@physx@@UAEPAXI@Z 100db410 f i GuSweepsMesh.obj
 0001:000da410       ??_ESweepConvexMeshHitCallback@Gu@physx@@UAEPAXI@Z 100db410 f i GuSweepsMesh.obj
 0001:000da440       ??_ESweepShapeMeshHitCallback@Gu@physx@@UAEPAXI@Z 100db440 f i GuSweepsMesh.obj
 0001:000da440       ??_GSweepShapeMeshHitCallback@Gu@physx@@UAEPAXI@Z 100db440 f i GuSweepsMesh.obj
 0001:000da470       ?finalizeHit@SweepBoxMeshHitCallback@Gu@physx@@QBE_NAAUPxSweepHit@3@ABVPxTriangleMeshGeometry@3@ABVPxTransform@3@2ABVPxVec3@3@_N4@Z 100db470 f   GuSweepsMesh.obj
 0001:000daac0       ?finalizeHit@SweepCapsuleMeshHitCallback@Gu@physx@@QBE_NAAUPxSweepHit@3@ABVCapsule@23@ABVPxTriangleMeshGeometry@3@ABVPxTransform@3@_N@Z 100dbac0 f   GuSweepsMesh.obj
 0001:000dac60       ?finalizeHit@SweepConvexMeshHitCallback@Gu@physx@@QAE_NAAUPxSweepHit@3@ABVPxTriangleMeshGeometry@3@ABVPxTransform@3@ABVPxConvexMeshGeometry@3@2ABVPxVec3@3@M_N555@Z 100dbc60 f   GuSweepsMesh.obj
 0001:000db0a0       ?processHit@SweepBoxMeshHitCallback@Gu@physx@@UAE_NABUPxRaycastHit@3@ABVPxVec3@3@11AAMPBI@Z 100dc0a0 f   GuSweepsMesh.obj
 0001:000db870       ?processHit@SweepCapsuleMeshHitCallback@Gu@physx@@UAE_NABUPxRaycastHit@3@ABVPxVec3@3@11AAMPBI@Z 100dc870 f   GuSweepsMesh.obj
 0001:000dbcd0       ?processHit@SweepConvexMeshHitCallback@Gu@physx@@UAE_NABUPxRaycastHit@3@ABVPxVec3@3@11AAMPBI@Z 100dccd0 f   GuSweepsMesh.obj
 0001:000dc440       ?sweepBox_MeshGeom@@YA_NABVPxGeometry@physx@@ABVPxTransform@2@ABVPxBoxGeometry@2@1ABVBox@Gu@2@ABVPxVec3@2@MAAUPxSweepHit@2@V?$PxFlags@W4Enum@PxHitFlag@physx@@G@2@M@Z 100dd440 f   GuSweepsMesh.obj
 0001:000dc4a0       ?sweepCapsule_MeshGeom@@YA_NABVPxGeometry@physx@@ABVPxTransform@2@ABVPxCapsuleGeometry@2@1ABVCapsule@Gu@2@ABVPxVec3@2@MAAUPxSweepHit@2@V?$PxFlags@W4Enum@PxHitFlag@physx@@G@2@M@Z 100dd4a0 f   GuSweepsMesh.obj
 0001:000dc500       ?sweepConvex_MeshGeom@@YA_NABVPxGeometry@physx@@ABVPxTransform@2@ABVPxConvexMeshGeometry@2@1ABVPxVec3@2@MAAUPxSweepHit@2@V?$PxFlags@W4Enum@PxHitFlag@physx@@G@2@M@Z 100dd500 f   GuSweepsMesh.obj
 0001:000dd100       ??0TriangleMesh@Gu@physx@@QAE@AAVGuMeshFactory@2@AAVTriangleMeshData@12@@Z 100de100 f   GuTriangleMesh.obj
 0001:000dd260       ??1TriangleMesh@Gu@physx@@UAE@XZ 100de260 f   GuTriangleMesh.obj
 0001:000dd392       ??_ETriangleMesh@Gu@physx@@W7AEPAXI@Z 100de392 f i GuTriangleMesh.obj
 0001:000dd3a0       ??_ETriangleMesh@Gu@physx@@UAEPAXI@Z 100de3a0 f i GuTriangleMesh.obj
 0001:000dd3a0       ??_GTriangleMesh@Gu@physx@@UAEPAXI@Z 100de3a0 f i GuTriangleMesh.obj
 0001:000dd3e0       ?exportExtraData@TriangleMesh@Gu@physx@@UAEXAAVPxSerializationContext@3@@Z 100de3e0 f   GuTriangleMesh.obj
 0001:000dd4d0       ?getLocalBounds@TriangleMesh@Gu@physx@@UBE?AVPxBounds3@3@XZ 100de4d0 f i GuTriangleMesh.obj
 0001:000dd530       ?getTriangleMaterialIndex@TriangleMesh@Gu@physx@@UBEGI@Z 100de530 f i GuTriangleMesh.obj
 0001:000dd550       ?getTriangleMeshFlags@TriangleMesh@Gu@physx@@UBE?AV?$PxFlags@W4Enum@PxTriangleMeshFlag@physx@@E@3@XZ 100de550 f i GuTriangleMesh.obj
 0001:000dd560       ?getVerticesForModification@TriangleMesh@Gu@physx@@UAEPAVPxVec3@3@XZ 100de560 f   GuTriangleMesh.obj
 0001:000dd590       ?importExtraData@TriangleMesh@Gu@physx@@QAEXAAVPxDeserializationContext@3@@Z 100de590 f   GuTriangleMesh.obj
 0001:000dd670       ?isKindOf@PxTriangleMesh@physx@@MBE_NPBD@Z 100de670 f i GuTriangleMesh.obj
 0001:000dd6f0       ?onRefCountZero@TriangleMesh@Gu@physx@@UAEXXZ 100de6f0 f   GuTriangleMesh.obj
 0001:000dd760       ?refitBVH@TriangleMesh@Gu@physx@@UAE?AVPxBounds3@3@XZ 100de760 f   GuTriangleMesh.obj
 0001:000dd7f0       ??0BV4TriangleMesh@Gu@physx@@QAE@AAVGuMeshFactory@2@AAVTriangleMeshData@12@@Z 100de7f0 f   GuTriangleMeshBV4.obj
 0001:000dd847       ??_EBV4TriangleMesh@Gu@physx@@W7AEPAXI@Z 100de847 f i GuTriangleMeshBV4.obj
 0001:000dd850       ??_GBV4TriangleMesh@Gu@physx@@UAEPAXI@Z 100de850 f i GuTriangleMeshBV4.obj
 0001:000dd850       ??_EBV4TriangleMesh@Gu@physx@@UAEPAXI@Z 100de850 f i GuTriangleMeshBV4.obj
 0001:000dd8b0       ?createObject@BV4TriangleMesh@Gu@physx@@SAPAVTriangleMesh@23@AAPAEAAVPxDeserializationContext@3@@Z 100de8b0 f   GuTriangleMeshBV4.obj
 0001:000dd950       ?exportExtraData@BV4TriangleMesh@Gu@physx@@UAEXAAVPxSerializationContext@3@@Z 100de950 f   GuTriangleMeshBV4.obj
 0001:000dd970       ?getConcreteTypeName@BV4TriangleMesh@Gu@physx@@UBEPBDXZ 100de970 f i GuTriangleMeshBV4.obj
 0001:000dd980       ?getMidphaseID@BV4TriangleMesh@Gu@physx@@UBE?AW4Enum@PxMeshMidPhase@3@XZ 100de980 f i GuTriangleMeshBV4.obj
 0001:000dd990       ??0RTreeTriangleMesh@Gu@physx@@QAE@AAVGuMeshFactory@2@AAVTriangleMeshData@12@@Z 100de990 f   GuTriangleMeshRTree.obj
 0001:000ddae2       ??_ERTreeTriangleMesh@Gu@physx@@W7AEPAXI@Z 100deae2 f i GuTriangleMeshRTree.obj
 0001:000ddaf0       ??_E?$RefitCallback@G@physx@@UAEPAXI@Z 100deaf0 f i GuTriangleMeshRTree.obj
 0001:000ddaf0       ??_G?$RefitCallback@I@physx@@UAEPAXI@Z 100deaf0 f i GuTriangleMeshRTree.obj
 0001:000ddaf0       ??_E?$RefitCallback@I@physx@@UAEPAXI@Z 100deaf0 f i GuTriangleMeshRTree.obj
 0001:000ddaf0       ??_G?$RefitCallback@G@physx@@UAEPAXI@Z 100deaf0 f i GuTriangleMeshRTree.obj
 0001:000ddb20       ??_GRTreeTriangleMesh@Gu@physx@@UAEPAXI@Z 100deb20 f i GuTriangleMeshRTree.obj
 0001:000ddb20       ??_ERTreeTriangleMesh@Gu@physx@@UAEPAXI@Z 100deb20 f i GuTriangleMeshRTree.obj
 0001:000ddba0       ?createObject@RTreeTriangleMesh@Gu@physx@@SAPAVTriangleMesh@23@AAPAEAAVPxDeserializationContext@3@@Z 100deba0 f   GuTriangleMeshRTree.obj
 0001:000ddc00       ?exportExtraData@RTreeTriangleMesh@Gu@physx@@UAEXAAVPxSerializationContext@3@@Z 100dec00 f   GuTriangleMeshRTree.obj
 0001:000ddc20       ?getConcreteTypeName@RTreeTriangleMesh@Gu@physx@@UBEPBDXZ 100dec20 f i GuTriangleMeshRTree.obj
 0001:000ddc30       ?getMidphaseID@RTreeTriangleMesh@Gu@physx@@UBE?AW4Enum@PxMeshMidPhase@3@XZ 100dec30 f i GuTriangleMeshRTree.obj
 0001:000ddc40       ?getVerticesForModification@RTreeTriangleMesh@Gu@physx@@UAEPAVPxVec3@3@XZ 100dec40 f   GuTriangleMeshRTree.obj
 0001:000ddc50       ?recomputeBounds@?$RefitCallback@G@physx@@UAEXIAAT__m128@@0@Z 100dec50 f i GuTriangleMeshRTree.obj
 0001:000ddd50       ?recomputeBounds@?$RefitCallback@I@physx@@UAEXIAAT__m128@@0@Z 100ded50 f i GuTriangleMeshRTree.obj
 0001:000dde40       ?refitBVH@RTreeTriangleMesh@Gu@physx@@UAE?AVPxBounds3@3@XZ 100dee40 f   GuTriangleMeshRTree.obj
 0001:000ddfd0       ??0BV32Tree@Gu@physx@@QAE@PAVSourceMesh@12@ABVPxBounds3@2@@Z 100defd0 f   GuBV32.obj
 0001:000de0b0       ??0BV32Tree@Gu@physx@@QAE@XZ 100df0b0 f   GuBV32.obj
 0001:000de100       ??1BV32Tree@Gu@physx@@QAE@XZ 100df100 f   GuBV32.obj
 0001:000de160       ?calculateLeafNode@BV32Tree@Gu@physx@@QAEXAAUBV32Data@23@@Z 100df160 f   GuBV32.obj
 0001:000de2f0       ?createSOAformatNode@BV32Tree@Gu@physx@@QAEXAAUBV32DataPacked@23@ABUBV32Data@23@IAAI2@Z 100df2f0 f   GuBV32.obj
 0001:000de4e0       ?load@BV32Tree@Gu@physx@@QAE_NAAVPxInputStream@3@_N@Z 100df4e0 f   GuBV32.obj
 0001:000de6f0       ??0BV32Node@@QAE@XZ        100df6f0 f i GuBV32Build.obj
 0001:000de750       ?BuildBV32Ex@Gu@physx@@YA_NAAVBV32Tree@12@AAVSourceMesh@12@MI@Z 100df750 f   GuBV32Build.obj
 0001:000e2020       ?pcmContactBoxBox@Gu@physx@@YA_NABVGeometryUnion@12@0ABVPxTransform@2@1ABUNarrowPhaseParams@12@AAUCache@12@AAVContactBuffer@12@PAVRenderOutput@Cm@2@@Z 100e3020 f   GuPCMContactBoxBox.obj
 0001:000e2f20       ??$gjkPenetration@U?$RelativeConvex@VBoxV@Gu@physx@@@Gu@physx@@U?$LocalConvex@VConvexHullNoScaleV@Gu@physx@@@23@@Gu@physx@@YA?AW4GjkStatus@01@ABU?$RelativeConvex@VBoxV@Gu@physx@@@01@ABU?$LocalConvex@VConvexHullNoScaleV@Gu@physx@@@01@ABT__m128@@2_NPIAE4AAEAAUGjkOutput@01@@Z 100e3f20 f i GuPCMContactBoxConvex.obj
 0001:000e4d20       ?pcmContactBoxConvex@Gu@physx@@YA_NABVGeometryUnion@12@0ABVPxTransform@2@1ABUNarrowPhaseParams@12@AAUCache@12@AAVContactBuffer@12@PAVRenderOutput@Cm@2@@Z 100e5d20 f   GuPCMContactBoxConvex.obj
 0001:000e5ce0       ?support@?$LocalConvex@VConvexHullNoScaleV@Gu@physx@@@Gu@physx@@UBE?AT__m128@@ABT4@@Z 100e6ce0 f i GuPCMContactBoxConvex.obj
 0001:000e5d10       ?support@?$LocalConvex@VConvexHullNoScaleV@Gu@physx@@@Gu@physx@@UBE?AT__m128@@ABT4@AAH@Z 100e6d10 f i GuPCMContactBoxConvex.obj
 0001:000e5d50       ?supportPoint@?$LocalConvex@VConvexHullNoScaleV@Gu@physx@@@Gu@physx@@UBE?AT__m128@@H@Z 100e6d50 f i GuPCMContactBoxConvex.obj
 0001:000e5f30       ?pcmContactCapsuleBox@Gu@physx@@YA_NABVGeometryUnion@12@0ABVPxTransform@2@1ABUNarrowPhaseParams@12@AAUCache@12@AAVContactBuffer@12@PAVRenderOutput@Cm@2@@Z 100e6f30 f   GuPCMContactCapsuleBox.obj
 0001:000e6c60       ?pcmContactCapsuleCapsule@Gu@physx@@YA_NABVGeometryUnion@12@0ABVPxTransform@2@1ABUNarrowPhaseParams@12@AAUCache@12@AAVContactBuffer@12@PAVRenderOutput@Cm@2@@Z 100e7c60 f   GuPCMContactCapsuleCapsule.obj
 0001:000e7580       ??$gjkPenetration@U?$LocalConvex@VCapsuleV@Gu@physx@@@Gu@physx@@U?$LocalConvex@VConvexHullNoScaleV@Gu@physx@@@23@@Gu@physx@@YA?AW4GjkStatus@01@ABU?$LocalConvex@VCapsuleV@Gu@physx@@@01@ABU?$LocalConvex@VConvexHullNoScaleV@Gu@physx@@@01@ABT__m128@@2_NPIAE4AAEAAUGjkOutput@01@@Z 100e8580 f i GuPCMContactCapsuleConvex.obj
 0001:000e90c0       ?pcmContactCapsuleConvex@Gu@physx@@YA_NABVGeometryUnion@12@0ABVPxTransform@2@1ABUNarrowPhaseParams@12@AAUCache@12@AAVContactBuffer@12@PAVRenderOutput@Cm@2@@Z 100ea0c0 f   GuPCMContactCapsuleConvex.obj
 0001:000ea140       ??0PCMMeshContactGeneration@Gu@physx@@QAE@ABT__m128@@0ABVPsTransformV@aos@shdfnd@2@1AAVMultiplePersistentContactManifold@12@AAVContactBuffer@12@PAV?$InlineArray@I$0EEA@V?$ReflectionAllocator@I@shdfnd@physx@@@62@PAVRenderOutput@Cm@2@@Z 100eb140 f i GuPCMContactCapsuleHeightField.obj
 0001:000ea480       ??_GPCMCapsuleVsHeightfieldContactGenerationCallback@physx@@UAEPAXI@Z 100eb480 f i GuPCMContactCapsuleHeightField.obj
 0001:000ea480       ??_EPCMCapsuleVsHeightfieldContactGenerationCallback@physx@@UAEPAXI@Z 100eb480 f i GuPCMContactCapsuleHeightField.obj
 0001:000ea4b0       ?onEvent@?$PCMHeightfieldContactGenerationCallback@UPCMCapsuleVsHeightfieldContactGenerationCallback@physx@@@Gu@physx@@UAE_NIPAI@Z 100eb4b0 f i GuPCMContactCapsuleHeightField.obj
 0001:000ea940       ?pcmContactCapsuleHeightField@Gu@physx@@YA_NABVGeometryUnion@12@0ABVPxTransform@2@1ABUNarrowPhaseParams@12@AAUCache@12@AAVContactBuffer@12@PAVRenderOutput@Cm@2@@Z 100eb940 f   GuPCMContactCapsuleHeightField.obj
 0001:000eb7b0       ??$processTriangleCache@$0BA@@PCMCapsuleVsMeshContactGenerationCallback@physx@@QAEXAAU?$TriangleCache@$0BA@@Gu@1@@Z 100ec7b0 f i GuPCMContactCapsuleMesh.obj
 0001:000eb820       ??_GPCMCapsuleVsMeshContactGenerationCallback@physx@@UAEPAXI@Z 100ec820 f i GuPCMContactCapsuleMesh.obj
 0001:000eb820       ??_EPCMCapsuleVsMeshContactGenerationCallback@physx@@UAEPAXI@Z 100ec820 f i GuPCMContactCapsuleMesh.obj
 0001:000eb850       ?pcmContactCapsuleMesh@Gu@physx@@YA_NABVGeometryUnion@12@0ABVPxTransform@2@1ABUNarrowPhaseParams@12@AAUCache@12@AAVContactBuffer@12@PAVRenderOutput@Cm@2@@Z 100ec850 f   GuPCMContactCapsuleMesh.obj
 0001:000ec7f0       ?processHit@?$PCMMeshContactGenerationCallback@UPCMCapsuleVsMeshContactGenerationCallback@physx@@@Gu@physx@@UAE_NABUPxRaycastHit@3@ABVPxVec3@3@11AAMPBI@Z 100ed7f0 f i GuPCMContactCapsuleMesh.obj
 0001:000ecb80       ??$sort@USortedTriangle@Gu@physx@@U?$Less@USortedTriangle@Gu@physx@@@shdfnd@3@V?$ReflectionAllocator@USortedTriangle@Gu@physx@@@53@@shdfnd@physx@@YAXPAUSortedTriangle@Gu@1@IABU?$Less@USortedTriangle@Gu@physx@@@01@ABV?$ReflectionAllocator@USortedTriangle@Gu@physx@@@01@I@Z 100edb80 f i GuPCMContactConvexCommon.obj
 0001:000ed030       ?addContactsToPatch@PCMConvexVsMeshContactGeneration@Gu@physx@@QAEXABT__m128@@I@Z 100ee030 f   GuPCMContactConvexCommon.obj
 0001:000ed7e0       ?addToPatch@PCMSphereVsMeshContactGeneration@Gu@physx@@QAEXABT__m128@@0T4@I@Z 100ee7e0 f   GuPCMContactConvexCommon.obj
 0001:000edcc0       ?allocate@?$Array@USortedTriangle@Gu@physx@@V?$InlineAllocator@$0IAA@V?$ReflectionAllocator@USortedTriangle@Gu@physx@@@shdfnd@physx@@@shdfnd@3@@shdfnd@physx@@IAEPAUSortedTriangle@Gu@3@I@Z 100eecc0 f i GuPCMContactConvexCommon.obj
 0001:000edd50       ?doSupport@?$SupportLocalImpl@VTriangleV@Gu@physx@@@Gu@physx@@UBE?AT__m128@@ABT4@@Z 100eed50 f i GuPCMContactConvexCommon.obj
 0001:000eddf0       ?doSupport@?$SupportLocalImpl@VTriangleV@Gu@physx@@@Gu@physx@@UBEXABT__m128@@AAT4@1@Z 100eedf0 f i GuPCMContactConvexCommon.obj
 0001:000ede70       ?generateContacts@PCMCapsuleVsMeshContactGeneration@Gu@physx@@SA_NABT__m128@@0000I000PAVMeshPersistentContact@23@AAI@Z 100eee70 f   GuPCMContactConvexCommon.obj
 0001:000ee2d0       ?generateEE@PCMCapsuleVsMeshContactGeneration@Gu@physx@@QAEXABT__m128@@000I00PAVMeshPersistentContact@23@AAI@Z 100ef2d0 f   GuPCMContactConvexCommon.obj
 0001:000ee500       ?generateEEMTD@PCMCapsuleVsMeshContactGeneration@Gu@physx@@SAXABT__m128@@000I00PAVMeshPersistentContact@23@AAI@Z 100ef500 f   GuPCMContactConvexCommon.obj
 0001:000ee700       ?generateLastContacts@PCMConvexVsMeshContactGeneration@Gu@physx@@QAEXXZ 100ef700 f   GuPCMContactConvexCommon.obj
 0001:000eeb60       ?generateLastContacts@PCMSphereVsMeshContactGeneration@Gu@physx@@QAEXXZ 100efb60 f   GuPCMContactConvexCommon.obj
 0001:000eefc0       ?get@?$CacheMap@UCachedEdge@Gu@physx@@$0IA@@Gu@physx@@QBEPBUCachedEdge@23@ABU423@@Z 100effc0 f i GuPCMContactConvexCommon.obj
 0001:000ef040       ?growAndPushBack@?$Array@USortedTriangle@Gu@physx@@V?$InlineAllocator@$0IAA@V?$ReflectionAllocator@USortedTriangle@Gu@physx@@@shdfnd@physx@@@shdfnd@3@@shdfnd@physx@@IAEAAUSortedTriangle@Gu@3@ABU453@@Z 100f0040 f i GuPCMContactConvexCommon.obj
 0001:000ef650       ?pcmDistanceSegmentTriangleSquared@Gu@physx@@YA?AT__m128@@ABT3@0000AAT3@11@Z 100f0650 f   GuPCMContactConvexCommon.obj
 0001:000f0000       ?populateVerts@?$SupportLocalImpl@VTriangleV@Gu@physx@@@Gu@physx@@UBEXPBEIPBVPxVec3@3@PAT__m128@@@Z 100f1000 f i GuPCMContactConvexCommon.obj
 0001:000f0040       ?processTriangle@PCMCapsuleVsMeshContactGeneration@Gu@physx@@QAE_NPBVPxVec3@3@IEPBI@Z 100f1040 f   GuPCMContactConvexCommon.obj
 0001:000f0a50       ?processTriangle@PCMCapsuleVsMeshContactGeneration@Gu@physx@@SA_NABVTriangleV@23@IABVCapsuleV@23@ABT__m128@@EPAVMeshPersistentContact@23@AAI@Z 100f1a50 f   GuPCMContactConvexCommon.obj
 0001:000f0c90       ?processTriangle@PCMConvexVsMeshContactGeneration@Gu@physx@@QAE_NPBVPxVec3@3@IEPBI@Z 100f1c90 f   GuPCMContactConvexCommon.obj
 0001:000f1080       ?processTriangle@PCMConvexVsMeshContactGeneration@Gu@physx@@SA_NABUPolygonalData@23@PAVSupportLocal@23@PBVPxVec3@3@IEABT__m128@@_NABVPsTransformV@aos@shdfnd@3@ABVPsMatTransformV@9shdfnd@3@PAVMeshPersistentContact@23@AAI@Z 100f2080 f   GuPCMContactConvexCommon.obj
 0001:000f12f0       ?processTriangle@PCMSphereVsMeshContactGeneration@Gu@physx@@QAE_NPBVPxVec3@3@IEPBI@Z 100f22f0 f   GuPCMContactConvexCommon.obj
 0001:000f1760       ??$gjkPenetration@U?$RelativeConvex@VConvexHullNoScaleV@Gu@physx@@@Gu@physx@@U?$LocalConvex@VConvexHullNoScaleV@Gu@physx@@@23@@Gu@physx@@YA?AW4GjkStatus@01@ABU?$RelativeConvex@VConvexHullNoScaleV@Gu@physx@@@01@ABU?$LocalConvex@VConvexHullNoScaleV@Gu@physx@@@01@ABT__m128@@2_NPIAE4AAEAAUGjkOutput@01@@Z 100f2760 f i GuPCMContactConvexConvex.obj
 0001:000f2ff0       ??$gjkPenetration@U?$RelativeConvex@VConvexHullNoScaleV@Gu@physx@@@Gu@physx@@U?$LocalConvex@VConvexHullV@Gu@physx@@@23@@Gu@physx@@YA?AW4GjkStatus@01@ABU?$RelativeConvex@VConvexHullNoScaleV@Gu@physx@@@01@ABU?$LocalConvex@VConvexHullV@Gu@physx@@@01@ABT__m128@@2_NPIAE4AAEAAUGjkOutput@01@@Z 100f3ff0 f i GuPCMContactConvexConvex.obj
 0001:000f4950       ??$gjkPenetration@U?$RelativeConvex@VConvexHullV@Gu@physx@@@Gu@physx@@U?$LocalConvex@VConvexHullNoScaleV@Gu@physx@@@23@@Gu@physx@@YA?AW4GjkStatus@01@ABU?$RelativeConvex@VConvexHullV@Gu@physx@@@01@ABU?$LocalConvex@VConvexHullNoScaleV@Gu@physx@@@01@ABT__m128@@2_NPIAE4AAEAAUGjkOutput@01@@Z 100f5950 f i GuPCMContactConvexConvex.obj
 0001:000f69d0       ?pcmContactConvexConvex@Gu@physx@@YA_NABVGeometryUnion@12@0ABVPxTransform@2@1ABUNarrowPhaseParams@12@AAUCache@12@AAVContactBuffer@12@PAVRenderOutput@Cm@2@@Z 100f79d0 f   GuPCMContactConvexConvex.obj
 0001:000f7cc0       ?support@?$RelativeConvex@VConvexHullNoScaleV@Gu@physx@@@Gu@physx@@UBE?AT__m128@@ABT4@@Z 100f8cc0 f i GuPCMContactConvexConvex.obj
 0001:000f7d60       ?support@?$RelativeConvex@VConvexHullNoScaleV@Gu@physx@@@Gu@physx@@UBE?AT__m128@@ABT4@AAH@Z 100f8d60 f i GuPCMContactConvexConvex.obj
 0001:000f7e00       ?supportPoint@?$RelativeConvex@VConvexHullNoScaleV@Gu@physx@@@Gu@physx@@UBE?AT__m128@@H@Z 100f8e00 f i GuPCMContactConvexConvex.obj
 0001:000f7e60       ??_GPCMConvexVsHeightfieldContactGenerationCallback@physx@@UAEPAXI@Z 100f8e60 f i GuPCMContactConvexHeightField.obj
 0001:000f7e60       ??_EPCMConvexVsHeightfieldContactGenerationCallback@physx@@UAEPAXI@Z 100f8e60 f i GuPCMContactConvexHeightField.obj
 0001:000f7e90       ?PCMContactConvexHeightfield@Gu@physx@@YA_NABUPolygonalData@12@PAVSupportLocal@12@ABT__m128@@ABVPxBounds3@2@ABVPxHeightFieldGeometry@2@ABVPxTransform@2@5MAAVContactBuffer@12@ABVFastVertex2ShapeScaling@Cm@2@_NAAVMultiplePersistentContactManifold@12@PAVRenderOutput@Cm@2@@Z 100f8e90 f   GuPCMContactConvexHeightField.obj
 0001:000f8a10       ?onEvent@?$PCMHeightfieldContactGenerationCallback@UPCMConvexVsHeightfieldContactGenerationCallback@physx@@@Gu@physx@@UAE_NIPAI@Z 100f9a10 f i GuPCMContactConvexHeightField.obj
 0001:000f8ea0       ?pcmContactBoxHeightField@Gu@physx@@YA_NABVGeometryUnion@12@0ABVPxTransform@2@1ABUNarrowPhaseParams@12@AAUCache@12@AAVContactBuffer@12@PAVRenderOutput@Cm@2@@Z 100f9ea0 f   GuPCMContactConvexHeightField.obj
 0001:000f9100       ?pcmContactConvexHeightField@Gu@physx@@YA_NABVGeometryUnion@12@0ABVPxTransform@2@1ABUNarrowPhaseParams@12@AAUCache@12@AAVContactBuffer@12@PAVRenderOutput@Cm@2@@Z 100fa100 f   GuPCMContactConvexHeightField.obj
 0001:000f9740       ??$processTriangleCache@$0BA@@PCMConvexVsMeshContactGenerationCallback@physx@@QAEXAAU?$TriangleCache@$0BA@@Gu@1@@Z 100fa740 f i GuPCMContactConvexMesh.obj
 0001:000f97b0       ??_EPCMConvexVsMeshContactGenerationCallback@physx@@UAEPAXI@Z 100fa7b0 f i GuPCMContactConvexMesh.obj
 0001:000f97b0       ??_GPCMConvexVsMeshContactGenerationCallback@physx@@UAEPAXI@Z 100fa7b0 f i GuPCMContactConvexMesh.obj
 0001:000f97e0       ?PCMContactConvexMesh@Gu@physx@@YA_NABUPolygonalData@12@PAVSupportLocal@12@ABT__m128@@ABVPxBounds3@2@ABUPxTriangleMeshGeometryLL@2@ABVPxTransform@2@5MAAVContactBuffer@12@ABVFastVertex2ShapeScaling@Cm@2@7_N8AAVMultiplePersistentContactManifold@12@PAVRenderOutput@Cm@2@@Z 100fa7e0 f   GuPCMContactConvexMesh.obj
 0001:000fa400       ?pcmContactBoxMesh@Gu@physx@@YA_NABVGeometryUnion@12@0ABVPxTransform@2@1ABUNarrowPhaseParams@12@AAUCache@12@AAVContactBuffer@12@PAVRenderOutput@Cm@2@@Z 100fb400 f   GuPCMContactConvexMesh.obj
 0001:000fa6a0       ?pcmContactConvexMesh@Gu@physx@@YA_NABVGeometryUnion@12@0ABVPxTransform@2@1ABUNarrowPhaseParams@12@AAUCache@12@AAVContactBuffer@12@PAVRenderOutput@Cm@2@@Z 100fb6a0 f   GuPCMContactConvexMesh.obj
 0001:000fad50       ?processHit@?$PCMMeshContactGenerationCallback@UPCMConvexVsMeshContactGenerationCallback@physx@@@Gu@physx@@UAE_NABUPxRaycastHit@3@ABVPxVec3@3@11AAMPBI@Z 100fbd50 f i GuPCMContactConvexMesh.obj
 0001:000fb0f0       ?addGJKEPAContacts@Gu@physx@@YA_NPBUGjkConvex@12@0ABVPsMatTransformV@aos@shdfnd@2@W4GjkStatus@12@PAVPersistentContact@12@T__m128@@4AAUGjkOutput@12@AAVPersistentContactManifold@12@@Z 100fc0f0 f   GuPCMContactGenBoxConvex.obj
 0001:000fb250       ?buildPartialHull@Gu@physx@@YAXABUPolygonalData@12@PAVSupportLocal@12@AAVSeparatingAxes@12@ABT__m128@@3@Z 100fc250 f   GuPCMContactGenBoxConvex.obj
 0001:000fb490       ?computeMTD@Gu@physx@@YA_NAAUPolygonalData@12@0PAVSupportLocal@12@1AAT__m128@@2@Z 100fc490 f   GuPCMContactGenBoxConvex.obj
 0001:000fbab0       ?generateFullContactManifold@Gu@physx@@YA_NAAUPolygonalData@12@0PAVSupportLocal@12@1PAVPersistentContact@12@AAIABT__m128@@444MM_NPAVRenderOutput@Cm@2@M@Z 100fcab0 f   GuPCMContactGenBoxConvex.obj
 0001:000fd270       ?generatedContacts@Gu@physx@@YAXAAUPolygonalData@12@0ABUHullPolygonData@12@1PAVSupportLocal@12@2ABVPsMatTransformV@aos@shdfnd@2@PAVPersistentContact@12@AAIABT__m128@@PAVRenderOutput@Cm@2@@Z 100fe270 f   GuPCMContactGenBoxConvex.obj
 0001:000fe890       ?computeMTD@Gu@physx@@YA_NABVCapsuleV@12@AAUPolygonalData@12@PAVSupportLocal@12@AAT__m128@@3@Z 100ff890 f   GuPCMContactGenSphereCapsule.obj
 0001:000fe970       ?generateCapsuleBoxFullContactManifold@Gu@physx@@YA_NABVCapsuleV@12@AAUPolygonalData@12@PAVSupportLocal@12@ABVPsMatTransformV@aos@shdfnd@2@PAVPersistentContact@12@AAIABT__m128@@AAT__m128@@6M_NMPAVRenderOutput@Cm@2@@Z 100ff970 f   GuPCMContactGenSphereCapsule.obj
 0001:000fef00       ?generateFullContactManifold@Gu@physx@@YA_NABVCapsuleV@12@AAUPolygonalData@12@PAVSupportLocal@12@ABVPsMatTransformV@aos@shdfnd@2@PAVPersistentContact@12@AAIABT__m128@@AAT__m128@@6M_NM@Z 100fff00 f   GuPCMContactGenSphereCapsule.obj
 0001:000ff4e0       ?generateSphereFullContactManifold@Gu@physx@@YA_NABVCapsuleV@12@AAUPolygonalData@12@PAVSupportLocal@12@PAVPersistentContact@12@AAIABT__m128@@AAT7@_N@Z 101004e0 f   GuPCMContactGenSphereCapsule.obj
 0001:000ff8c0       ?generatedCapsuleBoxFaceContacts@Gu@physx@@YAXABVCapsuleV@12@AAUPolygonalData@12@ABUHullPolygonData@12@PAVSupportLocal@12@ABVPsMatTransformV@aos@shdfnd@2@PAVPersistentContact@12@AAIABT__m128@@7@Z 101008c0 f   GuPCMContactGenSphereCapsule.obj
 0001:000fffc0       ?generatedContactsEEContacts@Gu@physx@@YAXABVCapsuleV@12@AAUPolygonalData@12@ABUHullPolygonData@12@PAVSupportLocal@12@ABVPsMatTransformV@aos@shdfnd@2@PAVPersistentContact@12@AAIABT__m128@@7@Z 10100fc0 f   GuPCMContactGenSphereCapsule.obj
 0001:00100b80       ?pcmContactPlaneBox@Gu@physx@@YA_NABVGeometryUnion@12@0ABVPxTransform@2@1ABUNarrowPhaseParams@12@AAUCache@12@AAVContactBuffer@12@PAVRenderOutput@Cm@2@@Z 10101b80 f   GuPCMContactPlaneBox.obj
 0001:00101870       ?pcmContactPlaneCapsule@Gu@physx@@YA_NABVGeometryUnion@12@0ABVPxTransform@2@1ABUNarrowPhaseParams@12@AAUCache@12@AAVContactBuffer@12@PAVRenderOutput@Cm@2@@Z 10102870 f   GuPCMContactPlaneCapsule.obj
 0001:001020a0       ?pcmContactPlaneConvex@Gu@physx@@YA_NABVGeometryUnion@12@0ABVPxTransform@2@1ABUNarrowPhaseParams@12@AAUCache@12@AAVContactBuffer@12@PAVRenderOutput@Cm@2@@Z 101030a0 f   GuPCMContactPlaneConvex.obj
 0001:00102ab0       ?pcmContactSphereBox@Gu@physx@@YA_NABVGeometryUnion@12@0ABVPxTransform@2@1ABUNarrowPhaseParams@12@AAUCache@12@AAVContactBuffer@12@PAVRenderOutput@Cm@2@@Z 10103ab0 f   GuPCMContactSphereBox.obj
 0001:00102f40       ?pcmContactSphereCapsule@Gu@physx@@YA_NABVGeometryUnion@12@0ABVPxTransform@2@1ABUNarrowPhaseParams@12@AAUCache@12@AAVContactBuffer@12@PAVRenderOutput@Cm@2@@Z 10103f40 f   GuPCMContactSphereCapsule.obj
 0001:00103360       ?pcmContactSphereConvex@Gu@physx@@YA_NABVGeometryUnion@12@0ABVPxTransform@2@1ABUNarrowPhaseParams@12@AAUCache@12@AAVContactBuffer@12@PAVRenderOutput@Cm@2@@Z 10104360 f   GuPCMContactSphereConvex.obj
 0001:001040f0       ??1PCMSphereVsHeightfieldContactGenerationCallback@physx@@UAE@XZ 101050f0 f i GuPCMContactSphereHeightField.obj
 0001:00104150       ??_EPCMSphereVsHeightfieldContactGenerationCallback@physx@@UAEPAXI@Z 10105150 f i GuPCMContactSphereHeightField.obj
 0001:00104150       ??_GPCMSphereVsHeightfieldContactGenerationCallback@physx@@UAEPAXI@Z 10105150 f i GuPCMContactSphereHeightField.obj
 0001:001041c0       ?onEvent@?$PCMHeightfieldContactGenerationCallback@UPCMSphereVsHeightfieldContactGenerationCallback@physx@@@Gu@physx@@UAE_NIPAI@Z 101051c0 f i GuPCMContactSphereHeightField.obj
 0001:00104650       ?pcmContactSphereHeightField@Gu@physx@@YA_NABVGeometryUnion@12@0ABVPxTransform@2@1ABUNarrowPhaseParams@12@AAUCache@12@AAVContactBuffer@12@PAVRenderOutput@Cm@2@@Z 10105650 f   GuPCMContactSphereHeightField.obj
 0001:00105120       ??$processTriangleCache@$0BA@@PCMSphereVsMeshContactGenerationCallback@physx@@QAEXAAU?$TriangleCache@$0BA@@Gu@1@@Z 10106120 f i GuPCMContactSphereMesh.obj
 0001:00105190       ??1PCMSphereVsMeshContactGenerationCallback@physx@@UAE@XZ 10106190 f i GuPCMContactSphereMesh.obj
 0001:001051f0       ??_GPCMSphereVsMeshContactGenerationCallback@physx@@UAEPAXI@Z 101061f0 f i GuPCMContactSphereMesh.obj
 0001:001051f0       ??_EPCMSphereVsMeshContactGenerationCallback@physx@@UAEPAXI@Z 101061f0 f i GuPCMContactSphereMesh.obj
 0001:00105260       ?pcmContactSphereMesh@Gu@physx@@YA_NABVGeometryUnion@12@0ABVPxTransform@2@1ABUNarrowPhaseParams@12@AAUCache@12@AAVContactBuffer@12@PAVRenderOutput@Cm@2@@Z 10106260 f   GuPCMContactSphereMesh.obj
 0001:00105f30       ?processHit@?$PCMMeshContactGenerationCallback@UPCMSphereVsMeshContactGenerationCallback@physx@@@Gu@physx@@UAE_NABUPxRaycastHit@3@ABVPxVec3@3@11AAMPBI@Z 10106f30 f i GuPCMContactSphereMesh.obj
 0001:001062c0       ?pcmContactSpherePlane@Gu@physx@@YA_NABVGeometryUnion@12@0ABVPxTransform@2@1ABUNarrowPhaseParams@12@AAUCache@12@AAVContactBuffer@12@PAVRenderOutput@Cm@2@@Z 101072c0 f   GuPCMContactSpherePlane.obj
 0001:00106470       ?pcmContactSphereSphere@Gu@physx@@YA_NABVGeometryUnion@12@0ABVPxTransform@2@1ABUNarrowPhaseParams@12@AAUCache@12@AAVContactBuffer@12@PAVRenderOutput@Cm@2@@Z 10107470 f   GuPCMContactSphereSphere.obj
 0001:00106550       ?getPCMConvexData@Gu@physx@@YAXABVConvexHullV@12@_NAAUPolygonalData@12@@Z 10107550 f   GuPCMShapeConvex.obj
 0001:001065a0       ?getPCMConvexData@Gu@physx@@YA_NABVGeometryUnion@12@AAVFastVertex2ShapeScaling@Cm@2@AAVPxBounds3@2@AAUPolygonalData@12@@Z 101075a0 f   GuPCMShapeConvex.obj
 0001:00106a00       ?getPolygonalData@PCMPolygonalBox@Gu@physx@@QBEXPIAUPolygonalData@23@@Z 10107a00 f   GuPCMShapeConvex.obj
 0001:00106a70       ?generatePolyDataContactManifold@PCMConvexVsMeshContactGeneration@Gu@physx@@QAE_NAAVTriangleV@23@IIEPAVMeshPersistentContact@23@AAIABT__m128@@AAT6@@Z 10107a70 f   GuPCMTriangleContactGen.obj
 0001:00106b40       ?generateTriangleFullContactManifold@PCMConvexVsMeshContactGeneration@Gu@physx@@QAE_NAAVTriangleV@23@IPBIEABUPolygonalData@23@PAV?$SupportLocalImpl@VTriangleV@Gu@physx@@@23@PAVSupportLocal@23@PAVMeshPersistentContact@23@AAIABT__m128@@AAT9@@Z 10107b40 f   GuPCMTriangleContactGen.obj
 0001:001072e0       ?generateTriangleFullContactManifold@PCMConvexVsMeshContactGeneration@Gu@physx@@SA_NAAVTriangleV@23@IEABUPolygonalData@23@PAV?$SupportLocalImpl@VTriangleV@Gu@physx@@@23@PAVSupportLocal@23@PAVMeshPersistentContact@23@AAIABT__m128@@AAT9@PAVRenderOutput@Cm@3@@Z 101082e0 f   GuPCMTriangleContactGen.obj
 0001:00109850       ?addBatchManifoldContacts2@PersistentContactManifold@Gu@physx@@QAEXPBVPersistentContact@23@I@Z 1010a850 f   GuPersistentContactManifold.obj
 0001:001098c0       ?addBatchManifoldContacts@PersistentContactManifold@Gu@physx@@QAEXPBVPersistentContact@23@IM@Z 1010a8c0 f   GuPersistentContactManifold.obj
 0001:00109940       ?addBatchManifoldContactsCluster@PersistentContactManifold@Gu@physx@@QAEXPBVPersistentContact@23@I@Z 1010a940 f   GuPersistentContactManifold.obj
 0001:00109bb0       ?addManifoldContactPoints@MultiplePersistentContactManifold@Gu@physx@@QAEXPAVMeshPersistentContact@23@IPAPAUPCMContactPatch@23@IABT__m128@@2E@Z 1010abb0 f   GuPersistentContactManifold.obj
 0001:00109f30       ?addManifoldContactsToContactBuffer@MultiplePersistentContactManifold@Gu@physx@@QAE_NAAVContactBuffer@23@ABVPsTransformV@aos@shdfnd@3@1ABT__m128@@@Z 1010af30 f   GuPersistentContactManifold.obj
 0001:0010a1b0       ?addManifoldContactsToContactBuffer@MultiplePersistentContactManifold@Gu@physx@@QAE_NAAVContactBuffer@23@ABVPsTransformV@aos@shdfnd@3@@Z 1010b1b0 f   GuPersistentContactManifold.obj
 0001:0010a420       ?addManifoldContactsToContactBuffer@PersistentContactManifold@Gu@physx@@QAEXAAVContactBuffer@23@ABT__m128@@1ABVPsTransformV@aos@shdfnd@3@11@Z 1010b420 f   GuPersistentContactManifold.obj
 0001:0010a5a0       ?addManifoldContactsToContactBuffer@PersistentContactManifold@Gu@physx@@QAEXAAVContactBuffer@23@ABT__m128@@ABVPsMatTransformV@aos@shdfnd@3@@Z 1010b5a0 f   GuPersistentContactManifold.obj
 0001:0010a660       ?addManifoldContactsToContactBuffer@PersistentContactManifold@Gu@physx@@QAEXAAVContactBuffer@23@ABT__m128@@ABVPsTransformV@aos@shdfnd@3@1@Z 1010b660 f   GuPersistentContactManifold.obj
 0001:0010a7c0       ?addManifoldPoint2@PersistentContactManifold@Gu@physx@@QAEIABT__m128@@000@Z 1010b7c0 f   GuPersistentContactManifold.obj
 0001:0010a8e0       ?addManifoldPoint@Gu@physx@@YAXPAVPersistentContact@12@AAVPersistentContactManifold@12@AAUGjkOutput@12@ABVPsMatTransformV@aos@shdfnd@2@T__m128@@@Z 1010b8e0 f   GuPersistentContactManifold.obj
 0001:0010aa10       ?addManifoldPoint@PersistentContactManifold@Gu@physx@@QAEIABT__m128@@000@Z 1010ba10 f   GuPersistentContactManifold.obj
 0001:0010ae30       ?drawLine@MultiplePersistentContactManifold@Gu@physx@@SAXAAVRenderOutput@Cm@3@ABT__m128@@1I@Z 1010be30 f   GuPersistentContactManifold.obj
 0001:0010af10       ?drawLine@MultiplePersistentContactManifold@Gu@physx@@SAXAAVRenderOutput@Cm@3@VPxVec3@3@1I@Z 1010bf10 f   GuPersistentContactManifold.obj
 0001:0010afa0       ?drawManifold@MultiplePersistentContactManifold@Gu@physx@@QAEXAAVRenderOutput@Cm@3@ABVPsTransformV@aos@shdfnd@3@1@Z 1010bfa0 f   GuPersistentContactManifold.obj
 0001:0010b6e0       ?drawPoint@MultiplePersistentContactManifold@Gu@physx@@SAXAAVRenderOutput@Cm@3@ABT__m128@@MI@Z 1010c6e0 f   GuPersistentContactManifold.obj
 0001:0010b870       ?drawPolygon@MultiplePersistentContactManifold@Gu@physx@@SAXAAVRenderOutput@Cm@3@ABVPsTransformV@aos@shdfnd@3@PAT__m128@@II@Z 1010c870 f   GuPersistentContactManifold.obj
 0001:0010ba00       ?findRotationMatrixFromZAxis@Gu@physx@@YA?AUMat33V@aos@shdfnd@2@ABT__m128@@@Z 1010ca00 f   GuPersistentContactManifold.obj
 0001:0010bc60       ?fromBuffer@MultiplePersistentContactManifold@Gu@physx@@QAEXPIAE@Z 1010cc60 f   GuPersistentContactManifold.obj
 0001:0010bda0       ?reduceBatchContacts2@PersistentContactManifold@Gu@physx@@QAEXPBVPersistentContact@23@I@Z 1010cda0 f   GuPersistentContactManifold.obj
 0001:0010bfc0       ?reduceBatchContacts@PersistentContactManifold@Gu@physx@@QAEXPBVPersistentContact@23@IM@Z 1010cfc0 f   GuPersistentContactManifold.obj
 0001:0010c4d0       ?reduceBatchContactsCapsule@SinglePersistentContactManifold@Gu@physx@@QAE?AT__m128@@PBVMeshPersistentContact@23@IAAUPCMContactPatch@23@@Z 1010d4d0 f   GuPersistentContactManifold.obj
 0001:0010c730       ?reduceBatchContactsCluster@PersistentContactManifold@Gu@physx@@QAEXPBVPersistentContact@23@I@Z 1010d730 f   GuPersistentContactManifold.obj
 0001:0010cbe0       ?reduceBatchContactsConvex@SinglePersistentContactManifold@Gu@physx@@QAE?AT__m128@@PBVMeshPersistentContact@23@IAAUPCMContactPatch@23@@Z 1010dbe0 f   GuPersistentContactManifold.obj
 0001:0010d150       ?reduceContacts@SinglePersistentContactManifold@Gu@physx@@SAIPAVMeshPersistentContact@23@I@Z 1010e150 f   GuPersistentContactManifold.obj
 0001:0010d600       ?reduceContactsForPCM@PersistentContactManifold@Gu@physx@@QAEIABT__m128@@00@Z 1010e600 f   GuPersistentContactManifold.obj
 0001:0010da40       ?refreshContactPoints@SinglePersistentContactManifold@Gu@physx@@QAE?AT__m128@@ABVPsMatTransformV@aos@shdfnd@3@ABT4@1@Z 1010ea40 f   GuPersistentContactManifold.obj
 0001:0010db60       ?replaceManifoldPoint@PersistentContactManifold@Gu@physx@@QAE_NABT__m128@@000@Z 1010eb60 f   GuPersistentContactManifold.obj
 0001:0010dc20       ?sweepBoxBox@Gu@physx@@YA_NABVBox@12@0ABVPxVec3@2@MV?$PxFlags@W4Enum@PxHitFlag@physx@@G@2@AAUPxSweepHit@2@@Z 1010ec20 f   GuSweepBoxBox.obj
 0001:0010ef10       ?sweepBoxSphere@Gu@physx@@YA_NABVBox@12@MABVPxVec3@2@1MAAMAAV42@V?$PxFlags@W4Enum@PxHitFlag@physx@@G@2@@Z 1010ff10 f   GuSweepBoxSphere.obj
 0001:0010fa90       ?sweepBoxTriangle@Gu@physx@@YA_NABVPxTriangle@2@ABVPxBounds3@2@ABVPxVec3@2@2AAV52@3AAM_N@Z 10110a90 f   GuSweepBoxTriangle_FeatureBased.obj
 0001:00110d70       ?triBoxSweepTestBoxSpace@Gu@physx@@YAHABVPxTriangle@2@ABVPxVec3@2@11MAAM_N@Z 10111d70 f   GuSweepBoxTriangle_SAT.obj
 0001:001127d0       ?sweepCapsuleBox@Gu@physx@@YA_NABVCapsule@12@ABVPxTransform@2@ABVPxVec3@2@2MAAV52@AAM3V?$PxFlags@W4Enum@PxHitFlag@physx@@G@2@@Z 101137d0 f   GuSweepCapsuleBox.obj
 0001:00113140       ?sweepCapsuleCapsule@Gu@physx@@YA_NABVCapsule@12@0ABVPxVec3@2@MAAMAAV42@3IAAG@Z 10114140 f   GuSweepCapsuleCapsule.obj
 0001:00114250       ?sweepCapsuleTriangles_Precise@Gu@physx@@YA_NIPIBVPxTriangle@2@ABVCapsule@12@ABVPxVec3@2@MPIBIAAUPxSweepHit@2@AAV52@V?$PxFlags@W4Enum@PxHitFlag@physx@@G@2@_NPBVBoxPadded@12@@Z 10115250 f   GuSweepCapsuleTriangle.obj
 0001:001166b0       ?sweepSphereCapsule@Gu@physx@@YA_NABVSphere@12@ABVCapsule@12@ABVPxVec3@2@MAAMAAV52@4V?$PxFlags@W4Enum@PxHitFlag@physx@@G@2@@Z 101176b0 f   GuSweepSphereCapsule.obj
 0001:00116d30       ?sweepSphereSphere@Gu@physx@@YA_NABVPxVec3@2@M0M0AAMAAV32@@Z 10117d30 f   GuSweepSphereSphere.obj
 0001:00116f80       ?sweepSphereTriangles@Gu@physx@@YA_NIPIBVPxTriangle@2@ABVPxVec3@2@M1MPIBIAAUPxSweepHit@2@AAV42@_N555@Z 10117f80 f   GuSweepSphereTriangle.obj
 0001:001177d0       ?sweepSphereVSQuad@Gu@physx@@YA_NPIBVPxVec3@2@ABV32@1M1AAM@Z 101187d0 f   GuSweepSphereTriangle.obj
 0001:00118b90       ?sweepSphereVSTri@Gu@physx@@YA_NPIBVPxVec3@2@ABV32@1M1AAMAA_N_N@Z 10119b90 f   GuSweepSphereTriangle.obj
 0001:00119a10       ??$gjk@U?$LocalConvex@VTriangleV@Gu@physx@@@Gu@physx@@U?$LocalConvex@VBoxV@Gu@physx@@@23@@Gu@physx@@YA?AW4GjkStatus@01@ABU?$LocalConvex@VTriangleV@Gu@physx@@@01@ABU?$LocalConvex@VBoxV@Gu@physx@@@01@ABT__m128@@2AAT5@333@Z 1011aa10 f i GuSweepTriangleUtils.obj
 0001:0011a930       ?computeBoxTriImpactData@Gu@physx@@YAXAAVPxVec3@2@0ABV32@1ABVPxTriangle@2@M@Z 1011b930 f   GuSweepTriangleUtils.obj
 0001:0011abb0       ?computeEdgeEdgeNormal@Gu@physx@@YAXAAVPxVec3@2@ABV32@1111M@Z 1011bbb0 f   GuSweepTriangleUtils.obj
 0001:0011ae50       ?computeSphereTriImpactData@Gu@physx@@YAXAAVPxVec3@2@0ABV32@1MABVPxTriangle@2@@Z 1011be50 f   GuSweepTriangleUtils.obj
 0001:0011b26f       __imp_load__PxGetFoundation 1011c26f f   PhysXFoundation_32:PhysXFoundation_32.dll
 0001:0011b279       __tailMerge_physxfoundation_32_dll 1011c279     PhysXFoundation_32:PhysXFoundation_32.dll
 0001:0011b28a       __imp_load_?getAllocator@shdfnd@physx@@YAAAVPxAllocatorCallback@2@XZ 1011c28a f   PhysXFoundation_32:PhysXFoundation_32.dll
 0001:0011b294       __imp_load_?getInstance@Foundation@shdfnd@physx@@SAAAV123@XZ 1011c294 f   PhysXFoundation_32:PhysXFoundation_32.dll
 0001:0011b29e       __imp_load_?error@Foundation@shdfnd@physx@@QAAXW4Enum@PxErrorCode@3@PBDH1ZZ 1011c29e f   PhysXFoundation_32:PhysXFoundation_32.dll
 0001:0011b2a8       __imp_load_?vsnprintf@shdfnd@physx@@YAHPADIPBD0@Z 1011c2a8 f   PhysXFoundation_32:PhysXFoundation_32.dll
 0001:0011b2b2       __imp_load_??0MutexImpl@shdfnd@physx@@QAE@XZ 1011c2b2 f   PhysXFoundation_32:PhysXFoundation_32.dll
 0001:0011b2bc       __imp_load_??1MutexImpl@shdfnd@physx@@QAE@XZ 1011c2bc f   PhysXFoundation_32:PhysXFoundation_32.dll
 0001:0011b2c6       __imp_load_?lock@MutexImpl@shdfnd@physx@@QAEXXZ 1011c2c6 f   PhysXFoundation_32:PhysXFoundation_32.dll
 0001:0011b2d0       __imp_load_?unlock@MutexImpl@shdfnd@physx@@QAEXXZ 1011c2d0 f   PhysXFoundation_32:PhysXFoundation_32.dll
 0001:0011b2da       __imp_load_?getSize@MutexImpl@shdfnd@physx@@SAIXZ 1011c2da f   PhysXFoundation_32:PhysXFoundation_32.dll
 0001:0011b2e4       __imp_load_?atomicDecrement@shdfnd@physx@@YAHPCH@Z 1011c2e4 f   PhysXFoundation_32:PhysXFoundation_32.dll
 0001:0011b2ee       __imp_load_?PxTransformFromSegment@physx@@YA?AVPxTransform@1@ABVPxVec3@1@0PAM@Z 1011c2ee f   PhysXFoundation_32:PhysXFoundation_32.dll
 0001:0011b2f8       __imp_load_?optimizeBoundingBox@shdfnd@physx@@YA?AVPxVec3@2@AAVPxMat33@2@@Z 1011c2f8 f   PhysXFoundation_32:PhysXFoundation_32.dll
 0001:0011b302       __imp_load_?allocate@TempAllocator@shdfnd@physx@@QAEPAXIPBDH@Z 1011c302 f   PhysXFoundation_32:PhysXFoundation_32.dll
 0001:0011b30c       __imp_load_?deallocate@TempAllocator@shdfnd@physx@@QAEXPAX@Z 1011c30c f   PhysXFoundation_32:PhysXFoundation_32.dll
 0001:0011b316       __imp_load_?atomicIncrement@shdfnd@physx@@YAHPCH@Z 1011c316 f   PhysXFoundation_32:PhysXFoundation_32.dll
 0001:0011b320       ?DloadAcquireSectionWriteAccess@@YGXXZ 1011c320 f i Delayimp:delayhlp.obj
 0001:0011b353       ?DloadGetSRWLockFunctionPointers@@YGEXZ 1011c353 f i Delayimp:delayhlp.obj
 0001:0011b3c6       ?DloadLock@@YGXXZ          1011c3c6 f i Delayimp:delayhlp.obj
 0001:0011b405       ?DloadMakePermanentImageCommit@@YGXPAXK@Z 1011c405 f i Delayimp:delayhlp.obj
 0001:0011b474       ?DloadObtainSection@@YGPAXPAK0@Z 1011c474 f i Delayimp:delayhlp.obj
 0001:0011b4ef       ?DloadProtectSection@@YGXKPAK@Z 1011c4ef f i Delayimp:delayhlp.obj
 0001:0011b55d       ?DloadReleaseSectionWriteAccess@@YGXXZ 1011c55d f i Delayimp:delayhlp.obj
 0001:0011b593       ?DloadUnlock@@YGXXZ        1011c593 f i Delayimp:delayhlp.obj
 0001:0011b5bf       ___delayLoadHelper2@8      1011c5bf f   Delayimp:delayhlp.obj
 0001:0011b82e       ??3@YAXPAXI@Z              1011c82e f   LIBCMT:delete_scalar_size.obj
 0001:0011b840       __ftoui3                   1011c840 f   LIBCMT:ftol3.obj
 0001:0011b886       ??_Etype_info@@UAEPAXI@Z   1011c886 f i LIBCMT:std_type_info_static.obj
 0001:0011b886       ??_Gtype_info@@UAEPAXI@Z   1011c886 f i LIBCMT:std_type_info_static.obj
 0001:0011b8a9       ?__scrt_initialize_type_info@@YAXXZ 1011c8a9 f   LIBCMT:tncleanup.obj
 0001:0011b8b5       ?__scrt_uninitialize_type_info@@YAXXZ 1011c8b5 f   LIBCMT:tncleanup.obj
 0001:0011b8c1       ??_V@YAXPAXI@Z             1011c8c1 f   LIBCMT:delete_array_size.obj
 0001:0011b8d0       __alloca_probe             1011c8d0 f   LIBCMT:chkstk.obj
 0001:0011b8d0       __chkstk                   1011c8d0 f   LIBCMT:chkstk.obj
 0001:0011b900       ___vdecl_sinf4             1011c900 f   LIBCMT:svml_ssinf4_dispatch.obj
 0001:0011b920       ___libm_sse2_sincosf_      1011c920 f   LIBCMT:svml_ssinf4_dispatch.obj
 0001:0011b970       ___libm_sse2_sincosf4_     1011c970 f   LIBCMT:svml_ssinf4_dispatch.obj
 0001:0011b980       ??3@YAXPAX@Z               1011c980 f   LIBCMT:delete_scalar.obj
 0001:0011b985       ??_V@YAXPAX@Z              1011c985 f   LIBCMT:delete_array.obj
 0001:0011b990       __alloca_probe_16          1011c990 f   LIBCMT:alloca16.obj
 0001:0011b9a6       __alloca_probe_8           1011c9a6     LIBCMT:alloca16.obj
 0001:0011bcfc       __DllMainCRTStartup@12     1011ccfc f   LIBCMT:dll_dllmain.obj
 0001:0011bd1f       ___isa_available_init      1011cd1f f   LIBCMT:cpu_disp.obj
 0001:0011bef0       ___sse2_sinf4@@16          1011cef0 f   LIBCMT:svml_ssinf4_sse2.obj
 0001:0011c0b0       ___sse4_sinf4@@16          1011d0b0 f   LIBCMT:svml_ssinf4_sse4.obj
 0001:0011c792       ___security_init_cookie    1011d792 f   LIBCMT:gs_support.obj
 0001:0011c7dd       _DllMain@12                1011d7dd f   LIBCMT:dll_dllmain_stub.obj
 0001:0011c7e3       ___local_stdio_printf_options 1011d7e3 f i LIBCMT:default_local_stdio_options.obj
 0001:0011c7e9       ___local_stdio_scanf_options 1011d7e9 f i LIBCMT:default_local_stdio_options.obj
 0001:0011c7ef       ___scrt_initialize_default_local_stdio_options 1011d7ef f   LIBCMT:default_local_stdio_options.obj
 0001:0011c850       ___scrt_acquire_startup_lock 1011d850 f   LIBCMT:utility.obj
 0001:0011c882       ___scrt_dllmain_after_initialize_c 1011d882 f   LIBCMT:utility.obj
 0001:0011c8ad       ___scrt_dllmain_before_initialize_c 1011d8ad f   LIBCMT:utility.obj
 0001:0011c8bb       ___scrt_dllmain_crt_thread_attach 1011d8bb f   LIBCMT:utility.obj
 0001:0011c8da       ___scrt_dllmain_crt_thread_detach 1011d8da f   LIBCMT:utility.obj
 0001:0011c8e7       ___scrt_dllmain_exception_filter 1011d8e7 f   LIBCMT:utility.obj
 0001:0011c91b       ___scrt_dllmain_uninitialize_c 1011d91b f   LIBCMT:utility.obj
 0001:0011c93e       ___scrt_dllmain_uninitialize_critical 1011d93e f   LIBCMT:utility.obj
 0001:0011c94b       ___scrt_initialize_crt     1011d94b f   LIBCMT:utility.obj
 0001:0011c984       ___scrt_initialize_onexit_tables 1011d984 f   LIBCMT:utility.obj
 0001:0011ca0b       ___scrt_is_nonwritable_in_current_image 1011da0b f   LIBCMT:utility.obj
 0001:0011ca9f       ___scrt_release_startup_lock 1011da9f f   LIBCMT:utility.obj
 0001:0011cabc       ___scrt_uninitialize_crt   1011dabc f   LIBCMT:utility.obj
 0001:0011cae4       ___scrt_get_dyn_tls_init_callback 1011dae4 f   LIBCMT:dyn_tls_init.obj
 0001:0011caea       ___scrt_fastfail           1011daea f   LIBCMT:utility_desktop.obj
 0001:0011cc05       __crt_debugger_hook        1011dc05 f   LIBCMT:utility_desktop.obj
 0001:0011cc0d       __RTC_Initialize           1011dc0d f   LIBCMT:initsect.obj
 0001:0011cc39       __RTC_Terminate            1011dc39 f   LIBCMT:initsect.obj
 0001:0011cc70       __SEH_prolog4              1011dc70 f   LIBCMT:sehprolg4.obj
 0001:0011ccc0       ___common_sin_reduction_LA 1011dcc0 f   LIBCMT:svml_dtrig.obj
 0001:0011d050       ___common_ssin_cout_rare   1011e050 f   LIBCMT:svml_s_sin_cout.obj
 0001:0011d0c9       __get_startup_argv_mode    1011e0c9 f   LIBCMT:argv_mode.obj
 0001:0011d0c9       ?length@charNode@@UBEHXZ   1011e0c9 f   libvcruntime:undname.obj
 0001:0011d0c9       ?raw_length@charNode@@UBEHXZ 1011e0c9 f   libvcruntime:undname.obj
 0001:0011d0cd       ___scrt_is_ucrt_dll_in_use 1011e0cd f   LIBCMT:ucrt_detection.obj
 0001:0011d0d9       @__security_check_cookie@4 1011e0d9 f   LIBCMT:secchk.obj
 0001:0011d0e7       ___raise_securityfailure   1011e0e7 f   LIBCMT:gs_report.obj
 0001:0011d10f       ___report_gsfailure        1011e10f f   LIBCMT:gs_report.obj
 0001:0011d209       __get_purecall_handler     1011e209 f   libvcruntime:purevirt.obj
 0001:0011d20f       __purecall                 1011e20f f   libvcruntime:purevirt.obj
 0001:0011d234       ___std_type_info_compare   1011e234 f   libvcruntime:std_type_info.obj
 0001:0011d270       ___std_type_info_destroy_list 1011e270 f   libvcruntime:std_type_info.obj
 0001:0011d293       ___std_type_info_name      1011e293 f   libvcruntime:std_type_info.obj
 0001:0011d360       _memmove                   1011e360 f   libvcruntime:memmove.obj
 0001:0011d360       _memcpy                    1011e360 f   libvcruntime:memcpy.obj
 0001:0011d8e0       _memset                    1011e8e0 f   libvcruntime:memset.obj
 0001:0011da40       _strstr                    1011ea40 f   libvcruntime:strstr.obj
 0001:0011dcf0       __except_handler4          1011ecf0 f   libvcruntime:chandler4.obj
 0001:0011de4e       ___vcrt_initialize         1011ee4e f   libvcruntime:initialization.obj
 0001:0011de6d       ___vcrt_thread_attach      1011ee6d f   libvcruntime:initialization.obj
 0001:0011de78       ___vcrt_thread_detach      1011ee78 f   libvcruntime:initialization.obj
 0001:0011de83       ___vcrt_uninitialize       1011ee83 f   libvcruntime:initialization.obj
 0001:0011de9a       ___vcrt_uninitialize_critical 1011ee9a f   libvcruntime:initialization.obj
 0001:0011dea2       ___DestructExceptionObject 1011eea2 f   libvcruntime:ehhelpers.obj
 0001:0011df43       ?_CallMemberFunction0@@YGXQAX0@Z 1011ef43 f i libvcruntime:ehhelpers.obj
 0001:0011dfa8       __IsExceptionObjectToBeDestroyed 1011efa8 f   libvcruntime:ehhelpers.obj
 0001:0011dfce       ___AdjustPointer           1011efce f   libvcruntime:ehhelpers.obj
 0001:0011dff3       ___FrameUnwindFilter       1011eff3 f   libvcruntime:ehhelpers.obj
 0001:0011e049       ??$?0$00@DName@@QAE@PBDU?$StringLifeSelector@$00@@@Z 1011f049 f i libvcruntime:undname.obj
 0001:0011e07c       ??$?0$01@DName@@QAE@PBDU?$StringLifeSelector@$01@@@Z 1011f07c f i libvcruntime:undname.obj
 0001:0011e07c       ??$?0$0A@@DName@@QAE@PBDU?$StringLifeSelector@$0A@@@@Z 1011f07c f i libvcruntime:undname.obj
 0001:0011e0af       ??$?0$0A@@pcharNode@@QAE@PBDHU?$StringLifeSelector@$0A@@@@Z 1011f0af f i libvcruntime:undname.obj
 0001:0011e0af       ??$?0$01@pcharNode@@QAE@PBDHU?$StringLifeSelector@$01@@@Z 1011f0af f i libvcruntime:undname.obj
 0001:0011e0ef       ??$append@VpcharNode@@@DName@@AAEXPBVpcharNode@@@Z 1011f0ef f i libvcruntime:undname.obj
 0001:0011e0ef       ??$append@VDNameStatusNode@@@DName@@AAEXPBVDNameStatusNode@@@Z 1011f0ef f i libvcruntime:undname.obj
 0001:0011e0ef       ??$append@VcharNode@@@DName@@AAEXPBVcharNode@@@Z 1011f0ef f i libvcruntime:undname.obj
 0001:0011e0ef       ??$append@VDNameNode@@@DName@@AAEXPBVDNameNode@@@Z 1011f0ef f i libvcruntime:undname.obj
 0001:0011e130       ??$doPchar@$00@DName@@AAEXPBDH@Z 1011f130 f i libvcruntime:undname.obj
 0001:0011e19b       ??$doPchar@$0A@@DName@@AAEXPBDH@Z 1011f19b f i libvcruntime:undname.obj
 0001:0011e19b       ??$doPchar@$01@DName@@AAEXPBDH@Z 1011f19b f i libvcruntime:undname.obj
 0001:0011e20c       ??$forward@_K@std@@YA$$QA_KAA_K@Z 1011f20c f i libvcruntime:undname.obj
 0001:0011e214       ??0DName@@QAE@AAPBDD@Z     1011f214 f   libvcruntime:undname.obj
 0001:0011e294       ??0DName@@QAE@ABUStringLiteral@@@Z 1011f294 f   libvcruntime:undname.obj
 0001:0011e2bb       ??0DName@@QAE@PAV0@@Z      1011f2bb f   libvcruntime:undname.obj
 0001:0011e302       ??0DName@@QAE@W4DNameStatus@@@Z 1011f302 f   libvcruntime:undname.obj
 0001:0011e342       ??0DName@@QAE@_J@Z         1011f342 f   libvcruntime:undname.obj
 0001:0011e3ce       ??0DName@@QAE@_K@Z         1011f3ce f   libvcruntime:undname.obj
 0001:0011e434       ??0UnDecorator@@QAE@PBDP6APADJ@ZK@Z 1011f434 f i libvcruntime:undname.obj
 0001:0011e480       ??0pDNameNode@@QAE@PAVDName@@@Z 1011f480 f   libvcruntime:undname.obj
 0001:0011e4af       ??2@YAPAXIAAV_HeapManager@@H@Z 1011f4af f   libvcruntime:undname.obj
 0001:0011e4ce       ??4DName@@QAEAAV0@ABUStringLiteral@@@Z 1011f4ce f   libvcruntime:undname.obj
 0001:0011e4ef       ??4DName@@QAEAAV0@W4DNameStatus@@@Z 1011f4ef f   libvcruntime:undname.obj
 0001:0011e521       ??AReplicator@@QBE?AVDName@@H@Z 1011f521 f   libvcruntime:undname.obj
 0001:0011e567       ??H@YA?AVDName@@ABUStringLiteral@@ABV0@@Z 1011f567 f i libvcruntime:undname.obj
 0001:0011e589       ??H@YA?AVDName@@DABV0@@Z   1011f589 f i libvcruntime:undname.obj
 0001:0011e5b4       ??H@YA?AVDName@@W4DNameStatus@@ABV0@@Z 1011f5b4 f i libvcruntime:undname.obj
 0001:0011e5d6       ??HDName@@QBE?AV0@ABUStringLiteral@@@Z 1011f5d6 f   libvcruntime:undname.obj
 0001:0011e5f8       ??HDName@@QBE?AV0@ABV0@@Z  1011f5f8 f   libvcruntime:undname.obj
 0001:0011e61a       ??HDName@@QBE?AV0@D@Z      1011f61a f   libvcruntime:undname.obj
 0001:0011e63c       ??HDName@@QBE?AV0@W4DNameStatus@@@Z 1011f63c f   libvcruntime:undname.obj
 0001:0011e65e       ??YDName@@QAEAAV0@ABUStringLiteral@@@Z 1011f65e f   libvcruntime:undname.obj
 0001:0011e6b6       ??YDName@@QAEAAV0@ABV0@@Z  1011f6b6 f   libvcruntime:undname.obj
 0001:0011e70d       ??YDName@@QAEAAV0@D@Z      1011f70d f   libvcruntime:undname.obj
 0001:0011e762       ??YDName@@QAEAAV0@W4DNameStatus@@@Z 1011f762 f   libvcruntime:undname.obj
 0001:0011e7a2       ??YReplicator@@QAEAAV0@ABVDName@@@Z 1011f7a2 f   libvcruntime:undname.obj
 0001:0011e7e0       ??_5DName@@QAEAAV0@ABV0@@Z 1011f7e0 f   libvcruntime:undname.obj
 0001:0011e7fc       ?Destructor@_HeapManager@@QAEXXZ 1011f7fc f i libvcruntime:undname.obj
 0001:0011e834       ?UScore@UnDecorator@@SA?AUStringLiteral@@W4Tokens@@@Z 1011f834 f   libvcruntime:undname.obj
 0001:0011e85b       ?composeDeclaration@UnDecorator@@CA?AVDName@@ABV2@@Z 1011f85b f i libvcruntime:undname.obj
 0001:0011f58e       ?doPchar@DName@@AAEXD@Z    1012058e f   libvcruntime:undname.obj
 0001:0011f5c6       ?getAddressOf@UnDecorator@@CA?AVDName@@XZ 101205c6 f   libvcruntime:undname.obj
 0001:0011f639       ?getArgumentList@UnDecorator@@CA?AVDName@@XZ 10120639 f   libvcruntime:undname.obj
 0001:0011f746       ?getArgumentTypes@UnDecorator@@CA?AVDName@@XZ 10120746 f   libvcruntime:undname.obj
 0001:0011f85f       ?getArrayAccess@UnDecorator@@CA?AVDName@@XZ 1012085f f   libvcruntime:undname.obj
 0001:0011f8de       ?getArrayObject@UnDecorator@@CA?AVDName@@XZ 101208de f   libvcruntime:undname.obj
 0001:0011f980       ?getArrayType@UnDecorator@@CA?AVDName@@ABV2@@Z 10120980 f i libvcruntime:undname.obj
 0001:0011fb1d       ?getBasedType@UnDecorator@@CA?AVDName@@XZ 10120b1d f   libvcruntime:undname.obj
 0001:0011fbd8       ?getBasicDataType@UnDecorator@@CA?AVDName@@ABV2@@Z 10120bd8 f   libvcruntime:undname.obj
 0001:0012010c       ?getCallingConvention@UnDecorator@@CA?AVDName@@XZ 1012110c f   libvcruntime:undname.obj
 0001:001201e9       ?getDataIndirectType@UnDecorator@@CA?AVDName@@ABV2@W4IndirectionKind@@0H@Z 101211e9 f   libvcruntime:undname.obj
 0001:0012087f       ?getDataIndirectType@UnDecorator@@CA?AVDName@@XZ 1012187f f i libvcruntime:undname.obj
 0001:001208ad       ?getDataType@UnDecorator@@CA?AVDName@@PAV2@@Z 101218ad f   libvcruntime:undname.obj
 0001:00120984       ?getDecoratedName@UnDecorator@@CA?AVDName@@XZ 10121984 f   libvcruntime:undname.obj
 0001:00120bee       ?getDimension@UnDecorator@@CA?AVDName@@_N@Z 10121bee f   libvcruntime:undname.obj
 0001:00120d05       ?getDispatchTarget@UnDecorator@@CA?AVDName@@XZ 10121d05 f   libvcruntime:undname.obj
 0001:00120d59       ?getECSUDataType@UnDecorator@@CA?AVDName@@XZ 10121d59 f   libvcruntime:undname.obj
 0001:00120eec       ?getEnumType@UnDecorator@@CA?AVDName@@XZ 10121eec f i libvcruntime:undname.obj
 0001:0012100c       ?getExtendedDataIndirectType@UnDecorator@@CA?AVDName@@AAW4IndirectionKind@@AA_NH@Z 1012200c f   libvcruntime:undname.obj
 0001:001211bf       ?getExternalDataType@UnDecorator@@CA?AVDName@@ABV2@@Z 101221bf f i libvcruntime:undname.obj
 0001:00121224       ?getFloatingPoint@UnDecorator@@CA?AVDName@@H@Z 10122224 f   libvcruntime:undname.obj
 0001:00121318       ?getFunctionIndirectType@UnDecorator@@CA?AVDName@@ABV2@@Z 10122318 f   libvcruntime:undname.obj
 0001:001216d1       ?getLastChar@DName@@QBEDXZ 101226d1 f i libvcruntime:undname.obj
 0001:001216f1       ?getLastChar@DNameStatusNode@@UBEDXZ 101226f1 f i libvcruntime:undname.obj
 0001:001216fd       ?getLastChar@charNode@@UBEDXZ 101226fd f i libvcruntime:undname.obj
 0001:00121701       ?getLastChar@pDNameNode@@UBEDXZ 10122701 f i libvcruntime:undname.obj
 0001:0012170f       ?getLastChar@pairNode@@UBEDXZ 1012270f f i libvcruntime:undname.obj
 0001:00121744       ?getLastChar@pcharNode@@UBEDXZ 10122744 f i libvcruntime:undname.obj
 0001:00121756       ?getLexicalFrame@UnDecorator@@CA?AVDName@@XZ 10122756 f i libvcruntime:undname.obj
 0001:00121787       ?getMemberAccess@UnDecorator@@CA?AVDName@@XZ 10122787 f   libvcruntime:undname.obj
 0001:00121802       ?getMemoryWithBuffer@_HeapManager@@QAEPAXI@Z 10122802 f   libvcruntime:undname.obj
 0001:0012186c       ?getMemoryWithoutBuffer@_HeapManager@@QAEPAXI@Z 1012286c f   libvcruntime:undname.obj
 0001:0012188c       ?getNoexcept@UnDecorator@@CA?AVDName@@XZ 1012288c f   libvcruntime:undname.obj
 0001:001218e0       ?getNumberOfDimensions@UnDecorator@@CAHXZ 101228e0 f   libvcruntime:undname.obj
 0001:00121941       ?getOperatorName@UnDecorator@@CA?AVDName@@_NPA_N@Z 10122941 f i libvcruntime:undname.obj
 0001:001220a7       ?getPointerToMember@UnDecorator@@CA?AVDName@@XZ 101230a7 f   libvcruntime:undname.obj
 0001:00122162       ?getPrimaryDataType@UnDecorator@@CA?AVDName@@ABV2@@Z 10123162 f   libvcruntime:undname.obj
 0001:001223b1       ?getPtrRefDataType@UnDecorator@@CA?AVDName@@ABV2@H@Z 101233b1 f   libvcruntime:undname.obj
 0001:0012251e       ?getPtrRefType@UnDecorator@@CA?AVDName@@ABV2@0W4IndirectionKind@@@Z 1012351e f   libvcruntime:undname.obj
 0001:0012262f       ?getRestrictionSpec@UnDecorator@@CA?AVDName@@XZ 1012362f f   libvcruntime:undname.obj
 0001:00122757       ?getReturnType@UnDecorator@@CA?AVDName@@PAV2@@Z 10123757 f   libvcruntime:undname.obj
 0001:00122786       ?getScope@UnDecorator@@CA?AVDName@@XZ 10123786 f   libvcruntime:undname.obj
 0001:00122b38       ?getScopedName@UnDecorator@@CA?AVDName@@XZ 10123b38 f   libvcruntime:undname.obj
 0001:00122c23       ?getSignedDimension@UnDecorator@@CA?AVDName@@XZ 10123c23 f   libvcruntime:undname.obj
 0001:00122c74       ?getString@DName@@QBEPADPAD0@Z 10123c74 f i libvcruntime:undname.obj
 0001:00122ca1       ?getString@DName@@QBEPADPADH@Z 10123ca1 f i libvcruntime:undname.obj
 0001:00122cf6       ?getString@DNameStatusNode@@UBEPADPAD0@Z 10123cf6 f i libvcruntime:undname.obj
 0001:00122d3c       ?getString@charNode@@UBEPADPAD0@Z 10123d3c f i libvcruntime:undname.obj
 0001:00122d51       ?getString@pDNameNode@@UBEPADPAD0@Z 10123d51 f i libvcruntime:undname.obj
 0001:00122d68       ?getString@pairNode@@UBEPADPAD0@Z 10123d68 f i libvcruntime:undname.obj
 0001:00122dae       ?getString@pcharNode@@UBEPADPAD0@Z 10123dae f i libvcruntime:undname.obj
 0001:00122dc9       ?getStringEncoding@UnDecorator@@CA?AVDName@@W4PrefixKind@@H@Z 10123dc9 f   libvcruntime:undname.obj
 0001:00122e81       ?getStringHelper@@YAPADPADPBD1H@Z 10123e81 f i libvcruntime:undname.obj
 0001:00122eab       ?getStringObject@UnDecorator@@CA?AVDName@@XZ 10123eab f   libvcruntime:undname.obj
 0001:00122f02       ?getSymbolName@UnDecorator@@CA?AVDName@@XZ 10123f02 f i libvcruntime:undname.obj
 0001:00122f4a       ?getTemplateArgumentList@UnDecorator@@CA?AVDName@@XZ 10123f4a f   libvcruntime:undname.obj
 0001:00123106       ?getTemplateName@UnDecorator@@CA?AVDName@@_N@Z 10124106 f   libvcruntime:undname.obj
 0001:00123267       ?getTemplateNonTypeArgument@UnDecorator@@CA?AVDName@@XZ 10124267 f   libvcruntime:undname.obj
 0001:0012361b       ?getTemplateTypeArgument@UnDecorator@@CA?AVDName@@XZ 1012461b f   libvcruntime:undname.obj
 0001:00123721       ?getThisType@UnDecorator@@CA?AVDName@@XZ 10124721 f i libvcruntime:undname.obj
 0001:00123750       ?getThrowTypes@UnDecorator@@CA?AVDName@@XZ 10124750 f   libvcruntime:undname.obj
 0001:00123773       ?getTypeEncoding@UnDecorator@@CAHXZ 10124773 f i libvcruntime:undname.obj
 0001:00123ad3       ?getUndecoratedName@UnDecorator@@QAEPADPADH@Z 10124ad3 f i libvcruntime:undname.obj
 0001:00123bf2       ?getUnionObject@UnDecorator@@CA?AVDName@@XZ 10124bf2 f   libvcruntime:undname.obj
 0001:00123ca1       ?getVCallThunkType@UnDecorator@@CA?AVDName@@XZ 10124ca1 f i libvcruntime:undname.obj
 0001:00123cf7       ?getValue@UnDecorator@@CA?AV?$optional@_K@std@@XZ 10124cf7 f   libvcruntime:undname.obj
 0001:00123d65       ?getValueObject@UnDecorator@@CA?AVDName@@XZ 10124d65 f   libvcruntime:undname.obj
 0001:00123e7d       ?getVdispMapType@UnDecorator@@CA?AVDName@@ABV2@@Z 10124e7d f i libvcruntime:undname.obj
 0001:00123ee1       ?getVfTableType@UnDecorator@@CA?AVDName@@ABV2@@Z 10124ee1 f i libvcruntime:undname.obj
 0001:00124037       ?getZName@UnDecorator@@CA?AVDName@@_N0@Z 10125037 f   libvcruntime:undname.obj
 0001:0012424c       ?length@DName@@QBEHXZ      1012524c f i libvcruntime:undname.obj
 0001:0012426b       ?length@pDNameNode@@UBEHXZ 1012526b f i libvcruntime:undname.obj
 0001:00124279       ?length@pairNode@@UBEHXZ   10125279 f i libvcruntime:undname.obj
 0001:001242c2       ?make@DNameStatusNode@@SAPBV1@W4DNameStatus@@@Z 101252c2 f i libvcruntime:undname.obj
 0001:001242de       ?parseDecoratedName@UnDecorator@@CA?AVDName@@XZ 101252de f   libvcruntime:undname.obj
 0001:001243d8       ?raw_length@pDNameNode@@UBEHXZ 101253d8 f i libvcruntime:undname.obj
 0001:0012442e       ___unDName                 1012542e f   libvcruntime:undname.obj
 0001:00124451       ___unDNameEx               10125451 f   libvcruntime:undname.obj
 0001:001244f0       __vsprintf_s_l             101254f0 f i libvcruntime:undname.obj
 0001:0012451d       _sprintf_s                 1012551d f i libvcruntime:undname.obj
 0001:00124540       _strchr                    10125540 f   libvcruntime:strchr.obj
 0001:001245ae       ___from_strstr_to_strchr   101255ae     libvcruntime:strchr.obj
 0001:00124670       __local_unwind4            10125670 f   libvcruntime:exsup4.obj
 0001:00124760       @_EH4_CallFilterFunc@8     10125760 f   libvcruntime:exsup4.obj
 0001:00124780       @_EH4_TransferToHandler@8  10125780 f   libvcruntime:exsup4.obj
 0001:001247a0       @_EH4_GlobalUnwind2@8      101257a0 f   libvcruntime:exsup4.obj
 0001:001247c0       @_EH4_LocalUnwind@16       101257c0 f   libvcruntime:exsup4.obj
 0001:001247d7       ___except_validate_context_record 101257d7 f   libvcruntime:jbcxrval.obj
 0001:00124807       ___vcrt_freefls@4          10125807 f   libvcruntime:per_thread_data.obj
 0001:00124823       ___vcrt_freeptd            10125823 f   libvcruntime:per_thread_data.obj
 0001:00124859       ___vcrt_getptd             10125859 f   libvcruntime:per_thread_data.obj
 0001:00124867       ___vcrt_getptd_noexit      10125867 f   libvcruntime:per_thread_data.obj
 0001:001248f9       ___vcrt_initialize_ptd     101258f9 f   libvcruntime:per_thread_data.obj
 0001:0012492c       ___vcrt_uninitialize_ptd   1012592c f   libvcruntime:per_thread_data.obj
 0001:00124947       ___vcrt_initialize_locks   10125947 f   libvcruntime:locks.obj
 0001:00124983       ___vcrt_lock               10125983 f   libvcruntime:locks.obj
 0001:00124998       ___vcrt_uninitialize_locks 10125998 f   libvcruntime:locks.obj
 0001:001249c7       ___vcrt_unlock             101259c7 f   libvcruntime:locks.obj
 0001:001249dc       ?GetRangeOfTrysToCheck@__FrameHandler3@@SA?AU?$pair@Viterator@TryBlockMap@__FrameHandler3@@V123@@std@@AAVTryBlockMap@1@HPAXPBU_s_FuncInfo@@H@Z 101259dc f   libvcruntime:trnsctrl.obj
 0001:00124a4c       ?_CallCatchBlock2@@YAPAXPAUEHRegistrationNode@@PBU_s_FuncInfo@@PAXHK@Z 10125a4c f   libvcruntime:trnsctrl.obj
 0001:00124aa9       ?_CallSETranslator@@YAHPAUEHExceptionRecord@@PAUEHRegistrationNode@@PAX2PBU_s_FuncInfo@@H1@Z 10125aa9 f   libvcruntime:trnsctrl.obj
 0001:00124b9f       ?_JumpToContinuation@@YGXPAXPAUEHRegistrationNode@@@Z 10125b9f f   libvcruntime:trnsctrl.obj
 0001:00124bcf       ?_UnwindNestedFrames@@YGXPAUEHRegistrationNode@@PAUEHExceptionRecord@@@Z 10125bcf f   libvcruntime:trnsctrl.obj
 0001:00124c22       __CatchGuardHandler        10125c22 f   libvcruntime:trnsctrl.obj
 0001:00124c53       __CreateFrameInfo          10125c53 f   libvcruntime:trnsctrl.obj
 0001:00124c77       __FindAndUnlinkFrame       10125c77 f   libvcruntime:trnsctrl.obj
 0001:00124cbf       __TranslatorGuardHandler   10125cbf f   libvcruntime:trnsctrl.obj
 0001:00124d5c       ___CxxFrameHandler3        10125d5c f   libvcruntime:trnsctrl.obj
 0001:00124da0       __NLG_Notify1              10125da0 f   libvcruntime:exsup.obj
 0001:00124db0       __NLG_Notify               10125db0 f   libvcruntime:exsup.obj
 0001:00124dc7       __NLG_Dispatch             10125dc7     libvcruntime:exsup.obj
 0001:00124dc7       __NLG_Dispatch2            10125dc7     libvcruntime:exsup.obj
 0001:00124dd0       __NLG_Call                 10125dd0 f   libvcruntime:exsup.obj
 0001:00124dd2       __NLG_Return2              10125dd2     libvcruntime:exsup.obj
 0001:00124eb6       ___vcrt_FlsAlloc           10125eb6 f   libvcruntime:winapi_downlevel.obj
 0001:00124ef1       ___vcrt_FlsFree            10125ef1 f   libvcruntime:winapi_downlevel.obj
 0001:00124f2c       ___vcrt_FlsGetValue        10125f2c f   libvcruntime:winapi_downlevel.obj
 0001:00124f67       ___vcrt_FlsSetValue        10125f67 f   libvcruntime:winapi_downlevel.obj
 0001:00124fa5       ___vcrt_InitializeCriticalSectionEx 10125fa5 f   libvcruntime:winapi_downlevel.obj
 0001:00125723       ??$TypeMatchHelper@V__FrameHandler3@@@@YAHPBU_s_HandlerType@@PBU_s_CatchableType@@PBU_s_ThrowInfo@@@Z 10126723 f i libvcruntime:frame.obj
 0001:001257b1       ??$__InternalCxxFrameHandler@V__FrameHandler3@@@@YA?AW4_EXCEPTION_DISPOSITION@@PAUEHExceptionRecord@@PAUEHRegistrationNode@@PAU_CONTEXT@@PAXPBU_s_FuncInfo@@H1E@Z 101267b1 f i libvcruntime:frame.obj
 0001:001258b3       ??0bad_exception@std@@QAE@ABV01@@Z 101268b3 f i libvcruntime:frame.obj
 0001:001258ce       ??0bad_exception@std@@QAE@XZ 101268ce f i libvcruntime:frame.obj
 0001:001258e6       ??0exception@std@@QAE@ABV01@@Z 101268e6 f i libvcruntime:frame.obj
 0001:00125912       ??1bad_exception@std@@UAE@XZ 10126912 f i libvcruntime:frame.obj
 0001:00125923       ??8type_info@@QBE_NABV0@@Z 10126923 f i libvcruntime:frame.obj
 0001:00125942       ??_Eexception@std@@UAEPAXI@Z 10126942 f i libvcruntime:frame.obj
 0001:00125942       ??_Gbad_exception@std@@UAEPAXI@Z 10126942 f i libvcruntime:frame.obj
 0001:00125942       ??_Ebad_exception@std@@UAEPAXI@Z 10126942 f i libvcruntime:frame.obj
 0001:00125942       ??_Gexception@std@@UAEPAXI@Z 10126942 f i libvcruntime:frame.obj
 0001:00125bbc       ?FrameUnwindToEmptyState@__FrameHandler3@@SAXPAUEHRegistrationNode@@PAXPBU_s_FuncInfo@@@Z 10126bbc f   libvcruntime:frame.obj
 0001:00125bd4       ?FrameUnwindToState@__FrameHandler3@@SAXPAUEHRegistrationNode@@PAXPBU_s_FuncInfo@@H@Z 10126bd4 f   libvcruntime:frame.obj
 0001:00125d56       ?_CallMemberFunction1@@YGXQAX00@Z 10126d56 f i libvcruntime:frame.obj
 0001:00125d66       ?_CallMemberFunction2@@YGXQAX00H@Z 10126d66 f i libvcruntime:frame.obj
 0001:00125d79       ?getESTypes@__FrameHandler3@@SAPBU_s_ESTypeList@@PBU_s_FuncInfo@@@Z 10126d79 f i libvcruntime:frame.obj
 0001:00125d84       ?what@exception@std@@UBEPBDXZ 10126d84 f i libvcruntime:frame.obj
 0001:00125da0       __CallSettingFrame@12      10126da0 f   libvcruntime:lowhelpr.obj
 0001:00125dc7       __NLG_Return               10126dc7     libvcruntime:lowhelpr.obj
 0001:00125dec       _unexpected                10126dec f   libvcruntime:unexpected.obj
 0001:00125e09       ?GetCurrentState@__FrameHandler3@@SAHPAUEHRegistrationNode@@PAXPBU_s_FuncInfo@@@Z 10126e09 f   libvcruntime:ehstate.obj
 0001:00125e26       ?SetState@__FrameHandler3@@SAXPAUEHRegistrationNode@@PBU_s_FuncInfo@@H@Z 10126e26 f   libvcruntime:ehstate.obj
 0001:00125e34       ___std_exception_copy      10126e34 f   libvcruntime:std_exception.obj
 0001:00125e97       ___std_exception_destroy   10126e97 f   libvcruntime:std_exception.obj
 0001:00125eb6       __CxxThrowException@8      10126eb6 f   libvcruntime:throw.obj
 0001:00125f30       ___libm_sse2_tanf          10126f30 f   libucrt:tanf_sse2.obj
 0001:001260d0       _ceil                      101270d0 f   libucrt:ceil_pentium4.obj
 0001:00126110       __ceil_pentium4            10127110 f   libucrt:ceil_pentium4.obj
 0001:001261ed       __fpclass                  101271ed f   libucrt:ieeemisc.obj
 0001:00126291       ___libm_sse2_acosf         10127291 f   libucrt:acosf_sse2.obj
 0001:0012666e       __errcode                  1012766e f   libucrt:fpexcept.obj
 0001:001266a2       __except1                  101276a2 f   libucrt:fpexcept.obj
 0001:00126770       __handle_exc               10127770 f   libucrt:fpexcept.obj
 0001:0012695b       __raise_exc                1012795b f   libucrt:fpexcept.obj
 0001:0012697e       __raise_exc_ex             1012797e f   libucrt:fpexcept.obj
 0001:00126c74       __set_errno_from_matherr   10127c74 f   libucrt:fpexcept.obj
 0001:00126ca3       __umatherr                 10127ca3 f   libucrt:fpexcept.obj
 0001:00126d43       _free                      10127d43 f   libucrt:free.obj
 0001:00126d5e       __initterm                 10127d5e f   libucrt:initterm.obj
 0001:00126da3       __initterm_e               10127da3 f   libucrt:initterm.obj
 0001:00126dd1       __seh_filter_dll           10127dd1 f   libucrt:exception_filter.obj
 0001:00126df1       __seh_filter_exe           10127df1 f   libucrt:exception_filter.obj
 0001:001271bf       ___acrt_initialize_thread_local_exit_callback 101281bf f   libucrt:exit.obj
 0001:001271ce       __cexit                    101281ce f   libucrt:exit.obj
 0001:001271dd       __exit                     101281dd f   libucrt:exit.obj
 0001:001271f3       __is_c_termination_complete 101281f3 f   libucrt:exit.obj
 0001:001274a4       ___acrt_allocate_buffer_for_argv 101284a4 f   libucrt:argv_parsing.obj
 0001:001274f3       __configure_narrow_argv    101284f3 f   libucrt:argv_parsing.obj
 0001:00127650       ??$uninitialize@A6AXAAPAPAD@Z@?$dual_state_global@PAPAD@__crt_state_management@@QAEXA6AXAAPAPAD@Z@Z 10128650 f i libucrt:environment_initialization.obj
 0001:00127650       ??$uninitialize@A6AXAAPAPA_W@Z@?$dual_state_global@PAPA_W@__crt_state_management@@QAEXA6AXAAPAPA_W@Z@Z 10128650 f i libucrt:environment_initialization.obj
 0001:001276af       ___dcrt_uninitialize_environments_nolock 101286af f   libucrt:environment_initialization.obj
 0001:001276e6       __initialize_narrow_environment 101286e6 f   libucrt:environment_initialization.obj
 0001:00127820       __execute_onexit_table     10128820 f   libucrt:onexit.obj
 0001:0012784d       __initialize_onexit_table  1012884d f   libucrt:onexit.obj
 0001:0012789d       ___acrt_uninitialize_command_line 1012889d f   libucrt:argv_data.obj
 0001:00127946       ??$__crt_fast_encode_pointer@PAX@@YAPAXQAX@Z 10128946 f i libucrt:initialization.obj
 0001:00127993       ___acrt_initialize         10128993 f   libucrt:initialization.obj
 0001:001279a5       ___acrt_thread_attach      101289a5 f   libucrt:initialization.obj
 0001:001279b0       ___acrt_thread_detach      101289b0 f   libucrt:initialization.obj
 0001:001279b8       ___acrt_uninitialize       101289b8 f   libucrt:initialization.obj
 0001:001279e8       ___acrt_uninitialize_critical 101289e8 f   libucrt:initialization.obj
 0001:001279fa       _terminate                 101289fa f   libucrt:terminate.obj
 0001:00127a36       _abort                     10128a36 f   libucrt:abort.obj
 0001:00127a7a       _malloc                    10128a7a f   libucrt:malloc.obj
 0001:00127a85       _strcpy_s                  10128a85 f   libucrt:strcpy_s.obj
 0001:00127cd5       ??$count@D@formatting_buffer@__crt_stdio_output@@QBEIXZ 10128cd5 f i libucrt:output.obj
 0001:00127ced       ??$ensure_buffer_is_big_enough@D@formatting_buffer@__crt_stdio_output@@QAE_NI@Z 10128ced f i libucrt:output.obj
 0001:00127d6a       ??$is_wide_character_specifier@D@__crt_stdio_output@@YA_N_KDW4length_modifier@0@@Z 10128d6a f i libucrt:output.obj
 0001:00127d9b       ??$scratch_data@D@formatting_buffer@__crt_stdio_output@@QAEPADXZ 10128d9b f i libucrt:output.obj
 0001:00127db9       ??$type_case_integer_parse_into_buffer@I@?$output_processor@DV?$string_output_adapter@D@__crt_stdio_output@@V?$format_validation_base@DV?$string_output_adapter@D@__crt_stdio_output@@@2@@__crt_stdio_output@@AAEXII_N@Z 10128db9 f i libucrt:output.obj
 0001:00127e2c       ??$type_case_integer_parse_into_buffer@_K@?$output_processor@DV?$string_output_adapter@D@__crt_stdio_output@@V?$format_validation_base@DV?$string_output_adapter@D@__crt_stdio_output@@@2@@__crt_stdio_output@@AAEX_KI_N@Z 10128e2c f i libucrt:output.obj
 0001:00127eba       ??$write_multiple_characters@V?$string_output_adapter@D@__crt_stdio_output@@D@__crt_stdio_output@@YAXABV?$string_output_adapter@D@0@DHQAH@Z 10128eba f i libucrt:output.obj
 0001:00127ee6       ??0?$common_data@D@__crt_stdio_output@@IAE@XZ 10128ee6 f i libucrt:output.obj
 0001:00127f2b       ??0?$output_adapter_data@DV?$string_output_adapter@D@__crt_stdio_output@@@__crt_stdio_output@@IAE@ABV?$string_output_adapter@D@1@_KQBDQAU__crt_locale_pointers@@QAD@Z 10128f2b f i libucrt:output.obj
 0001:00127f67       ??0_LocaleUpdate@@QAE@QAU__crt_locale_pointers@@@Z 10128f67 f i libucrt:output.obj
 0001:00127fea       ??1formatting_buffer@__crt_stdio_output@@QAE@XZ 10128fea f i libucrt:output.obj
 0001:00128004       ??4?$__crt_unique_heap_ptr@DU__crt_internal_free_policy@@@@QAEAAV0@$$QAV0@@Z 10129004 f i libucrt:output.obj
 0001:00128030       ?crop_zeroes@__crt_stdio_output@@YAXPADQAU__crt_locale_pointers@@@Z 10129030 f i libucrt:output.obj
 0001:001280b1       ?find_next_state@?$output_processor@DV?$string_output_adapter@D@__crt_stdio_output@@V?$format_validation_base@DV?$string_output_adapter@D@__crt_stdio_output@@@2@@__crt_stdio_output@@ABE?AW4state@2@DW432@@Z 101290b1 f i libucrt:output.obj
 0001:001280f0       ?force_decimal_point@__crt_stdio_output@@YAXPADQAU__crt_locale_pointers@@@Z 101290f0 f i libucrt:output.obj
 0001:00128155       ?parse_int_from_format_string@?$output_processor@DV?$string_output_adapter@D@__crt_stdio_output@@V?$format_validation_base@DV?$string_output_adapter@D@__crt_stdio_output@@@2@@__crt_stdio_output@@AAE_NQAH@Z 10129155 f i libucrt:output.obj
 0001:001281c9       ?process@?$output_processor@DV?$string_output_adapter@D@__crt_stdio_output@@V?$format_validation_base@DV?$string_output_adapter@D@__crt_stdio_output@@@2@@__crt_stdio_output@@QAEHXZ 101291c9 f i libucrt:output.obj
 0001:001282ed       ?state_case_flag@?$output_processor@DV?$string_output_adapter@D@__crt_stdio_output@@V?$format_validation_base@DV?$string_output_adapter@D@__crt_stdio_output@@@2@@__crt_stdio_output@@AAE_NXZ 101292ed f i libucrt:output.obj
 0001:0012832a       ?state_case_normal@?$output_processor@DV?$string_output_adapter@D@__crt_stdio_output@@V?$format_validation_base@DV?$string_output_adapter@D@__crt_stdio_output@@@2@@__crt_stdio_output@@AAE_NXZ 1012932a f i libucrt:output.obj
 0001:00128349       ?state_case_normal_common@?$output_processor@DV?$string_output_adapter@D@__crt_stdio_output@@V?$format_validation_base@DV?$string_output_adapter@D@__crt_stdio_output@@@2@@__crt_stdio_output@@AAE_NXZ 10129349 f i libucrt:output.obj
 0001:00128373       ?state_case_normal_tchar@?$output_processor@DV?$string_output_adapter@D@__crt_stdio_output@@V?$format_validation_base@DV?$string_output_adapter@D@__crt_stdio_output@@@2@@__crt_stdio_output@@AAE_ND@Z 10129373 f i libucrt:output.obj
 0001:001283d7       ?state_case_precision@?$output_processor@DV?$string_output_adapter@D@__crt_stdio_output@@V?$format_validation_base@DV?$string_output_adapter@D@__crt_stdio_output@@@2@@__crt_stdio_output@@AAE_NXZ 101293d7 f i libucrt:output.obj
 0001:001283fd       ?state_case_size@?$output_processor@DV?$string_output_adapter@D@__crt_stdio_output@@V?$format_validation_base@DV?$string_output_adapter@D@__crt_stdio_output@@@2@@__crt_stdio_output@@AAE_NXZ 101293fd f i libucrt:output.obj
 0001:0012854b       ?state_case_type@?$output_processor@DV?$string_output_adapter@D@__crt_stdio_output@@V?$format_validation_base@DV?$string_output_adapter@D@__crt_stdio_output@@@2@@__crt_stdio_output@@AAE_NXZ 1012954b f i libucrt:output.obj
 0001:0012877d       ?state_case_width@?$output_processor@DV?$string_output_adapter@D@__crt_stdio_output@@V?$format_validation_base@DV?$string_output_adapter@D@__crt_stdio_output@@@2@@__crt_stdio_output@@AAE_NXZ 1012977d f i libucrt:output.obj
 0001:001287b0       ?to_integer_size@__crt_stdio_output@@YAIW4length_modifier@1@@Z 101297b0 f i libucrt:output.obj
 0001:0012880c       ?type_case_Z@?$output_processor@DV?$string_output_adapter@D@__crt_stdio_output@@V?$format_validation_base@DV?$string_output_adapter@D@__crt_stdio_output@@@2@@__crt_stdio_output@@AAE_NXZ 1012980c f i libucrt:output.obj
 0001:00128866       ?type_case_a@?$output_processor@DV?$string_output_adapter@D@__crt_stdio_output@@V?$format_validation_base@DV?$string_output_adapter@D@__crt_stdio_output@@@2@@__crt_stdio_output@@AAE_NXZ 10129866 f i libucrt:output.obj
 0001:001289b7       ?type_case_c_tchar@?$output_processor@DV?$string_output_adapter@D@__crt_stdio_output@@V?$format_validation_base@DV?$string_output_adapter@D@__crt_stdio_output@@@2@@__crt_stdio_output@@AAE_ND@Z 101299b7 f i libucrt:output.obj
 0001:00128a4a       ?type_case_integer@?$output_processor@DV?$string_output_adapter@D@__crt_stdio_output@@V?$format_validation_base@DV?$string_output_adapter@D@__crt_stdio_output@@@2@@__crt_stdio_output@@AAE_NI_N@Z 10129a4a f i libucrt:output.obj
 0001:00128b9b       ?type_case_n@?$output_processor@DV?$string_output_adapter@D@__crt_stdio_output@@V?$format_validation_base@DV?$string_output_adapter@D@__crt_stdio_output@@@2@@__crt_stdio_output@@AAE_NXZ 10129b9b f i libucrt:output.obj
 0001:00128c0f       ?type_case_o@?$output_processor@DV?$string_output_adapter@D@__crt_stdio_output@@V?$format_validation_base@DV?$string_output_adapter@D@__crt_stdio_output@@@2@@__crt_stdio_output@@AAE_NXZ 10129c0f f i libucrt:output.obj
 0001:00128c2e       ?type_case_p@?$output_processor@DV?$string_output_adapter@D@__crt_stdio_output@@V?$format_validation_base@DV?$string_output_adapter@D@__crt_stdio_output@@@2@@__crt_stdio_output@@AAE_NXZ 10129c2e f i libucrt:output.obj
 0001:00128c46       ?type_case_s@?$output_processor@DV?$string_output_adapter@D@__crt_stdio_output@@V?$format_validation_base@DV?$string_output_adapter@D@__crt_stdio_output@@@2@@__crt_stdio_output@@AAE_NXZ 10129c46 f i libucrt:output.obj
 0001:00128cb7       ?validate@?$c_string_character_source@D@__crt_strtox@@QBE_NXZ 10129cb7 f i libucrt:atox.obj
 0001:00128cb7       ?validate@?$string_output_adapter@D@__crt_stdio_output@@QBE_NXZ 10129cb7 f i libucrt:output.obj
 0001:00128cd2       ?validate_and_update_state_at_end_of_format_string@?$format_validation_base@DV?$string_output_adapter@D@__crt_stdio_output@@@__crt_stdio_output@@IBE_NXZ 10129cd2 f i libucrt:output.obj
 0001:00128cf4       ?write_character@?$string_output_adapter@D@__crt_stdio_output@@QBE_NDQAH@Z 10129cf4 f i libucrt:output.obj
 0001:00128d36       ?write_stored_string_tchar@?$output_processor@DV?$string_output_adapter@D@__crt_stdio_output@@V?$format_validation_base@DV?$string_output_adapter@D@__crt_stdio_output@@@2@@__crt_stdio_output@@AAE_ND@Z 10129d36 f i libucrt:output.obj
 0001:00128ddb       ?write_string@?$string_output_adapter@D@__crt_stdio_output@@QBEXQBDHQAHAAV__crt_deferred_errno_cache@@@Z 10129ddb f i libucrt:output.obj
 0001:00128e42       ___acrt_locale_get_ctype_array_value 10129e42 f i libucrt:output.obj
 0001:00128e64       ___stdio_common_vsprintf_s 10129e64 f   libucrt:output.obj
 0001:00128e88       ??$is_overflow_condition@K@__crt_strtox@@YA_NIK@Z 10129e88 f i libucrt:atox.obj
 0001:00128eb9       ??$parse_integer@KV?$c_string_character_source@D@__crt_strtox@@@__crt_strtox@@YAKQAU__crt_locale_pointers@@V?$c_string_character_source@D@0@H_N@Z 10129eb9 f i libucrt:atox.obj
 0001:001290dc       ?unget@?$c_string_character_source@D@__crt_strtox@@QAEXD@Z 1012a0dc f i libucrt:atox.obj
 0001:00129105       __ischartype_l             1012a105 f i libucrt:atox.obj
 0001:00129159       _atol                      1012a159 f   libucrt:atox.obj
 0001:00129180       _strncmp                   1012a180 f   libucrt:strncmp.obj
 0001:001291f8       _calloc                    1012a1f8 f   libucrt:calloc.obj
 0001:00129203       _wcsncmp                   1012a203 f   libucrt:wcsncmp.obj
 0001:00129240       _cos                       1012a240 f   libucrt:cos.obj
 0001:00129290       _sin                       1012a290 f   libucrt:sin.obj
 0001:001292e0       _tan                       1012a2e0 f   libucrt:tan.obj
 0001:00129323       ___libm_error_support      1012a323 f   libucrt:libm_error.obj
 0001:00129517       ___acrt_initialize_sse2    1012a517 f   libucrt:mathfcns.obj
 0001:00129527       __ceil_default             1012a527 f   libucrt:ceil.obj
 0001:001295dc       __decomp                   1012a5dc f   libucrt:util.obj
 0001:001296ae       __set_exp                  1012a6ae f   libucrt:util.obj
 0001:001296db       __sptype                   1012a6db f   libucrt:util.obj
 0001:00129739       ___set_fpsr_sse2           1012a739 f   libucrt:fpctrl.obj
 0001:001297b9       __clrfp                    1012a7b9 f   libucrt:fpctrl.obj
 0001:001297ca       __ctrlfp                   1012a7ca f   libucrt:fpctrl.obj
 0001:001297f4       __set_statfp               1012a7f4 f   libucrt:fpctrl.obj
 0001:0012984d       __statfp                   1012a84d f   libucrt:fpctrl.obj
 0001:0012985d       ___acrt_errno_from_os_error 1012a85d f   libucrt:errno.obj
 0001:001298a0       ___acrt_errno_map_os_error 1012a8a0 f   libucrt:errno.obj
 0001:001298c3       ___doserrno                1012a8c3 f   libucrt:errno.obj
 0001:001298d6       __errno                    1012a8d6 f   libucrt:errno.obj
 0001:001298e9       ___acrt_has_user_matherr   1012a8e9 f   libucrt:matherr.obj
 0001:00129901       ___acrt_initialize_user_matherr 1012a901 f   libucrt:matherr.obj
 0001:00129910       ___acrt_invoke_user_matherr 1012a910 f   libucrt:matherr.obj
 0001:00129942       __free_base                1012a942 f   libucrt:free_base.obj
 0001:00129cba       ___acrt_freeptd            1012acba f   libucrt:per_thread_data.obj
 0001:00129ce6       ___acrt_getptd             1012ace6 f   libucrt:per_thread_data.obj
 0001:00129da3       ___acrt_getptd_head        1012ada3 f   libucrt:per_thread_data.obj
 0001:00129e3d       ___acrt_getptd_noexit      1012ae3d f   libucrt:per_thread_data.obj
 0001:00129ef2       ___acrt_initialize_ptd     1012aef2 f   libucrt:per_thread_data.obj
 0001:00129f1e       ___acrt_uninitialize_ptd   1012af1e f   libucrt:per_thread_data.obj
 0001:00129f38       ___acrt_initialize_locks   1012af38 f   libucrt:locks.obj
 0001:00129f79       ___acrt_lock               1012af79 f   libucrt:locks.obj
 0001:00129f90       ___acrt_uninitialize_locks 1012af90 f   libucrt:locks.obj
 0001:00129fc1       ___acrt_unlock             1012afc1 f   libucrt:locks.obj
 0001:00129fd8       ___acrt_get_process_end_policy 1012afd8 f   libucrt:win_policies.obj
 0001:0012a009       ___acrt_call_reportfault   1012b009 f   libucrt:invalid_parameter.obj
 0001:0012a142       ___acrt_initialize_invalid_parameter_handler 1012b142 f   libucrt:invalid_parameter.obj
 0001:0012a151       __invalid_parameter        1012b151 f   libucrt:invalid_parameter.obj
 0001:0012a1b5       __invalid_parameter_noinfo 1012b1b5 f   libucrt:invalid_parameter.obj
 0001:0012a1c5       __invoke_watson            1012b1c5 f   libucrt:invalid_parameter.obj
 0001:0012a1f9       __calloc_base              1012b1f9 f   libucrt:calloc_base.obj
 0001:0012a3ef       ??$__acrt_mbs_to_wcs_cp@U__crt_win32_buffer_internal_dynamic_resizing@@@@YAHQBDAAV?$__crt_win32_buffer@_WU__crt_win32_buffer_internal_dynamic_resizing@@@@I@Z 1012b3ef f i libucrt:argv_wildcards.obj
 0001:0012a903       ?__acrt_get_utf8_acp_compatibility_codepage@@YAIXZ 1012b903 f i libucrt:argv_wildcards.obj
 0001:0012a942       ?_deallocate@?$__crt_win32_buffer@_WU__crt_win32_buffer_internal_dynamic_resizing@@@@AAEXXZ 1012b942 f i libucrt:argv_wildcards.obj
 0001:0012a942       ?_deallocate@?$__crt_win32_buffer@DU__crt_win32_buffer_internal_dynamic_resizing@@@@AAEXXZ 1012b942 f i libucrt:argv_wildcards.obj
 0001:0012a95c       ?allocate@?$__crt_win32_buffer@DU__crt_win32_buffer_internal_dynamic_resizing@@@@QAEHI@Z 1012b95c f i libucrt:argv_wildcards.obj
 0001:0012a998       ?allocate@?$__crt_win32_buffer@_WU__crt_win32_buffer_internal_dynamic_resizing@@@@QAEHI@Z 1012b998 f i libucrt:argv_wildcards.obj
 0001:0012a9d7       ?allocate@__crt_win32_buffer_internal_dynamic_resizing@@SAHQAPAXIABV__crt_win32_buffer_empty_debug_info@@@Z 1012b9d7 f i libucrt:argv_wildcards.obj
 0001:0012aa7d       ___acrt_expand_narrow_argv_wildcards 1012ba7d f   libucrt:argv_wildcards.obj
 0001:0012ab4f       ?allocate@?$__crt_win32_buffer@DU__crt_win32_buffer_no_resizing@@@@QAEHI@Z 1012bb4f f i libucrt:getmodulefilenamea.obj
 0001:0012ab76       ?set_to_nullptr@?$__crt_win32_buffer@DU__crt_win32_buffer_no_resizing@@@@QAEXXZ 1012bb76 f i libucrt:getmodulefilenamea.obj
 0001:0012ab8a       ___acrt_GetModuleFileNameA 1012bb8a f   libucrt:getmodulefilenamea.obj
 0001:0012b143       ___acrt_initialize_multibyte 1012c143 f   libucrt:mbctype.obj
 0001:0012b18b       ___acrt_update_thread_multibyte_data 1012c18b f   libucrt:mbctype.obj
 0001:0012b19e       __setmbcp_nolock           1012c19e f   libucrt:mbctype.obj
 0001:0012b469       __ismbblead                1012c469 f   libucrt:ismbbyte.obj
 0001:0012b481       ___acrt_initialize_command_line 1012c481 f   libucrt:argv_data.obj
 0001:0012b49a       ___acrt_MultiByteToWideChar 1012c49a f   libucrt:multibytetowidechar.obj
 0001:0012b516       ___acrt_WideCharToMultiByte 1012c516 f   libucrt:widechartomultibyte.obj
 0001:0012b604       ___dcrt_get_narrow_environment_from_os 1012c604 f   libucrt:get_environment_from_os.obj
 0001:0012b688       __recalloc_base            1012c688 f   libucrt:recalloc.obj
 0001:0012b88d       ___acrt_AppPolicyGetProcessTerminationMethodInternal@4 1012c88d f   libucrt:winapi_thunks.obj
 0001:0012b8cd       ___acrt_AreFileApisANSI@0  1012c8cd f   libucrt:winapi_thunks.obj
 0001:0012b8ec       ___acrt_FlsAlloc@4         1012c8ec f   libucrt:winapi_thunks.obj
 0001:0012b92b       ___acrt_FlsFree@4          1012c92b f   libucrt:winapi_thunks.obj
 0001:0012b96a       ___acrt_FlsGetValue@4      1012c96a f   libucrt:winapi_thunks.obj
 0001:0012b9a9       ___acrt_FlsSetValue@8      1012c9a9 f   libucrt:winapi_thunks.obj
 0001:0012b9eb       ___acrt_InitializeCriticalSectionEx@12 1012c9eb f   libucrt:winapi_thunks.obj
 0001:0012ba36       ___acrt_LCMapStringEx@36   1012ca36 f   libucrt:winapi_thunks.obj
 0001:0012ba93       ___acrt_LocaleNameToLCID@8 1012ca93 f   libucrt:winapi_thunks.obj
 0001:0012bac4       ___acrt_initialize_winapi_thunks 1012cac4 f   libucrt:winapi_thunks.obj
 0001:0012baef       ___acrt_uninitialize_winapi_thunks 1012caef f   libucrt:winapi_thunks.obj
 0001:0012bb25       ___acrt_initialize_heap    1012cb25 f   libucrt:heap_handle.obj
 0001:0012bb36       ___acrt_uninitialize_heap  1012cb36 f   libucrt:heap_handle.obj
 0001:0012bcaa       ___acrt_initialize_lowio   1012ccaa f   libucrt:ioinit.obj
 0001:0012bd0a       ___acrt_uninitialize_lowio 1012cd0a f   libucrt:ioinit.obj
 0001:0012bd36       ___acrt_execute_initializers 1012cd36 f   libucrt:shared_initialization.obj
 0001:0012bd9e       ___acrt_execute_uninitializers 1012cd9e f   libucrt:shared_initialization.obj
 0001:0012bdcf       ___acrt_initialize_new_handler 1012cdcf f   libucrt:new_handler.obj
 0001:0012bdde       __callnewh                 1012cdde f   libucrt:new_handler.obj
 0001:0012be0b       __query_new_handler        1012ce0b f   libucrt:new_handler.obj
 0001:0012bf35       ___acrt_get_sigabrt_handler 1012cf35 f   libucrt:signal.obj
 0001:0012bf5c       ___acrt_initialize_signal_handlers 1012cf5c f   libucrt:signal.obj
 0001:0012bf7a       _raise                     1012cf7a f   libucrt:signal.obj
 0001:0012c34a       ___acrt_stdio_flush_nolock 1012d34a f   libucrt:fflush.obj
 0001:0012c3af       __fflush_nolock            1012d3af f   libucrt:fflush.obj
 0001:0012c3f7       __flushall                 1012d3f7 f   libucrt:fflush.obj
 0001:0012c400       ___acrt_initialize_stdio   1012d400 f   libucrt:_file.obj
 0001:0012c4c8       ___acrt_uninitialize_stdio 1012d4c8 f   libucrt:_file.obj
 0001:0012c514       __lock_file                1012d514 f   libucrt:_file.obj
 0001:0012c528       __unlock_file              1012d528 f   libucrt:_file.obj
 0001:0012c53c       __malloc_base              1012d53c f   libucrt:malloc_base.obj
 0001:0012c58a       ??$make_c_string_character_source@DPAPAD@__crt_strtox@@YA?AV?$c_string_character_source@D@0@QBDQAPAD@Z 1012d58a f i libucrt:strtox.obj
 0001:0012c5a5       _strtol                    1012d5a5 f   libucrt:strtox.obj
 0001:0012c5cf       __mbtowc_l                 1012d5cf f   libucrt:mbtowc.obj
 0001:0012c711       _mbtowc                    1012d711 f   libucrt:mbtowc.obj
 0001:0012c72b       __wctomb_s_l               1012d72b f   libucrt:wctomb.obj
 0001:0012c886       _strnlen                   1012d886 f   libucrt:strnlen.obj
 0001:0012c9a8       _wcsnlen                   1012d9a8 f   libucrt:strnlen.obj
 0001:0012cb58       ___acrt_update_locale_info 1012db58 f   libucrt:locale_update.obj
 0001:0012cb85       ___acrt_update_multibyte_info 1012db85 f   libucrt:locale_update.obj
 0001:0012cbb2       ?__acrt_fp_classify@@YA?AW4__acrt_fp_class@@ABN@Z 1012dbb2 f i libucrt:cvt.obj
 0001:0012d565       ___acrt_fp_format          1012e565 f   libucrt:cvt.obj
 0001:0012d6c1       __fileno                   1012e6c1 f   libucrt:fileno.obj
 0001:0012d6e8       __get_printf_count_output  1012e6e8 f   libucrt:printf_count_output.obj
 0001:0012d76b       ___acrt_set_locale_changed 1012e76b f   libucrt:wsetlocale.obj
 0001:0012d776       ___acrt_uninitialize_locale 1012e776 f   libucrt:wsetlocale.obj
 0001:0012d79d       ___pctype_func             1012e79d f   libucrt:ctype.obj
 0001:0012d7c1       __isctype_l                1012e7c1 f   libucrt:isctype.obj
 0001:0012d890       __CIcos                    1012e890 f   libucrt:cos_impl.obj
 0001:0012d8cb       __CIcos_default            1012e8cb f   libucrt:cos_impl.obj
 0001:0012d8df       __cos_default              1012e8df     libucrt:cos_impl.obj
 0001:0012d980       __CIcos_pentium4           1012e980 f   libucrt:cos_pentium4.obj
 0001:0012d998       __cos_pentium4             1012e998     libucrt:cos_pentium4.obj
 0001:0012db30       __CIsin                    1012eb30 f   libucrt:sin_impl.obj
 0001:0012db6b       __CIsin_default            1012eb6b f   libucrt:sin_impl.obj
 0001:0012db7f       __sin_default              1012eb7f     libucrt:sin_impl.obj
 0001:0012dc20       __CIsin_pentium4           1012ec20 f   libucrt:sin_pentium4.obj
 0001:0012dc38       __sin_pentium4             1012ec38     libucrt:sin_pentium4.obj
 0001:0012ddf0       __CItan                    1012edf0 f   libucrt:tan_impl.obj
 0001:0012de2b       __CItan_default            1012ee2b f   libucrt:tan_impl.obj
 0001:0012de3f       __tan_default              1012ee3f     libucrt:tan_impl.obj
 0001:0012dee0       __CItan_pentium4           1012eee0 f   libucrt:tan_pentium4.obj
 0001:0012def8       __tan_pentium4             1012eef8     libucrt:tan_pentium4.obj
 0001:0012e140       __frnd                     1012f140 f   libucrt:frnd.obj
 0001:0012e154       ___acrt_add_locale_ref     1012f154 f   libucrt:locale_refcounting.obj
 0001:0012e1d1       ___acrt_free_locale        1012f1d1 f   libucrt:locale_refcounting.obj
 0001:0012e319       ___acrt_locale_add_lc_time_reference 1012f319 f   libucrt:locale_refcounting.obj
 0001:0012e342       ___acrt_locale_free_lc_time_if_unreferenced 1012f342 f   libucrt:locale_refcounting.obj
 0001:0012e373       ___acrt_locale_release_lc_time_reference 1012f373 f   libucrt:locale_refcounting.obj
 0001:0012e39c       ___acrt_release_locale_ref 1012f39c f   libucrt:locale_refcounting.obj
 0001:0012e41d       ___acrt_update_thread_locale_data 1012f41d f   libucrt:locale_refcounting.obj
 0001:0012e49e       __updatetlocinfoEx_nolock  1012f49e f   libucrt:locale_refcounting.obj
 0001:0012e4ee       __query_new_mode           1012f4ee f   libucrt:new_mode.obj
 0001:0012e500       _qsort                     1012f500 f   libucrt:qsort.obj
 0001:0012eaa1       _strncpy_s                 1012faa1 f   libucrt:strncpy_s.obj
 0001:0012eab0       _strpbrk                   1012fab0 f   libucrt:strpbrk.obj
 0001:0012eaf0       __mbsdec                   1012faf0 f   libucrt:mbsdec.obj
 0001:0012eb07       __mbsdec_l                 1012fb07 f   libucrt:mbsdec.obj
 0001:0012eb94       ___acrt_GetStringTypeA     1012fb94 f   libucrt:getstringtypea.obj
 0001:0012ec97       __freea_crt                1012fc97 f i libucrt:getstringtypea.obj
 0001:0012eea1       ___acrt_LCMapStringA       1012fea1 f   libucrt:lcmapstringa.obj
 0001:0012eef9       __msize_base               1012fef9 f   libucrt:msize.obj
 0001:0012ef2c       __realloc_base             1012ff2c f   libucrt:realloc_base.obj
 0001:0012efe5       ___acrt_DownlevelLocaleNameToLCID 1012ffe5 f   libucrt:lcidtoname_downlevel.obj
 0001:0012f011       ___acrt_lowio_create_handle_array 10130011 f   libucrt:osfinfo.obj
 0001:0012f08c       ___acrt_lowio_destroy_handle_array 1013008c f   libucrt:osfinfo.obj
 0001:0012f0c1       ___acrt_lowio_ensure_fh_exists 101300c1 f   libucrt:osfinfo.obj
 0001:0012f15f       ___acrt_lowio_lock_fh      1013015f f   libucrt:osfinfo.obj
 0001:0012f182       ___acrt_lowio_unlock_fh    10130182 f   libucrt:osfinfo.obj
 0001:0012f1a5       __free_osfhnd              101301a5 f   libucrt:osfinfo.obj
 0001:0012f236       __get_osfhandle            10130236 f   libucrt:osfinfo.obj
 0001:0012f342       __commit                   10130342 f   libucrt:commit.obj
 0001:0012fb3a       __write                    10130b3a f   libucrt:write.obj
 0001:0012fc2c       __write_nolock             10130c2c f   libucrt:write.obj
 0001:0012fe06       __fcloseall                10130e06 f   libucrt:closeall.obj
 0001:0012feb1       ___acrt_stdio_free_buffer_nolock 10130eb1 f   libucrt:_freebuf.obj
 0001:0012fef1       __isatty                   10130ef1 f   libucrt:isatty.obj
 0001:0012ff47       __isleadbyte_l             10130f47 f i libucrt:_wctype.obj
 0001:0012ffad       ?__mbrtowc_utf8@__crt_mbstring@@YAIPA_WPBDIPAU_Mbstatet@@@Z 10130fad f   libucrt:mbrtowc.obj
 0001:0012ffed       ?__mbsrtowcs_utf8@__crt_mbstring@@YAIPA_WPAPBDIPAU_Mbstatet@@@Z 10130fed f   libucrt:mbrtowc.obj
 0001:001300e8       ?__c32rtomb_utf8@__crt_mbstring@@YAIPAD_UPAU_Mbstatet@@@Z 101310e8 f   libucrt:c32rtomb.obj
 0001:00130193       ?return_illegal_sequence@__crt_mbstring@@YAIPAU_Mbstatet@@@Z 10131193 f i libucrt:c32rtomb.obj
 0001:0013022c       ___acrt_fp_strflt_to_string 1013122c f   libucrt:_fptostr.obj
 0001:00130310       ?divide@__crt_strtox@@YA_KAAUbig_integer@1@ABU21@@Z 10131310 f i libucrt:cfout.obj
 0001:001307a8       ___acrt_fltout             101317a8 f   libucrt:cfout.obj
 0001:00131caf       _fegetround                10132caf f   libucrt:fegetround.obj
 0001:00131cbc       ___acrt_locale_free_monetary 10132cbc f   libucrt:initmon.obj
 0001:00131dba       ___acrt_locale_free_numeric 10132dba f   libucrt:initnum.obj
 0001:00131e5b       ___acrt_locale_free_time   10132e5b f   libucrt:inittime.obj
 0001:00131f40       __trandisp1                10132f40 f   libucrt:87disp.obj
 0001:00131fb5       __trandisp2                10132fb5 f   libucrt:87disp.obj
 0001:0013204f       __rttospopde               1013304f     libucrt:87disp.obj
 0001:00132054       __rttospop                 10133054     libucrt:87disp.obj
 0001:00132060       __rtnospop                 10133060 f   libucrt:87disp.obj
 0001:00132070       __rttosnpop                10133070 f   libucrt:87disp.obj
 0001:00132071       __rtnospopde               10133071     libucrt:87disp.obj
 0001:00132078       __rtzeropop                10133078     libucrt:87disp.obj
 0001:0013207a       __rtzeronpop               1013307a     libucrt:87disp.obj
 0001:00132080       __rtzerospop               10133080 f   libucrt:87disp.obj
 0001:0013208d       __rtonepop                 1013308d     libucrt:87disp.obj
 0001:00132090       __rtonenpop                10133090 f   libucrt:87disp.obj
 0001:001320a0       __tosnan1                  101330a0 f   libucrt:87disp.obj
 0001:001320d0       __nosnan2                  101330d0 f   libucrt:87disp.obj
 0001:001320e0       __tosnan2                  101330e0 f   libucrt:87disp.obj
 0001:00132110       __nan2                     10133110 f   libucrt:87disp.obj
 0001:00132150       __rtindfpop                10133150 f   libucrt:87disp.obj
 0001:00132152       __rtindfnpop               10133152     libucrt:87disp.obj
 0001:00132163       __rttosnpopde              10133163     libucrt:87disp.obj
 0001:00132170       __rtatan2inf               10133170 f   libucrt:87disp.obj
 0001:0013218d       __rtchsifneg               1013318d     libucrt:87disp.obj
 0001:001321a0       __twoToTOS                 101331a0 f   libucrt:common.obj
 0001:001321b5       __load_CW                  101331b5 f   libucrt:common.obj
 0001:001321cc       __convertTOStoQNaN         101331cc f   libucrt:common.obj
 0001:001321e5       __fload_withFB             101331e5 f   libucrt:common.obj
 0001:00132228       __checkTOS_withFB          10133228 f   libucrt:common.obj
 0001:0013223e       __fast_exit                1013323e f   libucrt:common.obj
 0001:0013224b       __math_exit                1013324b f   libucrt:common.obj
 0001:00132275       __check_overflow_exit      10133275 f   libucrt:common.obj
 0001:00132289       __check_range_exit         10133289 f   libucrt:common.obj
 0001:00132330       __startTwoArgErrorHandling 10133330 f   libucrt:genexcep.obj
 0001:00132347       __startOneArgErrorHandling 10133347 f   libucrt:genexcep.obj
 0001:00132383       ___strncnt                 10133383 f   libucrt:strncnt.obj
 0001:0013239f       ___ascii_wcsnicmp          1013339f f   libucrt:wcsnicmp.obj
 0001:001323ee       __query_app_type           101333ee f   libucrt:report_runtime_error.obj
 0001:00132470       __lseeki64_nolock          10133470 f   libucrt:lseek.obj
 0001:0013248b       __putwch_nolock            1013348b f   libucrt:putwch.obj
 0001:001324bd       __fclose_nolock            101334bd f   libucrt:fclose.obj
 0001:00132534       _fclose                    10133534 f   libucrt:fclose.obj
 0001:001325b8       ?__mbrtoc32_utf8@__crt_mbstring@@YAIPA_UPBDIPAU_Mbstatet@@@Z 101335b8 f   libucrt:mbrtoc32.obj
 0001:0013275f       __controlfp_s              1013375f f   libucrt:contrlfp.obj
 0001:001327be       _fegetenv                  101337be f   libucrt:fegetenv.obj
 0001:001327db       _fesetenv                  101337db f   libucrt:fesetenv.obj
 0001:00132826       _feholdexcept              10133826 f   libucrt:feholdexcept.obj
 0001:00132880       __CIlog10                  10133880 f   libucrt:log10_impl.obj
 0001:001328bb       __CIlog10_default          101338bb f   libucrt:log10_impl.obj
 0001:001328cf       __log10_default            101338cf     libucrt:log10_impl.obj
 0001:00132cad       ___acrt_fenv_get_common_round_control 10133cad f   libucrt:_fenvutils.obj
 0001:00132ccf       ___acrt_fenv_get_control   10133ccf f   libucrt:_fenvutils.obj
 0001:00132d4f       ___acrt_fenv_get_status    10133d4f f   libucrt:_fenvutils.obj
 0001:00132e07       ___acrt_fenv_set_control   10133e07 f   libucrt:_fenvutils.obj
 0001:00132e6f       ___acrt_fenv_set_status    10133e6f f   libucrt:_fenvutils.obj
 0001:00132f66       __87except                 10133f66 f   libucrt:87except.obj
 0001:00133070       ___ascii_strnicmp          10134070 f   libucrt:_strnicm.obj
 0001:001330f0       ___dcrt_lowio_ensure_console_output_initialized 101340f0 f   libucrt:initcon.obj
 0001:0013310f       ___dcrt_terminate_console_output 1013410f f   libucrt:initcon.obj
 0001:00133126       ___dcrt_write_console      10134126 f   libucrt:initcon.obj
 0001:00133207       __close                    10134207 f   libucrt:close.obj
 0001:00133294       __close_nolock             10134294 f   libucrt:close.obj
 0001:00133330       ?__acrt_stdio_free_stream@@YAXV__crt_stdio_stream@@@Z 10134330 f   libucrt:stream.obj
 0001:00133412       __clearfp                  10134412 f   libucrt:ieee87.obj
 0001:001334f0       __control87                101344f0 f   libucrt:ieee87.obj
 0001:00133890       __CIlog10_pentium4         10134890 f   libucrt:log10_pentium4.obj
 0001:001338a8       __log10_pentium4           101348a8     libucrt:log10_pentium4.obj
 0001:00133b40       __fFEXP                    10134b40 f   libucrt:87tran.obj
 0001:00133b97       __rtinfpopse               10134b97     libucrt:87tran.obj
 0001:00133b99       __rtinfnpopse              10134b99     libucrt:87tran.obj
 0001:00133ba9       __fFLN                     10134ba9     libucrt:87tran.obj
 0001:00133c5e       __rtinfpop                 10134c5e     libucrt:87tran.obj
 0001:00133c60       __rtinfnpop                10134c60     libucrt:87tran.obj
 0001:00133c70       __rtforexpinf              10134c70 f   libucrt:87tran.obj
 0001:00133c7d       __ffexpm1                  10134c7d     libucrt:87tran.obj
 0001:00133d26       __d_inttype                10134d26 f   libucrt:powhlp.obj
 0001:00133d8e       __powhlp                   10134d8e f   libucrt:powhlp.obj
 0001:00133ec0       __FindPESection            10134ec0 f   LIBCMT:pesect.obj
 0001:00133f10       __IsNonwritableInCurrentImage 10134f10 f   LIBCMT:pesect.obj
 0001:00133fd0       __ValidateImageBase        10134fd0 f   LIBCMT:pesect.obj
 0001:00134003       __EH_epilog3               10135003 f   LIBCMT:ehprolg3.obj
 0001:00134017       __EH_prolog3               10135017 f   LIBCMT:ehprolg3.obj
 0001:0013404a       __EH_prolog3_catch         1013504a f   LIBCMT:ehprolg3.obj
 0001:00134080       __aulldvrm                 10135080 f   LIBCMT:ulldvrm.obj
 0001:00134120       __allmul                   10135120 f   LIBCMT:llmul.obj
 0001:00134160       __alldvrm                  10135160 f   LIBCMT:lldvrm.obj
 0001:00134240       __allshl                   10135240 f   LIBCMT:llshl.obj
 0001:00134260       __aullshr                  10135260 f   LIBCMT:ullshr.obj
 0001:00134280       __ftol2_sse                10135280 f   LIBCMT:ftol2.obj
 0001:00134290       __ftoi2                    10135290 f   LIBCMT:ftol2.obj
 0001:00134310       _strrchr                   10135310 f   libvcruntime:strrchr.obj
 0001:00134447       __filter_x86_sse2_floating_point_exception 10135447 f   LIBCMT:x86_exception_filter.obj
 0001:00134447       __filter_x86_sse2_floating_point_exception_default 10135447 f   LIBCMT:x86_exception_filter.obj
 0002:00000000       __imp__FreeLibrary@4       10136000     kernel32:KERNEL32.dll
 0002:00000004       __imp__GetProcAddress@8    10136004     kernel32:KERNEL32.dll
 0002:00000008       __imp__LoadLibraryA@4      10136008     kernel32:KERNEL32.dll
 0002:0000000c       __imp__CloseHandle@4       1013600c     kernel32:KERNEL32.dll
 0002:00000010       __imp__RaiseException@16   10136010     kernel32:KERNEL32.dll
 0002:00000014       __imp__GetLastError@0      10136014     kernel32:KERNEL32.dll
 0002:00000018       __imp__GetSystemInfo@4     10136018     kernel32:KERNEL32.dll
 0002:0000001c       __imp__VirtualProtect@16   1013601c     kernel32:KERNEL32.dll
 0002:00000020       __imp__VirtualQuery@12     10136020     kernel32:KERNEL32.dll
 0002:00000024       __imp__GetModuleHandleW@4  10136024     kernel32:KERNEL32.dll
 0002:00000028       __imp__LoadLibraryExA@12   10136028     kernel32:KERNEL32.dll
 0002:0000002c       __imp__InitializeSListHead@4 1013602c     kernel32:KERNEL32.dll
 0002:00000030       __imp__IsProcessorFeaturePresent@4 10136030     kernel32:KERNEL32.dll
 0002:00000034       __imp__QueryPerformanceCounter@4 10136034     kernel32:KERNEL32.dll
 0002:00000038       __imp__GetCurrentProcessId@0 10136038     kernel32:KERNEL32.dll
 0002:0000003c       __imp__GetCurrentThreadId@0 1013603c     kernel32:KERNEL32.dll
 0002:00000040       __imp__GetSystemTimeAsFileTime@4 10136040     kernel32:KERNEL32.dll
 0002:00000044       __imp__IsDebuggerPresent@0 10136044     kernel32:KERNEL32.dll
 0002:00000048       __imp__UnhandledExceptionFilter@4 10136048     kernel32:KERNEL32.dll
 0002:0000004c       __imp__SetUnhandledExceptionFilter@4 1013604c     kernel32:KERNEL32.dll
 0002:00000050       __imp__GetStartupInfoW@4   10136050     kernel32:KERNEL32.dll
 0002:00000054       __imp__GetCurrentProcess@0 10136054     kernel32:KERNEL32.dll
 0002:00000058       __imp__TerminateProcess@8  10136058     kernel32:KERNEL32.dll
 0002:0000005c       __imp__InterlockedPushEntrySList@8 1013605c     kernel32:KERNEL32.dll
 0002:00000060       __imp__InterlockedFlushSList@4 10136060     kernel32:KERNEL32.dll
 0002:00000064       __imp__RtlUnwind@16        10136064     kernel32:KERNEL32.dll
 0002:00000068       __imp__SetLastError@4      10136068     kernel32:KERNEL32.dll
 0002:0000006c       __imp__EnterCriticalSection@4 1013606c     kernel32:KERNEL32.dll
 0002:00000070       __imp__LeaveCriticalSection@4 10136070     kernel32:KERNEL32.dll
 0002:00000074       __imp__DeleteCriticalSection@4 10136074     kernel32:KERNEL32.dll
 0002:00000078       __imp__InitializeCriticalSectionAndSpinCount@8 10136078     kernel32:KERNEL32.dll
 0002:0000007c       __imp__TlsAlloc@0          1013607c     kernel32:KERNEL32.dll
 0002:00000080       __imp__TlsGetValue@4       10136080     kernel32:KERNEL32.dll
 0002:00000084       __imp__TlsSetValue@8       10136084     kernel32:KERNEL32.dll
 0002:00000088       __imp__TlsFree@4           10136088     kernel32:KERNEL32.dll
 0002:0000008c       __imp__LoadLibraryExW@12   1013608c     kernel32:KERNEL32.dll
 0002:00000090       __imp__EncodePointer@4     10136090     kernel32:KERNEL32.dll
 0002:00000094       __imp__ExitProcess@4       10136094     kernel32:KERNEL32.dll
 0002:00000098       __imp__GetModuleHandleExW@12 10136098     kernel32:KERNEL32.dll
 0002:0000009c       __imp__GetModuleFileNameW@12 1013609c     kernel32:KERNEL32.dll
 0002:000000a0       __imp__DecodePointer@4     101360a0     kernel32:KERNEL32.dll
 0002:000000a4       __imp__HeapFree@12         101360a4     kernel32:KERNEL32.dll
 0002:000000a8       __imp__HeapAlloc@12        101360a8     kernel32:KERNEL32.dll
 0002:000000ac       __imp__FindClose@4         101360ac     kernel32:KERNEL32.dll
 0002:000000b0       __imp__FindFirstFileExW@24 101360b0     kernel32:KERNEL32.dll
 0002:000000b4       __imp__FindNextFileW@8     101360b4     kernel32:KERNEL32.dll
 0002:000000b8       __imp__IsValidCodePage@4   101360b8     kernel32:KERNEL32.dll
 0002:000000bc       __imp__GetACP@0            101360bc     kernel32:KERNEL32.dll
 0002:000000c0       __imp__GetOEMCP@0          101360c0     kernel32:KERNEL32.dll
 0002:000000c4       __imp__GetCPInfo@8         101360c4     kernel32:KERNEL32.dll
 0002:000000c8       __imp__GetCommandLineA@0   101360c8     kernel32:KERNEL32.dll
 0002:000000cc       __imp__GetCommandLineW@0   101360cc     kernel32:KERNEL32.dll
 0002:000000d0       __imp__MultiByteToWideChar@24 101360d0     kernel32:KERNEL32.dll
 0002:000000d4       __imp__WideCharToMultiByte@32 101360d4     kernel32:KERNEL32.dll
 0002:000000d8       __imp__GetEnvironmentStringsW@0 101360d8     kernel32:KERNEL32.dll
 0002:000000dc       __imp__FreeEnvironmentStringsW@4 101360dc     kernel32:KERNEL32.dll
 0002:000000e0       __imp__LCMapStringW@24     101360e0     kernel32:KERNEL32.dll
 0002:000000e4       __imp__GetProcessHeap@0    101360e4     kernel32:KERNEL32.dll
 0002:000000e8       __imp__GetStdHandle@4      101360e8     kernel32:KERNEL32.dll
 0002:000000ec       __imp__GetFileType@4       101360ec     kernel32:KERNEL32.dll
 0002:000000f0       __imp__GetStringTypeW@16   101360f0     kernel32:KERNEL32.dll
 0002:000000f4       __imp__HeapSize@12         101360f4     kernel32:KERNEL32.dll
 0002:000000f8       __imp__HeapReAlloc@16      101360f8     kernel32:KERNEL32.dll
 0002:000000fc       __imp__SetStdHandle@8      101360fc     kernel32:KERNEL32.dll
 0002:00000100       __imp__FlushFileBuffers@4  10136100     kernel32:KERNEL32.dll
 0002:00000104       __imp__WriteFile@20        10136104     kernel32:KERNEL32.dll
 0002:00000108       __imp__GetConsoleOutputCP@0 10136108     kernel32:KERNEL32.dll
 0002:0000010c       __imp__GetConsoleMode@8    1013610c     kernel32:KERNEL32.dll
 0002:00000110       __imp__SetFilePointerEx@20 10136110     kernel32:KERNEL32.dll
 0002:00000114       __imp__CreateFileW@28      10136114     kernel32:KERNEL32.dll
 0002:00000118       __imp__WriteConsoleW@20    10136118     kernel32:KERNEL32.dll
 0002:0000011c       \177KERNEL32_NULL_THUNK_DATA 1013611c     kernel32:KERNEL32.dll
 0002:00000120       ___guard_check_icall_fptr  10136120     LIBCMT:guard_support.obj
 0002:00000124       ___xc_a                    10136124     LIBCMT:initializers.obj
 0002:00000b24       ___xc_z                    10136b24     LIBCMT:initializers.obj
 0002:00000b28       ___xi_a                    10136b28     LIBCMT:initializers.obj
 0002:00000b2c       ___acrt_tran_sse2_initializer 10136b2c     libucrt:sse2_initializer.obj
 0002:00000b30       ___acrt_multibyte_initializer 10136b30     libucrt:multibyte_initializer.obj
 0002:00000b34       ___acrt_stdio_initializer  10136b34     libucrt:stdio_initializer.obj
 0002:00000b38       ___xi_z                    10136b38     LIBCMT:initializers.obj
 0002:00000b3c       ___xp_a                    10136b3c     LIBCMT:initializers.obj
 0002:00000b40       ___acrt_locale_terminator  10136b40     libucrt:locale_initializer.obj
 0002:00000b44       ___dcrt_console_output_terminator 10136b44     libucrt:console_output_initializer.obj
 0002:00000b48       ___acrt_stdio_terminator   10136b48     libucrt:stdio_initializer.obj
 0002:00000b4c       ___xp_z                    10136b4c     LIBCMT:initializers.obj
 0002:00000b50       ___xt_a                    10136b50     LIBCMT:initializers.obj
 0002:00000b54       ___xt_z                    10136b54     LIBCMT:initializers.obj
 0002:00000b60       ??_7PxCollection@physx@@6B@ 10136b60     CmCollection.obj
 0002:00000ba0       ??_C@_0BA@DLCJDKDM@NonTrackedAlloc@ 10136ba0     CmCollection.obj
 0002:00000bb0       ??_7Collection@Cm@physx@@6B@ 10136bb0     CmCollection.obj
 0002:00000bf0       ??_C@_0GE@GBACBMOC@PxCollection?3?3add?5called?5for?5an@ 10136bf0     CmCollection.obj
 0002:00000c58       ??_C@_0FH@ELPPFBGE@C?3?2Users?2niclas?2Downloads?2PhysX@ 10136c58     CmCollection.obj
 0002:00000cb0       ??_C@_0EM@OMMGDOMK@PxCollection?3?3add?5called?5with?5a@ 10136cb0     CmCollection.obj
 0002:00000d00       ??_C@_0GA@BPBMAOMM@C?3?2Users?2niclas?2Downloads?2PhysX@ 10136d00     CmCollection.obj
 0002:00000d60       ??_C@_0BM@OIFKLHDN@?$DMallocation?5names?5disabled?$DO@ 10136d60     CmCollection.obj
 0002:00000d80       __xmm@41f00000000000000000000000000000 10136d80     CmCollection.obj
 0002:00000d90       ??_C@_08MDGMHCHN@PtrTable@ 10136d90     CmPtrTable.obj
 0002:00000d9c       ??_C@_04GKJNKENE@void@     10136d9c     CmPtrTable.obj
 0002:00000da4       ??_C@_07DFEBJDHE@mSingle@  10136da4     CmPtrTable.obj
 0002:00000dac       ??_C@_05NLHHBMOH@PxU16@    10136dac     CmPtrTable.obj
 0002:00000db4       ??_C@_06EPKHJPIM@mCount@   10136db4     CmPtrTable.obj
 0002:00000dbc       ??_C@_04DDKJGDCM@bool@     10136dbc     CmPtrTable.obj
 0002:00000dc4       ??_C@_0M@DAGELID@mOwnsMemory@ 10136dc4     CmPtrTable.obj
 0002:00000dd0       ??_C@_0M@MMPOMMLP@mBufferUsed@ 10136dd0     CmPtrTable.obj
 0002:00000ddc       ??_7RadixSort@Cm@physx@@6B@ 10136ddc     CmRadixSort.obj
 0002:00000de0       __xmm@00000001000000010000000100000001 10136de0     CmRadixSort.obj
 0002:00000df0       __xmm@00000003000000020000000100000000 10136df0     CmRadixSort.obj
 0002:00000e00       ??_7RadixSortBuffered@Cm@physx@@6B@ 10136e00     CmRadixSortBuffered.obj
 0002:00000e08       ??_C@_0FO@EKKOPHFI@C?3?2Users?2niclas?2Downloads?2PhysX@ 10136e08     CmRadixSortBuffered.obj
 0002:00000e68       ?sBufferSize@DebugText@Cm@physx@@2HB 10136e68     CmRenderOutput.obj
 0002:00000e70       ??_C@_0FI@DEEFGMMO@C?3?2Users?2niclas?2Downloads?2PhysX@ 10136e70     CmRenderOutput.obj
 0002:00000ec8       __real@3e19999a            10136ec8     CmRenderOutput.obj
 0002:00000ecc       __real@3e800000            10136ecc     CmRenderOutput.obj
 0002:00000ed0       __real@3f3504f3            10136ed0     CmRenderOutput.obj
 0002:00000ed4       __real@3f800000            10136ed4     CmRenderOutput.obj
 0002:00000ed8       __real@3fddb3d7            10136ed8     CmRenderOutput.obj
 0002:00000edc       __real@40c90fdb            10136edc     CmRenderOutput.obj
 0002:00000ee0       __xmm@7fffffff7fffffff7fffffff7fffffff 10136ee0     CmRenderOutput.obj
 0002:00000ef0       __xmm@80000000800000008000000080000000 10136ef0     CmRenderOutput.obj
 0002:00000f00       __real@00000000            10136f00     CmVisualization.obj
 0002:00000f04       __real@3d4ccccd            10136f04     CmVisualization.obj
 0002:00000f08       __real@3e490fdb            10136f08     CmVisualization.obj
 0002:00000f0c       __real@3e99999a            10136f0c     CmVisualization.obj
 0002:00000f10       __real@3f000000            10136f10     CmVisualization.obj
 0002:00000f14       __real@3fc00000            10136f14     CmVisualization.obj
 0002:00000f20       __xmm@3f800000000000000000000000000000 10136f20     CmVisualization.obj
 0002:00000f30       ??_C@_0BB@CPDDPFKD@GetUpdatedModule@ 10136f30     CmWindowsModuleUpdateLoader.obj
 0002:00000f44       ??_C@_0BA@EGLNOO@PhysXFoundation@ 10136f44     CmWindowsDelayLoadHook.obj
 0002:00000f54       ??_C@_0M@ILKNCJKN@PhysXCommon@ 10136f54     CmWindowsDelayLoadHook.obj
 0002:00000f80       ??_C@_06EJKDJEDO@PxBase@   10136f80     GuBounds.obj
 0002:00000f88       ??_C@_0N@CDGINLLF@PxConvexMesh@ 10136f88     GuBounds.obj
 0002:00000f98       ??_C@_0O@PBAKPCEC@PxHeightField@ 10136f98     GuBounds.obj
 0002:00000fa8       ??_7PxBase@physx@@6B@      10136fa8     GuBounds.obj
 0002:00000fbc       ??_C@_0DG@DFOCGHP@Gu?3?3GeometryUnion?3?3computeBound@ 10136fbc     GuBounds.obj
 0002:00000ff8       ??_C@_0FG@IONMCPHK@C?3?2Users?2niclas?2Downloads?2PhysX@ 10136ff8     GuBounds.obj
 0002:00001050       __real@358637bd            10137050     GuBounds.obj
 0002:00001054       __real@3a83126f            10137054     GuBounds.obj
 0002:00001058       __real@3f400000            10137058     GuBounds.obj
 0002:0000105c       __real@3f7fffef            1013705c     GuBounds.obj
 0002:00001060       __real@3f8147ae            10137060     GuBounds.obj
 0002:00001064       __real@7e7fffff            10137064     GuBounds.obj
 0002:00001068       __real@7f7fffff            10137068     GuBounds.obj
 0002:0000106c       __real@ba83126f            1013706c     GuBounds.obj
 0002:00001070       __real@fe7fffff            10137070     GuBounds.obj
 0002:00001080       __xmm@000000003a83126f3a83126f3a83126f 10137080     GuBounds.obj
 0002:00001090       __xmm@00000000ba83126fba83126fba83126f 10137090     GuBounds.obj
 0002:000010c0       __real@3f7ff972            101370c0     GuBox.obj
 0002:000010f0       ??_7?$EntityReport@I@Gu@physx@@6B@ 101370f0     GuCCTSweepTests.obj
 0002:00001100       __real@3b03126f            10137100     GuCCTSweepTests.obj
 0002:00001104       __real@40000000            10137104     GuCCTSweepTests.obj
 0002:00001108       __real@4b000000            10137108     GuCCTSweepTests.obj
 0002:0000110c       __real@80000000            1013710c     GuCCTSweepTests.obj
 0002:00001130       __real@38d1b717            10137130     GuGeometryQuery.obj
 0002:00001134       __real@49742400            10137134     GuGeometryQuery.obj
 0002:00001160       ??_C@_0FL@KAABNMLB@C?3?2Users?2niclas?2Downloads?2PhysX@ 10137160     GuGeometryUnion.obj
 0002:00001200       ??_7GuMeshFactory@physx@@6B@ 10137200     GuMeshFactory.obj
 0002:00001204       ??_7MeshDataBase@Gu@physx@@6B@ 10137204     GuMeshFactory.obj
 0002:00001208       ??_C@_0FL@KGEEJDBL@C?3?2Users?2niclas?2Downloads?2PhysX@ 10137208     GuMeshFactory.obj
 0002:00001264       ??_7TriangleMeshData@Gu@physx@@6B@ 10137264     GuMeshFactory.obj
 0002:00001268       ??_7RTreeTriangleData@Gu@physx@@6B@ 10137268     GuMeshFactory.obj
 0002:0000126c       ??_7BV4TriangleData@Gu@physx@@6B@ 1013726c     GuMeshFactory.obj
 0002:00001270       ??_C@_0FL@EIJCJNJM@C?3?2Users?2niclas?2Downloads?2PhysX@ 10137270     GuMeshFactory.obj
 0002:000012d0       ??_C@_0GP@NHELMDAL@Loading?5triangle?5mesh?5failed?3?5D@ 101372d0     GuMeshFactory.obj
 0002:00001340       ??_C@_0BP@CDOKDACA@RTree?5binary?5image?5load?5error?4@ 10137340     GuMeshFactory.obj
 0002:00001360       ??_C@_0BN@MJPNIELF@BV4?5binary?5image?5load?5error?4@ 10137360     GuMeshFactory.obj
 0002:00001380       ??_C@_0BO@JDPABAOF@BV32?5binary?5image?5load?5error?4@ 10137380     GuMeshFactory.obj
 0002:000013a0       ??_C@_0FI@DNCIGFLH@C?3?2Users?2niclas?2Downloads?2PhysX@ 101373a0     GuMeshFactory.obj
 0002:00001420       ??_C@_0P@GGNFNHKF@PxTriangleMesh@ 10137420     GuMetaData.obj
 0002:00001430       ??_C@_07GFCEJNGM@Valency@  10137430     GuMetaData.obj
 0002:00001438       ??_C@_07NHGKEEIN@mOffset@  10137438     GuMetaData.obj
 0002:00001440       ??_C@_0BB@BAGHBMNJ@BigConvexRawData@ 10137440     GuMetaData.obj
 0002:00001454       ??_C@_07PBDEJAAC@mSubdiv@  10137454     GuMetaData.obj
 0002:0000145c       ??_C@_0L@HNPACPGH@mNbSamples@ 1013745c     GuMetaData.obj
 0002:00001468       ??_C@_04NCKNBPPK@PxU8@     10137468     GuMetaData.obj
 0002:00001470       ??_C@_08DEPEKJNI@mSamples@ 10137470     GuMetaData.obj
 0002:0000147c       ??_C@_05LMJPANIN@PxU32@    1013747c     GuMetaData.obj
 0002:00001484       ??_C@_08IJDNJBMI@mNbVerts@ 10137484     GuMetaData.obj
 0002:00001490       ??_C@_0M@MMKMIJAF@mNbAdjVerts@ 10137490     GuMetaData.obj
 0002:0000149c       ??_C@_0L@EOKMNILC@mValencies@ 1013749c     GuMetaData.obj
 0002:000014a8       ??_C@_0P@DLGEAMHJ@mAdjacentVerts@ 101374a8     GuMetaData.obj
 0002:000014b8       ??_C@_0O@PFOPBKAM@BigConvexData@ 101374b8     GuMetaData.obj
 0002:000014c8       ??_C@_05PLKALGFN@mData@    101374c8     GuMetaData.obj
 0002:000014d0       ??_C@_08PEMCLHEM@mVBuffer@ 101374d0     GuMetaData.obj
 0002:000014dc       ??_C@_09FBMAGD@Alignment@  101374dc     GuMetaData.obj
 0002:000014e8       ??_C@_0BE@KFHIBEEA@InternalObjectsData@ 101374e8     GuMetaData.obj
 0002:000014fc       ??_C@_06GIEBFILM@PxReal@   101374fc     GuMetaData.obj
 0002:00001504       ??_C@_07NKGFFIBH@mRadius@  10137504     GuMetaData.obj
 0002:0000150c       ??_C@_08EHFCACAE@mExtents@ 1013750c     GuMetaData.obj
 0002:00001518       ??_C@_0BA@LFMGGCBK@HullPolygonData@ 10137518     GuMetaData.obj
 0002:00001528       ??_C@_06BOHHGLB@mPlane@    10137528     GuMetaData.obj
 0002:00001530       ??_C@_06EHMLHGLN@mVRef8@   10137530     GuMetaData.obj
 0002:00001538       ??_C@_09BAHHHINI@mMinIndex@ 10137538     GuMetaData.obj
 0002:00001544       ??_C@_0P@GBLBPIPB@ConvexHullData@ 10137544     GuMetaData.obj
 0002:00001554       ??_C@_09JDCJAPKD@PxBounds3@ 10137554     GuMetaData.obj
 0002:00001560       ??_C@_05NDNHIFA@mAABB@     10137560     GuMetaData.obj
 0002:00001568       ??_C@_06KDGGGLIJ@PxVec3@   10137568     GuMetaData.obj
 0002:00001570       ??_C@_0O@LNOGEMJI@mCenterOfMass@ 10137570     GuMetaData.obj
 0002:00001580       ??_C@_09CNMCBBKH@mPolygons@ 10137580     GuMetaData.obj
 0002:0000158c       ??_C@_0BC@KKPDCFJC@mBigConvexRawData@ 1013758c     GuMetaData.obj
 0002:000015a0       ??_C@_08ELDMKGKH@mNbEdges@ 101375a0     GuMetaData.obj
 0002:000015ac       ??_C@_0BA@CGLOHBAC@mNbHullVertices@ 101375ac     GuMetaData.obj
 0002:000015bc       ??_C@_0M@HGFFLLDM@mNbPolygons@ 101375bc     GuMetaData.obj
 0002:000015c8       ??_C@_09BHJEMDGO@mInternal@ 101375c8     GuMetaData.obj
 0002:000015d4       ??_C@_0L@GMFHOMKA@ConvexMesh@ 101375d4     GuMetaData.obj
 0002:000015e0       ??_C@_0N@KECKKFLK@RefCountable@ 101375e0     GuMetaData.obj
 0002:000015f0       ??_C@_09ILEBDLJH@mHullData@ 101375f0     GuMetaData.obj
 0002:000015fc       ??_C@_03DKDIKGNC@mNb@      101375fc     GuMetaData.obj
 0002:00001600       ??_C@_0P@ENLHFHMD@mBigConvexData@ 10137600     GuMetaData.obj
 0002:00001610       ??_C@_05ILALLCHK@mMass@    10137610     GuMetaData.obj
 0002:00001618       ??_C@_07DBPDADGB@PxMat33@  10137618     GuMetaData.obj
 0002:00001620       ??_C@_08FNBHNDBI@mInertia@ 10137620     GuMetaData.obj
 0002:0000162c       ??_C@_0O@FCKNKLMJ@GuMeshFactory@ 1013762c     GuMetaData.obj
 0002:0000163c       ??_C@_0N@EGBCLMAK@mMeshFactory@ 1013763c     GuMetaData.obj
 0002:0000164c       ??_C@_0BE@CJJAMAMK@PxHeightFieldSample@ 1013764c     GuMetaData.obj
 0002:00001660       ??_C@_05MBLIPEMA@PxI16@    10137660     GuMetaData.obj
 0002:00001668       ??_C@_06LNLHEAAG@height@   10137668     GuMetaData.obj
 0002:00001670       ??_C@_0N@HHDGHJN@PxBitAndByte@ 10137670     GuMetaData.obj
 0002:00001680       ??_C@_0P@MBBMLBO@materialIndex0@ 10137680     GuMetaData.obj
 0002:00001690       ??_C@_0P@BFAKPKFP@materialIndex1@ 10137690     GuMetaData.obj
 0002:000016a0       ??_C@_0BD@EBLPJEOE@PxHeightFieldFlags@ 101376a0     GuMetaData.obj
 0002:000016b4       ??_C@_0BK@FNNCFFCN@PxHeightFieldFormat?3?3Enum@ 101376b4     GuMetaData.obj
 0002:000016d0       ??_C@_0BA@CLNFMAAA@HeightFieldData@ 101376d0     GuMetaData.obj
 0002:000016e0       ??_C@_04IMCGAIPI@rows@     101376e0     GuMetaData.obj
 0002:000016e8       ??_C@_07HIFEPIJN@columns@  101376e8     GuMetaData.obj
 0002:000016f0       ??_C@_08MOAGOABI@rowLimit@ 101376f0     GuMetaData.obj
 0002:000016fc       ??_C@_08BAGEHOBO@colLimit@ 101376fc     GuMetaData.obj
 0002:00001708       ??_C@_09LKDBLADF@nbColumns@ 10137708     GuMetaData.obj
 0002:00001714       ??_C@_07ODIFGGLK@samples@  10137714     GuMetaData.obj
 0002:0000171c       ??_C@_0BE@POHEGOJG@convexEdgeThreshold@ 1013771c     GuMetaData.obj
 0002:00001730       ??_C@_05GECEPKB@flags@     10137730     GuMetaData.obj
 0002:00001738       ??_C@_06DLEPGFEF@format@   10137738     GuMetaData.obj
 0002:00001740       ??_C@_0BF@MOGDNMPL@PxMaterialTableIndex@ 10137740     GuMetaData.obj
 0002:00001758       ??_C@_0M@JMJICJJO@HeightField@ 10137758     GuMetaData.obj
 0002:00001764       ??_C@_0O@ENGHMLJP@mSampleStride@ 10137764     GuMetaData.obj
 0002:00001774       ??_C@_0L@EBEEMFFB@mMinHeight@ 10137774     GuMetaData.obj
 0002:00001780       ??_C@_0L@EAEIFPOF@mMaxHeight@ 10137780     GuMetaData.obj
 0002:0000178c       ??_C@_0N@FEFJOKKE@mModifyCount@ 1013778c     GuMetaData.obj
 0002:0000179c       ??_C@_09PHDKHCK@RTreePage@ 1013779c     GuMetaData.obj
 0002:000017a8       ??_C@_04LLPOBGED@minx@     101377a8     GuMetaData.obj
 0002:000017b0       ??_C@_04KCOFCHAC@miny@     101377b0     GuMetaData.obj
 0002:000017b8       ??_C@_04IJMIHEMB@minz@     101377b8     GuMetaData.obj
 0002:000017c0       ??_C@_04GGOBOBGO@maxx@     101377c0     GuMetaData.obj
 0002:000017c8       ??_C@_04HPPKNACP@maxy@     101377c8     GuMetaData.obj
 0002:000017d0       ??_C@_04FENHIDOM@maxz@     101377d0     GuMetaData.obj
 0002:000017d8       ??_C@_04HHDFEJON@ptrs@     101377d8     GuMetaData.obj
 0002:000017e0       ??_C@_05FFEIGAJF@RTree@    101377e0     GuMetaData.obj
 0002:000017e8       ??_C@_06OMCHPNEO@PxVec4@   101377e8     GuMetaData.obj
 0002:000017f0       ??_C@_0L@NBIFEFLN@mBoundsMin@ 101377f0     GuMetaData.obj
 0002:000017fc       ??_C@_0L@MDAOKBNC@mBoundsMax@ 101377fc     GuMetaData.obj
 0002:00001808       ??_C@_0N@NJEHLCOF@mInvDiagonal@ 10137808     GuMetaData.obj
 0002:00001818       ??_C@_0BA@BEFIGPFG@mDiagonalScaler@ 10137818     GuMetaData.obj
 0002:00001828       ??_C@_09DICGGKGO@mPageSize@ 10137828     GuMetaData.obj
 0002:00001834       ??_C@_0O@BOFFCNOL@mNumRootPages@ 10137834     GuMetaData.obj
 0002:00001844       ??_C@_0L@JKLGBKAE@mNumLevels@ 10137844     GuMetaData.obj
 0002:00001850       ??_C@_0M@PHDOHJGK@mTotalNodes@ 10137850     GuMetaData.obj
 0002:0000185c       ??_C@_0M@GDGHALAO@mTotalPages@ 1013785c     GuMetaData.obj
 0002:00001868       ??_C@_06MHCBBJGP@mFlags@   10137868     GuMetaData.obj
 0002:00001870       ??_C@_06MMNBLHOK@mPages@   10137870     GuMetaData.obj
 0002:00001878       ??_C@_0L@LEOGNOEC@SourceMesh@ 10137878     GuMetaData.obj
 0002:00001884       ??_C@_06JFCLJMNN@mVerts@   10137884     GuMetaData.obj
 0002:0000188c       ??_C@_07MPIKOOAP@mNbTris@  1013788c     GuMetaData.obj
 0002:00001894       ??_C@_0N@FBMOMEHF@mTriangles32@ 10137894     GuMetaData.obj
 0002:000018a4       ??_C@_0N@DGCGNFBP@mTriangles16@ 101378a4     GuMetaData.obj
 0002:000018b4       ??_C@_06DHAAKLFK@mRemap@   101378b4     GuMetaData.obj
 0002:000018bc       ??_C@_0O@NLNHFNO@QuantizedAABB@ 101378bc     GuMetaData.obj
 0002:000018cc       ??_C@_0BC@OOGBEMHH@mData?$FL0?$FN?4mExtents@ 101378cc     GuMetaData.obj
 0002:000018e0       ??_C@_0BB@OCEDKIEF@mData?$FL0?$FN?4mCenter@ 101378e0     GuMetaData.obj
 0002:000018f4       ??_C@_0BC@HFMEAABI@mData?$FL1?$FN?4mExtents@ 101378f4     GuMetaData.obj
 0002:00001908       ??_C@_0BB@CDMNHHIF@mData?$FL1?$FN?4mCenter@ 10137908     GuMetaData.obj
 0002:0000191c       ??_C@_0BC@CFKNCOI@mData?$FL2?$FN?4mExtents@ 1013791c     GuMetaData.obj
 0002:00001930       ??_C@_0BB@LKCPBBIE@mData?$FL2?$FN?4mCenter@ 10137930     GuMetaData.obj
 0002:00001944       ??_C@_0O@MJJKKPFN@BVDataPackedQ@ 10137944     GuMetaData.obj
 0002:00001954       ??_C@_0M@PNCEBOG@LocalBounds@ 10137954     GuMetaData.obj
 0002:00001960       ??_C@_07GNKDIIKJ@mCenter@  10137960     GuMetaData.obj
 0002:00001968       ??_C@_05KNFBNCOH@float@    10137968     GuMetaData.obj
 0002:00001970       ??_C@_0BC@LADJKHPL@mExtentsMagnitude@ 10137970     GuMetaData.obj
 0002:00001984       ??_C@_07HELIOLAF@BV4Tree@  10137984     GuMetaData.obj
 0002:0000198c       ??_C@_0P@EMMDNPMH@mMeshInterface@ 1013798c     GuMetaData.obj
 0002:0000199c       ??_C@_0N@DCKMHLCL@mLocalBounds@ 1013799c     GuMetaData.obj
 0002:000019ac       ??_C@_08EEJOMIJL@mNbNodes@ 101379ac     GuMetaData.obj
 0002:000019b8       ??_C@_09FGKNPI@mInitData@  101379b8     GuMetaData.obj
 0002:000019c4       ??_C@_0BC@CLDEHKCO@mCenterOrMinCoeff@ 101379c4     GuMetaData.obj
 0002:000019d8       ??_C@_0BD@LAOLBNJ@mExtentsOrMaxCoeff@ 101379d8     GuMetaData.obj
 0002:000019ec       ??_C@_0P@JEECKKBL@mUserAllocated@ 101379ec     GuMetaData.obj
 0002:000019fc       ??_C@_0L@GLIMNECG@mQuantized@ 101379fc     GuMetaData.obj
 0002:00001a08       ??_C@_08BNDBAGDH@mPadding@ 10137a08     GuMetaData.obj
 0002:00001a14       ??_C@_0N@OJNNNLIB@TriangleMesh@ 10137a14     GuMetaData.obj
 0002:00001a24       ??_C@_0M@OGEDMEAL@mNbVertices@ 10137a24     GuMetaData.obj
 0002:00001a30       ??_C@_0N@MGGDNHNI@mNbTriangles@ 10137a30     GuMetaData.obj
 0002:00001a40       ??_C@_09LNNEGOJA@mVertices@ 10137a40     GuMetaData.obj
 0002:00001a4c       ??_C@_0L@KBOFAKLO@mTriangles@ 10137a4c     GuMetaData.obj
 0002:00001a58       ??_C@_0P@MHDFIHLD@mExtraTrigData@ 10137a58     GuMetaData.obj
 0002:00001a68       ??_C@_0N@MGIKKCI@mGeomEpsilon@ 10137a68     GuMetaData.obj
 0002:00001a78       ??_C@_0BB@IFLOOCNA@mMaterialIndices@ 10137a78     GuMetaData.obj
 0002:00001a8c       ??_C@_0L@OPJMBFMI@mFaceRemap@ 10137a8c     GuMetaData.obj
 0002:00001a98       ??_C@_0N@BIOECAPM@mAdjacencies@ 10137a98     GuMetaData.obj
 0002:00001aa8       ??_C@_0BA@OCOIGPII@mGRB_triIndices@ 10137aa8     GuMetaData.obj
 0002:00001ab8       ??_C@_0BE@JPINNDAH@mGRB_triAdjacencies@ 10137ab8     GuMetaData.obj
 0002:00001acc       ??_C@_0P@EDFJJHEF@mGRB_faceRemap@ 10137acc     GuMetaData.obj
 0002:00001adc       ??_C@_0O@CKMBAIFN@mGRB_BV32Tree@ 10137adc     GuMetaData.obj
 0002:00001aec       ??_C@_0BC@IFGECKF@RTreeTriangleMesh@ 10137aec     GuMetaData.obj
 0002:00001b00       ??_C@_06JDIHDDGN@mRTree@   10137b00     GuMetaData.obj
 0002:00001b08       ??_C@_0BA@LNNFPOKA@BV4TriangleMesh@ 10137b08     GuMetaData.obj
 0002:00001b18       ??_C@_08FKLPEGDB@mBV4Tree@ 10137b18     GuMetaData.obj
 0002:00001b24       ??_C@_0BG@EAPGHGEI@MaterialIndicesStruct@ 10137b24     GuMetaData.obj
 0002:00001b3c       ??_C@_07OKCKIPNN@indices@  10137b3c     GuMetaData.obj
 0002:00001b44       ??_C@_0L@KCBHBGBP@numIndices@ 10137b44     GuMetaData.obj
 0002:00001b50       ??_C@_03PNAAIPML@pad@      10137b50     GuMetaData.obj
 0002:00001b54       ??_C@_0BK@GNJGHDGO@PxConvexMeshGeometryFlags@ 10137b54     GuMetaData.obj
 0002:00001b70       ??_C@_0BJ@LIOOOKID@ShadowConvexMeshGeometry@ 10137b70     GuMetaData.obj
 0002:00001b8c       ??_C@_0BF@PJFPGDNP@PxGeometryType?3?3Enum@ 10137b8c     GuMetaData.obj
 0002:00001ba4       ??_C@_05GNIIDDHH@mType@    10137ba4     GuMetaData.obj
 0002:00001bac       ??_C@_0M@JFNDEGCE@PxMeshScale@ 10137bac     GuMetaData.obj
 0002:00001bb8       ??_C@_05MHMEBBGO@scale@    10137bb8     GuMetaData.obj
 0002:00001bc0       ??_C@_0L@OKMLGDHH@convexMesh@ 10137bc0     GuMetaData.obj
 0002:00001bcc       ??_C@_09PLMNFMJI@meshFlags@ 10137bcc     GuMetaData.obj
 0002:00001bd8       ??_C@_0BB@EINMAHMD@paddingFromFlags@ 10137bd8     GuMetaData.obj
 0002:00001bec       ??_C@_08CICKEKCM@hullData@ 10137bec     GuMetaData.obj
 0002:00001bf8       ??_C@_0O@EOELHBFF@gpuCompatible@ 10137bf8     GuMetaData.obj
 0002:00001c08       ??_C@_0BE@FFPGAPHN@PxMeshGeometryFlags@ 10137c08     GuMetaData.obj
 0002:00001c1c       ??_C@_0BL@KABFLNEB@ShadowTriangleMeshGeometry@ 10137c1c     GuMetaData.obj
 0002:00001c38       ??_C@_0N@FKKDJAHE@triangleMesh@ 10137c38     GuMetaData.obj
 0002:00001c48       ??_C@_08BEABJAHJ@meshData@ 10137c48     GuMetaData.obj
 0002:00001c54       ??_C@_0BA@NGIONHFJ@materialIndices@ 10137c54     GuMetaData.obj
 0002:00001c64       ??_C@_09JGGNEAGH@materials@ 10137c64     GuMetaData.obj
 0002:00001c70       ??_C@_0BK@OIFEOHNJ@ShadowHeightFieldGeometry@ 10137c70     GuMetaData.obj
 0002:00001c8c       ??_C@_0M@IEKJPCGG@heightField@ 10137c8c     GuMetaData.obj
 0002:00001c98       ??_C@_0M@LHLNPPJ@heightScale@ 10137c98     GuMetaData.obj
 0002:00001ca4       ??_C@_08GJPCBGLE@rowScale@ 10137ca4     GuMetaData.obj
 0002:00001cb0       ??_C@_0M@HHBHEPCE@columnScale@ 10137cb0     GuMetaData.obj
 0002:00001cbc       ??_C@_0BB@PMIIHDKK@heightFieldFlags@ 10137cbc     GuMetaData.obj
 0002:00001cd0       ??_C@_0BA@DMOKLLHN@heightFieldData@ 10137cd0     GuMetaData.obj
 0002:00001ce0       ??_C@_0BE@IKADPPC@ShadowPlaneGeometry@ 10137ce0     GuMetaData.obj
 0002:00001cf4       ??_C@_0BF@PIKLLBGN@ShadowSphereGeometry@ 10137cf4     GuMetaData.obj
 0002:00001d0c       ??_C@_06KGHINEPG@radius@   10137d0c     GuMetaData.obj
 0002:00001d14       ??_C@_0BG@OBHJHKMO@ShadowCapsuleGeometry@ 10137d14     GuMetaData.obj
 0002:00001d2c       ??_C@_0L@PMAANELH@halfHeight@ 10137d2c     GuMetaData.obj
 0002:00001d38       ??_C@_0BC@DMJNHLLO@ShadowBoxGeometry@ 10137d38     GuMetaData.obj
 0002:00001d4c       ??_C@_0M@CMAEPJOI@halfExtents@ 10137d4c     GuMetaData.obj
 0002:00001d58       ??_C@_0BH@PKALDLFA@PxConvexMeshGeometryLL@ 10137d58     GuMetaData.obj
 0002:00001d70       ??_C@_0BJ@GAFBNAAE@PxTriangleMeshGeometryLL@ 10137d70     GuMetaData.obj
 0002:00001d8c       ??_C@_0BI@IIFLCNOC@PxHeightFieldGeometryLL@ 10137d8c     GuMetaData.obj
 0002:00001da4       ??_C@_0BA@NAHKMBFO@PxPlaneGeometry@ 10137da4     GuMetaData.obj
 0002:00001db4       ??_C@_0BB@CHBDIEFA@PxSphereGeometry@ 10137db4     GuMetaData.obj
 0002:00001dc8       ??_C@_0BC@LJMOIOOK@PxCapsuleGeometry@ 10137dc8     GuMetaData.obj
 0002:00001ddc       ??_C@_0O@OEDJDNFP@PxBoxGeometry@ 10137ddc     GuMetaData.obj
 0002:00001dec       ??_C@_0BC@ICOOCLFG@Gu?3?3GeometryUnion@ 10137dec     GuMetaData.obj
 0002:00001e20       ??_7?$SupportLocalImpl@VConvexHullV@Gu@physx@@@Gu@physx@@6B@ 10137e20     GuMTD.obj
 0002:00001e30       ??_7?$SupportLocalImpl@VConvexHullNoScaleV@Gu@physx@@@Gu@physx@@6B@ 10137e30     GuMTD.obj
 0002:00001e40       ??_7?$SupportLocalImpl@VBoxV@Gu@physx@@@Gu@physx@@6B@ 10137e40     GuMTD.obj
 0002:00001e50       ??_7SupportLocal@Gu@physx@@6B@ 10137e50     GuMTD.obj
 0002:00001e60       ?absMask@?1??FAbs@aos@shdfnd@physx@@YA?AT__m128@@T5@@Z@4QBIB 10137e60     GuMTD.obj
 0002:00001e70       ??_7GjkConvexBase@Gu@physx@@6B@ 10137e70     GuMTD.obj
 0002:00001e88       ??_7?$LocalConvex@VCapsuleV@Gu@physx@@@Gu@physx@@6B@ 10137e88     GuMTD.obj
 0002:00001ea0       ??_7?$LocalConvex@VConvexHullV@Gu@physx@@@Gu@physx@@6B@ 10137ea0     GuMTD.obj
 0002:00001eb8       __real@2edbe6ff            10137eb8     GuMTD.obj
 0002:00001ebc       __real@34000000            10137ebc     GuMTD.obj
 0002:00001ec0       __real@396bedfa            10137ec0     GuMTD.obj
 0002:00001ec4       __real@3ccccccd            10137ec4     GuMTD.obj
 0002:00001ec8       __real@3dcccccd            10137ec8     GuMTD.obj
 0002:00001ecc       __real@3e4ccccd            10137ecc     GuMTD.obj
 0002:00001ed0       __real@3f7ff2e5            10137ed0     GuMTD.obj
 0002:00001ed4       __real@bf000000            10137ed4     GuMTD.obj
 0002:00001ed8       __real@bf800000            10137ed8     GuMTD.obj
 0002:00001edc       __real@ff7fffff            10137edc     GuMTD.obj
 0002:00001ee0       __xmm@0000000000000000000000003f800000 10137ee0     GuMTD.obj
 0002:00001ef0       __xmm@00000000000000003f80000000000000 10137ef0     GuMTD.obj
 0002:00001f00       __xmm@000000003f8000000000000000000000 10137f00     GuMTD.obj
 0002:00001f10       __xmm@000000003f8000003f8000003f800000 10137f10     GuMTD.obj
 0002:00001f20       __xmm@00000000ffffffffffffffffffffffff 10137f20     GuMTD.obj
 0002:00001f50       ??_7?$RelativeConvex@VBoxV@Gu@physx@@@Gu@physx@@6B@ 10137f50     GuOverlapTests.obj
 0002:00001f68       ??_7?$RelativeConvex@VConvexHullV@Gu@physx@@@Gu@physx@@6B@ 10137f68     GuOverlapTests.obj
 0002:00001f80       ??_C@_0EC@MLIJOGHA@Height?5Field?5Overlap?5test?5calle@ 10137f80     GuOverlapTests.obj
 0002:00001fc8       ??_C@_0FM@IEOEJLEM@C?3?2Users?2niclas?2Downloads?2PhysX@ 10137fc8     GuOverlapTests.obj
 0002:00002058       ??_C@_0EC@GJLDADPE@Height?5Field?5Raycast?5test?5calle@ 10138058     GuRaycastTests.obj
 0002:000020a0       ??_C@_0FM@HHCJOMOG@C?3?2Users?2niclas?2Downloads?2PhysX@ 101380a0     GuRaycastTests.obj
 0002:000020fc       __real@1e3ce508            101380fc     GuRaycastTests.obj
 0002:00002100       __real@28800000            10138100     GuRaycastTests.obj
 0002:00002104       __real@33d6bf95            10138104     GuRaycastTests.obj
 0002:00002108       __real@3727c5ac            10138108     GuRaycastTests.obj
 0002:0000210c       __real@3f0147ae            1013810c     GuRaycastTests.obj
 0002:00002110       __real@3f7ffffe            10138110     GuRaycastTests.obj
 0002:00002114       __real@3f800347            10138114     GuRaycastTests.obj
 0002:00002118       __real@41200000            10138118     GuRaycastTests.obj
 0002:0000211c       __real@b3d6bf95            1013811c     GuRaycastTests.obj
 0002:00002120       __real@b8d1b717            10138120     GuRaycastTests.obj
 0002:00002158       ??_7?$MeshHitCallback@UPxRaycastHit@physx@@@Gu@physx@@6B@ 10138158     GuSweepMTD.obj
 0002:00002160       ??_7MeshMTDGenerationCallback@@6B@ 10138160     GuSweepMTD.obj
 0002:00002168       ??_7MidPhaseQueryLocalReport@@6B@ 10138168     GuSweepMTD.obj
 0002:00002170       __real@3f933333            10138170     GuSweepMTD.obj
 0002:000021a0       __real@3c23d70a            101381a0     GuSweepSharedTests.obj
 0002:000021a4       __real@42c80000            101381a4     GuSweepSharedTests.obj
 0002:000021b0       __xmm@ffffffffffffffffffffffffffffffff 101381b0     GuSweepSharedTests.obj
 0002:000021e0       ??_C@_0EA@GNDJNJGB@Height?5Field?5Sweep?5test?5called?5@ 101381e0     GuSweepTests.obj
 0002:00002220       ??_C@_0FK@LAFMIMLK@C?3?2Users?2niclas?2Downloads?2PhysX@ 10138220     GuSweepTests.obj
 0002:0000227c       ??_7?$LocalConvex@VBoxV@Gu@physx@@@Gu@physx@@6B@ 1013827c     GuSweepTests.obj
 0002:00002294       ??_7?$LocalConvex@VTriangleV@Gu@physx@@@Gu@physx@@6B@ 10138294     GuSweepTests.obj
 0002:000022ac       __real@3eaaaa9f            101382ac     GuSweepTests.obj
 0002:000022d0       ??_C@_0FN@HOFPANJB@C?3?2Users?2niclas?2Downloads?2PhysX@ 101382d0     GuAABBTreeBuild.obj
 0002:00002350       ??_7PxBVHStructure@physx@@6B@ 10138350     GuBVHStructure.obj
 0002:00002378       ??_C@_0P@CDPKBIIF@PxBVHStructure@ 10138378     GuBVHStructure.obj
 0002:00002388       ??_7RefCountable@Cm@physx@@6B@ 10138388     GuBVHStructure.obj
 0002:00002390       ??_7BVHStructure@Gu@physx@@6BPxBVHStructure@2@@ 10138390     GuBVHStructure.obj
 0002:000023b8       ??_7BVHStructure@Gu@physx@@6BRefCountable@Cm@2@@ 101383b8     GuBVHStructure.obj
 0002:000023c0       ??_C@_0FM@LEGCKO@C?3?2Users?2niclas?2Downloads?2PhysX@ 101383c0     GuBVHStructure.obj
 0002:0000241c       ??_C@_0DF@GMOKOMPK@Gu?3?3BVHStructure?3?3release?3?5doub@ 1013841c     GuBVHStructure.obj
 0002:000024a0       __real@3c343958            101384a0     GuCCDSweepConvexMesh.obj
 0002:000024a4       __real@3ca3d70a            101384a4     GuCCDSweepConvexMesh.obj
 0002:000024a8       __real@3f0ccccd            101384a8     GuCCDSweepConvexMesh.obj
 0002:000024ac       __real@3f8ccccd            101384ac     GuCCDSweepConvexMesh.obj
 0002:000024b0       __real@b58637bd            101384b0     GuCCDSweepConvexMesh.obj
 0002:000024c0       __xmm@00000000000000003f8000003f800000 101384c0     GuCCDSweepConvexMesh.obj
 0002:000024d0       __xmm@0000000000000000fe7ffffffe7fffff 101384d0     GuCCDSweepConvexMesh.obj
 0002:000024e0       __xmm@fe7fffff7e7fffff7e7fffff7e7fffff 101384e0     GuCCDSweepConvexMesh.obj
 0002:00002510       ??_7?$RelativeConvex@VCapsuleV@Gu@physx@@@Gu@physx@@6B@ 10138510     GuCCDSweepPrimitives.obj
 0002:00002528       ??_7?$RelativeConvex@VTriangleV@Gu@physx@@@Gu@physx@@6B@ 10138528     GuCCDSweepPrimitives.obj
 0002:00002540       __real@3ba3d70a            10138540     GuCCDSweepPrimitives.obj
 0002:00002544       __real@501502f9            10138544     GuCCDSweepPrimitives.obj
 0002:00002650       __real@3f7fbe77            10138650     GuContactBoxBox.obj
 0002:000026a0       __real@40800000            101386a0     GuContactCapsuleCapsule.obj
 0002:000026a4       __real@c0000000            101386a4     GuContactCapsuleCapsule.obj
 0002:00002710       __real@358637be            10138710     GuContactCapsuleMesh.obj
 0002:00002714       __real@3eaaaaab            10138714     GuContactCapsuleMesh.obj
 0002:00002718       __real@3f8020c5            10138718     GuContactCapsuleMesh.obj
 0002:00002768       ??_7ConvexMeshContactGenerationCallback@@6B@ 10138768     GuContactConvexMesh.obj
 0002:000027e0       __real@3ec90fdb            101387e0     GuContactPolygonPolygon.obj
 0002:00002870       ??_C@_0FH@IPMCDALK@C?3?2Users?2niclas?2Downloads?2PhysX@ 10138870     GuContactSphereMesh.obj
 0002:00002910       ??_C@_0GE@ICHECEEG@C?3?2Users?2niclas?2Downloads?2PhysX@ 10138910     GuBigConvexData.obj
 0002:000029a0       ??_7PxConvexMesh@physx@@6B@ 101389a0     GuConvexMesh.obj
 0002:000029dc       ??_7ConvexMesh@Gu@physx@@6BPxConvexMesh@2@@ 101389dc     GuConvexMesh.obj
 0002:00002a20       ??_7ConvexMesh@Gu@physx@@6BRefCountable@Cm@2@@ 10138a20     GuConvexMesh.obj
 0002:00002a28       ??_C@_0GB@HIMEBCEL@C?3?2Users?2niclas?2Downloads?2PhysX@ 10138a28     GuConvexMesh.obj
 0002:00002a8c       ??_C@_0DM@NEJKOFIP@Loading?5convex?5mesh?5failed?3?5Dep@ 10138a8c     GuConvexMesh.obj
 0002:00002ac8       ??_C@_0DD@GDAMDLJL@Gu?3?3ConvexMesh?3?3release?3?5double@ 10138ac8     GuConvexMesh.obj
 0002:00002b20       __xmm@000000000000000000000000ffffffff 10138b20     GuConvexSupportTable.obj
 0002:00002b30       __xmm@0000000000000000ffffffff00000000 10138b30     GuConvexSupportTable.obj
 0002:00002b40       __xmm@0000000000000000ffffffffffffffff 10138b40     GuConvexSupportTable.obj
 0002:00002b50       __xmm@00000000ffffffff0000000000000000 10138b50     GuConvexSupportTable.obj
 0002:00002b60       __xmm@00000000ffffffff00000000ffffffff 10138b60     GuConvexSupportTable.obj
 0002:00002b70       __xmm@00000000ffffffffffffffff00000000 10138b70     GuConvexSupportTable.obj
 0002:00002c20       __real@2b8cbccc            10138c20     GuDistanceSegmentTriangle.obj
 0002:00002ca0       ??_7PxHeightField@physx@@6B@ 10138ca0     GuHeightField.obj
 0002:00002cf0       ??_7HeightField@Gu@physx@@6BPxHeightField@2@@ 10138cf0     GuHeightField.obj
 0002:00002d48       ??_7HeightField@Gu@physx@@6BRefCountable@Cm@2@@ 10138d48     GuHeightField.obj
 0002:00002d50       ??_C@_0DL@DNGFPCEG@Gu?3?3HeightField?3?3onRefCountZero@ 10138d50     GuHeightField.obj
 0002:00002d90       ??_C@_0FO@HKKPNKNG@C?3?2Users?2niclas?2Downloads?2PhysX@ 10138d90     GuHeightField.obj
 0002:00002df0       ??_C@_0CI@DMKEKGNK@Gu?3?3HeightField?3?3load?3?5PX_ALLOC@ 10138df0     GuHeightField.obj
 0002:00002e18       ??_C@_0FB@IIHFMDBC@C?3?2Users?2niclas?2Downloads?2PhysX@ 10138e18     GuHeightField.obj
 0002:00002e90       __real@3a03126f            10138e90     GuHeightFieldUtil.obj
 0002:00002e94       __real@3f19999a            10138e94     GuHeightFieldUtil.obj
 0002:00002f00       ??_7HeightFieldTraceSegmentReport@@6B@ 10138f00     GuSweepsHF.obj
 0002:00002f08       ??_7CapsuleTraceSegmentReport@@6B@ 10138f08     GuSweepsHF.obj
 0002:00002f10       ??_7ConvexTraceSegmentReport@@6B@ 10138f10     GuSweepsHF.obj
 0002:00002f18       ??_7BoxTraceSegmentReport@@6B@ 10138f18     GuSweepsHF.obj
 0002:00002f20       __real@aedbe6ff            10138f20     GuSweepsHF.obj
 0002:00002f30       __xmm@ffffffff00000001ffffffff00000001 10138f30     GuSweepsHF.obj
 0002:00002f60       __real@3089705f            10138f60     GuIntersectionRayBox.obj
 0002:00002f64       __real@b4000000            10138f64     GuIntersectionRayBox.obj
 0002:00002f70       __xmm@000000003089705f3089705f3089705f 10138f70     GuIntersectionRayBox.obj
 0002:00002f80       __xmm@00000000bf800000bf800000bf800000 10138f80     GuIntersectionRayBox.obj
 0002:00002fd0       ??_C@_0FI@JFAGCCNP@C?3?2Users?2niclas?2Downloads?2PhysX@ 10138fd0     GuBV4.obj
 0002:00003050       ??_C@_0FN@GBGHBLAN@C?3?2Users?2niclas?2Downloads?2PhysX@ 10139050     GuBV4Build.obj
 0002:000030b0       __real@38000100            101390b0     GuBV4Build.obj
 0002:000030b4       __real@3e93cd3a            101390b4     GuBV4Build.obj
 0002:000030b8       __real@46fffe00            101390b8     GuBV4Build.obj
 0002:000030bc       __real@be93cd3a            101390bc     GuBV4Build.obj
 0002:000030e0       __xmm@0000ffff0000ffff0000ffff0000ffff 101390e0     GuBV4_AABBSweep.obj
 0002:000031f0       __xmm@000000007f7fffff0000000000000000 101391f0     GuMidphaseBV4.obj
 0002:00003240       ??_C@_0FD@EHCCILIF@Adjacency?5information?5not?5creat@ 10139240     GuMeshQuery.obj
 0002:00003298       ??_C@_0FO@HJEHCCLN@C?3?2Users?2niclas?2Downloads?2PhysX@ 10139298     GuMeshQuery.obj
 0002:000032f8       __real@4cbebc20            101392f8     GuMeshQuery.obj
 0002:00003320       ??_7Callback@RTree@Gu@physx@@6B@ 10139320     GuMidphaseRTree.obj
 0002:0000332c       ??_7CallbackRaycast@RTree@Gu@physx@@6B@ 1013932c     GuMidphaseRTree.obj
 0002:0000332c       ??_7CallbackRefit@RTree@Gu@physx@@6B@ 1013932c     GuTriangleMeshRTree.obj
 0002:00003334       ??_7?$RayRTreeCallback@$0A@$0A@@@6BCallbackRaycast@RTree@Gu@physx@@@ 10139334     GuMidphaseRTree.obj
 0002:00003334       ??_7?$RayRTreeCallback@$00$0A@@@6BCallbackRaycast@RTree@Gu@physx@@@ 10139334     GuMidphaseRTree.obj
 0002:0000333c       ??_7?$RayRTreeCallback@$00$0A@@@6BCallback@RTree@Gu@physx@@@ 1013933c     GuMidphaseRTree.obj
 0002:0000333c       ??_7?$RayRTreeCallback@$0A@$0A@@@6BCallback@RTree@Gu@physx@@@ 1013933c     GuMidphaseRTree.obj
 0002:00003348       ??_7RayMeshColliderCallback@@6B@ 10139348     GuMidphaseRTree.obj
 0002:00003350       ??_7?$RayRTreeCallback@$0A@$00@@6BCallbackRaycast@RTree@Gu@physx@@@ 10139350     GuMidphaseRTree.obj
 0002:00003358       ??_7?$RayRTreeCallback@$0A@$00@@6BCallback@RTree@Gu@physx@@@ 10139358     GuMidphaseRTree.obj
 0002:00003364       ??_7?$RayRTreeCallback@$00$00@@6BCallbackRaycast@RTree@Gu@physx@@@ 10139364     GuMidphaseRTree.obj
 0002:0000336c       ??_7?$RayRTreeCallback@$00$00@@6BCallback@RTree@Gu@physx@@@ 1013936c     GuMidphaseRTree.obj
 0002:000033f0       ??_7ConvexVsMeshOverlapCallback@@6B@ 101393f0     GuOverlapTestsMesh.obj
 0002:00003400       ?MN@RTreePage@Gu@physx@@2MB 10139400     GuRTree.obj
 0002:00003404       ?MX@RTreePage@Gu@physx@@2MB 10139404     GuRTree.obj
 0002:00003430       ??_C@_0FK@BLHODFNF@C?3?2Users?2niclas?2Downloads?2PhysX@ 10139430     GuRTree.obj
 0002:000034e8       ??_7SweepShapeMeshHitCallback@Gu@physx@@6B@ 101394e8     GuSweepsMesh.obj
 0002:000034f0       ??_7SweepCapsuleMeshHitCallback@Gu@physx@@6B@ 101394f0     GuSweepsMesh.obj
 0002:000034f8       ??_7SweepBoxMeshHitCallback@Gu@physx@@6B@ 101394f8     GuSweepsMesh.obj
 0002:00003500       ??_7SweepConvexMeshHitCallback@Gu@physx@@6B@ 10139500     GuSweepsMesh.obj
 0002:00003530       ??_7PxTriangleMesh@physx@@6B@ 10139530     GuTriangleMesh.obj
 0002:00003574       ??_7TriangleMesh@Gu@physx@@6BPxTriangleMesh@2@@ 10139574     GuTriangleMesh.obj
 0002:000035c4       ??_7TriangleMesh@Gu@physx@@6BRefCountable@Cm@2@@ 101395c4     GuTriangleMesh.obj
 0002:000035cc       ??_C@_0DF@DNLKAHAL@Gu?3?3TriangleMesh?3?3release?3?5doub@ 101395cc     GuTriangleMesh.obj
 0002:00003608       ??_C@_0GB@EGJELNKK@C?3?2Users?2niclas?2Downloads?2PhysX@ 10139608     GuTriangleMesh.obj
 0002:00003670       ??_C@_0GH@IGKFPLIJ@PxTriangleMesh?3?3getVerticesForM@ 10139670     GuTriangleMesh.obj
 0002:000036d8       ??_C@_0FF@LHAOBIMM@PxTriangleMesh?3?3refitBVH?$CI?$CJ?5is?5o@ 101396d8     GuTriangleMesh.obj
 0002:00003750       ??_C@_0BE@CNJKIINO@PxBVH34TriangleMesh@ 10139750     GuTriangleMeshBV4.obj
 0002:00003764       ??_7BV4TriangleMesh@Gu@physx@@6BPxTriangleMesh@2@@ 10139764     GuTriangleMeshBV4.obj
 0002:000037b4       ??_7BV4TriangleMesh@Gu@physx@@6BRefCountable@Cm@2@@ 101397b4     GuTriangleMeshBV4.obj
 0002:000037e0       ??_C@_0BE@EIFHCCBO@PxBVH33TriangleMesh@ 101397e0     GuTriangleMeshRTree.obj
 0002:000037f4       ??_7RTreeTriangleMesh@Gu@physx@@6BPxTriangleMesh@2@@ 101397f4     GuTriangleMeshRTree.obj
 0002:00003844       ??_7RTreeTriangleMesh@Gu@physx@@6BRefCountable@Cm@2@@ 10139844     GuTriangleMeshRTree.obj
 0002:0000384c       ??_7?$RefitCallback@G@physx@@6B@ 1013984c     GuTriangleMeshRTree.obj
 0002:00003854       ??_7?$RefitCallback@I@physx@@6B@ 10139854     GuTriangleMeshRTree.obj
 0002:00003860       __xmm@38383838383838383838383838383838 10139860     GuTriangleMeshRTree.obj
 0002:00003870       ??_C@_0FJ@GKLKCIHG@C?3?2Users?2niclas?2Downloads?2PhysX@ 10139870     GuBV32.obj
 0002:000038f0       ??_C@_0FO@CMINPMII@C?3?2Users?2niclas?2Downloads?2PhysX@ 101398f0     GuBV32Build.obj
 0002:00003970       __real@3f4ccccd            10139970     GuPCMContactBoxBox.obj
 0002:00003980       __xmm@00000000358637bd358637bd358637bd 10139980     GuPCMContactBoxBox.obj
 0002:00003990       __xmm@ffffffff00000000ffffffffffffffff 10139990     GuPCMContactBoxBox.obj
 0002:000039c0       ??_7?$LocalConvex@VConvexHullNoScaleV@Gu@physx@@@Gu@physx@@6B@ 101399c0     GuPCMContactBoxConvex.obj
 0002:00003a20       __xmm@ffffffffffffffffffffffff00000000 10139a20     GuPCMContactCapsuleCapsule.obj
 0002:00003a50       __real@3fa00000            10139a50     GuPCMContactCapsuleConvex.obj
 0002:00003a80       ??_7PCMCapsuleVsHeightfieldContactGenerationCallback@physx@@6B@ 10139a80     GuPCMContactCapsuleHeightField.obj
 0002:00003a88       __real@3f7ef9db            10139a88     GuPCMContactCapsuleHeightField.obj
 0002:00003a8c       __real@3f7f3b64            10139a8c     GuPCMContactCapsuleHeightField.obj
 0002:00003ab8       ??_7PCMCapsuleVsMeshContactGenerationCallback@physx@@6B@ 10139ab8     GuPCMContactCapsuleMesh.obj
 0002:00003ae0       ??_7?$SupportLocalImpl@VTriangleV@Gu@physx@@@Gu@physx@@6B@ 10139ae0     GuPCMContactConvexCommon.obj
 0002:00003af0       ??_C@_0GA@PNCBPNMN@C?3?2Users?2niclas?2Downloads?2PhysX@ 10139af0     GuPCMContactConvexCommon.obj
 0002:00003b50       __real@3f7851ec            10139b50     GuPCMContactConvexCommon.obj
 0002:00003b80       ??_7?$RelativeConvex@VConvexHullNoScaleV@Gu@physx@@@Gu@physx@@6B@ 10139b80     GuPCMContactConvexConvex.obj
 0002:00003bc0       ??_7PCMConvexVsHeightfieldContactGenerationCallback@physx@@6B@ 10139bc0     GuPCMContactConvexHeightField.obj
 0002:00003bf8       ??_7PCMConvexVsMeshContactGenerationCallback@physx@@6B@ 10139bf8     GuPCMContactConvexMesh.obj
 0002:00003c20       __real@3f34fdf4            10139c20     GuPCMContactGenBoxConvex.obj
 0002:00003d30       ??_7PCMSphereVsHeightfieldContactGenerationCallback@physx@@6B@ 10139d30     GuPCMContactSphereHeightField.obj
 0002:00003d68       ??_7PCMSphereVsMeshContactGenerationCallback@physx@@6B@ 10139d68     GuPCMContactSphereMesh.obj
 0002:00003dd0       ?gPCMBoxPolygonData@Gu@physx@@3QBEB 10139dd0     GuPCMShapeConvex.obj
 0002:00003e10       ?invalidateThresholds@Gu@physx@@3QBMB 10139e10     GuPersistentContactManifold.obj
 0002:00003e24       ?invalidateQuatThresholds@Gu@physx@@3QBMB 10139e24     GuPersistentContactManifold.obj
 0002:00003e38       ?invalidateThresholds2@Gu@physx@@3QBMB 10139e38     GuPersistentContactManifold.obj
 0002:00003e44       ?invalidateQuatThresholds2@Gu@physx@@3QBMB 10139e44     GuPersistentContactManifold.obj
 0002:00003e70       __xmm@000000003f8000003f80000000000000 10139e70     GuPersistentContactManifold.obj
 0002:00003e80       __xmm@00000000bf8000003f80000000000000 10139e80     GuPersistentContactManifold.obj
 0002:00003e90       __xmm@ffffffffffffffff00000000ffffffff 10139e90     GuPersistentContactManifold.obj
 0002:00003ee0       __real@b727c5ac            10139ee0     GuSweepBoxSphere.obj
 0002:00003f50       ??_C@_0GF@MFGPJKAH@C?3?2Users?2niclas?2Downloads?2PhysX@ 10139f50     GuSweepCapsuleBox.obj
 0002:00003fe0       __real@3f7fff58            10139fe0     GuSweepCapsuleTriangle.obj
 0002:00004030       __sz_PhysXFoundation_32_dll 1013a030     PhysXFoundation_32:PhysXFoundation_32.dll
 0002:00004048       ??_C@_1BK@DBDEIDLH@?$AAK?$AAE?$AAR?$AAN?$AAE?$AAL?$AA3?$AA2?$AA?4?$AAD?$AAL?$AAL@ 1013a048     Delayimp:delayhlp.obj
 0002:00004064       ??_C@_0BI@OMNLIJDB@AcquireSRWLockExclusive@ 1013a064     Delayimp:delayhlp.obj
 0002:0000407c       ??_C@_0BI@HMIEPCNJ@ReleaseSRWLockExclusive@ 1013a07c     Delayimp:delayhlp.obj
 0002:00004094       ___pfnDliFailureHook2      1013a094     Delayimp:delayhk1.obj
 0002:000040bc       ??_7type_info@@6B@         1013a0bc     LIBCMT:std_type_info_static.obj
 0002:00004120       __pRawDllMain              1013a120     LIBCMT:dll_dllmain.obj
 0002:00004120       __pDefaultRawDllMain       1013a120     LIBCMT:dll_dllmain.obj
 0002:00004128       __load_config_used         1013a128     LIBCMT:loadcfg.obj
 0002:000041ec       __pDestructExceptionObject 1013a1ec     libvcruntime:ehhelpers.obj
 0002:00004570       ??_C@_08EHJDFFNH@__based?$CI@ 1013a570     libvcruntime:undname.obj
 0002:0000457c       ??_C@_07KOLFKCDI@__cdecl@  1013a57c     libvcruntime:undname.obj
 0002:00004584       ??_C@_08GHMPAG@__pascal@   1013a584     libvcruntime:undname.obj
 0002:00004590       ??_C@_09IFJBGAPI@__stdcall@ 1013a590     libvcruntime:undname.obj
 0002:0000459c       ??_C@_0L@NPHFGOKO@__thiscall@ 1013a59c     libvcruntime:undname.obj
 0002:000045a8       ??_C@_0L@JMKHOMEK@__fastcall@ 1013a5a8     libvcruntime:undname.obj
 0002:000045b4       ??_C@_0N@BCKKPABJ@__vectorcall@ 1013a5b4     libvcruntime:undname.obj
 0002:000045c4       ??_C@_09HIJEGCPM@__clrcall@ 1013a5c4     libvcruntime:undname.obj
 0002:000045d0       ??_C@_06GHPCKEAG@__eabi@   1013a5d0     libvcruntime:undname.obj
 0002:000045d8       ??_C@_09IOPIDJLG@__swift_1@ 1013a5d8     libvcruntime:undname.obj
 0002:000045e4       ??_C@_09KFNFGKHF@__swift_2@ 1013a5e4     libvcruntime:undname.obj
 0002:000045f0       ??_C@_07JOMMBBKO@__ptr64@  1013a5f0     libvcruntime:undname.obj
 0002:000045f8       ??_C@_0L@PILCLIHE@__restrict@ 1013a5f8     libvcruntime:undname.obj
 0002:00004604       ??_C@_0M@GFIIJFMG@__unaligned@ 1013a604     libvcruntime:undname.obj
 0002:00004610       ??_C@_09DHDLOLLB@restrict?$CI@ 1013a610     libvcruntime:undname.obj
 0002:0000461a       ??_C@_00CNPNBAHC@@         1013a61a     libvcruntime:undname.obj
 0002:0000461c       ??_C@_04NIHEBCM@?5new@     1013a61c     libvcruntime:undname.obj
 0002:00004624       ??_C@_07FPCDHGMM@?5delete@ 1013a624     libvcruntime:undname.obj
 0002:0000462c       ??_C@_01NEMOKFLO@?$DN@     1013a62c     libvcruntime:undname.obj
 0002:00004630       ??_C@_02GPIOPFAK@?$DO?$DO@ 1013a630     libvcruntime:undname.obj
 0002:00004634       ??_C@_02FODMEDOG@?$DM?$DM@ 1013a634     libvcruntime:undname.obj
 0002:00004638       ??_C@_01DCLJPIOD@?$CB@     1013a638     libvcruntime:undname.obj
 0002:0000463c       ??_C@_02EGOFBIJA@?$DN?$DN@ 1013a63c     libvcruntime:undname.obj
 0002:00004640       ??_C@_02FDNJECIE@?$CB?$DN@ 1013a640     libvcruntime:undname.obj
 0002:00004644       ??_C@_02GPECMEKF@?$FL?$FN@ 1013a644     libvcruntime:undname.obj
 0002:00004648       ??_C@_08LHJFAFGD@operator@ 1013a648     libvcruntime:undname.obj
 0002:00004654       ??_C@_02HBOOOICD@?9?$DO@   1013a654     libvcruntime:undname.obj
 0002:00004658       ??_C@_01NBENCBCI@?$CK@     1013a658     libvcruntime:undname.obj
 0002:0000465c       ??_C@_02ECNGHCIF@?$CL?$CL@ 1013a65c     libvcruntime:undname.obj
 0002:00004660       ??_C@_02BAABKJLB@?9?9@     1013a660     libvcruntime:undname.obj
 0002:00004664       ??_C@_01JOAMLHOP@?9@       1013a664     libvcruntime:undname.obj
 0002:00004668       ??_C@_01MIFGBAGJ@?$CL@     1013a668     libvcruntime:undname.obj
 0002:0000466c       ??_C@_01HNPIGOCE@?$CG@     1013a66c     libvcruntime:undname.obj
 0002:00004670       ??_C@_03MNHNFDLC@?9?$DO?$CK@ 1013a670     libvcruntime:undname.obj
 0002:00004674       ??_C@_01KMDKNFGN@?1@       1013a674     libvcruntime:undname.obj
 0002:00004678       ??_C@_01FGNFDNOH@?$CF@     1013a678     libvcruntime:undname.obj
 0002:0000467c       ??_C@_01MNNFJEPP@?$DM@     1013a67c     libvcruntime:undname.obj
 0002:00004680       ??_C@_02EHCHHCKH@?$DM?$DN@ 1013a680     libvcruntime:undname.obj
 0002:00004684       ??_C@_01PPODPGHN@?$DO@     1013a684     libvcruntime:undname.obj
 0002:00004688       ??_C@_02EEKDKGMJ@?$DO?$DN@ 1013a688     libvcruntime:undname.obj
 0002:0000468c       ??_C@_01IHBHIGKO@?0@       1013a68c     libvcruntime:undname.obj
 0002:00004690       ??_C@_02HCKGKOFO@?$CI?$CJ@ 1013a690     libvcruntime:undname.obj
 0002:00004694       ??_C@_01PJKLJHI@?$HO@      1013a694     libvcruntime:undname.obj
 0002:00004698       ??_C@_01JKBOJNNK@?$FO@     1013a698     libvcruntime:undname.obj
 0002:0000469c       ??_C@_01DNKMNLPK@?$HM@     1013a69c     libvcruntime:undname.obj
 0002:000046a0       ??_C@_02PPKAJPJL@?$CG?$CG@ 1013a6a0     libvcruntime:undname.obj
 0002:000046a4       ??_C@_02NONPIBCD@?$HM?$HM@ 1013a6a4     libvcruntime:undname.obj
 0002:000046a8       ??_C@_02FPIMKNGF@?$CK?$DN@ 1013a6a8     libvcruntime:undname.obj
 0002:000046ac       ??_C@_02FOEOMHFC@?$CL?$DN@ 1013a6ac     libvcruntime:undname.obj
 0002:000046b0       ??_C@_02FKMDLLOA@?9?$DN@   1013a6b0     libvcruntime:undname.obj
 0002:000046b4       ??_C@_02FJEHGPIO@?1?$DN@   1013a6b4     libvcruntime:undname.obj
 0002:000046b8       ??_C@_02FENAOKFI@?$CF?$DN@ 1013a6b8     libvcruntime:undname.obj
 0002:000046bc       ??_C@_03IKFCCPFF@?$DO?$DO?$DN@ 1013a6bc     libvcruntime:undname.obj
 0002:000046c0       ??_C@_03CDNPDDLA@?$DM?$DM?$DN@ 1013a6c0     libvcruntime:undname.obj
 0002:000046c4       ??_C@_02FGJGFEAB@?$CG?$DN@ 1013a6c4     libvcruntime:undname.obj
 0002:000046c8       ??_C@_02DHLNPPGH@?$HM?$DN@ 1013a6c8     libvcruntime:undname.obj
 0002:000046cc       ??_C@_02MHEGNOJ@?$FO?$DN@  1013a6cc     libvcruntime:undname.obj
 0002:000046d0       ??_C@_09IFPLHPGF@?$GAvftable?8@ 1013a6d0     libvcruntime:undname.obj
 0002:000046dc       ??_C@_09BLBHBJP@?$GAvbtable?8@ 1013a6dc     libvcruntime:undname.obj
 0002:000046e8       ??_C@_07FEEIOKP@?$GAvcall?8@ 1013a6e8     libvcruntime:undname.obj
 0002:000046f0       ??_C@_08LLFFHHDJ@?$GAtypeof?8@ 1013a6f0     libvcruntime:undname.obj
 0002:000046fc       ??_C@_0BF@KDPPACIK@?$GAlocal?5static?5guard?8@ 1013a6fc     libvcruntime:undname.obj
 0002:00004714       ??_C@_08OBABFOLI@?$GAstring?8@ 1013a714     libvcruntime:undname.obj
 0002:00004720       ??_C@_0BD@JDLKDPAB@?$GAvbase?5destructor?8@ 1013a720     libvcruntime:undname.obj
 0002:00004734       ??_C@_0BN@DEGPLNFK@?$GAvector?5deleting?5destructor?8@ 1013a734     libvcruntime:undname.obj
 0002:00004754       ??_C@_0BO@OBMKPJIG@?$GAdefault?5constructor?5closure?8@ 1013a754     libvcruntime:undname.obj
 0002:00004774       ??_C@_0BN@IMDCHIKM@?$GAscalar?5deleting?5destructor?8@ 1013a774     libvcruntime:undname.obj
 0002:00004794       ??_C@_0BO@PFGOCPJJ@?$GAvector?5constructor?5iterator?8@ 1013a794     libvcruntime:undname.obj
 0002:000047b4       ??_C@_0BN@LFPFMEDL@?$GAvector?5destructor?5iterator?8@ 1013a7b4     libvcruntime:undname.obj
 0002:000047d4       ??_C@_0CE@IKBNEHA@?$GAvector?5vbase?5constructor?5itera@ 1013a7d4     libvcruntime:undname.obj
 0002:000047f8       ??_C@_0BL@NILFHHPC@?$GAvirtual?5displacement?5map?8@ 1013a7f8     libvcruntime:undname.obj
 0002:00004814       ??_C@_0CB@JONCMFFK@?$GAeh?5vector?5constructor?5iterator@ 1013a814     libvcruntime:undname.obj
 0002:00004838       ??_C@_0CA@GCEOPDGL@?$GAeh?5vector?5destructor?5iterator?8@ 1013a838     libvcruntime:undname.obj
 0002:00004858       ??_C@_0CH@OOJPLCPH@?$GAeh?5vector?5vbase?5constructor?5it@ 1013a858     libvcruntime:undname.obj
 0002:00004880       ??_C@_0BL@LLKPOHJI@?$GAcopy?5constructor?5closure?8@ 1013a880     libvcruntime:undname.obj
 0002:0000489c       ??_C@_0BA@KBCDOMBN@?$GAudt?5returning?8@ 1013a89c     libvcruntime:undname.obj
 0002:000048ac       ??_C@_03KLGMFNMG@?$GAEH@   1013a8ac     libvcruntime:undname.obj
 0002:000048b0       ??_C@_05KHLCHHI@?$GARTTI@  1013a8b0     libvcruntime:undname.obj
 0002:000048b8       ??_C@_0BA@KKLDJDLB@?$GAlocal?5vftable?8@ 1013a8b8     libvcruntime:undname.obj
 0002:000048c8       ??_C@_0CE@IIHCMGGL@?$GAlocal?5vftable?5constructor?5clos@ 1013a8c8     libvcruntime:undname.obj
 0002:000048ec       ??_C@_06FHBGPFGH@?5new?$FL?$FN@ 1013a8ec     libvcruntime:undname.obj
 0002:000048f4       ??_C@_09LBNFPBCA@?5delete?$FL?$FN@ 1013a8f4     libvcruntime:undname.obj
 0002:00004900       ??_C@_0P@HJKNJFNN@?$GAomni?5callsig?8@ 1013a900     libvcruntime:undname.obj
 0002:00004910       ??_C@_0BL@CNOONJFP@?$GAplacement?5delete?5closure?8@ 1013a910     libvcruntime:undname.obj
 0002:0000492c       ??_C@_0BN@CKNJLHMB@?$GAplacement?5delete?$FL?$FN?5closure?8@ 1013a92c     libvcruntime:undname.obj
 0002:0000494c       ??_C@_0CG@CFDHKGGD@?$GAmanaged?5vector?5constructor?5ite@ 1013a94c     libvcruntime:undname.obj
 0002:00004974       ??_C@_0CF@IMGKMJNO@?$GAmanaged?5vector?5destructor?5iter@ 1013a974     libvcruntime:undname.obj
 0002:0000499c       ??_C@_0CG@HLDDJMAG@?$GAeh?5vector?5copy?5constructor?5ite@ 1013a99c     libvcruntime:undname.obj
 0002:000049c4       ??_C@_0CM@FCBBDIGB@?$GAeh?5vector?5vbase?5copy?5construct@ 1013a9c4     libvcruntime:undname.obj
 0002:000049f0       ??_C@_0BL@CLIPGLGB@?$GAdynamic?5initializer?5for?5?8@ 1013a9f0     libvcruntime:undname.obj
 0002:00004a0c       ??_C@_0CB@PDBIFEP@?$GAdynamic?5atexit?5destructor?5for?5@ 1013aa0c     libvcruntime:undname.obj
 0002:00004a30       ??_C@_0CD@CGAJBKEJ@?$GAvector?5copy?5constructor?5iterat@ 1013aa30     libvcruntime:undname.obj
 0002:00004a54       ??_C@_0CJ@GJELGAMM@?$GAvector?5vbase?5copy?5constructor?5@ 1013aa54     libvcruntime:undname.obj
 0002:00004a80       ??_C@_0CL@FGIJHLCE@?$GAmanaged?5vector?5copy?5constructo@ 1013aa80     libvcruntime:undname.obj
 0002:00004aac       ??_C@_0BM@PMGGMLDN@?$GAlocal?5static?5thread?5guard?8@ 1013aaac     libvcruntime:undname.obj
 0002:00004ac8       ??_C@_0N@BDNMDMOL@operator?5?$CC?$CC?5@ 1013aac8     libvcruntime:undname.obj
 0002:00004ad8       ??_C@_0BC@GGEBGALA@operator?5co_await@ 1013aad8     libvcruntime:undname.obj
 0002:00004aec       ??_C@_0M@GAAIMMOH@operator?$DM?$DN?$DO@ 1013aaec     libvcruntime:undname.obj
 0002:00004af8       ??_C@_0BC@DAFEJGAK@?5Type?5Descriptor?8@ 1013aaf8     libvcruntime:undname.obj
 0002:00004b0c       ??_C@_0BM@LDKODKLH@?5Base?5Class?5Descriptor?5at?5?$CI@ 1013ab0c     libvcruntime:undname.obj
 0002:00004b28       ??_C@_0BD@LGICGFMM@?5Base?5Class?5Array?8@ 1013ab28     libvcruntime:undname.obj
 0002:00004b3c       ??_C@_0BN@MECKDCOJ@?5Class?5Hierarchy?5Descriptor?8@ 1013ab3c     libvcruntime:undname.obj
 0002:00004b5c       ??_C@_0BK@CFCOFLF@?5Complete?5Object?5Locator?8@ 1013ab5c     libvcruntime:undname.obj
 0002:00004b78       ??_C@_0BG@JNJLAMPM@?$GAanonymous?5namespace?8@ 1013ab78     libvcruntime:undname.obj
 0002:00004b90       ??_C@_04HEJADOOB@CV?3?5@   1013ab90     libvcruntime:undname.obj
 0002:00004b98       ??_C@_02MOLJINC@?3?3@      1013ab98     libvcruntime:undname.obj
 0002:00004b9c       ??_C@_0BE@JAEOCHPE@template?9parameter?9@ 1013ab9c     libvcruntime:undname.obj
 0002:00004bb0       ??_C@_0BF@LNLGBBNL@?$GAtemplate?9parameter?9@ 1013abb0     libvcruntime:undname.obj
 0002:00004bc8       ??_C@_0O@KHGCOMHP@generic?9type?9@ 1013abc8     libvcruntime:undname.obj
 0002:00004bd8       ??_C@_0P@ODDENDLM@?$GAgeneric?9type?9@ 1013abd8     libvcruntime:undname.obj
 0002:00004be8       ??_C@_02OHHJMEON@?8?8@     1013abe8     libvcruntime:undname.obj
 0002:00004bec       ??_C@_0BN@IBLMMFAP@?$GAnon?9type?9template?9parameter@ 1013abec     libvcruntime:undname.obj
 0002:00004c0c       ??_C@_03DLDNIBIK@?$CFlf@   1013ac0c     libvcruntime:undname.obj
 0002:00004c10       ??_C@_04OFALKAJ@?$DP?$DP_C@ 1013ac10     libvcruntime:undname.obj
 0002:00004c18       ??_C@_03KHICJKCI@?4?4?4@   1013ac18     libvcruntime:undname.obj
 0002:00004c1c       ??_C@_04HIBGFPH@NULL@      1013ac1c     libvcruntime:undname.obj
 0002:00004c24       ??_C@_02DPKJAMEF@?$CFd@    1013ac24     libvcruntime:undname.obj
 0002:00004c28       ??_C@_0BK@IHCCFNEL@?$GAtemplate?9type?9parameter?9@ 1013ac28     libvcruntime:undname.obj
 0002:00004c44       ??_C@_0BK@OFCNNNKO@?$GAgeneric?9class?9parameter?9@ 1013ac44     libvcruntime:undname.obj
 0002:00004c60       ??_C@_0BL@NGJBLFIL@?$GAgeneric?9method?9parameter?9@ 1013ac60     libvcruntime:undname.obj
 0002:00004c7c       ??_C@_07OHNGEDJK@nullptr@  1013ac7c     libvcruntime:undname.obj
 0002:00004c84       ??_C@_0BE@EODMJLIF@?$GAtemplate?9parameter@ 1013ac84     libvcruntime:undname.obj
 0002:00004c98       ??_C@_03OPGICMGF@?$HN?8?5@ 1013ac98     libvcruntime:undname.obj
 0002:00004c9c       ??_C@_02IGFCGPIL@?$HN?8@   1013ac9c     libvcruntime:undname.obj
 0002:00004ca0       ??_C@_0N@CBHHHENL@?$GAvtordispex?$HL@ 1013aca0     libvcruntime:undname.obj
 0002:00004cb0       ??_C@_0L@GHPFDFH@?$GAvtordisp?$HL@ 1013acb0     libvcruntime:undname.obj
 0002:00004cbc       ??_C@_0L@HNGCOGAE@?$GAadjustor?$HL@ 1013acbc     libvcruntime:undname.obj
 0002:00004cc8       ??_C@_0CB@KJDOOODE@?$GAlocal?5static?5destructor?5helper@ 1013acc8     libvcruntime:undname.obj
 0002:00004cec       ??_C@_0DB@ILEFOCIJ@?$GAtemplate?5static?5data?5member?5co@ 1013acec     libvcruntime:undname.obj
 0002:00004d20       ??_C@_0DA@HGFJFBBE@?$GAtemplate?5static?5data?5member?5de@ 1013ad20     libvcruntime:undname.obj
 0002:00004d50       ??_C@_07PGOEDBHP@static?5@ 1013ad50     libvcruntime:undname.obj
 0002:00004d58       ??_C@_08NIEOINHE@virtual?5@ 1013ad58     libvcruntime:undname.obj
 0002:00004d64       ??_C@_09LAPHOOG@private?3?5@ 1013ad64     libvcruntime:undname.obj
 0002:00004d70       ??_C@_0M@GAIFPFIP@protected?3?5@ 1013ad70     libvcruntime:undname.obj
 0002:00004d7c       ??_C@_08GPDDCMKI@public?3?5@ 1013ad7c     libvcruntime:undname.obj
 0002:00004d88       ??_C@_08KJLFOPNE@?$FLthunk?$FN?3@ 1013ad88     libvcruntime:undname.obj
 0002:00004d94       ??_C@_0M@DHNBOJMP@extern?5?$CCC?$CC?5@ 1013ad94     libvcruntime:undname.obj
 0002:00004da0       ??_C@_02KCKGHPCA@?$CJ?5@   1013ada0     libvcruntime:undname.obj
 0002:00004da4       ??_C@_05CIHEBHNO@char?5@   1013ada4     libvcruntime:undname.obj
 0002:00004dac       ??_C@_06EHJMALKF@short?5@  1013adac     libvcruntime:undname.obj
 0002:00004db4       ??_C@_04LAHKHJMA@int?5@    1013adb4     libvcruntime:undname.obj
 0002:00004dbc       ??_C@_05CJIMAING@long?5@   1013adbc     libvcruntime:undname.obj
 0002:00004dc4       ??_C@_09EBBEKKIH@unsigned?5@ 1013adc4     libvcruntime:undname.obj
 0002:00004dd0       ??_C@_05BEFAKPML@void?5@   1013add0     libvcruntime:undname.obj
 0002:00004dd8       ??_C@_09GAIEOBLP@volatile?5@ 1013add8     libvcruntime:undname.obj
 0002:00004de4       ??_C@_08PABEKFH@volatile@  1013ade4     libvcruntime:undname.obj
 0002:00004df0       ??_C@_0BA@LKIJLKPP@std?3?3nullptr_t?5@ 1013adf0     libvcruntime:undname.obj
 0002:00004e00       ??_C@_0P@GCOCNKDM@std?3?3nullptr_t@ 1013ae00     libvcruntime:undname.obj
 0002:00004e10       ??_C@_0L@EGPHHEKN@?$DMellipsis?$DO@ 1013ae10     libvcruntime:undname.obj
 0002:00004e1c       ??_C@_04EENFHACM@?0?4?4?4@ 1013ae1c     libvcruntime:undname.obj
 0002:00004e24       ??_C@_0M@ELJOJFFH@?0?$DMellipsis?$DO@ 1013ae24     libvcruntime:undname.obj
 0002:00004e30       ??_C@_09DNHFEOJI@?5noexcept@ 1013ae30     libvcruntime:undname.obj
 0002:00004e3c       ??_C@_03PBJBJNON@cpu@      1013ae3c     libvcruntime:undname.obj
 0002:00004e40       ??_C@_03DCBBJBAA@amp@      1013ae40     libvcruntime:undname.obj
 0002:00004e44       ??_C@_02KEGNLNML@?0?5@     1013ae44     libvcruntime:undname.obj
 0002:00004e48       ??_C@_04ENMBGAPA@char@     1013ae48     libvcruntime:undname.obj
 0002:00004e50       ??_C@_05BFKKPKCG@short@    1013ae50     libvcruntime:undname.obj
 0002:00004e58       ??_C@_03JBIPMCLC@int@      1013ae58     libvcruntime:undname.obj
 0002:00004e5c       ??_C@_04GOKPGOLB@long@     1013ae5c     libvcruntime:undname.obj
 0002:00004e64       ??_C@_06BNJCAIGJ@double@   1013ae64     libvcruntime:undname.obj
 0002:00004e6c       ??_C@_06EBGKOKIG@__int8@   1013ae6c     libvcruntime:undname.obj
 0002:00004e74       ??_C@_07ICFHOGAF@__int16@  1013ae74     libvcruntime:undname.obj
 0002:00004e7c       ??_C@_07OFLPPHGP@__int32@  1013ae7c     libvcruntime:undname.obj
 0002:00004e84       ??_C@_07LFCOJCAC@__int64@  1013ae84     libvcruntime:undname.obj
 0002:00004e8c       ??_C@_08GAHOLHEO@__int128@ 1013ae8c     libvcruntime:undname.obj
 0002:00004e98       ??_C@_09EEKGDCPH@?$DMunknown?$DO@ 1013ae98     libvcruntime:undname.obj
 0002:00004ea4       ??_C@_07CFHGOPCN@char8_t@  1013aea4     libvcruntime:undname.obj
 0002:00004eac       ??_C@_08HBIPOFJB@char16_t@ 1013aeac     libvcruntime:undname.obj
 0002:00004eb8       ??_C@_08IECNCBKG@char32_t@ 1013aeb8     libvcruntime:undname.obj
 0002:00004ec4       ??_C@_07CLGGIAMF@wchar_t@  1013aec4     libvcruntime:undname.obj
 0002:00004ecc       ??_C@_04HAPDLBFF@auto@     1013aecc     libvcruntime:undname.obj
 0002:00004ed4       ??_C@_0P@LHCGKIGK@decltype?$CIauto?$CJ@ 1013aed4     libvcruntime:undname.obj
 0002:00004ee4       ??_C@_06GCICPBLB@__w64?5@  1013aee4     libvcruntime:undname.obj
 0002:00004eec       ??_C@_07NFANNNEC@UNKNOWN@  1013aeec     libvcruntime:undname.obj
 0002:00004ef4       ??_C@_07EDHNAJHC@signed?5@ 1013aef4     libvcruntime:undname.obj
 0002:00004efc       ??_C@_05BNCCCJPP@const@    1013aefc     libvcruntime:undname.obj
 0002:00004f04       ??_C@_09EFNPDFFP@?5volatile@ 1013af04     libvcruntime:undname.obj
 0002:00004f10       ??_C@_0P@GCIFDJCJ@?$GAunknown?5ecsu?8@ 1013af10     libvcruntime:undname.obj
 0002:00004f20       ??_C@_06MOJHIBMG@union?5@  1013af20     libvcruntime:undname.obj
 0002:00004f28       ??_C@_07DIBCDNGL@struct?5@ 1013af28     libvcruntime:undname.obj
 0002:00004f30       ??_C@_06LJBABKPM@class?5@  1013af30     libvcruntime:undname.obj
 0002:00004f38       ??_C@_08KOFANOFK@coclass?5@ 1013af38     libvcruntime:undname.obj
 0002:00004f44       ??_C@_0N@DLIEFKNA@cointerface?5@ 1013af44     libvcruntime:undname.obj
 0002:00004f54       ??_C@_05LJGMCFOG@enum?5@   1013af54     libvcruntime:undname.obj
 0002:00004f5c       ??_C@_06LIJLOJAG@const?5@  1013af5c     libvcruntime:undname.obj
 0002:00004f64       ??_C@_02KJPKDIBN@?$CG?5@   1013af64     libvcruntime:undname.obj
 0002:00004f68       ??_C@_03PCKGMOPB@?$CG?$CG?5@ 1013af68     libvcruntime:undname.obj
 0002:00004f6c       ??_C@_0M@EALIELKG@cli?3?3array?$DM@ 1013af6c     libvcruntime:undname.obj
 0002:00004f78       ??_C@_0O@GKABPPIF@cli?3?3pin_ptr?$DM@ 1013af78     libvcruntime:undname.obj
 0002:00004f88       ??_C@_02GOGNNPBN@?$CJ?$FL@ 1013af88     libvcruntime:undname.obj
 0002:00004f8c       ??_C@_06EEGAIFAK@?$HLflat?$HN@ 1013af8c     libvcruntime:undname.obj
 0002:00004f94       ??_C@_05JIBOFOHK@?$HLfor?5@ 1013af94     libvcruntime:undname.obj
 0002:00004f9c       ??_C@_02MDINNEEG@s?5@      1013af9c     libvcruntime:undname.obj
 0002:00004fa4       ??_7charNode@@6B@          1013afa4     libvcruntime:undname.obj
 0002:00004fb8       ??_7pcharNode@@6B@         1013afb8     libvcruntime:undname.obj
 0002:00004fcc       ??_7pDNameNode@@6B@        1013afcc     libvcruntime:undname.obj
 0002:00004fe0       ??_7DNameStatusNode@@6B@   1013afe0     libvcruntime:undname.obj
 0002:00004ff4       ??_7pairNode@@6B@          1013aff4     libvcruntime:undname.obj
 0002:00005108       ??_C@_04OKOHEJBO@?5?$DP?$DP?5@ 1013b108     libvcruntime:undname.obj
 0002:00005110       ?nodes@?1??make@DNameStatusNode@@SAPBV2@W4DNameStatus@@@Z@4QBV2@B 1013b110     libvcruntime:undname.obj
 0002:0000514c       ??_C@_1DM@KHCHBNEB@?$AAa?$AAp?$AAi?$AA?9?$AAm?$AAs?$AA?9?$AAw?$AAi?$AAn?$AA?9?$AAc?$AAo?$AAr?$AAe@ 1013b14c     libvcruntime:winapi_downlevel.obj
 0002:00005188       ??_C@_1DK@LPPGFMPP@?$AAa?$AAp?$AAi?$AA?9?$AAm?$AAs?$AA?9?$AAw?$AAi?$AAn?$AA?9?$AAc?$AAo?$AAr?$AAe@ 1013b188     libvcruntime:winapi_downlevel.obj
 0002:000051c4       ??_C@_1BC@GDMECMAK@?$AAk?$AAe?$AAr?$AAn?$AAe?$AAl?$AA3?$AA2@ 1013b1c4     libvcruntime:winapi_downlevel.obj
 0002:000051d8       ??_C@_1BA@PFFKHIOG@?$AAa?$AAp?$AAi?$AA?9?$AAm?$AAs?$AA?9@ 1013b1d8     libvcruntime:winapi_downlevel.obj
 0002:000051f0       ??_C@_08KNHFBNJ@FlsAlloc@  1013b1f0     libvcruntime:winapi_downlevel.obj
 0002:00005204       ??_C@_07PEJMOBNF@FlsFree@  1013b204     libvcruntime:winapi_downlevel.obj
 0002:00005214       ??_C@_0M@GDNOONDI@FlsGetValue@ 1013b214     libvcruntime:winapi_downlevel.obj
 0002:00005228       ??_C@_0M@JCPCPOEF@FlsSetValue@ 1013b228     libvcruntime:winapi_downlevel.obj
 0002:0000523c       ??_C@_0BM@HCFOFFN@InitializeCriticalSectionEx@ 1013b23c     libvcruntime:winapi_downlevel.obj
 0002:0000525c       ??_7exception@std@@6B@     1013b25c     libvcruntime:frame.obj
 0002:00005264       ??_C@_0BC@EOODALEL@Unknown?5exception@ 1013b264     libvcruntime:frame.obj
 0002:0000527c       ??_7bad_exception@std@@6B@ 1013b27c     libvcruntime:frame.obj
 0002:00005284       ??_C@_0O@DPKOEFFH@bad?5exception@ 1013b284     libvcruntime:frame.obj
 0002:00005c68       __real@3ff0000000000000    1013bc68     libucrt:ieeemisc.obj
 0002:00006588       ??_C@_03KHJOGHMM@exp@      1013c588     libucrt:fpexcept.obj
 0002:0000658c       ??_C@_03JGHBODFD@pow@      1013c58c     libucrt:fpexcept.obj
 0002:00006590       ??_C@_03MGHMBJCF@log@      1013c590     libucrt:fpexcept.obj
 0002:00006594       ??_C@_05HGHHAHAP@log10@    1013c594     libucrt:fpexcept.obj
 0002:0000659c       ??_C@_04COOMCNPB@sinh@     1013c59c     libucrt:fpexcept.obj
 0002:000065a4       ??_C@_04HPJJNFIM@cosh@     1013c5a4     libucrt:fpexcept.obj
 0002:000065ac       ??_C@_04FJHINJAO@tanh@     1013c5ac     libucrt:fpexcept.obj
 0002:000065b4       ??_C@_04FIHNOPOL@asin@     1013c5b4     libucrt:fpexcept.obj
 0002:000065bc       ??_C@_04PDIFKINK@acos@     1013c5bc     libucrt:fpexcept.obj
 0002:000065c4       ??_C@_04MLLJIGOK@atan@     1013c5c4     libucrt:fpexcept.obj
 0002:000065cc       ??_C@_05KNGEOGJB@atan2@    1013c5cc     libucrt:fpexcept.obj
 0002:000065d4       ??_C@_04EIAKFFMI@sqrt@     1013c5d4     libucrt:fpexcept.obj
 0002:000065dc       ??_C@_03BLEJJJBH@sin@      1013c5dc     libucrt:fpexcept.obj
 0002:000065e0       ??_C@_03LALBNOCG@cos@      1013c5e0     libucrt:fpexcept.obj
 0002:000065e4       ??_C@_03IIINPABG@tan@      1013c5e4     libucrt:fpexcept.obj
 0002:000065e8       ??_C@_04GFPJNGEK@ceil@     1013c5e8     libucrt:fpexcept.obj
 0002:000065f0       ??_C@_05PBJFFIGL@floor@    1013c5f0     libucrt:fpexcept.obj
 0002:000065f8       ??_C@_04ODHECPBC@fabs@     1013c5f8     libucrt:fpexcept.obj
 0002:00006600       ??_C@_04EHEDPDJG@modf@     1013c600     libucrt:fpexcept.obj
 0002:00006608       ??_C@_05CEJMAHNP@ldexp@    1013c608     libucrt:fpexcept.obj
 0002:00006610       ??_C@_05KBKMEMPO@_cabs@    1013c610     libucrt:fpexcept.obj
 0002:00006618       ??_C@_06MEIMCGCF@_hypot@   1013c618     libucrt:fpexcept.obj
 0002:00006620       ??_C@_04KEPJIHGP@fmod@     1013c620     libucrt:fpexcept.obj
 0002:00006628       ??_C@_05GKKHEGJL@frexp@    1013c628     libucrt:fpexcept.obj
 0002:00006630       ??_C@_03MJLDFKDL@_y0@      1013c630     libucrt:fpexcept.obj
 0002:00006634       ??_C@_03NAKIGLHK@_y1@      1013c634     libucrt:fpexcept.obj
 0002:00006638       ??_C@_03ONILCKOB@_yn@      1013c638     libucrt:fpexcept.obj
 0002:0000663c       ??_C@_05JGDBENOH@_logb@    1013c63c     libucrt:fpexcept.obj
 0002:00006644       ??_C@_0L@KDOEJCKC@_nextafter@ 1013c644     libucrt:fpexcept.obj
 0002:00006650       ___acrt_exception_action_table 1013c650     libucrt:exception_filter.obj
 0002:000066e0       ___acrt_signal_action_table_count 1013c6e0     libucrt:exception_filter.obj
 0002:000066e4       ___acrt_signal_action_first_fpe_index 1013c6e4     libucrt:exception_filter.obj
 0002:000066e8       ___acrt_signal_action_fpe_count 1013c6e8     libucrt:exception_filter.obj
 0002:000066ec       ??_C@_1BI@BGOHAHKC@?$AAm?$AAs?$AAc?$AAo?$AAr?$AAe?$AAe?$AA?4?$AAd?$AAl?$AAl@ 1013c6ec     libucrt:exit.obj
 0002:00006704       ??_C@_0P@MIGLKIOC@CorExitProcess@ 1013c704     libucrt:exit.obj
 0002:00006798       ?format_validation_lookup_table_spectre@__crt_stdio_output@@3V?$spectre_mitigated_lookup_table@Ustate_transition_pair@__crt_stdio_output@@$0IA@@1@B 1013c798     libucrt:output.obj
 0002:00006b98       ??_C@_1O@CEDCILHN@?$AA?$CI?$AAn?$AAu?$AAl?$AAl?$AA?$CJ@ 1013cb98     libucrt:output.obj
 0002:00006ba8       ??_C@_06OJHGLDPL@?$CInull?$CJ@ 1013cba8     libucrt:output.obj
 0002:00006bb0       __d_inf                    1013cbb0     libucrt:util.obj
 0002:00006bb8       __d_max                    1013cbb8     libucrt:util.obj
 0002:00006bc0       __d_mzero                  1013cbc0     libucrt:util.obj
 0002:00006be0       ___acrt_acosf_asinf_t_table 1013cbe0     libucrt:acosf_asinf_t_table.obj
 0002:00007158       ??_C@_1M@HPNHIDJI@?$AAj?$AAa?$AA?9?$AAJ?$AAP@ 1013d158     libucrt:mbctype.obj
 0002:00007164       ??_C@_1M@BIBDDEMK@?$AAz?$AAh?$AA?9?$AAC?$AAN@ 1013d164     libucrt:mbctype.obj
 0002:00007170       ??_C@_1M@JLOOOEGK@?$AAk?$AAo?$AA?9?$AAK?$AAR@ 1013d170     libucrt:mbctype.obj
 0002:0000717c       ??_C@_1M@CLNBBOPM@?$AAz?$AAh?$AA?9?$AAT?$AAW@ 1013d17c     libucrt:mbctype.obj
 0002:000071d8       ??_C@_1EA@JGEFHKEI@?$AAa?$AAp?$AAi?$AA?9?$AAm?$AAs?$AA?9?$AAw?$AAi?$AAn?$AA?9?$AAc?$AAo?$AAr?$AAe@ 1013d1d8     libucrt:winapi_thunks.obj
 0002:00007218       ??_C@_1DI@IJCEHOCB@?$AAa?$AAp?$AAi?$AA?9?$AAm?$AAs?$AA?9?$AAw?$AAi?$AAn?$AA?9?$AAc?$AAo?$AAr?$AAe@ 1013d218     libucrt:winapi_thunks.obj
 0002:00007250       ??_C@_1EI@MPIAOHOC@?$AAa?$AAp?$AAi?$AA?9?$AAm?$AAs?$AA?9?$AAw?$AAi?$AAn?$AA?9?$AAc?$AAo?$AAr?$AAe@ 1013d250     libucrt:winapi_thunks.obj
 0002:00007298       ??_C@_1FK@FPHCKFIE@?$AAa?$AAp?$AAi?$AA?9?$AAm?$AAs?$AA?9?$AAw?$AAi?$AAn?$AA?9?$AAc?$AAo?$AAr?$AAe@ 1013d298     libucrt:winapi_thunks.obj
 0002:000072f8       ??_C@_1EM@DILCGIIO@?$AAa?$AAp?$AAi?$AA?9?$AAm?$AAs?$AA?9?$AAw?$AAi?$AAn?$AA?9?$AAc?$AAo?$AAr?$AAe@ 1013d2f8     libucrt:winapi_thunks.obj
 0002:00007344       ??_C@_1DM@LNCGDDPN@?$AAa?$AAp?$AAi?$AA?9?$AAm?$AAs?$AA?9?$AAw?$AAi?$AAn?$AA?9?$AAc?$AAo?$AAr?$AAe@ 1013d344     libucrt:winapi_thunks.obj
 0002:00007380       ??_C@_1DO@FPAPJEMD@?$AAa?$AAp?$AAi?$AA?9?$AAm?$AAs?$AA?9?$AAw?$AAi?$AAn?$AA?9?$AAc?$AAo?$AAr?$AAe@ 1013d380     libucrt:winapi_thunks.obj
 0002:000073c0       ??_C@_1DK@NDHNAHIO@?$AAa?$AAp?$AAi?$AA?9?$AAm?$AAs?$AA?9?$AAw?$AAi?$AAn?$AA?9?$AAc?$AAo?$AAr?$AAe@ 1013d3c0     libucrt:winapi_thunks.obj
 0002:000073fc       ??_C@_1DM@KGHDGBCM@?$AAa?$AAp?$AAi?$AA?9?$AAm?$AAs?$AA?9?$AAw?$AAi?$AAn?$AA?9?$AAc?$AAo?$AAr?$AAe@ 1013d3fc     libucrt:winapi_thunks.obj
 0002:00007438       ??_C@_1EO@IJIOEFOH@?$AAa?$AAp?$AAi?$AA?9?$AAm?$AAs?$AA?9?$AAw?$AAi?$AAn?$AA?9?$AAr?$AAt?$AAc?$AAo@ 1013d438     libucrt:winapi_thunks.obj
 0002:00007488       ??_C@_1FG@HHGEKANL@?$AAa?$AAp?$AAi?$AA?9?$AAm?$AAs?$AA?9?$AAw?$AAi?$AAn?$AA?9?$AAs?$AAe?$AAc?$AAu@ 1013d488     libucrt:winapi_thunks.obj
 0002:000074e0       ??_C@_1EG@DBIOJECG@?$AAe?$AAx?$AAt?$AA?9?$AAm?$AAs?$AA?9?$AAw?$AAi?$AAn?$AA?9?$AAn?$AAt?$AAu?$AAs@ 1013d4e0     libucrt:winapi_thunks.obj
 0002:00007528       ??_C@_1EO@FIHMJCLF@?$AAe?$AAx?$AAt?$AA?9?$AAm?$AAs?$AA?9?$AAw?$AAi?$AAn?$AA?9?$AAn?$AAt?$AAu?$AAs@ 1013d528     libucrt:winapi_thunks.obj
 0002:00007578       ??_C@_1BC@DNHGCMLG@?$AAa?$AAd?$AAv?$AAa?$AAp?$AAi?$AA3?$AA2@ 1013d578     libucrt:winapi_thunks.obj
 0002:0000758c       ??_C@_1M@OAIMIKLP@?$AAn?$AAt?$AAd?$AAl?$AAl@ 1013d58c     libucrt:winapi_thunks.obj
 0002:00007598       ??_C@_1EG@DPGNFKGC@?$AAa?$AAp?$AAi?$AA?9?$AAm?$AAs?$AA?9?$AAw?$AAi?$AAn?$AA?9?$AAa?$AAp?$AAp?$AAm@ 1013d598     libucrt:winapi_thunks.obj
 0002:000075e0       ??_C@_1O@BCCLBEOE@?$AAu?$AAs?$AAe?$AAr?$AA3?$AA2@ 1013d5e0     libucrt:winapi_thunks.obj
 0002:000075f0       ??_C@_1BA@IAIFMGEF@?$AAe?$AAx?$AAt?$AA?9?$AAm?$AAs?$AA?9@ 1013d5f0     libucrt:winapi_thunks.obj
 0002:00007604       ??_C@_0BA@FHFNEAED@AreFileApisANSI@ 1013d604     libucrt:winapi_thunks.obj
 0002:00007644       ??_C@_0O@KKBNKAPF@LCMapStringEx@ 1013d644     libucrt:winapi_thunks.obj
 0002:0000765c       ??_C@_0BB@HBDEELFH@LocaleNameToLCID@ 1013d65c     libucrt:winapi_thunks.obj
 0002:00007674       ??_C@_0CF@OJOFEIGO@AppPolicyGetProcessTerminationM@ 1013d674     libucrt:winapi_thunks.obj
 0002:000076a0       ___lc_time_c               1013d6a0     libucrt:nlsdata.obj
 0002:00007804       ??_C@_03KOEHGMDN@Sun@      1013d804     libucrt:nlsdata.obj
 0002:00007808       ??_C@_03PDAGKDH@Mon@       1013d808     libucrt:nlsdata.obj
 0002:0000780c       ??_C@_03NAGEINEP@Tue@      1013d80c     libucrt:nlsdata.obj
 0002:00007810       ??_C@_03MHOMLAJA@Wed@      1013d810     libucrt:nlsdata.obj
 0002:00007814       ??_C@_03IOFIKPDN@Thu@      1013d814     libucrt:nlsdata.obj
 0002:00007818       ??_C@_03IDIOELNC@Fri@      1013d818     libucrt:nlsdata.obj
 0002:0000781c       ??_C@_03FEFJNEK@Sat@       1013d81c     libucrt:nlsdata.obj
 0002:00007820       ??_C@_06OOPIFAJ@Sunday@    1013d820     libucrt:nlsdata.obj
 0002:00007828       ??_C@_06JLEDEDGH@Monday@   1013d828     libucrt:nlsdata.obj
 0002:00007830       ??_C@_07BAAGCFCM@Tuesday@  1013d830     libucrt:nlsdata.obj
 0002:00007838       ??_C@_09DLIGFAKA@Wednesday@ 1013d838     libucrt:nlsdata.obj
 0002:00007844       ??_C@_08HACCIKIA@Thursday@ 1013d844     libucrt:nlsdata.obj
 0002:00007850       ??_C@_06JECMNKMI@Friday@   1013d850     libucrt:nlsdata.obj
 0002:00007858       ??_C@_08INBOOONO@Saturday@ 1013d858     libucrt:nlsdata.obj
 0002:00007864       ??_C@_03JIHJHPIE@Jan@      1013d864     libucrt:nlsdata.obj
 0002:00007868       ??_C@_03HJBDCHOM@Feb@      1013d868     libucrt:nlsdata.obj
 0002:0000786c       ??_C@_03ODNJBKGA@Mar@      1013d86c     libucrt:nlsdata.obj
 0002:00007870       ??_C@_03LEOLGMJP@Apr@      1013d870     libucrt:nlsdata.obj
 0002:00007874       ??_C@_03CNMDKL@May@        1013d874     libucrt:nlsdata.obj
 0002:00007878       ??_C@_03IDFGHECI@Jun@      1013d878     libucrt:nlsdata.obj
 0002:0000787c       ??_C@_03LBGABGKK@Jul@      1013d87c     libucrt:nlsdata.obj
 0002:00007880       ??_C@_03IFJFEIGA@Aug@      1013d880     libucrt:nlsdata.obj
 0002:00007884       ??_C@_03GGCAPAJC@Sep@      1013d884     libucrt:nlsdata.obj
 0002:00007888       ??_C@_03BMAOKBAD@Oct@      1013d888     libucrt:nlsdata.obj
 0002:0000788c       ??_C@_03JPJOFNIA@Nov@      1013d88c     libucrt:nlsdata.obj
 0002:00007890       ??_C@_03MKABNOCG@Dec@      1013d890     libucrt:nlsdata.obj
 0002:00007894       ??_C@_07CGJPFGJA@January@  1013d894     libucrt:nlsdata.obj
 0002:0000789c       ??_C@_08GNJGEPFN@February@ 1013d89c     libucrt:nlsdata.obj
 0002:000078a8       ??_C@_05HPCKOFNC@March@    1013d8a8     libucrt:nlsdata.obj
 0002:000078b0       ??_C@_05DMJDNLEJ@April@    1013d8b0     libucrt:nlsdata.obj
 0002:000078b8       ??_C@_04CNLMGBGM@June@     1013d8b8     libucrt:nlsdata.obj
 0002:000078c0       ??_C@_04MIEPOIFP@July@     1013d8c0     libucrt:nlsdata.obj
 0002:000078c8       ??_C@_06LBBHFDDG@August@   1013d8c8     libucrt:nlsdata.obj
 0002:000078d0       ??_C@_09BHHEALKD@September@ 1013d8d0     libucrt:nlsdata.obj
 0002:000078dc       ??_C@_07JJNFCEND@October@  1013d8dc     libucrt:nlsdata.obj
 0002:000078e4       ??_C@_08HCHEGEOA@November@ 1013d8e4     libucrt:nlsdata.obj
 0002:000078f0       ??_C@_08EDHMEBNP@December@ 1013d8f0     libucrt:nlsdata.obj
 0002:000078fc       ??_C@_02DEDBPAFC@AM@       1013d8fc     libucrt:nlsdata.obj
 0002:00007900       ??_C@_02CJNFDJBF@PM@       1013d900     libucrt:nlsdata.obj
 0002:00007904       ??_C@_08BPBNCDIB@MM?1dd?1yy@ 1013d904     libucrt:nlsdata.obj
 0002:00007910       ??_C@_0BE@CKGJFCPC@dddd?0?5MMMM?5dd?0?5yyyy@ 1013d910     libucrt:nlsdata.obj
 0002:00007924       ??_C@_08JCCMCCIL@HH?3mm?3ss@ 1013d924     libucrt:nlsdata.obj
 0002:00007930       ??_C@_17MBGCMIPB@?$AAS?$AAu?$AAn@ 1013d930     libucrt:nlsdata.obj
 0002:00007938       ??_C@_17KBOMKBF@?$AAM?$AAo?$AAn@ 1013d938     libucrt:nlsdata.obj
 0002:00007940       ??_C@_17BMKGEGOJ@?$AAT?$AAu?$AAe@ 1013d940     libucrt:nlsdata.obj
 0002:00007948       ??_C@_17CJEDCEPE@?$AAW?$AAe?$AAd@ 1013d948     libucrt:nlsdata.obj
 0002:00007950       ??_C@_17PDPHAADD@?$AAT?$AAh?$AAu@ 1013d950     libucrt:nlsdata.obj
 0002:00007958       ??_C@_17HFOLPPLP@?$AAF?$AAr?$AAi@ 1013d958     libucrt:nlsdata.obj
 0002:00007960       ??_C@_17GGIBDPIH@?$AAS?$AAa?$AAt@ 1013d960     libucrt:nlsdata.obj
 0002:00007968       ??_C@_1O@IHNHDHPB@?$AAS?$AAu?$AAn?$AAd?$AAa?$AAy@ 1013d968     libucrt:nlsdata.obj
 0002:00007978       ??_C@_1O@MMNBFLIA@?$AAM?$AAo?$AAn?$AAd?$AAa?$AAy@ 1013d978     libucrt:nlsdata.obj
 0002:00007988       ??_C@_1BA@ENFBFFEK@?$AAT?$AAu?$AAe?$AAs?$AAd?$AAa?$AAy@ 1013d988     libucrt:nlsdata.obj
 0002:00007998       ??_C@_1BE@EBOGMDOH@?$AAW?$AAe?$AAd?$AAn?$AAe?$AAs?$AAd?$AAa?$AAy@ 1013d998     libucrt:nlsdata.obj
 0002:000079ac       ??_C@_1BC@HHMNLIHE@?$AAT?$AAh?$AAu?$AAr?$AAs?$AAd?$AAa?$AAy@ 1013d9ac     libucrt:nlsdata.obj
 0002:000079c0       ??_C@_1O@PDICJHAG@?$AAF?$AAr?$AAi?$AAd?$AAa?$AAy@ 1013d9c0     libucrt:nlsdata.obj
 0002:000079d0       ??_C@_1BC@ENMNNPAJ@?$AAS?$AAa?$AAt?$AAu?$AAr?$AAd?$AAa?$AAy@ 1013d9d0     libucrt:nlsdata.obj
 0002:000079e4       ??_C@_17DKNBKCHM@?$AAJ?$AAa?$AAn@ 1013d9e4     libucrt:nlsdata.obj
 0002:000079ec       ??_C@_17LMDJEKJN@?$AAF?$AAe?$AAb@ 1013d9ec     libucrt:nlsdata.obj
 0002:000079f4       ??_C@_17CKNLEDEC@?$AAM?$AAa?$AAr@ 1013d9f4     libucrt:nlsdata.obj
 0002:000079fc       ??_C@_17LFPOIHDD@?$AAA?$AAp?$AAr@ 1013d9fc     libucrt:nlsdata.obj
 0002:00007a04       ??_C@_17PNNKMEED@?$AAM?$AAa?$AAy@ 1013da04     libucrt:nlsdata.obj
 0002:00007a0c       ??_C@_17KCJGOCPB@?$AAJ?$AAu?$AAn@ 1013da0c     libucrt:nlsdata.obj
 0002:00007a14       ??_C@_17IJPCKHK@?$AAJ?$AAu?$AAl@ 1013da14     libucrt:nlsdata.obj
 0002:00007a1c       ??_C@_17ICPELBCN@?$AAA?$AAu?$AAg@ 1013da1c     libucrt:nlsdata.obj
 0002:00007a24       ??_C@_17HCHCOKMG@?$AAS?$AAe?$AAp@ 1013da24     libucrt:nlsdata.obj
 0002:00007a2c       ??_C@_17FNLKOI@?$AAO?$AAc?$AAt@ 1013da2c     libucrt:nlsdata.obj
 0002:00007a34       ??_C@_17BBDMLCIG@?$AAN?$AAo?$AAv@ 1013da34     libucrt:nlsdata.obj
 0002:00007a3c       ??_C@_17EGKACKIF@?$AAD?$AAe?$AAc@ 1013da3c     libucrt:nlsdata.obj
 0002:00007a44       ??_C@_1BA@EFMEIEBA@?$AAJ?$AAa?$AAn?$AAu?$AAa?$AAr?$AAy@ 1013da44     libucrt:nlsdata.obj
 0002:00007a54       ??_C@_1BC@JGDDFFAM@?$AAF?$AAe?$AAb?$AAr?$AAu?$AAa?$AAr?$AAy@ 1013da54     libucrt:nlsdata.obj
 0002:00007a68       ??_C@_1M@IKEENEDF@?$AAM?$AAa?$AAr?$AAc?$AAh@ 1013da68     libucrt:nlsdata.obj
 0002:00007a74       ??_C@_1M@GJNLMHFD@?$AAA?$AAp?$AAr?$AAi?$AAl@ 1013da74     libucrt:nlsdata.obj
 0002:00007a80       ??_C@_19EPFLPGAP@?$AAJ?$AAu?$AAn?$AAe@ 1013da80     libucrt:nlsdata.obj
 0002:00007a8c       ??_C@_19BIFMLPCD@?$AAJ?$AAu?$AAl?$AAy@ 1013da8c     libucrt:nlsdata.obj
 0002:00007a98       ??_C@_1O@PAHLKOAC@?$AAA?$AAu?$AAg?$AAu?$AAs?$AAt@ 1013da98     libucrt:nlsdata.obj
 0002:00007aa8       ??_C@_1BE@DKAAMBJL@?$AAS?$AAe?$AAp?$AAt?$AAe?$AAm?$AAb?$AAe?$AAr@ 1013daa8     libucrt:nlsdata.obj
 0002:00007abc       ??_C@_1BA@EPANDLNG@?$AAO?$AAc?$AAt?$AAo?$AAb?$AAe?$AAr@ 1013dabc     libucrt:nlsdata.obj
 0002:00007acc       ??_C@_1BC@BGLIFPF@?$AAN?$AAo?$AAv?$AAe?$AAm?$AAb?$AAe?$AAr@ 1013dacc     libucrt:nlsdata.obj
 0002:00007ae0       ??_C@_1BC@FEMKIFH@?$AAD?$AAe?$AAc?$AAe?$AAm?$AAb?$AAe?$AAr@ 1013dae0     libucrt:nlsdata.obj
 0002:00007af4       ??_C@_15ODEHAHHF@?$AAA?$AAM@ 1013daf4     libucrt:nlsdata.obj
 0002:00007afc       ??_C@_15CLMNNGEL@?$AAP?$AAM@ 1013dafc     libucrt:nlsdata.obj
 0002:00007b04       ??_C@_1BC@IEBCMHCM@?$AAM?$AAM?$AA?1?$AAd?$AAd?$AA?1?$AAy?$AAy@ 1013db04     libucrt:nlsdata.obj
 0002:00007b18       ??_C@_1CI@KNAKOEBC@?$AAd?$AAd?$AAd?$AAd?$AA?0?$AA?5?$AAM?$AAM?$AAM?$AAM?$AA?5?$AAd?$AAd?$AA?0?$AA?5@ 1013db18     libucrt:nlsdata.obj
 0002:00007b40       ??_C@_1BC@GDGBMEMK@?$AAH?$AAH?$AA?3?$AAm?$AAm?$AA?3?$AAs?$AAs@ 1013db40     libucrt:nlsdata.obj
 0002:00007b54       ??_C@_1M@BMHNFIME@?$AAe?$AAn?$AA?9?$AAU?$AAS@ 1013db54     libucrt:nlsdata.obj
 0002:00007ba0       ??_C@_03OEIAHPBN@INF@      1013dba0     libucrt:cvt.obj
 0002:00007ba4       ??_C@_03OJHLLCGB@inf@      1013dba4     libucrt:cvt.obj
 0002:00007ba8       ??_C@_03LKNCIKJB@NAN@      1013dba8     libucrt:cvt.obj
 0002:00007bac       ??_C@_03LHCJEHON@nan@      1013dbac     libucrt:cvt.obj
 0002:00007bb0       ??_C@_09OFJJIMPC@NAN?$CISNAN?$CJ@ 1013dbb0     libucrt:cvt.obj
 0002:00007bbc       ??_C@_09IPFBKMDL@nan?$CIsnan?$CJ@ 1013dbbc     libucrt:cvt.obj
 0002:00007bc8       ??_C@_08IKHNHAJ@NAN?$CIIND?$CJ@ 1013dbc8     libucrt:cvt.obj
 0002:00007bd4       ??_C@_08OFCDMILK@nan?$CIind?$CJ@ 1013dbd4     libucrt:cvt.obj
 0002:00007be0       ??_C@_05KLBDPFGC@e?$CL000@ 1013dbe0     libucrt:cvt.obj
 0002:00007be8       ___newctype                1013dbe8     libucrt:ctype.obj
 0002:00007ee8       ___newclmap                1013dee8     libucrt:ctype.obj
 0002:00008068       ___newcumap                1013e068     libucrt:ctype.obj
 0002:00008b30       ??_C@_15EMKDOKLE@?$AAa?$AAr@ 1013eb30     libucrt:lcidtoname_downlevel.obj
 0002:00008b38       ??_C@_15KNPADPLH@?$AAb?$AAg@ 1013eb38     libucrt:lcidtoname_downlevel.obj
 0002:00008b40       ??_C@_15EDMHLDMO@?$AAc?$AAa@ 1013eb40     libucrt:lcidtoname_downlevel.obj
 0002:00008b48       ??_C@_1O@BPEAJADD@?$AAz?$AAh?$AA?9?$AAC?$AAH?$AAS@ 1013eb48     libucrt:lcidtoname_downlevel.obj
 0002:00008b58       ??_C@_15LJNHCMNK@?$AAc?$AAs@ 1013eb58     libucrt:lcidtoname_downlevel.obj
 0002:00008b60       ??_C@_15FOMCIDHG@?$AAd?$AAa@ 1013eb60     libucrt:lcidtoname_downlevel.obj
 0002:00008b68       ??_C@_15NBKABECB@?$AAd?$AAe@ 1013eb68     libucrt:lcidtoname_downlevel.obj
 0002:00008b70       ??_C@_15GHPEIIAO@?$AAe?$AAl@ 1013eb70     libucrt:lcidtoname_downlevel.obj
 0002:00008b78       ??_C@_15MNPNEAIF@?$AAe?$AAn@ 1013eb78     libucrt:lcidtoname_downlevel.obj
 0002:00008b80       ??_C@_15GPIOMPMH@?$AAe?$AAs@ 1013eb80     libucrt:lcidtoname_downlevel.obj
 0002:00008b88       ??_C@_15NGLOAKJC@?$AAf?$AAi@ 1013eb88     libucrt:lcidtoname_downlevel.obj
 0002:00008b90       ??_C@_15FBKGNKAM@?$AAf?$AAr@ 1013eb90     libucrt:lcidtoname_downlevel.obj
 0002:00008b98       ??_C@_15KGGCNEFK@?$AAh?$AAe@ 1013eb98     libucrt:lcidtoname_downlevel.obj
 0002:00008ba0       ??_C@_15PGHLIDMF@?$AAh?$AAu@ 1013eba0     libucrt:lcidtoname_downlevel.obj
 0002:00008ba8       ??_C@_15BIEMAPLM@?$AAi?$AAs@ 1013eba8     libucrt:lcidtoname_downlevel.obj
 0002:00008bb0       ??_C@_15IFJLDHAF@?$AAi?$AAt@ 1013ebb0     libucrt:lcidtoname_downlevel.obj
 0002:00008bb8       ??_C@_15GEMIOCAG@?$AAj?$AAa@ 1013ebb8     libucrt:lcidtoname_downlevel.obj
 0002:00008bc0       ??_C@_15EPELEGJA@?$AAk?$AAo@ 1013ebc0     libucrt:lcidtoname_downlevel.obj
 0002:00008bc8       ??_C@_15NDDHIMN@?$AAn?$AAl@ 1013ebc8     libucrt:lcidtoname_downlevel.obj
 0002:00008bd0       ??_C@_15BPIGNHCD@?$AAn?$AAo@ 1013ebd0     libucrt:lcidtoname_downlevel.obj
 0002:00008bd8       ??_C@_15DEOPBLCG@?$AAp?$AAl@ 1013ebd8     libucrt:lcidtoname_downlevel.obj
 0002:00008be0       ??_C@_15KBECGEFG@?$AAp?$AAt@ 1013ebe0     libucrt:lcidtoname_downlevel.obj
 0002:00008be8       ??_C@_15GLJCBFMD@?$AAr?$AAo@ 1013ebe8     libucrt:lcidtoname_downlevel.obj
 0002:00008bf0       ??_C@_15FEDGKCDI@?$AAr?$AAu@ 1013ebf0     libucrt:lcidtoname_downlevel.obj
 0002:00008bf8       ??_C@_15GLKMLLHM@?$AAh?$AAr@ 1013ebf8     libucrt:lcidtoname_downlevel.obj
 0002:00008c00       ??_C@_15CPKMFBDB@?$AAs?$AAk@ 1013ec00     libucrt:lcidtoname_downlevel.obj
 0002:00008c08       ??_C@_15BAAIOGMK@?$AAs?$AAq@ 1013ec08     libucrt:lcidtoname_downlevel.obj
 0002:00008c10       ??_C@_15INNPNOHD@?$AAs?$AAv@ 1013ec10     libucrt:lcidtoname_downlevel.obj
 0002:00008c18       ??_C@_15CABMMOGH@?$AAt?$AAh@ 1013ec18     libucrt:lcidtoname_downlevel.obj
 0002:00008c20       ??_C@_15BPLIHJJM@?$AAt?$AAr@ 1013ec20     libucrt:lcidtoname_downlevel.obj
 0002:00008c28       ??_C@_15NEOEKKDJ@?$AAu?$AAr@ 1013ec28     libucrt:lcidtoname_downlevel.obj
 0002:00008c30       ??_C@_15NFICGAJK@?$AAi?$AAd@ 1013ec30     libucrt:lcidtoname_downlevel.obj
 0002:00008c38       ??_C@_15PJPFLCCM@?$AAu?$AAk@ 1013ec38     libucrt:lcidtoname_downlevel.obj
 0002:00008c40       ??_C@_15HPJPHDM@?$AAb?$AAe@ 1013ec40     libucrt:lcidtoname_downlevel.obj
 0002:00008c48       ??_C@_15LCHLGJII@?$AAs?$AAl@ 1013ec48     libucrt:lcidtoname_downlevel.obj
 0002:00008c50       ??_C@_15PCFJPHHO@?$AAe?$AAt@ 1013ec50     libucrt:lcidtoname_downlevel.obj
 0002:00008c58       ??_C@_15HPFPGODN@?$AAl?$AAv@ 1013ec58     libucrt:lcidtoname_downlevel.obj
 0002:00008c60       ??_C@_15NFFGKGLG@?$AAl?$AAt@ 1013ec60     libucrt:lcidtoname_downlevel.obj
 0002:00008c68       ??_C@_15BDAKCCHN@?$AAf?$AAa@ 1013ec68     libucrt:lcidtoname_downlevel.obj
 0002:00008c70       ??_C@_15NFGIAIAJ@?$AAv?$AAi@ 1013ec70     libucrt:lcidtoname_downlevel.obj
 0002:00008c78       ??_C@_15LMKNDMHN@?$AAh?$AAy@ 1013ec78     libucrt:lcidtoname_downlevel.obj
 0002:00008c80       ??_C@_15IJBHMCFL@?$AAa?$AAz@ 1013ec80     libucrt:lcidtoname_downlevel.obj
 0002:00008c88       ??_C@_15EKOFJABL@?$AAe?$AAu@ 1013ec88     libucrt:lcidtoname_downlevel.obj
 0002:00008c90       ??_C@_15BGHADCNK@?$AAm?$AAk@ 1013ec90     libucrt:lcidtoname_downlevel.obj
 0002:00008c98       ??_C@_15JDNICKHM@?$AAa?$AAf@ 1013ec98     libucrt:lcidtoname_downlevel.obj
 0002:00008ca0       ??_C@_15KPJEDBKD@?$AAk?$AAa@ 1013eca0     libucrt:lcidtoname_downlevel.obj
 0002:00008ca8       ??_C@_15PDNFFFEO@?$AAf?$AAo@ 1013eca8     libucrt:lcidtoname_downlevel.obj
 0002:00008cb0       ??_C@_15OMLEGLOC@?$AAh?$AAi@ 1013ecb0     libucrt:lcidtoname_downlevel.obj
 0002:00008cb8       ??_C@_15IDNNENKK@?$AAm?$AAs@ 1013ecb8     libucrt:lcidtoname_downlevel.obj
 0002:00008cc0       ??_C@_15MACJNBMH@?$AAk?$AAk@ 1013ecc0     libucrt:lcidtoname_downlevel.obj
 0002:00008cc8       ??_C@_15DKDJEOND@?$AAk?$AAy@ 1013ecc8     libucrt:lcidtoname_downlevel.obj
 0002:00008cd0       ??_C@_15DFGDLJBG@?$AAs?$AAw@ 1013ecd0     libucrt:lcidtoname_downlevel.obj
 0002:00008cd8       ??_C@_15BBFAICNG@?$AAu?$AAz@ 1013ecd8     libucrt:lcidtoname_downlevel.obj
 0002:00008ce0       ??_C@_15DKNDCGEA@?$AAt?$AAt@ 1013ece0     libucrt:lcidtoname_downlevel.obj
 0002:00008ce8       ??_C@_15MGIFMDPL@?$AAp?$AAa@ 1013ece8     libucrt:lcidtoname_downlevel.obj
 0002:00008cf0       ??_C@_15HCNDBBA@?$AAg?$AAu@ 1013ecf0     libucrt:lcidtoname_downlevel.obj
 0002:00008cf8       ??_C@_15FNBEIBON@?$AAt?$AAa@ 1013ecf8     libucrt:lcidtoname_downlevel.obj
 0002:00008d00       ??_C@_15NCHGBGLK@?$AAt?$AAe@ 1013ed00     libucrt:lcidtoname_downlevel.obj
 0002:00008d08       ??_C@_15PHPHCBPF@?$AAk?$AAn@ 1013ed08     libucrt:lcidtoname_downlevel.obj
 0002:00008d10       ??_C@_15DLGBCKMP@?$AAm?$AAr@ 1013ed10     libucrt:lcidtoname_downlevel.obj
 0002:00008d18       ??_C@_15EABBLBFF@?$AAs?$AAa@ 1013ed18     libucrt:lcidtoname_downlevel.obj
 0002:00008d20       ??_C@_15CBKOMCOI@?$AAm?$AAn@ 1013ed20     libucrt:lcidtoname_downlevel.obj
 0002:00008d28       ??_C@_15CKDMCJAF@?$AAg?$AAl@ 1013ed28     libucrt:lcidtoname_downlevel.obj
 0002:00008d30       ??_C@_17CNJFBPG@?$AAk?$AAo?$AAk@ 1013ed30     libucrt:lcidtoname_downlevel.obj
 0002:00008d38       ??_C@_17FFBJICPL@?$AAs?$AAy?$AAr@ 1013ed38     libucrt:lcidtoname_downlevel.obj
 0002:00008d40       ??_C@_17KPNDCPAF@?$AAd?$AAi?$AAv@ 1013ed40     libucrt:lcidtoname_downlevel.obj
 0002:00008d48       ??_C@_11LOCGONAA@@         1013ed48     libucrt:lcidtoname_downlevel.obj
 0002:00008d4c       ??_C@_1M@OKAHONE@?$AAa?$AAr?$AA?9?$AAS?$AAA@ 1013ed4c     libucrt:lcidtoname_downlevel.obj
 0002:00008d58       ??_C@_1M@FFFIGIGK@?$AAb?$AAg?$AA?9?$AAB?$AAG@ 1013ed58     libucrt:lcidtoname_downlevel.obj
 0002:00008d64       ??_C@_1M@BJNKEDC@?$AAc?$AAa?$AA?9?$AAE?$AAS@ 1013ed64     libucrt:lcidtoname_downlevel.obj
 0002:00008d70       ??_C@_1M@IJJHFJHA@?$AAc?$AAs?$AA?9?$AAC?$AAZ@ 1013ed70     libucrt:lcidtoname_downlevel.obj
 0002:00008d7c       ??_C@_1M@CLPEOBGI@?$AAd?$AAa?$AA?9?$AAD?$AAK@ 1013ed7c     libucrt:lcidtoname_downlevel.obj
 0002:00008d88       ??_C@_1M@MCMADGCB@?$AAd?$AAe?$AA?9?$AAD?$AAE@ 1013ed88     libucrt:lcidtoname_downlevel.obj
 0002:00008d94       ??_C@_1M@OOCKEMAM@?$AAe?$AAl?$AA?9?$AAG?$AAR@ 1013ed94     libucrt:lcidtoname_downlevel.obj
 0002:00008da0       ??_C@_1M@DDNJFGID@?$AAf?$AAi?$AA?9?$AAF?$AAI@ 1013eda0     libucrt:lcidtoname_downlevel.obj
 0002:00008dac       ??_C@_1M@GLIPPMAC@?$AAf?$AAr?$AA?9?$AAF?$AAR@ 1013edac     libucrt:lcidtoname_downlevel.obj
 0002:00008db8       ??_C@_1M@GFMCHPE@?$AAh?$AAe?$AA?9?$AAI?$AAL@ 1013edb8     libucrt:lcidtoname_downlevel.obj
 0002:00008dc4       ??_C@_1M@MHLPGNKM@?$AAh?$AAu?$AA?9?$AAH?$AAU@ 1013edc4     libucrt:lcidtoname_downlevel.obj
 0002:00008dd0       ??_C@_1M@LPDDNNPN@?$AAi?$AAs?$AA?9?$AAI?$AAS@ 1013edd0     libucrt:lcidtoname_downlevel.obj
 0002:00008ddc       ??_C@_1M@MADIPODN@?$AAi?$AAt?$AA?9?$AAI?$AAT@ 1013eddc     libucrt:lcidtoname_downlevel.obj
 0002:00008de8       ??_C@_1M@IHBJJGG@?$AAn?$AAl?$AA?9?$AAN?$AAL@ 1013ede8     libucrt:lcidtoname_downlevel.obj
 0002:00008df4       ??_C@_1M@EANAGDL@?$AAn?$AAb?$AA?9?$AAN?$AAO@ 1013edf4     libucrt:lcidtoname_downlevel.obj
 0002:00008e00       ??_C@_1M@NEIEMEGP@?$AAp?$AAl?$AA?9?$AAP?$AAL@ 1013ee00     libucrt:lcidtoname_downlevel.obj
 0002:00008e0c       ??_C@_1M@BOCFIGEP@?$AAp?$AAt?$AA?9?$AAB?$AAR@ 1013ee0c     libucrt:lcidtoname_downlevel.obj
 0002:00008e18       ??_C@_1M@IMPFOPBG@?$AAr?$AAo?$AA?9?$AAR?$AAO@ 1013ee18     libucrt:lcidtoname_downlevel.obj
 0002:00008e24       ??_C@_1M@IDNNEJMM@?$AAr?$AAu?$AA?9?$AAR?$AAU@ 1013ee24     libucrt:lcidtoname_downlevel.obj
 0002:00008e30       ??_C@_1M@LILEEOGM@?$AAh?$AAr?$AA?9?$AAH?$AAR@ 1013ee30     libucrt:lcidtoname_downlevel.obj
 0002:00008e3c       ??_C@_1M@FKIFEHPB@?$AAs?$AAk?$AA?9?$AAS?$AAK@ 1013ee3c     libucrt:lcidtoname_downlevel.obj
 0002:00008e48       ??_C@_1M@LJMAMNPJ@?$AAs?$AAq?$AA?9?$AAA?$AAL@ 1013ee48     libucrt:lcidtoname_downlevel.obj
 0002:00008e54       ??_C@_1M@GIAKDKJK@?$AAs?$AAv?$AA?9?$AAS?$AAE@ 1013ee54     libucrt:lcidtoname_downlevel.obj
 0002:00008e60       ??_C@_1M@MKJKIKCL@?$AAt?$AAh?$AA?9?$AAT?$AAH@ 1013ee60     libucrt:lcidtoname_downlevel.obj
 0002:00008e6c       ??_C@_1M@MFLCCMPB@?$AAt?$AAr?$AA?9?$AAT?$AAR@ 1013ee6c     libucrt:lcidtoname_downlevel.obj
 0002:00008e78       ??_C@_1M@OIJHDKJN@?$AAu?$AAr?$AA?9?$AAP?$AAK@ 1013ee78     libucrt:lcidtoname_downlevel.obj
 0002:00008e84       ??_C@_1M@LHIPCIEK@?$AAi?$AAd?$AA?9?$AAI?$AAD@ 1013ee84     libucrt:lcidtoname_downlevel.obj
 0002:00008e90       ??_C@_1M@MFMOBGI@?$AAu?$AAk?$AA?9?$AAU?$AAA@ 1013ee90     libucrt:lcidtoname_downlevel.obj
 0002:00008e9c       ??_C@_1M@OBGLJIPL@?$AAb?$AAe?$AA?9?$AAB?$AAY@ 1013ee9c     libucrt:lcidtoname_downlevel.obj
 0002:00008ea8       ??_C@_1M@BCFAJEAD@?$AAs?$AAl?$AA?9?$AAS?$AAI@ 1013eea8     libucrt:lcidtoname_downlevel.obj
 0002:00008eb4       ??_C@_1M@FKFFEDDN@?$AAe?$AAt?$AA?9?$AAE?$AAE@ 1013eeb4     libucrt:lcidtoname_downlevel.obj
 0002:00008ec0       ??_C@_1M@KGKKAACI@?$AAl?$AAv?$AA?9?$AAL?$AAV@ 1013eec0     libucrt:lcidtoname_downlevel.obj
 0002:00008ecc       ??_C@_1M@IFGBIJO@?$AAl?$AAt?$AA?9?$AAL?$AAT@ 1013eecc     libucrt:lcidtoname_downlevel.obj
 0002:00008ed8       ??_C@_1M@FGEAHEDM@?$AAf?$AAa?$AA?9?$AAI?$AAR@ 1013eed8     libucrt:lcidtoname_downlevel.obj
 0002:00008ee4       ??_C@_1M@KBMAIBFN@?$AAv?$AAi?$AA?9?$AAV?$AAN@ 1013eee4     libucrt:lcidtoname_downlevel.obj
 0002:00008ef0       ??_C@_1M@GPCBKDJK@?$AAh?$AAy?$AA?9?$AAA?$AAM@ 1013eef0     libucrt:lcidtoname_downlevel.obj
 0002:00008efc       ??_C@_1BG@BECMDDJB@?$AAa?$AAz?$AA?9?$AAA?$AAZ?$AA?9?$AAL?$AAa?$AAt?$AAn@ 1013eefc     libucrt:lcidtoname_downlevel.obj
 0002:00008f14       ??_C@_1M@MAOFCAEA@?$AAe?$AAu?$AA?9?$AAE?$AAS@ 1013ef14     libucrt:lcidtoname_downlevel.obj
 0002:00008f20       ??_C@_1M@IGHABKPI@?$AAm?$AAk?$AA?9?$AAM?$AAK@ 1013ef20     libucrt:lcidtoname_downlevel.obj
 0002:00008f2c       ??_C@_1M@IAIGNEJG@?$AAt?$AAn?$AA?9?$AAZ?$AAA@ 1013ef2c     libucrt:lcidtoname_downlevel.obj
 0002:00008f38       ??_C@_1M@IIJCOJFA@?$AAx?$AAh?$AA?9?$AAZ?$AAA@ 1013ef38     libucrt:lcidtoname_downlevel.obj
 0002:00008f44       ??_C@_1M@LGPJHNJH@?$AAz?$AAu?$AA?9?$AAZ?$AAA@ 1013ef44     libucrt:lcidtoname_downlevel.obj
 0002:00008f50       ??_C@_1M@HOKAOIO@?$AAa?$AAf?$AA?9?$AAZ?$AAA@ 1013ef50     libucrt:lcidtoname_downlevel.obj
 0002:00008f5c       ??_C@_1M@DPCLHLIE@?$AAk?$AAa?$AA?9?$AAG?$AAE@ 1013ef5c     libucrt:lcidtoname_downlevel.obj
 0002:00008f68       ??_C@_1M@BLKMHJBI@?$AAf?$AAo?$AA?9?$AAF?$AAO@ 1013ef68     libucrt:lcidtoname_downlevel.obj
 0002:00008f74       ??_C@_1M@LGGJAPPB@?$AAh?$AAi?$AA?9?$AAI?$AAN@ 1013ef74     libucrt:lcidtoname_downlevel.obj
 0002:00008f80       ??_C@_1M@FIKPIHFE@?$AAm?$AAt?$AA?9?$AAM?$AAT@ 1013ef80     libucrt:lcidtoname_downlevel.obj
 0002:00008f8c       ??_C@_1M@HEGGPBFA@?$AAs?$AAe?$AA?9?$AAN?$AAO@ 1013ef8c     libucrt:lcidtoname_downlevel.obj
 0002:00008f98       ??_C@_1M@EIBJEEPA@?$AAm?$AAs?$AA?9?$AAM?$AAY@ 1013ef98     libucrt:lcidtoname_downlevel.obj
 0002:00008fa4       ??_C@_1M@FHLBGMPP@?$AAk?$AAk?$AA?9?$AAK?$AAZ@ 1013efa4     libucrt:lcidtoname_downlevel.obj
 0002:00008fb0       ??_C@_1M@NGJJLCGI@?$AAk?$AAy?$AA?9?$AAK?$AAG@ 1013efb0     libucrt:lcidtoname_downlevel.obj
 0002:00008fbc       ??_C@_1M@GIENNBFC@?$AAs?$AAw?$AA?9?$AAK?$AAE@ 1013efbc     libucrt:lcidtoname_downlevel.obj
 0002:00008fc8       ??_C@_1BG@NDGMJIMJ@?$AAu?$AAz?$AA?9?$AAU?$AAZ?$AA?9?$AAL?$AAa?$AAt?$AAn@ 1013efc8     libucrt:lcidtoname_downlevel.obj
 0002:00008fe0       ??_C@_1M@IDCCIHBC@?$AAt?$AAt?$AA?9?$AAR?$AAU@ 1013efe0     libucrt:lcidtoname_downlevel.obj
 0002:00008fec       ??_C@_1M@LOICPMOJ@?$AAb?$AAn?$AA?9?$AAI?$AAN@ 1013efec     libucrt:lcidtoname_downlevel.obj
 0002:00008ff8       ??_C@_1M@KPKKNEAH@?$AAp?$AAa?$AA?9?$AAI?$AAN@ 1013eff8     libucrt:lcidtoname_downlevel.obj
 0002:00009004       ??_C@_1M@PJGPPBOG@?$AAg?$AAu?$AA?9?$AAI?$AAN@ 1013f004     libucrt:lcidtoname_downlevel.obj
 0002:00009010       ??_C@_1M@KMKMOPHI@?$AAt?$AAa?$AA?9?$AAI?$AAN@ 1013f010     libucrt:lcidtoname_downlevel.obj
 0002:0000901c       ??_C@_1M@KFEHEPAC@?$AAt?$AAe?$AA?9?$AAI?$AAN@ 1013f01c     libucrt:lcidtoname_downlevel.obj
 0002:00009028       ??_C@_1M@CDCLMGHI@?$AAk?$AAn?$AA?9?$AAI?$AAN@ 1013f028     libucrt:lcidtoname_downlevel.obj
 0002:00009034       ??_C@_1M@MIODLDKF@?$AAm?$AAl?$AA?9?$AAI?$AAN@ 1013f034     libucrt:lcidtoname_downlevel.obj
 0002:00009040       ??_C@_1M@PBIEACPO@?$AAm?$AAr?$AA?9?$AAI?$AAN@ 1013f040     libucrt:lcidtoname_downlevel.obj
 0002:0000904c       ??_C@_1M@NIDEAGPH@?$AAs?$AAa?$AA?9?$AAI?$AAN@ 1013f04c     libucrt:lcidtoname_downlevel.obj
 0002:00009058       ??_C@_1M@FHIHCBIO@?$AAm?$AAn?$AA?9?$AAM?$AAN@ 1013f058     libucrt:lcidtoname_downlevel.obj
 0002:00009064       ??_C@_1M@JAIJPENP@?$AAc?$AAy?$AA?9?$AAG?$AAB@ 1013f064     libucrt:lcidtoname_downlevel.obj
 0002:00009070       ??_C@_1M@PHGFBEPN@?$AAg?$AAl?$AA?9?$AAE?$AAS@ 1013f070     libucrt:lcidtoname_downlevel.obj
 0002:0000907c       ??_C@_1O@KPIPDNCP@?$AAk?$AAo?$AAk?$AA?9?$AAI?$AAN@ 1013f07c     libucrt:lcidtoname_downlevel.obj
 0002:0000908c       ??_C@_1O@KNHJLDJA@?$AAs?$AAy?$AAr?$AA?9?$AAS?$AAY@ 1013f08c     libucrt:lcidtoname_downlevel.obj
 0002:0000909c       ??_C@_1O@MKEKBLAH@?$AAd?$AAi?$AAv?$AA?9?$AAM?$AAV@ 1013f09c     libucrt:lcidtoname_downlevel.obj
 0002:000090ac       ??_C@_1O@OHDCKDDF@?$AAq?$AAu?$AAz?$AA?9?$AAB?$AAO@ 1013f0ac     libucrt:lcidtoname_downlevel.obj
 0002:000090bc       ??_C@_1M@LEPJNLFD@?$AAn?$AAs?$AA?9?$AAZ?$AAA@ 1013f0bc     libucrt:lcidtoname_downlevel.obj
 0002:000090c8       ??_C@_1M@OMLEIIJB@?$AAm?$AAi?$AA?9?$AAN?$AAZ@ 1013f0c8     libucrt:lcidtoname_downlevel.obj
 0002:000090d4       ??_C@_1M@PMPEAILG@?$AAa?$AAr?$AA?9?$AAI?$AAQ@ 1013f0d4     libucrt:lcidtoname_downlevel.obj
 0002:000090e0       ??_C@_1M@CNKPNOEE@?$AAd?$AAe?$AA?9?$AAC?$AAH@ 1013f0e0     libucrt:lcidtoname_downlevel.obj
 0002:000090ec       ??_C@_1M@LKMGMLKO@?$AAe?$AAn?$AA?9?$AAG?$AAB@ 1013f0ec     libucrt:lcidtoname_downlevel.obj
 0002:000090f8       ??_C@_1M@PGKJFFGL@?$AAe?$AAs?$AA?9?$AAM?$AAX@ 1013f0f8     libucrt:lcidtoname_downlevel.obj
 0002:00009104       ??_C@_1M@DNNANBDC@?$AAf?$AAr?$AA?9?$AAB?$AAE@ 1013f104     libucrt:lcidtoname_downlevel.obj
 0002:00009110       ??_C@_1M@HLGMDFHM@?$AAi?$AAt?$AA?9?$AAC?$AAH@ 1013f110     libucrt:lcidtoname_downlevel.obj
 0002:0000911c       ??_C@_1M@CLLBGJH@?$AAn?$AAl?$AA?9?$AAB?$AAE@ 1013f11c     libucrt:lcidtoname_downlevel.obj
 0002:00009128       ??_C@_1M@BODBOGLF@?$AAn?$AAn?$AA?9?$AAN?$AAO@ 1013f128     libucrt:lcidtoname_downlevel.obj
 0002:00009134       ??_C@_1M@HFFAHKAD@?$AAp?$AAt?$AA?9?$AAP?$AAT@ 1013f134     libucrt:lcidtoname_downlevel.obj
 0002:00009140       ??_C@_1BG@LNOAKHIE@?$AAs?$AAr?$AA?9?$AAS?$AAP?$AA?9?$AAL?$AAa?$AAt?$AAn@ 1013f140     libucrt:lcidtoname_downlevel.obj
 0002:00009158       ??_C@_1M@HBMHBGAK@?$AAs?$AAv?$AA?9?$AAF?$AAI@ 1013f158     libucrt:lcidtoname_downlevel.obj
 0002:00009164       ??_C@_1BG@DGCJGJBE@?$AAa?$AAz?$AA?9?$AAA?$AAZ?$AA?9?$AAC?$AAy?$AAr?$AAl@ 1013f164     libucrt:lcidtoname_downlevel.obj
 0002:0000917c       ??_C@_1M@KEJDAAHB@?$AAs?$AAe?$AA?9?$AAS?$AAE@ 1013f17c     libucrt:lcidtoname_downlevel.obj
 0002:00009188       ??_C@_1M@HEIBJJAD@?$AAm?$AAs?$AA?9?$AAB?$AAN@ 1013f188     libucrt:lcidtoname_downlevel.obj
 0002:00009194       ??_C@_1BG@PBGJMCEM@?$AAu?$AAz?$AA?9?$AAU?$AAZ?$AA?9?$AAC?$AAy?$AAr?$AAl@ 1013f194     libucrt:lcidtoname_downlevel.obj
 0002:000091ac       ??_C@_1O@LAOBCMDF@?$AAq?$AAu?$AAz?$AA?9?$AAE?$AAC@ 1013f1ac     libucrt:lcidtoname_downlevel.obj
 0002:000091bc       ??_C@_1M@POEEMAIO@?$AAa?$AAr?$AA?9?$AAE?$AAG@ 1013f1bc     libucrt:lcidtoname_downlevel.obj
 0002:000091c8       ??_C@_1M@EFAKDEDL@?$AAz?$AAh?$AA?9?$AAH?$AAK@ 1013f1c8     libucrt:lcidtoname_downlevel.obj
 0002:000091d4       ??_C@_1M@HKKIJHGI@?$AAd?$AAe?$AA?9?$AAA?$AAT@ 1013f1d4     libucrt:lcidtoname_downlevel.obj
 0002:000091e0       ??_C@_1M@KBFBEHJF@?$AAe?$AAn?$AA?9?$AAA?$AAU@ 1013f1e0     libucrt:lcidtoname_downlevel.obj
 0002:000091ec       ??_C@_1M@MNPLFAAH@?$AAe?$AAs?$AA?9?$AAE?$AAS@ 1013f1ec     libucrt:lcidtoname_downlevel.obj
 0002:000091f8       ??_C@_1M@HJOOJFMA@?$AAf?$AAr?$AA?9?$AAC?$AAA@ 1013f1f8     libucrt:lcidtoname_downlevel.obj
 0002:00009204       ??_C@_1BG@JPOFPNAB@?$AAs?$AAr?$AA?9?$AAS?$AAP?$AA?9?$AAC?$AAy?$AAr?$AAl@ 1013f204     libucrt:lcidtoname_downlevel.obj
 0002:0000921c       ??_C@_1M@LNFOCMOB@?$AAs?$AAe?$AA?9?$AAF?$AAI@ 1013f21c     libucrt:lcidtoname_downlevel.obj
 0002:00009228       ??_C@_1O@MGJBOAMB@?$AAq?$AAu?$AAz?$AA?9?$AAP?$AAE@ 1013f228     libucrt:lcidtoname_downlevel.obj
 0002:00009238       ??_C@_1M@GJINLBOK@?$AAa?$AAr?$AA?9?$AAL?$AAY@ 1013f238     libucrt:lcidtoname_downlevel.obj
 0002:00009244       ??_C@_1M@GGMNHJNL@?$AAz?$AAh?$AA?9?$AAS?$AAG@ 1013f244     libucrt:lcidtoname_downlevel.obj
 0002:00009250       ??_C@_1M@HOIKODND@?$AAd?$AAe?$AA?9?$AAL?$AAU@ 1013f250     libucrt:lcidtoname_downlevel.obj
 0002:0000925c       ??_C@_1M@DDOCCGFG@?$AAe?$AAn?$AA?9?$AAC?$AAA@ 1013f25c     libucrt:lcidtoname_downlevel.obj
 0002:00009268       ??_C@_1M@BNOEMJLF@?$AAe?$AAs?$AA?9?$AAG?$AAT@ 1013f268     libucrt:lcidtoname_downlevel.obj
 0002:00009274       ??_C@_1M@EOGNKEK@?$AAf?$AAr?$AA?9?$AAC?$AAH@ 1013f274     libucrt:lcidtoname_downlevel.obj
 0002:00009280       ??_C@_1M@FLIDJFHL@?$AAh?$AAr?$AA?9?$AAB?$AAA@ 1013f280     libucrt:lcidtoname_downlevel.obj
 0002:0000928c       ??_C@_1O@FMCELNAJ@?$AAs?$AAm?$AAj?$AA?9?$AAN?$AAO@ 1013f28c     libucrt:lcidtoname_downlevel.obj
 0002:0000929c       ??_C@_1M@JHGLJMGJ@?$AAa?$AAr?$AA?9?$AAD?$AAZ@ 1013f29c     libucrt:lcidtoname_downlevel.obj
 0002:000092a8       ??_C@_1M@JKKFDCNP@?$AAz?$AAh?$AA?9?$AAM?$AAO@ 1013f2a8     libucrt:lcidtoname_downlevel.obj
 0002:000092b4       ??_C@_1M@GEEFALPE@?$AAd?$AAe?$AA?9?$AAL?$AAI@ 1013f2b4     libucrt:lcidtoname_downlevel.obj
 0002:000092c0       ??_C@_1M@IGEOFBG@?$AAe?$AAn?$AA?9?$AAN?$AAZ@ 1013f2c0     libucrt:lcidtoname_downlevel.obj
 0002:000092cc       ??_C@_1M@KDBONEHP@?$AAe?$AAs?$AA?9?$AAC?$AAR@ 1013f2cc     libucrt:lcidtoname_downlevel.obj
 0002:000092d8       ??_C@_1M@FHMDOHNN@?$AAf?$AAr?$AA?9?$AAL?$AAU@ 1013f2d8     libucrt:lcidtoname_downlevel.obj
 0002:000092e4       ??_C@_1BG@NFKKMAFG@?$AAb?$AAs?$AA?9?$AAB?$AAA?$AA?9?$AAL?$AAa?$AAt?$AAn@ 1013f2e4     libucrt:lcidtoname_downlevel.obj
 0002:000092fc       ??_C@_1O@IMNBEMCI@?$AAs?$AAm?$AAj?$AA?9?$AAS?$AAE@ 1013f2fc     libucrt:lcidtoname_downlevel.obj
 0002:0000930c       ??_C@_1M@DHHMBNDP@?$AAa?$AAr?$AA?9?$AAM?$AAA@ 1013f30c     libucrt:lcidtoname_downlevel.obj
 0002:00009318       ??_C@_1M@BNBLJCGH@?$AAe?$AAn?$AA?9?$AAI?$AAE@ 1013f318     libucrt:lcidtoname_downlevel.obj
 0002:00009324       ??_C@_1M@GEPAFMDL@?$AAe?$AAs?$AA?9?$AAP?$AAA@ 1013f324     libucrt:lcidtoname_downlevel.obj
 0002:00009330       ??_C@_1M@OJONDMDL@?$AAf?$AAr?$AA?9?$AAM?$AAC@ 1013f330     libucrt:lcidtoname_downlevel.obj
 0002:0000933c       ??_C@_1BG@OBCNFJB@?$AAs?$AAr?$AA?9?$AAB?$AAA?$AA?9?$AAL?$AAa?$AAt?$AAn@ 1013f33c     libucrt:lcidtoname_downlevel.obj
 0002:00009354       ??_C@_1O@KEMEEGPO@?$AAs?$AAm?$AAa?$AA?9?$AAN?$AAO@ 1013f354     libucrt:lcidtoname_downlevel.obj
 0002:00009364       ??_C@_1M@ELMGFODK@?$AAa?$AAr?$AA?9?$AAT?$AAN@ 1013f364     libucrt:lcidtoname_downlevel.obj
 0002:00009370       ??_C@_1M@BHDLHFAF@?$AAe?$AAn?$AA?9?$AAZ?$AAA@ 1013f370     libucrt:lcidtoname_downlevel.obj
 0002:0000937c       ??_C@_1M@BMGIGLIF@?$AAe?$AAs?$AA?9?$AAD?$AAO@ 1013f37c     libucrt:lcidtoname_downlevel.obj
 0002:00009388       ??_C@_1BG@CMBHIPBE@?$AAs?$AAr?$AA?9?$AAB?$AAA?$AA?9?$AAC?$AAy?$AAr?$AAl@ 1013f388     libucrt:lcidtoname_downlevel.obj
 0002:000093a0       ??_C@_1O@HEDBLHNP@?$AAs?$AAm?$AAa?$AA?9?$AAS?$AAE@ 1013f3a0     libucrt:lcidtoname_downlevel.obj
 0002:000093b0       ??_C@_1M@DAGCADIM@?$AAa?$AAr?$AA?9?$AAO?$AAM@ 1013f3b0     libucrt:lcidtoname_downlevel.obj
 0002:000093bc       ??_C@_1M@FODLMICG@?$AAe?$AAn?$AA?9?$AAJ?$AAM@ 1013f3bc     libucrt:lcidtoname_downlevel.obj
 0002:000093c8       ??_C@_1M@DNMLCIHB@?$AAe?$AAs?$AA?9?$AAV?$AAE@ 1013f3c8     libucrt:lcidtoname_downlevel.obj
 0002:000093d4       ??_C@_1O@EOKHMKJK@?$AAs?$AAm?$AAs?$AA?9?$AAF?$AAI@ 1013f3d4     libucrt:lcidtoname_downlevel.obj
 0002:000093e4       ??_C@_1M@CAFJMKOF@?$AAa?$AAr?$AA?9?$AAY?$AAE@ 1013f3e4     libucrt:lcidtoname_downlevel.obj
 0002:000093f0       ??_C@_1M@CBFHIJLI@?$AAe?$AAn?$AA?9?$AAC?$AAB@ 1013f3f0     libucrt:lcidtoname_downlevel.obj
 0002:000093fc       ??_C@_1M@BGNFLDN@?$AAe?$AAs?$AA?9?$AAC?$AAO@ 1013f3fc     libucrt:lcidtoname_downlevel.obj
 0002:00009408       ??_C@_1O@JMPHMAMC@?$AAs?$AAm?$AAn?$AA?9?$AAF?$AAI@ 1013f408     libucrt:lcidtoname_downlevel.obj
 0002:00009418       ??_C@_1M@JLANABKE@?$AAa?$AAr?$AA?9?$AAS?$AAY@ 1013f418     libucrt:lcidtoname_downlevel.obj
 0002:00009424       ??_C@_1M@HPKGCFGN@?$AAe?$AAn?$AA?9?$AAB?$AAZ@ 1013f424     libucrt:lcidtoname_downlevel.obj
 0002:00009430       ??_C@_1M@OLJCMLGM@?$AAe?$AAs?$AA?9?$AAP?$AAE@ 1013f430     libucrt:lcidtoname_downlevel.obj
 0002:0000943c       ??_C@_1M@MKKGFKLE@?$AAa?$AAr?$AA?9?$AAJ?$AAO@ 1013f43c     libucrt:lcidtoname_downlevel.obj
 0002:00009448       ??_C@_1M@EKPGLDNI@?$AAe?$AAn?$AA?9?$AAT?$AAT@ 1013f448     libucrt:lcidtoname_downlevel.obj
 0002:00009454       ??_C@_1M@OONGHFHE@?$AAe?$AAs?$AA?9?$AAA?$AAR@ 1013f454     libucrt:lcidtoname_downlevel.obj
 0002:00009460       ??_C@_1M@OOJFGBHE@?$AAa?$AAr?$AA?9?$AAL?$AAB@ 1013f460     libucrt:lcidtoname_downlevel.obj
 0002:0000946c       ??_C@_1M@GCEJHNEG@?$AAe?$AAn?$AA?9?$AAZ?$AAW@ 1013f46c     libucrt:lcidtoname_downlevel.obj
 0002:00009478       ??_C@_1M@JNOCAHJI@?$AAe?$AAs?$AA?9?$AAE?$AAC@ 1013f478     libucrt:lcidtoname_downlevel.obj
 0002:00009484       ??_C@_1M@JEFHPGGB@?$AAa?$AAr?$AA?9?$AAK?$AAW@ 1013f484     libucrt:lcidtoname_downlevel.obj
 0002:00009490       ??_C@_1M@MLKIBJOJ@?$AAe?$AAn?$AA?9?$AAP?$AAH@ 1013f490     libucrt:lcidtoname_downlevel.obj
 0002:0000949c       ??_C@_1M@BDNIPEND@?$AAe?$AAs?$AA?9?$AAC?$AAL@ 1013f49c     libucrt:lcidtoname_downlevel.obj
 0002:000094a8       ??_C@_1M@MPNMEKBD@?$AAa?$AAr?$AA?9?$AAA?$AAE@ 1013f4a8     libucrt:lcidtoname_downlevel.obj
 0002:000094b4       ??_C@_1M@KBJALCPI@?$AAe?$AAs?$AA?9?$AAU?$AAY@ 1013f4b4     libucrt:lcidtoname_downlevel.obj
 0002:000094c0       ??_C@_1M@LLCCOAGA@?$AAa?$AAr?$AA?9?$AAB?$AAH@ 1013f4c0     libucrt:lcidtoname_downlevel.obj
 0002:000094cc       ??_C@_1M@PBFNCDEL@?$AAe?$AAs?$AA?9?$AAP?$AAY@ 1013f4cc     libucrt:lcidtoname_downlevel.obj
 0002:000094d8       ??_C@_1M@EDGINPNP@?$AAa?$AAr?$AA?9?$AAQ?$AAA@ 1013f4d8     libucrt:lcidtoname_downlevel.obj
 0002:000094e4       ??_C@_1M@MKDBIIJI@?$AAe?$AAs?$AA?9?$AAB?$AAO@ 1013f4e4     libucrt:lcidtoname_downlevel.obj
 0002:000094f0       ??_C@_1M@CPKKEBLD@?$AAe?$AAs?$AA?9?$AAS?$AAV@ 1013f4f0     libucrt:lcidtoname_downlevel.obj
 0002:000094fc       ??_C@_1M@NDBGMMJL@?$AAe?$AAs?$AA?9?$AAH?$AAN@ 1013f4fc     libucrt:lcidtoname_downlevel.obj
 0002:00009508       ??_C@_1M@JIJIBHDP@?$AAe?$AAs?$AA?9?$AAN?$AAI@ 1013f508     libucrt:lcidtoname_downlevel.obj
 0002:00009514       ??_C@_1M@CGFMKEEK@?$AAe?$AAs?$AA?9?$AAP?$AAR@ 1013f514     libucrt:lcidtoname_downlevel.obj
 0002:00009520       ??_C@_1O@ICJHKIIK@?$AAz?$AAh?$AA?9?$AAC?$AAH?$AAT@ 1013f520     libucrt:lcidtoname_downlevel.obj
 0002:00009530       ??_C@_15CLNEJCE@?$AAs?$AAr@ 1013f530     libucrt:lcidtoname_downlevel.obj
 0002:00009c58       ??_C@_1M@KAHEKEIG@?$AAa?$AAf?$AA?9?$AAz?$AAa@ 1013fc58     libucrt:lcidtoname_downlevel.obj
 0002:00009c64       ??_C@_1M@GIECOABL@?$AAa?$AAr?$AA?9?$AAa?$AAe@ 1013fc64     libucrt:lcidtoname_downlevel.obj
 0002:00009c70       ??_C@_1M@BMLMEKGI@?$AAa?$AAr?$AA?9?$AAb?$AAh@ 1013fc70     libucrt:lcidtoname_downlevel.obj
 0002:00009c7c       ??_C@_1M@DAPFDGGB@?$AAa?$AAr?$AA?9?$AAd?$AAz@ 1013fc7c     libucrt:lcidtoname_downlevel.obj
 0002:00009c88       ??_C@_1M@FJNKGKIG@?$AAa?$AAr?$AA?9?$AAe?$AAg@ 1013fc88     libucrt:lcidtoname_downlevel.obj
 0002:00009c94       ??_C@_1M@FLGKKCLO@?$AAa?$AAr?$AA?9?$AAi?$AAq@ 1013fc94     libucrt:lcidtoname_downlevel.obj
 0002:00009ca0       ??_C@_1M@GNDIPALM@?$AAa?$AAr?$AA?9?$AAj?$AAo@ 1013fca0     libucrt:lcidtoname_downlevel.obj
 0002:00009cac       ??_C@_1M@DDMJFMGJ@?$AAa?$AAr?$AA?9?$AAk?$AAw@ 1013fcac     libucrt:lcidtoname_downlevel.obj
 0002:00009cb8       ??_C@_1M@EJALMLHM@?$AAa?$AAr?$AA?9?$AAl?$AAb@ 1013fcb8     libucrt:lcidtoname_downlevel.obj
 0002:00009cc4       ??_C@_1M@MOBDBLOC@?$AAa?$AAr?$AA?9?$AAl?$AAy@ 1013fcc4     libucrt:lcidtoname_downlevel.obj
 0002:00009cd0       ??_C@_1M@JAOCLHDH@?$AAa?$AAr?$AA?9?$AAm?$AAa@ 1013fcd0     libucrt:lcidtoname_downlevel.obj
 0002:00009cdc       ??_C@_1M@JHPMKJIE@?$AAa?$AAr?$AA?9?$AAo?$AAm@ 1013fcdc     libucrt:lcidtoname_downlevel.obj
 0002:00009ce8       ??_C@_1M@OEPGHFNH@?$AAa?$AAr?$AA?9?$AAq?$AAa@ 1013fce8     libucrt:lcidtoname_downlevel.obj
 0002:00009cf4       ??_C@_1M@KJDONENM@?$AAa?$AAr?$AA?9?$AAs?$AAa@ 1013fcf4     libucrt:lcidtoname_downlevel.obj
 0002:00009d00       ??_C@_1M@DMJDKLKM@?$AAa?$AAr?$AA?9?$AAs?$AAy@ 1013fd00     libucrt:lcidtoname_downlevel.obj
 0002:00009d0c       ??_C@_1M@OMFIPEDC@?$AAa?$AAr?$AA?9?$AAt?$AAn@ 1013fd0c     libucrt:lcidtoname_downlevel.obj
 0002:00009d18       ??_C@_1M@IHMHGAON@?$AAa?$AAr?$AA?9?$AAy?$AAe@ 1013fd18     libucrt:lcidtoname_downlevel.obj
 0002:00009d24       ??_C@_1BG@KDCPGJGB@?$AAa?$AAz?$AA?9?$AAa?$AAz?$AA?9?$AAc?$AAy?$AAr?$AAl@ 1013fd24     libucrt:lcidtoname_downlevel.obj
 0002:00009d3c       ??_C@_1BG@IBCKDDOE@?$AAa?$AAz?$AA?9?$AAa?$AAz?$AA?9?$AAl?$AAa?$AAt?$AAn@ 1013fd3c     libucrt:lcidtoname_downlevel.obj
 0002:00009d54       ??_C@_1M@EGPFDCPD@?$AAb?$AAe?$AA?9?$AAb?$AAy@ 1013fd54     libucrt:lcidtoname_downlevel.obj
 0002:00009d60       ??_C@_1M@PCMGMCGC@?$AAb?$AAg?$AA?9?$AAb?$AAg@ 1013fd60     libucrt:lcidtoname_downlevel.obj
 0002:00009d6c       ??_C@_1M@BJBMFGOB@?$AAb?$AAn?$AA?9?$AAi?$AAn@ 1013fd6c     libucrt:lcidtoname_downlevel.obj
 0002:00009d78       ??_C@_1BG@EAKMMACD@?$AAb?$AAs?$AA?9?$AAb?$AAa?$AA?9?$AAl?$AAa?$AAt?$AAn@ 1013fd78     libucrt:lcidtoname_downlevel.obj
 0002:00009d90       ??_C@_1M@KGADAODK@?$AAc?$AAa?$AA?9?$AAe?$AAs@ 1013fd90     libucrt:lcidtoname_downlevel.obj
 0002:00009d9c       ??_C@_1M@COAJPDHI@?$AAc?$AAs?$AA?9?$AAc?$AAz@ 1013fd9c     libucrt:lcidtoname_downlevel.obj
 0002:00009da8       ??_C@_1M@DHBHFONH@?$AAc?$AAy?$AA?9?$AAg?$AAb@ 1013fda8     libucrt:lcidtoname_downlevel.obj
 0002:00009db4       ??_C@_1M@IMGKELGA@?$AAd?$AAa?$AA?9?$AAd?$AAk@ 1013fdb4     libucrt:lcidtoname_downlevel.obj
 0002:00009dc0       ??_C@_1M@NNDGDNGA@?$AAd?$AAe?$AA?9?$AAa?$AAt@ 1013fdc0     libucrt:lcidtoname_downlevel.obj
 0002:00009dcc       ??_C@_1M@IKDBHEEM@?$AAd?$AAe?$AA?9?$AAc?$AAh@ 1013fdcc     libucrt:lcidtoname_downlevel.obj
 0002:00009dd8       ??_C@_1M@GFFOJMCJ@?$AAd?$AAe?$AA?9?$AAd?$AAe@ 1013fdd8     libucrt:lcidtoname_downlevel.obj
 0002:00009de4       ??_C@_1M@MDNLKBPM@?$AAd?$AAe?$AA?9?$AAl?$AAi@ 1013fde4     libucrt:lcidtoname_downlevel.obj
 0002:00009df0       ??_C@_1M@NJBEEJNL@?$AAd?$AAe?$AA?9?$AAl?$AAu@ 1013fdf0     libucrt:lcidtoname_downlevel.obj
 0002:00009dfc       ??_C@_1O@GNNELBAP@?$AAd?$AAi?$AAv?$AA?9?$AAm?$AAv@ 1013fdfc     libucrt:lcidtoname_downlevel.obj
 0002:00009e0c       ??_C@_1M@EJLEOGAE@?$AAe?$AAl?$AA?9?$AAg?$AAr@ 1013fe0c     libucrt:lcidtoname_downlevel.obj
 0002:00009e18       ??_C@_1M@GMPONJN@?$AAe?$AAn?$AA?9?$AAa?$AAu@ 1013fe18     libucrt:lcidtoname_downlevel.obj
 0002:00009e24       ??_C@_1M@NIDIIPGF@?$AAe?$AAn?$AA?9?$AAb?$AAz@ 1013fe24     libucrt:lcidtoname_downlevel.obj
 0002:00009e30       ??_C@_1M@JEHMIMFO@?$AAe?$AAn?$AA?9?$AAc?$AAa@ 1013fe30     libucrt:lcidtoname_downlevel.obj
 0002:00009e3c       ??_C@_1M@IGMJCDLA@?$AAe?$AAn?$AA?9?$AAc?$AAb@ 1013fe3c     libucrt:lcidtoname_downlevel.obj
 0002:00009e48       ??_C@_1M@BNFIGBKG@?$AAe?$AAn?$AA?9?$AAg?$AAb@ 1013fe48     libucrt:lcidtoname_downlevel.obj
 0002:00009e54       ??_C@_1M@LKIFDIGP@?$AAe?$AAn?$AA?9?$AAi?$AAe@ 1013fe54     libucrt:lcidtoname_downlevel.obj
 0002:00009e60       ??_C@_1M@PJKFGCCO@?$AAe?$AAn?$AA?9?$AAj?$AAm@ 1013fe60     libucrt:lcidtoname_downlevel.obj
 0002:00009e6c       ??_C@_1M@KPPKEPBO@?$AAe?$AAn?$AA?9?$AAn?$AAz@ 1013fe6c     libucrt:lcidtoname_downlevel.obj
 0002:00009e78       ??_C@_1M@GMDGLDOB@?$AAe?$AAn?$AA?9?$AAp?$AAh@ 1013fe78     libucrt:lcidtoname_downlevel.obj
 0002:00009e84       ??_C@_1M@ONGIBJNA@?$AAe?$AAn?$AA?9?$AAt?$AAt@ 1013fe84     libucrt:lcidtoname_downlevel.obj
 0002:00009e90       ??_C@_1M@LLODPCMM@?$AAe?$AAn?$AA?9?$AAu?$AAs@ 1013fe90     libucrt:lcidtoname_downlevel.obj
 0002:00009e9c       ??_C@_1M@LAKFNPAN@?$AAe?$AAn?$AA?9?$AAz?$AAa@ 1013fe9c     libucrt:lcidtoname_downlevel.obj
 0002:00009ea8       ??_C@_1M@MFNHNHEO@?$AAe?$AAn?$AA?9?$AAz?$AAw@ 1013fea8     libucrt:lcidtoname_downlevel.obj
 0002:00009eb4       ??_C@_1M@EJEINPHM@?$AAe?$AAs?$AA?9?$AAa?$AAr@ 1013feb4     libucrt:lcidtoname_downlevel.obj
 0002:00009ec0       ??_C@_1M@GNKPCCJA@?$AAe?$AAs?$AA?9?$AAb?$AAo@ 1013fec0     libucrt:lcidtoname_downlevel.obj
 0002:00009ecc       ??_C@_1M@LEEGFONL@?$AAe?$AAs?$AA?9?$AAc?$AAl@ 1013fecc     libucrt:lcidtoname_downlevel.obj
 0002:00009ed8       ??_C@_1M@KGPDPBDF@?$AAe?$AAs?$AA?9?$AAc?$AAo@ 1013fed8     libucrt:lcidtoname_downlevel.obj
 0002:00009ee4       ??_C@_1M@EIAHOHH@?$AAe?$AAs?$AA?9?$AAc?$AAr@ 1013fee4     libucrt:lcidtoname_downlevel.obj
 0002:00009ef0       ??_C@_1M@LLPGMBIN@?$AAe?$AAs?$AA?9?$AAd?$AAo@ 1013fef0     libucrt:lcidtoname_downlevel.obj
 0002:00009efc       ??_C@_1M@DKHMKNJA@?$AAe?$AAs?$AA?9?$AAe?$AAc@ 1013fefc     libucrt:lcidtoname_downlevel.obj
 0002:00009f08       ??_C@_1M@GKGFPKAP@?$AAe?$AAs?$AA?9?$AAe?$AAs@ 1013ff08     libucrt:lcidtoname_downlevel.obj
 0002:00009f14       ??_C@_1M@LKHKGDLN@?$AAe?$AAs?$AA?9?$AAg?$AAt@ 1013ff14     libucrt:lcidtoname_downlevel.obj
 0002:00009f20       ??_C@_1M@HEIIGGJD@?$AAe?$AAs?$AA?9?$AAh?$AAn@ 1013ff20     libucrt:lcidtoname_downlevel.obj
 0002:00009f2c       ??_C@_1M@FBDHPPGD@?$AAe?$AAs?$AA?9?$AAm?$AAx@ 1013ff2c     libucrt:lcidtoname_downlevel.obj
 0002:00009f38       ??_C@_1M@DPAGLNDH@?$AAe?$AAs?$AA?9?$AAn?$AAi@ 1013ff38     libucrt:lcidtoname_downlevel.obj
 0002:00009f44       ??_C@_1M@MDGOPGDD@?$AAe?$AAs?$AA?9?$AAp?$AAa@ 1013ff44     libucrt:lcidtoname_downlevel.obj
 0002:00009f50       ??_C@_1M@EMAMGBGE@?$AAe?$AAs?$AA?9?$AAp?$AAe@ 1013ff50     libucrt:lcidtoname_downlevel.obj
 0002:00009f5c       ??_C@_1M@IBMCAOEC@?$AAe?$AAs?$AA?9?$AAp?$AAr@ 1013ff5c     libucrt:lcidtoname_downlevel.obj
 0002:00009f68       ??_C@_1M@FGMDIJED@?$AAe?$AAs?$AA?9?$AAp?$AAy@ 1013ff68     libucrt:lcidtoname_downlevel.obj
 0002:00009f74       ??_C@_1M@IIDEOLLL@?$AAe?$AAs?$AA?9?$AAs?$AAv@ 1013ff74     libucrt:lcidtoname_downlevel.obj
 0002:00009f80       ??_C@_1M@GAOBIPA@?$AAe?$AAs?$AA?9?$AAu?$AAy@ 1013ff80     libucrt:lcidtoname_downlevel.obj
 0002:00009f8c       ??_C@_1M@JKFFICHJ@?$AAe?$AAs?$AA?9?$AAv?$AAe@ 1013ff8c     libucrt:lcidtoname_downlevel.obj
 0002:00009f98       ??_C@_1M@PNMLOJDF@?$AAe?$AAt?$AA?9?$AAe?$AAe@ 1013ff98     libucrt:lcidtoname_downlevel.obj
 0002:00009fa4       ??_C@_1M@GHHLIKEI@?$AAe?$AAu?$AA?9?$AAe?$AAs@ 1013ffa4     libucrt:lcidtoname_downlevel.obj
 0002:00009fb0       ??_C@_1M@PBNONODE@?$AAf?$AAa?$AA?9?$AAi?$AAr@ 1013ffb0     libucrt:lcidtoname_downlevel.obj
 0002:00009fbc       ??_C@_1M@JEEHPMIL@?$AAf?$AAi?$AA?9?$AAf?$AAi@ 1013ffbc     libucrt:lcidtoname_downlevel.obj
 0002:00009fc8       ??_C@_1M@LMDCNDBA@?$AAf?$AAo?$AA?9?$AAf?$AAo@ 1013ffc8     libucrt:lcidtoname_downlevel.obj
 0002:00009fd4       ??_C@_1M@JKEOHLDK@?$AAf?$AAr?$AA?9?$AAb?$AAe@ 1013ffd4     libucrt:lcidtoname_downlevel.obj
 0002:00009fe0       ??_C@_1M@NOHADPMI@?$AAf?$AAr?$AA?9?$AAc?$AAa@ 1013ffe0     libucrt:lcidtoname_downlevel.obj
 0002:00009fec       ??_C@_1M@KDHIHAEC@?$AAf?$AAr?$AA?9?$AAc?$AAh@ 1013ffec     libucrt:lcidtoname_downlevel.obj
 0002:00009ff8       ??_C@_1M@MMBBFGAK@?$AAf?$AAr?$AA?9?$AAf?$AAr@ 1013fff8     libucrt:lcidtoname_downlevel.obj
 0002:0000a004       ??_C@_1M@PAFNENNF@?$AAf?$AAr?$AA?9?$AAl?$AAu@ 10140004     libucrt:lcidtoname_downlevel.obj
 0002:0000a010       ??_C@_1M@EOHDJGDD@?$AAf?$AAr?$AA?9?$AAm?$AAc@ 10140010     libucrt:lcidtoname_downlevel.obj
 0002:0000a01c       ??_C@_1M@FAPLLOPF@?$AAg?$AAl?$AA?9?$AAe?$AAs@ 1014001c     libucrt:lcidtoname_downlevel.obj
 0002:0000a028       ??_C@_1M@FOPBFLOO@?$AAg?$AAu?$AA?9?$AAi?$AAn@ 10140028     libucrt:lcidtoname_downlevel.obj
 0002:0000a034       ??_C@_1M@KBMCINPM@?$AAh?$AAe?$AA?9?$AAi?$AAl@ 10140034     libucrt:lcidtoname_downlevel.obj
 0002:0000a040       ??_C@_1M@BBPHKFPJ@?$AAh?$AAi?$AA?9?$AAi?$AAn@ 10140040     libucrt:lcidtoname_downlevel.obj
 0002:0000a04c       ??_C@_1M@PMBNDPHD@?$AAh?$AAr?$AA?9?$AAb?$AAa@ 1014004c     libucrt:lcidtoname_downlevel.obj
 0002:0000a058       ??_C@_1M@BPCKOEGE@?$AAh?$AAr?$AA?9?$AAh?$AAr@ 10140058     libucrt:lcidtoname_downlevel.obj
 0002:0000a064       ??_C@_1M@GACBMHKE@?$AAh?$AAu?$AA?9?$AAh?$AAu@ 10140064     libucrt:lcidtoname_downlevel.obj
 0002:0000a070       ??_C@_1M@MILPAJJC@?$AAh?$AAy?$AA?9?$AAa?$AAm@ 10140070     libucrt:lcidtoname_downlevel.obj
 0002:0000a07c       ??_C@_1M@BABBICEC@?$AAi?$AAd?$AA?9?$AAi?$AAd@ 1014007c     libucrt:lcidtoname_downlevel.obj
 0002:0000a088       ??_C@_1M@BIKNHHPF@?$AAi?$AAs?$AA?9?$AAi?$AAs@ 10140088     libucrt:lcidtoname_downlevel.obj
 0002:0000a094       ??_C@_1M@NMPCJPHE@?$AAi?$AAt?$AA?9?$AAc?$AAh@ 10140094     libucrt:lcidtoname_downlevel.obj
 0002:0000a0a0       ??_C@_1M@GHKGFEDF@?$AAi?$AAt?$AA?9?$AAi?$AAt@ 101400a0     libucrt:lcidtoname_downlevel.obj
 0002:0000a0ac       ??_C@_1M@NIEJCJJA@?$AAj?$AAa?$AA?9?$AAj?$AAp@ 101400ac     libucrt:lcidtoname_downlevel.obj
 0002:0000a0b8       ??_C@_1M@JILFNBIM@?$AAk?$AAa?$AA?9?$AAg?$AAe@ 101400b8     libucrt:lcidtoname_downlevel.obj
 0002:0000a0c4       ??_C@_1M@PACPMGPH@?$AAk?$AAk?$AA?9?$AAk?$AAz@ 101400c4     libucrt:lcidtoname_downlevel.obj
 0002:0000a0d0       ??_C@_1M@IELFGMHA@?$AAk?$AAn?$AA?9?$AAi?$AAn@ 101400d0     libucrt:lcidtoname_downlevel.obj
 0002:0000a0dc       ??_C@_1O@IBBJHCH@?$AAk?$AAo?$AAk?$AA?9?$AAi?$AAn@ 101400dc     libucrt:lcidtoname_downlevel.obj
 0002:0000a0ec       ??_C@_1M@DMHAEOGC@?$AAk?$AAo?$AA?9?$AAk?$AAr@ 101400ec     libucrt:lcidtoname_downlevel.obj
 0002:0000a0f8       ??_C@_1M@HBAHBIGA@?$AAk?$AAy?$AA?9?$AAk?$AAg@ 101400f8     libucrt:lcidtoname_downlevel.obj
 0002:0000a104       ??_C@_1M@KPMILCJG@?$AAl?$AAt?$AA?9?$AAl?$AAt@ 10140104     libucrt:lcidtoname_downlevel.obj
 0002:0000a110       ??_C@_1M@BDEKKCA@?$AAl?$AAv?$AA?9?$AAl?$AAv@ 10140110     libucrt:lcidtoname_downlevel.obj
 0002:0000a11c       ??_C@_1M@ELCKCCJJ@?$AAm?$AAi?$AA?9?$AAn?$AAz@ 1014011c     libucrt:lcidtoname_downlevel.obj
 0002:0000a128       ??_C@_1M@CBOOLAPA@?$AAm?$AAk?$AA?9?$AAm?$AAk@ 10140128     libucrt:lcidtoname_downlevel.obj
 0002:0000a134       ??_C@_1M@GPHNBJKN@?$AAm?$AAl?$AA?9?$AAi?$AAn@ 10140134     libucrt:lcidtoname_downlevel.obj
 0002:0000a140       ??_C@_1M@PABJILIG@?$AAm?$AAn?$AA?9?$AAm?$AAn@ 10140140     libucrt:lcidtoname_downlevel.obj
 0002:0000a14c       ??_C@_1M@FGBKKIPG@?$AAm?$AAr?$AA?9?$AAi?$AAn@ 1014014c     libucrt:lcidtoname_downlevel.obj
 0002:0000a158       ??_C@_1M@NDBPDDAL@?$AAm?$AAs?$AA?9?$AAb?$AAn@ 10140158     libucrt:lcidtoname_downlevel.obj
 0002:0000a164       ??_C@_1M@OPIHOOPI@?$AAm?$AAs?$AA?9?$AAm?$AAy@ 10140164     libucrt:lcidtoname_downlevel.obj
 0002:0000a170       ??_C@_1M@PPDBCNFM@?$AAm?$AAt?$AA?9?$AAm?$AAt@ 10140170     libucrt:lcidtoname_downlevel.obj
 0002:0000a17c       ??_C@_1M@KDJDKMDD@?$AAn?$AAb?$AA?9?$AAn?$AAo@ 1014017c     libucrt:lcidtoname_downlevel.obj
 0002:0000a188       ??_C@_1M@KFCFLMJP@?$AAn?$AAl?$AA?9?$AAb?$AAe@ 10140188     libucrt:lcidtoname_downlevel.obj
 0002:0000a194       ??_C@_1M@KPOPDDGO@?$AAn?$AAl?$AA?9?$AAn?$AAl@ 10140194     libucrt:lcidtoname_downlevel.obj
 0002:0000a1a0       ??_C@_1M@LJKPEMLN@?$AAn?$AAn?$AA?9?$AAn?$AAo@ 101401a0     libucrt:lcidtoname_downlevel.obj
 0002:0000a1ac       ??_C@_1M@BDGHHBFL@?$AAn?$AAs?$AA?9?$AAz?$AAa@ 101401ac     libucrt:lcidtoname_downlevel.obj
 0002:0000a1b8       ??_C@_1M@IDEHOAP@?$AAp?$AAa?$AA?9?$AAi?$AAn@ 101401b8     libucrt:lcidtoname_downlevel.obj
 0002:0000a1c4       ??_C@_1M@HDBKGOGH@?$AAp?$AAl?$AA?9?$AAp?$AAl@ 101401c4     libucrt:lcidtoname_downlevel.obj
 0002:0000a1d0       ??_C@_1M@LJLLCMEH@?$AAp?$AAt?$AA?9?$AAb?$AAr@ 101401d0     libucrt:lcidtoname_downlevel.obj
 0002:0000a1dc       ??_C@_1M@NCMONAAL@?$AAp?$AAt?$AA?9?$AAp?$AAt@ 101401dc     libucrt:lcidtoname_downlevel.obj
 0002:0000a1e8       ??_C@_1O@EAKMAJDN@?$AAq?$AAu?$AAz?$AA?9?$AAb?$AAo@ 101401e8     libucrt:lcidtoname_downlevel.obj
 0002:0000a1f8       ??_C@_1O@BHHPIGDN@?$AAq?$AAu?$AAz?$AA?9?$AAe?$AAc@ 101401f8     libucrt:lcidtoname_downlevel.obj
 0002:0000a208       ??_C@_1O@GBAPEKMJ@?$AAq?$AAu?$AAz?$AA?9?$AAp?$AAe@ 10140208     libucrt:lcidtoname_downlevel.obj
 0002:0000a218       ??_C@_1M@CLGLEFBO@?$AAr?$AAo?$AA?9?$AAr?$AAo@ 10140218     libucrt:lcidtoname_downlevel.obj
 0002:0000a224       ??_C@_1M@CEEDODME@?$AAr?$AAu?$AA?9?$AAr?$AAu@ 10140224     libucrt:lcidtoname_downlevel.obj
 0002:0000a230       ??_C@_1M@HPKKKMPP@?$AAs?$AAa?$AA?9?$AAi?$AAn@ 10140230     libucrt:lcidtoname_downlevel.obj
 0002:0000a23c       ??_C@_1M@BKMAIGOJ@?$AAs?$AAe?$AA?9?$AAf?$AAi@ 1014023c     libucrt:lcidtoname_downlevel.obj
 0002:0000a248       ??_C@_1M@NDPIFLFI@?$AAs?$AAe?$AA?9?$AAn?$AAo@ 10140248     libucrt:lcidtoname_downlevel.obj
 0002:0000a254       ??_C@_1M@DANKKHJ@?$AAs?$AAe?$AA?9?$AAs?$AAe@ 10140254     libucrt:lcidtoname_downlevel.obj
 0002:0000a260       ??_C@_1M@PNBLONPJ@?$AAs?$AAk?$AA?9?$AAs?$AAk@ 10140260     libucrt:lcidtoname_downlevel.obj
 0002:0000a26c       ??_C@_1M@LFMODOAL@?$AAs?$AAl?$AA?9?$AAs?$AAi@ 1014026c     libucrt:lcidtoname_downlevel.obj
 0002:0000a278       ??_C@_1O@DFKOMPG@?$AAs?$AAm?$AAa?$AA?9?$AAn?$AAo@ 10140278     libucrt:lcidtoname_downlevel.obj
 0002:0000a288       ??_C@_1O@NDKPBNNH@?$AAs?$AAm?$AAa?$AA?9?$AAs?$AAe@ 10140288     libucrt:lcidtoname_downlevel.obj
 0002:0000a298       ??_C@_1O@PLLKBHAB@?$AAs?$AAm?$AAj?$AA?9?$AAn?$AAo@ 10140298     libucrt:lcidtoname_downlevel.obj
 0002:0000a2a8       ??_C@_1O@CLEPOGCA@?$AAs?$AAm?$AAj?$AA?9?$AAs?$AAe@ 101402a8     libucrt:lcidtoname_downlevel.obj
 0002:0000a2b8       ??_C@_1O@DLGJGKMK@?$AAs?$AAm?$AAn?$AA?9?$AAf?$AAi@ 101402b8     libucrt:lcidtoname_downlevel.obj
 0002:0000a2c8       ??_C@_1O@OJDJGAJC@?$AAs?$AAm?$AAs?$AA?9?$AAf?$AAi@ 101402c8     libucrt:lcidtoname_downlevel.obj
 0002:0000a2d8       ??_C@_1M@BOFOGHPB@?$AAs?$AAq?$AA?9?$AAa?$AAl@ 101402d8     libucrt:lcidtoname_downlevel.obj
 0002:0000a2e4       ??_C@_1BG@LJBBIPGB@?$AAs?$AAr?$AA?9?$AAb?$AAa?$AA?9?$AAc?$AAy?$AAr?$AAl@ 101402e4     libucrt:lcidtoname_downlevel.obj
 0002:0000a2fc       ??_C@_1BG@JLBENFOE@?$AAs?$AAr?$AA?9?$AAb?$AAa?$AA?9?$AAl?$AAa?$AAt?$AAn@ 101402fc     libucrt:lcidtoname_downlevel.obj
 0002:0000a314       ??_C@_1BG@KODPNHE@?$AAs?$AAr?$AA?9?$AAs?$AAp?$AA?9?$AAc?$AAy?$AAr?$AAl@ 10140314     libucrt:lcidtoname_downlevel.obj
 0002:0000a32c       ??_C@_1BG@CIOGKHPB@?$AAs?$AAr?$AA?9?$AAs?$AAp?$AA?9?$AAl?$AAa?$AAt?$AAn@ 1014032c     libucrt:lcidtoname_downlevel.obj
 0002:0000a344       ??_C@_1M@NGFJLMAC@?$AAs?$AAv?$AA?9?$AAf?$AAi@ 10140344     libucrt:lcidtoname_downlevel.obj
 0002:0000a350       ??_C@_1M@MPJEJAJC@?$AAs?$AAv?$AA?9?$AAs?$AAe@ 10140350     libucrt:lcidtoname_downlevel.obj
 0002:0000a35c       ??_C@_1M@MPNDHLFK@?$AAs?$AAw?$AA?9?$AAk?$AAe@ 1014035c     libucrt:lcidtoname_downlevel.obj
 0002:0000a368       ??_C@_1O@KOHBJJI@?$AAs?$AAy?$AAr?$AA?9?$AAs?$AAy@ 10140368     libucrt:lcidtoname_downlevel.obj
 0002:0000a378       ??_C@_1M@LDCEFHA@?$AAt?$AAa?$AA?9?$AAi?$AAn@ 10140378     libucrt:lcidtoname_downlevel.obj
 0002:0000a384       ??_C@_1M@CNJOFAK@?$AAt?$AAe?$AA?9?$AAi?$AAn@ 10140384     libucrt:lcidtoname_downlevel.obj
 0002:0000a390       ??_C@_1M@GNAECACD@?$AAt?$AAh?$AA?9?$AAt?$AAh@ 10140390     libucrt:lcidtoname_downlevel.obj
 0002:0000a39c       ??_C@_1M@CHBIHOJO@?$AAt?$AAn?$AA?9?$AAz?$AAa@ 1014039c     libucrt:lcidtoname_downlevel.obj
 0002:0000a3a8       ??_C@_1M@GCCMIGPJ@?$AAt?$AAr?$AA?9?$AAt?$AAr@ 101403a8     libucrt:lcidtoname_downlevel.obj
 0002:0000a3b4       ??_C@_1M@CELMCNBK@?$AAt?$AAt?$AA?9?$AAr?$AAu@ 101403b4     libucrt:lcidtoname_downlevel.obj
 0002:0000a3c0       ??_C@_1M@KLMCELGA@?$AAu?$AAk?$AA?9?$AAu?$AAa@ 101403c0     libucrt:lcidtoname_downlevel.obj
 0002:0000a3cc       ??_C@_1M@EPAJJAJF@?$AAu?$AAr?$AA?9?$AAp?$AAk@ 101403cc     libucrt:lcidtoname_downlevel.obj
 0002:0000a3d8       ??_C@_1BG@GEGPMCDJ@?$AAu?$AAz?$AA?9?$AAu?$AAz?$AA?9?$AAc?$AAy?$AAr?$AAl@ 101403d8     libucrt:lcidtoname_downlevel.obj
 0002:0000a3f0       ??_C@_1BG@EGGKJILM@?$AAu?$AAz?$AA?9?$AAu?$AAz?$AA?9?$AAl?$AAa?$AAt?$AAn@ 101403f0     libucrt:lcidtoname_downlevel.obj
 0002:0000a408       ??_C@_1M@GFOCLFF@?$AAv?$AAi?$AA?9?$AAv?$AAn@ 10140408     libucrt:lcidtoname_downlevel.obj
 0002:0000a414       ??_C@_1M@CPAMEDFI@?$AAx?$AAh?$AA?9?$AAz?$AAa@ 10140414     libucrt:lcidtoname_downlevel.obj
 0002:0000a420       ??_C@_1O@EBKIFIGN@?$AAz?$AAh?$AA?9?$AAc?$AAh?$AAs@ 10140420     libucrt:lcidtoname_downlevel.obj
 0002:0000a430       ??_C@_1O@NMHPGANE@?$AAz?$AAh?$AA?9?$AAc?$AAh?$AAt@ 10140430     libucrt:lcidtoname_downlevel.obj
 0002:0000a440       ??_C@_1M@LPINJOMC@?$AAz?$AAh?$AA?9?$AAc?$AAn@ 10140440     libucrt:lcidtoname_downlevel.obj
 0002:0000a44c       ??_C@_1M@OCJEJODD@?$AAz?$AAh?$AA?9?$AAh?$AAk@ 1014044c     libucrt:lcidtoname_downlevel.obj
 0002:0000a458       ??_C@_1M@DNDLJINH@?$AAz?$AAh?$AA?9?$AAm?$AAo@ 10140458     libucrt:lcidtoname_downlevel.obj
 0002:0000a464       ??_C@_1M@MBFDNDND@?$AAz?$AAh?$AA?9?$AAs?$AAg@ 10140464     libucrt:lcidtoname_downlevel.obj
 0002:0000a470       ??_C@_1M@IMEPLEPE@?$AAz?$AAh?$AA?9?$AAt?$AAw@ 10140470     libucrt:lcidtoname_downlevel.obj
 0002:0000a47c       ??_C@_1M@BBGHNHJP@?$AAz?$AAu?$AA?9?$AAz?$AAa@ 1014047c     libucrt:lcidtoname_downlevel.obj
 0002:0000a488       ?large_power_data@?1??multiply_by_power_of_ten@__crt_strtox@@YA_NAAUbig_integer@2@I@Z@4QBIB 10140488     libucrt:cfout.obj
 0002:0000ad90       ?large_power_indices@?1??multiply_by_power_of_ten@__crt_strtox@@YA_NAAUbig_integer@2@I@Z@4QBUunpack_index@?1??12@YA_N0I@Z@B 10140d90     libucrt:cfout.obj
 0002:0000ae28       ?small_powers_of_ten@?1??multiply_by_power_of_ten@__crt_strtox@@YA_NAAUbig_integer@2@I@Z@4QBIB 10140e28     libucrt:cfout.obj
 0002:0000ae4c       ??_C@_01GBGANLPD@0@        10140e4c     libucrt:cfout.obj
 0002:0000ae50       ??_C@_05DNEBIAHO@1?$CDINF@ 10140e50     libucrt:cfout.obj
 0002:0000ae58       ??_C@_06IMKFLFPG@1?$CDQNAN@ 10140e58     libucrt:cfout.obj
 0002:0000ae60       ??_C@_06PGGFOGJG@1?$CDSNAN@ 10140e60     libucrt:cfout.obj
 0002:0000ae68       ??_C@_05PHHOCPM@1?$CDIND@  10140e68     libucrt:cfout.obj
 0002:0000ae70       __indefinite               10140e70     libucrt:87disp.obj
 0002:0000ae7a       __piby2                    10140e7a     libucrt:87disp.obj
 0002:0000ae84       __piby4                    10140e84     libucrt:87disp.obj
 0002:0000aeb8       __DEFAULT_CW_in_mem        10140eb8     libucrt:common.obj
 0002:0000aeba       __pi_by_2_to_61            10140eba     libucrt:common.obj
 0002:0000af00       ___acrt_cos_sin_ctable     10140f00     libucrt:cos_sin_ctable.obj
 0002:0000b700       ___acrt_tan_ctable         10141700     libucrt:tan_tables.obj
 0002:0000cd08       ??_C@_1BA@BALFACEM@?$AAC?$AAO?$AAN?$AAO?$AAU?$AAT?$AA$@ 10142d08     libucrt:initcon.obj
 0002:0000ce20       __infinity                 10142e20     libucrt:87tran.obj
 0002:0000ce2a       __minfinity                10142e2a     libucrt:87tran.obj
 0002:0000ce34       __logemax                  10142e34     libucrt:87tran.obj
 0002:0000ce5a       __OP_EXPjmptab             10142e5a     libucrt:87tran.obj
 0002:0000ce80       ___acrt_log10_table_t      10142e80     libucrt:log10_tables.obj
 0002:0000d290       ___acrt_log10_table_cb     10143290     libucrt:log10_tables.obj
 0002:0000d6a0       __real@3fe0000000000000    101436a0     libucrt:powhlp.obj
 0002:0000d740       ??_R4type_info@@6B@        10143740     LIBCMT:std_type_info_static.obj
 0002:0000d754       ??_R3type_info@@8          10143754     LIBCMT:std_type_info_static.obj
 0002:0000d764       ??_R2type_info@@8          10143764     LIBCMT:std_type_info_static.obj
 0002:0000d76c       ??_R1A@?0A@EA@type_info@@8 1014376c     LIBCMT:std_type_info_static.obj
 0002:0000d788       ??_R3DNameNode@@8          10143788     libvcruntime:undname.obj
 0002:0000d798       ??_R2DNameNode@@8          10143798     libvcruntime:undname.obj
 0002:0000d7a0       ??_R1A@?0A@EA@DNameNode@@8 101437a0     libvcruntime:undname.obj
 0002:0000d7bc       ??_R4charNode@@6B@         101437bc     libvcruntime:undname.obj
 0002:0000d7d0       ??_R3charNode@@8           101437d0     libvcruntime:undname.obj
 0002:0000d7e0       ??_R2charNode@@8           101437e0     libvcruntime:undname.obj
 0002:0000d7ec       ??_R1A@?0A@EA@charNode@@8  101437ec     libvcruntime:undname.obj
 0002:0000d808       ??_R4pcharNode@@6B@        10143808     libvcruntime:undname.obj
 0002:0000d81c       ??_R3pcharNode@@8          1014381c     libvcruntime:undname.obj
 0002:0000d82c       ??_R2pcharNode@@8          1014382c     libvcruntime:undname.obj
 0002:0000d838       ??_R1A@?0A@EA@pcharNode@@8 10143838     libvcruntime:undname.obj
 0002:0000d854       ??_R4pDNameNode@@6B@       10143854     libvcruntime:undname.obj
 0002:0000d868       ??_R3pDNameNode@@8         10143868     libvcruntime:undname.obj
 0002:0000d878       ??_R2pDNameNode@@8         10143878     libvcruntime:undname.obj
 0002:0000d884       ??_R1A@?0A@EA@pDNameNode@@8 10143884     libvcruntime:undname.obj
 0002:0000d8a0       ??_R4DNameStatusNode@@6B@  101438a0     libvcruntime:undname.obj
 0002:0000d8b4       ??_R3DNameStatusNode@@8    101438b4     libvcruntime:undname.obj
 0002:0000d8c4       ??_R2DNameStatusNode@@8    101438c4     libvcruntime:undname.obj
 0002:0000d8d0       ??_R1A@?0A@EA@DNameStatusNode@@8 101438d0     libvcruntime:undname.obj
 0002:0000d8ec       ??_R4pairNode@@6B@         101438ec     libvcruntime:undname.obj
 0002:0000d900       ??_R3pairNode@@8           10143900     libvcruntime:undname.obj
 0002:0000d910       ??_R2pairNode@@8           10143910     libvcruntime:undname.obj
 0002:0000d91c       ??_R1A@?0A@EA@pairNode@@8  1014391c     libvcruntime:undname.obj
 0002:0000d938       ??_R4exception@std@@6B@    10143938     libvcruntime:frame.obj
 0002:0000d94c       ??_R3exception@std@@8      1014394c     libvcruntime:frame.obj
 0002:0000d95c       ??_R2exception@std@@8      1014395c     libvcruntime:frame.obj
 0002:0000d964       ??_R1A@?0A@EA@exception@std@@8 10143964     libvcruntime:frame.obj
 0002:0000d980       ??_R4bad_exception@std@@6B@ 10143980     libvcruntime:frame.obj
 0002:0000d994       ??_R3bad_exception@std@@8  10143994     libvcruntime:frame.obj
 0002:0000d9a4       ??_R2bad_exception@std@@8  101439a4     libvcruntime:frame.obj
 0002:0000d9b0       ??_R1A@?0A@EA@bad_exception@std@@8 101439b0     libvcruntime:frame.obj
 0002:0000d9cc       ___safe_se_handler_table   101439cc     <linker-defined>
 0002:0000d9e4       ___volatile_metadata       101439e4     <linker-defined>
 0002:0000de2c       ___rtc_iaa                 10143e2c     LIBCMT:initsect.obj
 0002:0000de30       ___rtc_izz                 10143e30     LIBCMT:initsect.obj
 0002:0000de34       ___rtc_taa                 10143e34     LIBCMT:initsect.obj
 0002:0000de38       ___rtc_tzz                 10143e38     LIBCMT:initsect.obj
 0002:0000e014       __TI2?AVbad_exception@std@@ 10144014     libvcruntime:frame.obj
 0002:0000e024       __CTA2?AVbad_exception@std@@ 10144024     libvcruntime:frame.obj
 0002:0000e030       __CT??_R0?AVbad_exception@std@@@8??0bad_exception@std@@QAE@ABV01@@Z12 10144030     libvcruntime:frame.obj
 0002:0000e04c       __CT??_R0?AVexception@std@@@8??0exception@std@@QAE@ABV01@@Z12 1014404c     libvcruntime:frame.obj
 0002:0000e3a4       __DELAY_IMPORT_DESCRIPTOR_physxfoundation_32_dll 101443a4     PhysXFoundation_32:PhysXFoundation_32.dll
 0002:0000e3c4       __NULL_DELAY_IMPORT_DESCRIPTOR 101443c4     PhysXFoundation_32:PhysXFoundation_32.dll
 0002:0000e424       \177PhysXFoundation_32_NULL_THUNK_DATA_DLN 10144424     PhysXFoundation_32:PhysXFoundation_32.dll
 0002:0000e72c       \177PhysXFoundation_32_NULL_THUNK_DATA_DLB 1014472c     PhysXFoundation_32:PhysXFoundation_32.dll
 0002:000183a0       __IMPORT_DESCRIPTOR_KERNEL32 1014e3a0     kernel32:KERNEL32.dll
 0002:000183b4       __NULL_IMPORT_DESCRIPTOR   1014e3b4     kernel32:KERNEL32.dll
 0003:00000000       ___pfnDliNotifyHook2       1014f000     CmWindowsDelayLoadHook.obj
 0003:00000020       ?gGeomMTDMethodTable@@3PAY06P6A_NAAVPxVec3@physx@@AAMABVPxGeometry@2@ABVPxTransform@2@23@ZA 1014f020     GuMTD.obj
 0003:000000e8       ?gGeomOverlapMethodTable@@3PAY06P6A_NABVPxGeometry@physx@@ABVPxTransform@2@01PAUTriggerCache@Gu@2@@ZA 1014f0e8     GuOverlapTests.obj
 0003:000001ac       ?gRaycastMap@@3PAP6AIABVPxGeometry@physx@@ABVPxTransform@2@ABVPxVec3@2@2MV?$PxFlags@W4Enum@PxHitFlag@physx@@G@2@IPIAUPxRaycastHit@2@@ZA 1014f1ac     GuRaycastTests.obj
 0003:000001c8       ?gGeomSweepFuncs@@3UGeomSweepFuncs@Gu@physx@@A 1014f1c8     GuSweepTests.obj
 0003:00000258       ?g_SweepMethodTable@Gu@physx@@3PAY06P6AMABUCCDShape@12@0ABVPxTransform@2@111MAAVPxVec3@2@2MAAIM@ZA 1014f258     GuCCDSweepPrimitives.obj
 0003:0000031c       ?g_TriangleSweepMethodTable@Gu@physx@@3PAP6AMABVGeometryUnion@12@0ABVPxTransform@2@111MAAVPxVec3@2@2ABVFastVertex2ShapeScaling@Cm@2@AAVTriangleV@12@M@ZA 1014f31c     GuCCDSweepPrimitives.obj
 0003:00000750       __fltused                  1014f750     LIBCMT:fltused.obj
 0003:00000760       ___isa_enabled             1014f760     LIBCMT:cpu_disp.obj
 0003:00000770       ___scrt_native_dllmain_reason 1014f770     LIBCMT:utility.obj
 0003:00000780       ___security_cookie_complement 1014f780     LIBCMT:gs_cookie.obj
 0003:00000784       ___security_cookie         1014f784     LIBCMT:gs_cookie.obj
 0003:000007b0       __NLG_Destination          1014f7b0     libvcruntime:exsup.obj
 0003:000007c0       ___abort_behavior          1014f7c0     libucrt:abort.obj
 0003:000007e0       ___acrt_initial_multibyte_data 1014f7e0     libucrt:mbctype.obj
 0003:00000d00       ___acrt_initial_locale_data 1014fd00     libucrt:nlsdata.obj
 0003:00000db8       ___acrt_initial_locale_pointers 1014fdb8     libucrt:nlsdata.obj
 0003:00000dc0       ___acrt_wide_c_locale_string 1014fdc0     libucrt:nlsdata.obj
 0003:00000dc8       __iob                      1014fdc8     libucrt:_file.obj
 0003:00000e70       ___globallocalestatus      1014fe70     libucrt:glstatus.obj
 0003:00000e78       ___acrt_lconv_c            1014fe78     libucrt:localeconv.obj
 0003:00000ec8       ___acrt_lconv_static_decimal 1014fec8     libucrt:localeconv.obj
 0003:00000ecc       ___acrt_lconv_static_W_decimal 1014fecc     libucrt:localeconv.obj
 0003:00000ed0       __lookuptrailbytes         1014fed0     libucrt:read.obj
 0003:00000fe0       ??_R0?AVCollection@Cm@physx@@@8 1014ffe0     CmCollection.obj
 0003:00001004       ??_R0D@8                   10150004     CmRenderOutput.obj
 0003:00001010       ??_R0?AUPxDebugText@physx@@@8 10150010     CmRenderOutput.obj
 0003:00001030       ??_R0?AUPxDebugTriangle@physx@@@8 10150030     CmRenderOutput.obj
 0003:00001054       ??_R0?AUPxDebugLine@physx@@@8 10150054     CmRenderOutput.obj
 0003:00001074       ??_R0?AUPxDebugPoint@physx@@@8 10150074     CmRenderOutput.obj
 0003:00001098       ??_R0?AVMutexImpl@shdfnd@physx@@@8 10150098     GuMeshFactory.obj
 0003:000010c0       ??_R0?AVBVHStructure@Gu@physx@@@8 101500c0     GuMeshFactory.obj
 0003:000010e4       ??_R0?AVHeightField@Gu@physx@@@8 101500e4     GuMeshFactory.obj
 0003:00001108       ??_R0?AVConvexMesh@Gu@physx@@@8 10150108     GuMeshFactory.obj
 0003:0000112c       ??_R0?AVBV32Tree@Gu@physx@@@8 1015012c     GuMeshFactory.obj
 0003:0000114c       ??_R0?AVBV4TriangleData@Gu@physx@@@8 1015014c     GuMeshFactory.obj
 0003:00001174       ??_R0?AVRTreeTriangleData@Gu@physx@@@8 10150174     GuMeshFactory.obj
 0003:000011a0       ??_R0?AVBV4TriangleMesh@Gu@physx@@@8 101501a0     GuMeshFactory.obj
 0003:000011c8       ??_R0?AVRTreeTriangleMesh@Gu@physx@@@8 101501c8     GuMeshFactory.obj
 0003:000011f4       ??_R0E@8                   101501f4     GuMeshFactory.obj
 0003:00001200       ??_R0G@8                   10150200     GuMeshFactory.obj
 0003:0000120c       ??_R0I@8                   1015020c     GuMeshFactory.obj
 0003:00001218       ??_R0PAVGuMeshFactoryListener@physx@@@8 10150218     GuMeshFactory.obj
 0003:00001244       ??_R0?AVAABBTreeBuildNode@Gu@physx@@@8 10150244     GuAABBTreeBuild.obj
 0003:00001270       ??_R0?AUSlab@NodeAllocator@Gu@physx@@@8 10150270     GuAABBTreeBuild.obj
 0003:0000129c       ??_R0PBUBVHNode@Gu@physx@@@8 1015029c     GuBVHStructure.obj
 0003:000012bc       ??_R0?AVBigConvexData@physx@@@8 101502bc     GuConvexMesh.obj
 0003:000012e0       ??_R0?AVIndTri16@Gu@physx@@@8 101502e0     GuBV4.obj
 0003:00001300       ??_R0?AVIndTri32@Gu@physx@@@8 10150300     GuBV4.obj
 0003:00001320       ??_R0?AU?$BVDataPackedT@VQuantizedAABB@Gu@physx@@@Gu@physx@@@8 10150320     GuBV4Build.obj
 0003:00001364       ??_R0?AUSlab@BV4BuildParams@@@8 10150364     GuBV4Build.obj
 0003:00001388       ??_R0?AVAABBTreeNode@Gu@physx@@@8 10150388     GuBV4Build.obj
 0003:000013ac       ??_R0?AUBV32Data@Gu@physx@@@8 101503ac     GuBV32Build.obj
 0003:000013cc       ??_R0?AUBV32Node@@@8       101503cc     GuBV32Build.obj
 0003:000013e4       ??_R0?AUSortedTriangle@Gu@physx@@@8 101503e4     GuPCMContactConvexCommon.obj
 0003:0000140c       ??_R0?AVbad_exception@std@@@8 1015040c     libvcruntime:frame.obj
 0003:0000142c       ??_R0?AVexception@std@@@8  1015042c     libvcruntime:frame.obj
 0003:00001448       ??_R0?AVtype_info@@@8      10150448     LIBCMT:std_type_info_static.obj
 0003:00001460       ??_R0?AVDNameNode@@@8      10150460     libvcruntime:undname.obj
 0003:00001478       ??_R0?AVcharNode@@@8       10150478     libvcruntime:undname.obj
 0003:00001490       ??_R0?AVpcharNode@@@8      10150490     libvcruntime:undname.obj
 0003:000014a8       ??_R0?AVpDNameNode@@@8     101504a8     libvcruntime:undname.obj
 0003:000014c4       ??_R0?AVDNameStatusNode@@@8 101504c4     libvcruntime:undname.obj
 0003:000014e4       ??_R0?AVpairNode@@@8       101504e4     libvcruntime:undname.obj
 0003:000014fc       __imp__PxGetFoundation     101504fc     PhysXFoundation_32:PhysXFoundation_32.dll
 0003:00001500       __imp_?deallocate@TempAllocator@shdfnd@physx@@QAEXPAX@Z 10150500     PhysXFoundation_32:PhysXFoundation_32.dll
 0003:00001504       __imp_?getAllocator@shdfnd@physx@@YAAAVPxAllocatorCallback@2@XZ 10150504     PhysXFoundation_32:PhysXFoundation_32.dll
 0003:00001508       __imp_?getInstance@Foundation@shdfnd@physx@@SAAAV123@XZ 10150508     PhysXFoundation_32:PhysXFoundation_32.dll
 0003:0000150c       __imp_?error@Foundation@shdfnd@physx@@QAAXW4Enum@PxErrorCode@3@PBDH1ZZ 1015050c     PhysXFoundation_32:PhysXFoundation_32.dll
 0003:00001510       __imp_?vsnprintf@shdfnd@physx@@YAHPADIPBD0@Z 10150510     PhysXFoundation_32:PhysXFoundation_32.dll
 0003:00001514       __imp_??0MutexImpl@shdfnd@physx@@QAE@XZ 10150514     PhysXFoundation_32:PhysXFoundation_32.dll
 0003:00001518       __imp_??1MutexImpl@shdfnd@physx@@QAE@XZ 10150518     PhysXFoundation_32:PhysXFoundation_32.dll
 0003:0000151c       __imp_?lock@MutexImpl@shdfnd@physx@@QAEXXZ 1015051c     PhysXFoundation_32:PhysXFoundation_32.dll
 0003:00001520       __imp_?unlock@MutexImpl@shdfnd@physx@@QAEXXZ 10150520     PhysXFoundation_32:PhysXFoundation_32.dll
 0003:00001524       __imp_?getSize@MutexImpl@shdfnd@physx@@SAIXZ 10150524     PhysXFoundation_32:PhysXFoundation_32.dll
 0003:00001528       __imp_?atomicDecrement@shdfnd@physx@@YAHPCH@Z 10150528     PhysXFoundation_32:PhysXFoundation_32.dll
 0003:0000152c       __imp_?PxTransformFromSegment@physx@@YA?AVPxTransform@1@ABVPxVec3@1@0PAM@Z 1015052c     PhysXFoundation_32:PhysXFoundation_32.dll
 0003:00001530       __imp_?optimizeBoundingBox@shdfnd@physx@@YA?AVPxVec3@2@AAVPxMat33@2@@Z 10150530     PhysXFoundation_32:PhysXFoundation_32.dll
 0003:00001534       __imp_?allocate@TempAllocator@shdfnd@physx@@QAEPAXIPBDH@Z 10150534     PhysXFoundation_32:PhysXFoundation_32.dll
 0003:00001538       __imp_?atomicIncrement@shdfnd@physx@@YAHPCH@Z 10150538     PhysXFoundation_32:PhysXFoundation_32.dll
 0003:0000153c       \177PhysXFoundation_32_NULL_THUNK_DATA_DLA 1015053c     PhysXFoundation_32:PhysXFoundation_32.dll
 0003:000022d0       ?boxVertexTable@physx@@3QBT__m128@@B 101512d0     GuConvexSupportTable.obj
 0003:00003dc0       __hmod__PhysXFoundation_32_dll 10152dc0     PhysXFoundation_32:PhysXFoundation_32.dll
 0003:00003dc4       ?DloadKernel32@@3PAUHINSTANCE__@@A 10152dc4     Delayimp:delayhlp.obj
 0003:00003dc8       ?DloadAcquireSRWLockExclusive@@3P6GXPAK@ZA 10152dc8     Delayimp:delayhlp.obj
 0003:00003dcc       ?DloadReleaseSRWLockExclusive@@3P6GXPAK@ZA 10152dcc     Delayimp:delayhlp.obj
 0003:00003dd0       ?DloadSrwLock@@3KA         10152dd0     Delayimp:delayhlp.obj
 0003:00003dd4       ?DloadSectionLockCount@@3KA 10152dd4     Delayimp:delayhlp.obj
 0003:00003dd8       ?DloadSectionOldProtection@@3KA 10152dd8     Delayimp:delayhlp.obj
 0003:00003ddc       ?DloadSectionCommitPermanent@@3KA 10152ddc     Delayimp:delayhlp.obj
 0003:00003de0       ?__type_info_root_node@@3U__type_info_node@@A 10152de0     LIBCMT:tncleanup.obj
 0003:00003dec       ___castguard_check_failure_os_handled_fptr 10152dec     LIBCMT:guard_support.obj
 0003:00003df0       ___isa_available           10152df0     LIBCMT:cpu_disp.obj
 0003:00003df4       ___favor                   10152df4     LIBCMT:cpu_disp.obj
 0003:00003df8       ?_OptionsStorage@?1??__local_stdio_printf_options@@9@4_KA 10152df8     LIBCMT:default_local_stdio_options.obj
 0003:00003e00       ?_OptionsStorage@?1??__local_stdio_scanf_options@@9@4_KA 10152e00     LIBCMT:default_local_stdio_options.obj
 0003:00003e08       ___scrt_current_native_startup_state 10152e08     LIBCMT:utility.obj
 0003:00003e0c       ___scrt_native_startup_lock 10152e0c     LIBCMT:utility.obj
 0003:00003e2c       ___scrt_debugger_hook_flag 10152e2c     LIBCMT:utility_desktop.obj
 0003:0000414c       ?__WinRTOutOfMemoryExceptionCallback@@3P6GPAXXZA 1015314c     libvcruntime:ehhelpers.obj
 0003:00004150       ___pPurecall               10153150     libvcruntime:purevirt_data.obj
 0003:00004154       ?pArgList@UnDecorator@@0PAVReplicator@@A 10153154     libvcruntime:undname.obj
 0003:00004158       ?pZNameList@UnDecorator@@0PAVReplicator@@A 10153158     libvcruntime:undname.obj
 0003:0000415c       ?pTemplateArgList@UnDecorator@@0PAVReplicator@@A 1015315c     libvcruntime:undname.obj
 0003:00004160       ?gName@UnDecorator@@0PBDB  10153160     libvcruntime:undname.obj
 0003:00004164       ?name@UnDecorator@@0PBDB   10153164     libvcruntime:undname.obj
 0003:00004168       ?disableFlags@UnDecorator@@0KA 10153168     libvcruntime:undname.obj
 0003:0000416c       ?fExplicitTemplateParams@UnDecorator@@0_NA 1015316c     libvcruntime:undname.obj
 0003:0000416d       ?fGetTemplateArgumentList@UnDecorator@@0_NA 1015316d     libvcruntime:undname.obj
 0003:00004170       ?m_pGetParameter@UnDecorator@@0P6APADJ@ZA 10153170     libvcruntime:undname.obj
 0003:00004174       ?m_CHPENameOffset@UnDecorator@@0KA 10153174     libvcruntime:undname.obj
 0003:00004178       ?m_recursionLevel@UnDecorator@@0KA 10153178     libvcruntime:undname.obj
 0003:000041fc       ?c_exit_complete@?1???R<lambda_6e4b09c48022b2350581041d5f6b0c4c>@@QBE@XZ@4_NA 101531fc     libucrt:exit.obj
 0003:00004308       __environ_table            10153308     libucrt:environment_initialization.obj
 0003:0000430c       __wenviron_table           1015330c     libucrt:environment_initialization.obj
 0003:00004310       ___dcrt_initial_wide_environment 10153310     libucrt:environment_initialization.obj
 0003:00004314       ___dcrt_initial_narrow_environment 10153314     libucrt:environment_initialization.obj
 0003:00004318       ___acrt_atexit_table       10153318     libucrt:onexit.obj
 0003:00004324       ___acrt_at_quick_exit_table 10153324     libucrt:onexit.obj
 0003:00004490       __mbctype                  10153490     libucrt:mbctype.obj
 0003:00004494       __mbcasemap                10153494     libucrt:mbctype.obj
 0003:00004498       ___acrt_current_multibyte_data 10153498     libucrt:mbctype.obj
 0003:000044a4       __pgmptr                   101534a4     libucrt:argv_data.obj
 0003:000044a8       ___argc                    101534a8     libucrt:argv_data.obj
 0003:000044ac       ___argv                    101534ac     libucrt:argv_data.obj
 0003:000044b0       ___wargv                   101534b0     libucrt:argv_data.obj
 0003:000044b4       __acmdln                   101534b4     libucrt:argv_data.obj
 0003:000044b8       __wcmdln                   101534b8     libucrt:argv_data.obj
 0003:00004598       ___acrt_heap               10153598     libucrt:heap_handle.obj
 0003:000045a0       ___pioinfo                 101535a0     libucrt:ioinit.obj
 0003:000047a0       __nhandle                  101537a0     libucrt:ioinit.obj
 0003:000047b8       ___acrt_current_locale_data 101537b8     libucrt:nlsdata.obj
 0003:000047bc       __nstream                  101537bc     libucrt:_file.obj
 0003:000047c0       ___piob                    101537c0     libucrt:_file.obj
 0003:000047c4       ___acrt_stdout_buffer      101537c4     libucrt:_sftbuf.obj
 0003:000047c8       ___acrt_stderr_buffer      101537c8     libucrt:_sftbuf.obj
 0003:000047d8       ___acrt_locale_changed_data 101537d8     libucrt:wsetlocale.obj
 0003:000047e0       ___acrt_lconv_static_null  101537e0     libucrt:localeconv.obj
 0003:000047e4       ___acrt_lconv_static_W_null 101537e4     libucrt:localeconv.obj
 0003:000047e8       ___fastflag                101537e8     libucrt:fp_flags.obj
 0003:000047f8       ___scrt_ucrt_dll_is_in_use 101537f8     <common>
 0003:000047fc       ___dyn_tls_init_callback   101537fc     <common>
 0003:00004800       ___use_sse2_mathfcns       10153800     <common>
 0003:00004804       __pmatherr                 10153804     <common>
 0004:00000500       ___common_ssin_reduction_data 10154500     LIBCMT:svml_s_sin_data.obj
 0004:00001100       ___common_ssin_data        10155100     LIBCMT:svml_s_sin_data.obj

 entry point at        0001:0011bcfc

 Static symbols

 0000:ffea1000       .debug$S                   10000000     PhysXCommon_32.exp
 0000:ffea1000       .debug$S                   10000000     kernel32:KERNEL32.dll
 0000:ffea1000       .debug$S                   10000000     kernel32:KERNEL32.dll
 0000:ffea1000       .debug$S                   10000000     kernel32:KERNEL32.dll
 0000:ffea1000       .debug$S                   10000000     kernel32:KERNEL32.dll
 0000:ffea1000       .debug$S                   10000000     kernel32:KERNEL32.dll
 0000:ffea1000       .debug$S                   10000000     kernel32:KERNEL32.dll
 0000:ffea1000       .debug$S                   10000000     kernel32:KERNEL32.dll
 0000:ffea1000       .debug$S                   10000000     kernel32:KERNEL32.dll
 0000:ffea1000       .debug$S                   10000000     kernel32:KERNEL32.dll
 0000:ffea1000       .debug$S                   10000000     kernel32:KERNEL32.dll
 0000:ffea1000       .debug$S                   10000000     kernel32:KERNEL32.dll
 0000:ffea1000       .debug$S                   10000000     kernel32:KERNEL32.dll
 0000:ffea1000       .debug$S                   10000000     kernel32:KERNEL32.dll
 0000:ffea1000       .debug$S                   10000000     kernel32:KERNEL32.dll
 0000:ffea1000       .debug$S                   10000000     kernel32:KERNEL32.dll
 0000:ffea1000       .debug$S                   10000000     kernel32:KERNEL32.dll
 0000:ffea1000       .debug$S                   10000000     kernel32:KERNEL32.dll
 0000:ffea1000       .debug$S                   10000000     kernel32:KERNEL32.dll
 0000:ffea1000       .debug$S                   10000000     kernel32:KERNEL32.dll
 0000:ffea1000       .debug$S                   10000000     kernel32:KERNEL32.dll
 0000:ffea1000       .debug$S                   10000000     kernel32:KERNEL32.dll
 0000:ffea1000       .debug$S                   10000000     kernel32:KERNEL32.dll
 0000:ffea1000       .debug$S                   10000000     kernel32:KERNEL32.dll
 0000:ffea1000       .debug$S                   10000000     kernel32:KERNEL32.dll
 0000:ffea1000       .debug$S                   10000000     kernel32:KERNEL32.dll
 0000:ffea1000       .debug$S                   10000000     kernel32:KERNEL32.dll
 0000:ffea1000       .debug$S                   10000000     kernel32:KERNEL32.dll
 0000:ffea1000       .debug$S                   10000000     kernel32:KERNEL32.dll
 0000:ffea1000       .debug$S                   10000000     kernel32:KERNEL32.dll
 0000:ffea1000       .debug$S                   10000000     kernel32:KERNEL32.dll
 0000:ffea1000       .debug$S                   10000000     kernel32:KERNEL32.dll
 0000:ffea1000       .debug$S                   10000000     kernel32:KERNEL32.dll
 0000:ffea1000       .debug$S                   10000000     kernel32:KERNEL32.dll
 0000:ffea1000       .debug$S                   10000000     kernel32:KERNEL32.dll
 0000:ffea1000       .debug$S                   10000000     kernel32:KERNEL32.dll
 0000:ffea1000       .debug$S                   10000000     kernel32:KERNEL32.dll
 0000:ffea1000       .debug$S                   10000000     kernel32:KERNEL32.dll
 0000:ffea1000       .debug$S                   10000000     kernel32:KERNEL32.dll
 0000:ffea1000       .debug$S                   10000000     kernel32:KERNEL32.dll
 0000:ffea1000       .debug$S                   10000000     kernel32:KERNEL32.dll
 0000:ffea1000       .debug$S                   10000000     kernel32:KERNEL32.dll
 0000:ffea1000       .debug$S                   10000000     kernel32:KERNEL32.dll
 0000:ffea1000       .debug$S                   10000000     kernel32:KERNEL32.dll
 0000:ffea1000       .debug$S                   10000000     kernel32:KERNEL32.dll
 0000:ffea1000       .debug$S                   10000000     kernel32:KERNEL32.dll
 0000:ffea1000       .debug$S                   10000000     kernel32:KERNEL32.dll
 0000:ffea1000       .debug$S                   10000000     kernel32:KERNEL32.dll
 0000:ffea1000       .debug$S                   10000000     kernel32:KERNEL32.dll
 0000:ffea1000       .debug$S                   10000000     kernel32:KERNEL32.dll
 0000:ffea1000       .debug$S                   10000000     kernel32:KERNEL32.dll
 0000:ffea1000       .debug$S                   10000000     kernel32:KERNEL32.dll
 0000:ffea1000       .debug$S                   10000000     kernel32:KERNEL32.dll
 0000:ffea1000       .debug$S                   10000000     kernel32:KERNEL32.dll
 0000:ffea1000       .debug$S                   10000000     kernel32:KERNEL32.dll
 0000:ffea1000       .debug$S                   10000000     kernel32:KERNEL32.dll
 0000:ffea1000       .debug$S                   10000000     kernel32:KERNEL32.dll
 0000:ffea1000       .debug$S                   10000000     kernel32:KERNEL32.dll
 0000:ffea1000       .debug$S                   10000000     kernel32:KERNEL32.dll
 0000:ffea1000       .debug$S                   10000000     kernel32:KERNEL32.dll
 0000:ffea1000       .debug$S                   10000000     kernel32:KERNEL32.dll
 0000:ffea1000       .debug$S                   10000000     kernel32:KERNEL32.dll
 0000:ffea1000       .debug$S                   10000000     kernel32:KERNEL32.dll
 0000:ffea1000       .debug$S                   10000000     kernel32:KERNEL32.dll
 0000:ffea1000       .debug$S                   10000000     kernel32:KERNEL32.dll
 0000:ffea1000       .debug$S                   10000000     kernel32:KERNEL32.dll
 0000:ffea1000       .debug$S                   10000000     kernel32:KERNEL32.dll
 0000:ffea1000       .debug$S                   10000000     kernel32:KERNEL32.dll
 0000:ffea1000       .debug$S                   10000000     kernel32:KERNEL32.dll
 0000:ffea1000       .debug$S                   10000000     kernel32:KERNEL32.dll
 0000:ffea1000       .debug$S                   10000000     kernel32:KERNEL32.dll
 0000:ffea1000       .debug$S                   10000000     kernel32:KERNEL32.dll
 0000:ffea1000       .debug$S                   10000000     kernel32:KERNEL32.dll
 0000:ffea1000       .debug$S                   10000000     kernel32:KERNEL32.dll
 0000:ffea1000       .debug$S                   10000000     kernel32:KERNEL32.dll
 0000:ffea1000       .debug$S                   10000000     kernel32:KERNEL32.dll
 0000:ffea1000       .debug$S                   10000000     kernel32:KERNEL32.dll
 0000:ffea1000       .debug$S                   10000000     kernel32:KERNEL32.dll
 0000:ffea1000       .debug$S                   10000000     kernel32:KERNEL32.dll
 0000:ffea1000       .debug$S                   10000000     kernel32:KERNEL32.dll
 0000:ffea1000       .debug$S                   10000000     kernel32:KERNEL32.dll
 0000:ffea1000       .debug$S                   10000000     kernel32:KERNEL32.dll
 0000:ffea1000       .debug$S                   10000000     kernel32:KERNEL32.dll
 0000:ffea1000       .debug$S                   10000000     kernel32:KERNEL32.dll
 0000:ffea1000       .debug$S                   10000000     kernel32:KERNEL32.dll
 0000:ffea1000       .debug$S                   10000000     kernel32:KERNEL32.dll
 0000:ffea1000       .debug$S                   10000000     PhysXFoundation_32:PhysXFoundation_32.dll
 0000:ffea1000       .debug$S                   10000000     PhysXFoundation_32:PhysXFoundation_32.dll
 0000:ffea1000       .debug$S                   10000000     PhysXFoundation_32:PhysXFoundation_32.dll
 0000:ffea1000       .debug$S                   10000000     PhysXFoundation_32:PhysXFoundation_32.dll
 0000:ffea1000       .debug$S                   10000000     PhysXFoundation_32:PhysXFoundation_32.dll
 0000:ffea1000       .debug$S                   10000000     PhysXFoundation_32:PhysXFoundation_32.dll
 0000:ffea1000       .debug$S                   10000000     PhysXFoundation_32:PhysXFoundation_32.dll
 0000:ffea1000       .debug$S                   10000000     PhysXFoundation_32:PhysXFoundation_32.dll
 0000:ffea1000       .debug$S                   10000000     PhysXFoundation_32:PhysXFoundation_32.dll
 0000:ffea1000       .debug$S                   10000000     PhysXFoundation_32:PhysXFoundation_32.dll
 0000:ffea1000       .debug$S                   10000000     PhysXFoundation_32:PhysXFoundation_32.dll
 0000:ffea1000       .debug$S                   10000000     PhysXFoundation_32:PhysXFoundation_32.dll
 0000:ffea1000       .debug$S                   10000000     PhysXFoundation_32:PhysXFoundation_32.dll
 0000:ffea1000       .debug$S                   10000000     PhysXFoundation_32:PhysXFoundation_32.dll
 0000:ffea1000       .debug$S                   10000000     PhysXFoundation_32:PhysXFoundation_32.dll
 0000:ffea1000       .debug$S                   10000000     PhysXFoundation_32:PhysXFoundation_32.dll
 0001:00000000       ??__EmaxFError@_VecMathTests@aos@shdfnd@physx@@YAXXZ 10001000 f   GuBounds.obj
 0001:00000020       ??__EmaxV3Error@_VecMathTests@aos@shdfnd@physx@@YAXXZ 10001020 f   GuBounds.obj
 0001:00000030       ??__EmaxV4Error@_VecMathTests@aos@shdfnd@physx@@YAXXZ 10001030 f   GuBounds.obj
 0001:00000050       ??__EminFError@_VecMathTests@aos@shdfnd@physx@@YAXXZ 10001050 f   GuBounds.obj
 0001:00000070       ??__EminV3Error@_VecMathTests@aos@shdfnd@physx@@YAXXZ 10001070 f   GuBounds.obj
 0001:00000080       ??__EminV4Error@_VecMathTests@aos@shdfnd@physx@@YAXXZ 10001080 f   GuBounds.obj
 0001:000000a0       ??__EmaxFError@_VecMathTests@aos@shdfnd@physx@@YAXXZ 100010a0 f   GuBox.obj
 0001:000000c0       ??__EmaxV3Error@_VecMathTests@aos@shdfnd@physx@@YAXXZ 100010c0 f   GuBox.obj
 0001:000000d0       ??__EmaxV4Error@_VecMathTests@aos@shdfnd@physx@@YAXXZ 100010d0 f   GuBox.obj
 0001:000000f0       ??__EminFError@_VecMathTests@aos@shdfnd@physx@@YAXXZ 100010f0 f   GuBox.obj
 0001:00000110       ??__EminV3Error@_VecMathTests@aos@shdfnd@physx@@YAXXZ 10001110 f   GuBox.obj
 0001:00000120       ??__EminV4Error@_VecMathTests@aos@shdfnd@physx@@YAXXZ 10001120 f   GuBox.obj
 0001:00000140       ??__EmaxFError@_VecMathTests@aos@shdfnd@physx@@YAXXZ 10001140 f   GuCCTSweepTests.obj
 0001:00000160       ??__EmaxV3Error@_VecMathTests@aos@shdfnd@physx@@YAXXZ 10001160 f   GuCCTSweepTests.obj
 0001:00000170       ??__EmaxV4Error@_VecMathTests@aos@shdfnd@physx@@YAXXZ 10001170 f   GuCCTSweepTests.obj
 0001:00000190       ??__EminFError@_VecMathTests@aos@shdfnd@physx@@YAXXZ 10001190 f   GuCCTSweepTests.obj
 0001:000001b0       ??__EminV3Error@_VecMathTests@aos@shdfnd@physx@@YAXXZ 100011b0 f   GuCCTSweepTests.obj
 0001:000001c0       ??__EminV4Error@_VecMathTests@aos@shdfnd@physx@@YAXXZ 100011c0 f   GuCCTSweepTests.obj
 0001:000001e0       ??__EmaxFError@_VecMathTests@aos@shdfnd@physx@@YAXXZ 100011e0 f   GuGeometryQuery.obj
 0001:00000200       ??__EmaxV3Error@_VecMathTests@aos@shdfnd@physx@@YAXXZ 10001200 f   GuGeometryQuery.obj
 0001:00000210       ??__EmaxV4Error@_VecMathTests@aos@shdfnd@physx@@YAXXZ 10001210 f   GuGeometryQuery.obj
 0001:00000230       ??__EminFError@_VecMathTests@aos@shdfnd@physx@@YAXXZ 10001230 f   GuGeometryQuery.obj
 0001:00000250       ??__EminV3Error@_VecMathTests@aos@shdfnd@physx@@YAXXZ 10001250 f   GuGeometryQuery.obj
 0001:00000260       ??__EminV4Error@_VecMathTests@aos@shdfnd@physx@@YAXXZ 10001260 f   GuGeometryQuery.obj
 0001:00000280       ??__EmaxFError@_VecMathTests@aos@shdfnd@physx@@YAXXZ 10001280 f   GuGeometryUnion.obj
 0001:000002a0       ??__EmaxV3Error@_VecMathTests@aos@shdfnd@physx@@YAXXZ 100012a0 f   GuGeometryUnion.obj
 0001:000002b0       ??__EmaxV4Error@_VecMathTests@aos@shdfnd@physx@@YAXXZ 100012b0 f   GuGeometryUnion.obj
 0001:000002d0       ??__EminFError@_VecMathTests@aos@shdfnd@physx@@YAXXZ 100012d0 f   GuGeometryUnion.obj
 0001:000002f0       ??__EminV3Error@_VecMathTests@aos@shdfnd@physx@@YAXXZ 100012f0 f   GuGeometryUnion.obj
 0001:00000300       ??__EminV4Error@_VecMathTests@aos@shdfnd@physx@@YAXXZ 10001300 f   GuGeometryUnion.obj
 0001:00000320       ??__EmaxFError@_VecMathTests@aos@shdfnd@physx@@YAXXZ 10001320 f   GuInternal.obj
 0001:00000340       ??__EmaxV3Error@_VecMathTests@aos@shdfnd@physx@@YAXXZ 10001340 f   GuInternal.obj
 0001:00000350       ??__EmaxV4Error@_VecMathTests@aos@shdfnd@physx@@YAXXZ 10001350 f   GuInternal.obj
 0001:00000370       ??__EminFError@_VecMathTests@aos@shdfnd@physx@@YAXXZ 10001370 f   GuInternal.obj
 0001:00000390       ??__EminV3Error@_VecMathTests@aos@shdfnd@physx@@YAXXZ 10001390 f   GuInternal.obj
 0001:000003a0       ??__EminV4Error@_VecMathTests@aos@shdfnd@physx@@YAXXZ 100013a0 f   GuInternal.obj
 0001:000003c0       ??__EmaxFError@_VecMathTests@aos@shdfnd@physx@@YAXXZ 100013c0 f   GuMeshFactory.obj
 0001:000003e0       ??__EmaxV3Error@_VecMathTests@aos@shdfnd@physx@@YAXXZ 100013e0 f   GuMeshFactory.obj
 0001:000003f0       ??__EmaxV4Error@_VecMathTests@aos@shdfnd@physx@@YAXXZ 100013f0 f   GuMeshFactory.obj
 0001:00000410       ??__EminFError@_VecMathTests@aos@shdfnd@physx@@YAXXZ 10001410 f   GuMeshFactory.obj
 0001:00000430       ??__EminV3Error@_VecMathTests@aos@shdfnd@physx@@YAXXZ 10001430 f   GuMeshFactory.obj
 0001:00000440       ??__EminV4Error@_VecMathTests@aos@shdfnd@physx@@YAXXZ 10001440 f   GuMeshFactory.obj
 0001:00000460       ??__EmaxFError@_VecMathTests@aos@shdfnd@physx@@YAXXZ 10001460 f   GuMetaData.obj
 0001:00000480       ??__EmaxV3Error@_VecMathTests@aos@shdfnd@physx@@YAXXZ 10001480 f   GuMetaData.obj
 0001:00000490       ??__EmaxV4Error@_VecMathTests@aos@shdfnd@physx@@YAXXZ 10001490 f   GuMetaData.obj
 0001:000004b0       ??__EminFError@_VecMathTests@aos@shdfnd@physx@@YAXXZ 100014b0 f   GuMetaData.obj
 0001:000004d0       ??__EminV3Error@_VecMathTests@aos@shdfnd@physx@@YAXXZ 100014d0 f   GuMetaData.obj
 0001:000004e0       ??__EminV4Error@_VecMathTests@aos@shdfnd@physx@@YAXXZ 100014e0 f   GuMetaData.obj
 0001:00000500       ??__EmaxFError@_VecMathTests@aos@shdfnd@physx@@YAXXZ 10001500 f   GuMTD.obj
 0001:00000520       ??__EmaxV3Error@_VecMathTests@aos@shdfnd@physx@@YAXXZ 10001520 f   GuMTD.obj
 0001:00000530       ??__EmaxV4Error@_VecMathTests@aos@shdfnd@physx@@YAXXZ 10001530 f   GuMTD.obj
 0001:00000550       ??__EminFError@_VecMathTests@aos@shdfnd@physx@@YAXXZ 10001550 f   GuMTD.obj
 0001:00000570       ??__EminV3Error@_VecMathTests@aos@shdfnd@physx@@YAXXZ 10001570 f   GuMTD.obj
 0001:00000580       ??__EminV4Error@_VecMathTests@aos@shdfnd@physx@@YAXXZ 10001580 f   GuMTD.obj
 0001:000005a0       ??__EmaxFError@_VecMathTests@aos@shdfnd@physx@@YAXXZ 100015a0 f   GuOverlapTests.obj
 0001:000005c0       ??__EmaxV3Error@_VecMathTests@aos@shdfnd@physx@@YAXXZ 100015c0 f   GuOverlapTests.obj
 0001:000005d0       ??__EmaxV4Error@_VecMathTests@aos@shdfnd@physx@@YAXXZ 100015d0 f   GuOverlapTests.obj
 0001:000005f0       ??__EminFError@_VecMathTests@aos@shdfnd@physx@@YAXXZ 100015f0 f   GuOverlapTests.obj
 0001:00000610       ??__EminV3Error@_VecMathTests@aos@shdfnd@physx@@YAXXZ 10001610 f   GuOverlapTests.obj
 0001:00000620       ??__EminV4Error@_VecMathTests@aos@shdfnd@physx@@YAXXZ 10001620 f   GuOverlapTests.obj
 0001:00000640       ??__EmaxFError@_VecMathTests@aos@shdfnd@physx@@YAXXZ 10001640 f   GuRaycastTests.obj
 0001:00000660       ??__EmaxV3Error@_VecMathTests@aos@shdfnd@physx@@YAXXZ 10001660 f   GuRaycastTests.obj
 0001:00000670       ??__EmaxV4Error@_VecMathTests@aos@shdfnd@physx@@YAXXZ 10001670 f   GuRaycastTests.obj
 0001:00000690       ??__EminFError@_VecMathTests@aos@shdfnd@physx@@YAXXZ 10001690 f   GuRaycastTests.obj
 0001:000006b0       ??__EminV3Error@_VecMathTests@aos@shdfnd@physx@@YAXXZ 100016b0 f   GuRaycastTests.obj
 0001:000006c0       ??__EminV4Error@_VecMathTests@aos@shdfnd@physx@@YAXXZ 100016c0 f   GuRaycastTests.obj
 0001:000006e0       ??__EmaxFError@_VecMathTests@aos@shdfnd@physx@@YAXXZ 100016e0 f   GuSweepMTD.obj
 0001:00000700       ??__EmaxV3Error@_VecMathTests@aos@shdfnd@physx@@YAXXZ 10001700 f   GuSweepMTD.obj
 0001:00000710       ??__EmaxV4Error@_VecMathTests@aos@shdfnd@physx@@YAXXZ 10001710 f   GuSweepMTD.obj
 0001:00000730       ??__EminFError@_VecMathTests@aos@shdfnd@physx@@YAXXZ 10001730 f   GuSweepMTD.obj
 0001:00000750       ??__EminV3Error@_VecMathTests@aos@shdfnd@physx@@YAXXZ 10001750 f   GuSweepMTD.obj
 0001:00000760       ??__EminV4Error@_VecMathTests@aos@shdfnd@physx@@YAXXZ 10001760 f   GuSweepMTD.obj
 0001:00000780       ??__EmaxFError@_VecMathTests@aos@shdfnd@physx@@YAXXZ 10001780 f   GuSweepSharedTests.obj
 0001:000007a0       ??__EmaxV3Error@_VecMathTests@aos@shdfnd@physx@@YAXXZ 100017a0 f   GuSweepSharedTests.obj
 0001:000007b0       ??__EmaxV4Error@_VecMathTests@aos@shdfnd@physx@@YAXXZ 100017b0 f   GuSweepSharedTests.obj
 0001:000007d0       ??__EminFError@_VecMathTests@aos@shdfnd@physx@@YAXXZ 100017d0 f   GuSweepSharedTests.obj
 0001:000007f0       ??__EminV3Error@_VecMathTests@aos@shdfnd@physx@@YAXXZ 100017f0 f   GuSweepSharedTests.obj
 0001:00000800       ??__EminV4Error@_VecMathTests@aos@shdfnd@physx@@YAXXZ 10001800 f   GuSweepSharedTests.obj
 0001:00000820       ??__EmaxFError@_VecMathTests@aos@shdfnd@physx@@YAXXZ 10001820 f   GuSweepTests.obj
 0001:00000840       ??__EmaxV3Error@_VecMathTests@aos@shdfnd@physx@@YAXXZ 10001840 f   GuSweepTests.obj
 0001:00000850       ??__EmaxV4Error@_VecMathTests@aos@shdfnd@physx@@YAXXZ 10001850 f   GuSweepTests.obj
 0001:00000870       ??__EminFError@_VecMathTests@aos@shdfnd@physx@@YAXXZ 10001870 f   GuSweepTests.obj
 0001:00000890       ??__EminV3Error@_VecMathTests@aos@shdfnd@physx@@YAXXZ 10001890 f   GuSweepTests.obj
 0001:000008a0       ??__EminV4Error@_VecMathTests@aos@shdfnd@physx@@YAXXZ 100018a0 f   GuSweepTests.obj
 0001:000008c0       ??__EmaxFError@_VecMathTests@aos@shdfnd@physx@@YAXXZ 100018c0 f   GuAABBTreeBuild.obj
 0001:000008e0       ??__EmaxV3Error@_VecMathTests@aos@shdfnd@physx@@YAXXZ 100018e0 f   GuAABBTreeBuild.obj
 0001:000008f0       ??__EmaxV4Error@_VecMathTests@aos@shdfnd@physx@@YAXXZ 100018f0 f   GuAABBTreeBuild.obj
 0001:00000910       ??__EminFError@_VecMathTests@aos@shdfnd@physx@@YAXXZ 10001910 f   GuAABBTreeBuild.obj
 0001:00000930       ??__EminV3Error@_VecMathTests@aos@shdfnd@physx@@YAXXZ 10001930 f   GuAABBTreeBuild.obj
 0001:00000940       ??__EminV4Error@_VecMathTests@aos@shdfnd@physx@@YAXXZ 10001940 f   GuAABBTreeBuild.obj
 0001:00000960       ??__EmaxFError@_VecMathTests@aos@shdfnd@physx@@YAXXZ 10001960 f   GuBVHStructure.obj
 0001:00000980       ??__EmaxV3Error@_VecMathTests@aos@shdfnd@physx@@YAXXZ 10001980 f   GuBVHStructure.obj
 0001:00000990       ??__EmaxV4Error@_VecMathTests@aos@shdfnd@physx@@YAXXZ 10001990 f   GuBVHStructure.obj
 0001:000009b0       ??__EminFError@_VecMathTests@aos@shdfnd@physx@@YAXXZ 100019b0 f   GuBVHStructure.obj
 0001:000009d0       ??__EminV3Error@_VecMathTests@aos@shdfnd@physx@@YAXXZ 100019d0 f   GuBVHStructure.obj
 0001:000009e0       ??__EminV4Error@_VecMathTests@aos@shdfnd@physx@@YAXXZ 100019e0 f   GuBVHStructure.obj
 0001:00000a00       ??__EmaxFError@_VecMathTests@aos@shdfnd@physx@@YAXXZ 10001a00 f   GuCCDSweepConvexMesh.obj
 0001:00000a20       ??__EmaxV3Error@_VecMathTests@aos@shdfnd@physx@@YAXXZ 10001a20 f   GuCCDSweepConvexMesh.obj
 0001:00000a30       ??__EmaxV4Error@_VecMathTests@aos@shdfnd@physx@@YAXXZ 10001a30 f   GuCCDSweepConvexMesh.obj
 0001:00000a50       ??__EminFError@_VecMathTests@aos@shdfnd@physx@@YAXXZ 10001a50 f   GuCCDSweepConvexMesh.obj
 0001:00000a70       ??__EminV3Error@_VecMathTests@aos@shdfnd@physx@@YAXXZ 10001a70 f   GuCCDSweepConvexMesh.obj
 0001:00000a80       ??__EminV4Error@_VecMathTests@aos@shdfnd@physx@@YAXXZ 10001a80 f   GuCCDSweepConvexMesh.obj
 0001:00000aa0       ??__EmaxFError@_VecMathTests@aos@shdfnd@physx@@YAXXZ 10001aa0 f   GuCCDSweepPrimitives.obj
 0001:00000ac0       ??__EmaxV3Error@_VecMathTests@aos@shdfnd@physx@@YAXXZ 10001ac0 f   GuCCDSweepPrimitives.obj
 0001:00000ad0       ??__EmaxV4Error@_VecMathTests@aos@shdfnd@physx@@YAXXZ 10001ad0 f   GuCCDSweepPrimitives.obj
 0001:00000af0       ??__EminFError@_VecMathTests@aos@shdfnd@physx@@YAXXZ 10001af0 f   GuCCDSweepPrimitives.obj
 0001:00000b10       ??__EminV3Error@_VecMathTests@aos@shdfnd@physx@@YAXXZ 10001b10 f   GuCCDSweepPrimitives.obj
 0001:00000b20       ??__EminV4Error@_VecMathTests@aos@shdfnd@physx@@YAXXZ 10001b20 f   GuCCDSweepPrimitives.obj
 0001:00000b40       ??__EmaxFError@_VecMathTests@aos@shdfnd@physx@@YAXXZ 10001b40 f   GuBarycentricCoordinates.obj
 0001:00000b60       ??__EmaxV3Error@_VecMathTests@aos@shdfnd@physx@@YAXXZ 10001b60 f   GuBarycentricCoordinates.obj
 0001:00000b70       ??__EmaxV4Error@_VecMathTests@aos@shdfnd@physx@@YAXXZ 10001b70 f   GuBarycentricCoordinates.obj
 0001:00000b90       ??__EminFError@_VecMathTests@aos@shdfnd@physx@@YAXXZ 10001b90 f   GuBarycentricCoordinates.obj
 0001:00000bb0       ??__EminV3Error@_VecMathTests@aos@shdfnd@physx@@YAXXZ 10001bb0 f   GuBarycentricCoordinates.obj
 0001:00000bc0       ??__EminV4Error@_VecMathTests@aos@shdfnd@physx@@YAXXZ 10001bc0 f   GuBarycentricCoordinates.obj
 0001:00000be0       ??__EmaxFError@_VecMathTests@aos@shdfnd@physx@@YAXXZ 10001be0 f   GuContactBoxBox.obj
 0001:00000c00       ??__EmaxV3Error@_VecMathTests@aos@shdfnd@physx@@YAXXZ 10001c00 f   GuContactBoxBox.obj
 0001:00000c10       ??__EmaxV4Error@_VecMathTests@aos@shdfnd@physx@@YAXXZ 10001c10 f   GuContactBoxBox.obj
 0001:00000c30       ??__EminFError@_VecMathTests@aos@shdfnd@physx@@YAXXZ 10001c30 f   GuContactBoxBox.obj
 0001:00000c50       ??__EminV3Error@_VecMathTests@aos@shdfnd@physx@@YAXXZ 10001c50 f   GuContactBoxBox.obj
 0001:00000c60       ??__EminV4Error@_VecMathTests@aos@shdfnd@physx@@YAXXZ 10001c60 f   GuContactBoxBox.obj
 0001:00000c80       ??__EmaxFError@_VecMathTests@aos@shdfnd@physx@@YAXXZ 10001c80 f   GuContactCapsuleBox.obj
 0001:00000ca0       ??__EmaxV3Error@_VecMathTests@aos@shdfnd@physx@@YAXXZ 10001ca0 f   GuContactCapsuleBox.obj
 0001:00000cb0       ??__EmaxV4Error@_VecMathTests@aos@shdfnd@physx@@YAXXZ 10001cb0 f   GuContactCapsuleBox.obj
 0001:00000cd0       ??__EminFError@_VecMathTests@aos@shdfnd@physx@@YAXXZ 10001cd0 f   GuContactCapsuleBox.obj
 0001:00000cf0       ??__EminV3Error@_VecMathTests@aos@shdfnd@physx@@YAXXZ 10001cf0 f   GuContactCapsuleBox.obj
 0001:00000d00       ??__EminV4Error@_VecMathTests@aos@shdfnd@physx@@YAXXZ 10001d00 f   GuContactCapsuleBox.obj
 0001:00000d20       ??__EmaxFError@_VecMathTests@aos@shdfnd@physx@@YAXXZ 10001d20 f   GuContactCapsuleCapsule.obj
 0001:00000d40       ??__EmaxV3Error@_VecMathTests@aos@shdfnd@physx@@YAXXZ 10001d40 f   GuContactCapsuleCapsule.obj
 0001:00000d50       ??__EmaxV4Error@_VecMathTests@aos@shdfnd@physx@@YAXXZ 10001d50 f   GuContactCapsuleCapsule.obj
 0001:00000d70       ??__EminFError@_VecMathTests@aos@shdfnd@physx@@YAXXZ 10001d70 f   GuContactCapsuleCapsule.obj
 0001:00000d90       ??__EminV3Error@_VecMathTests@aos@shdfnd@physx@@YAXXZ 10001d90 f   GuContactCapsuleCapsule.obj
 0001:00000da0       ??__EminV4Error@_VecMathTests@aos@shdfnd@physx@@YAXXZ 10001da0 f   GuContactCapsuleCapsule.obj
 0001:00000dc0       ??__EmaxFError@_VecMathTests@aos@shdfnd@physx@@YAXXZ 10001dc0 f   GuContactCapsuleConvex.obj
 0001:00000de0       ??__EmaxV3Error@_VecMathTests@aos@shdfnd@physx@@YAXXZ 10001de0 f   GuContactCapsuleConvex.obj
 0001:00000df0       ??__EmaxV4Error@_VecMathTests@aos@shdfnd@physx@@YAXXZ 10001df0 f   GuContactCapsuleConvex.obj
 0001:00000e10       ??__EminFError@_VecMathTests@aos@shdfnd@physx@@YAXXZ 10001e10 f   GuContactCapsuleConvex.obj
 0001:00000e30       ??__EminV3Error@_VecMathTests@aos@shdfnd@physx@@YAXXZ 10001e30 f   GuContactCapsuleConvex.obj
 0001:00000e40       ??__EminV4Error@_VecMathTests@aos@shdfnd@physx@@YAXXZ 10001e40 f   GuContactCapsuleConvex.obj
 0001:00000e60       ??__EmaxFError@_VecMathTests@aos@shdfnd@physx@@YAXXZ 10001e60 f   GuContactCapsuleMesh.obj
 0001:00000e80       ??__EmaxV3Error@_VecMathTests@aos@shdfnd@physx@@YAXXZ 10001e80 f   GuContactCapsuleMesh.obj
 0001:00000e90       ??__EmaxV4Error@_VecMathTests@aos@shdfnd@physx@@YAXXZ 10001e90 f   GuContactCapsuleMesh.obj
 0001:00000eb0       ??__EminFError@_VecMathTests@aos@shdfnd@physx@@YAXXZ 10001eb0 f   GuContactCapsuleMesh.obj
 0001:00000ed0       ??__EminV3Error@_VecMathTests@aos@shdfnd@physx@@YAXXZ 10001ed0 f   GuContactCapsuleMesh.obj
 0001:00000ee0       ??__EminV4Error@_VecMathTests@aos@shdfnd@physx@@YAXXZ 10001ee0 f   GuContactCapsuleMesh.obj
 0001:00000f00       ??__EmaxFError@_VecMathTests@aos@shdfnd@physx@@YAXXZ 10001f00 f   GuContactConvexConvex.obj
 0001:00000f20       ??__EmaxV3Error@_VecMathTests@aos@shdfnd@physx@@YAXXZ 10001f20 f   GuContactConvexConvex.obj
 0001:00000f30       ??__EmaxV4Error@_VecMathTests@aos@shdfnd@physx@@YAXXZ 10001f30 f   GuContactConvexConvex.obj
 0001:00000f50       ??__EminFError@_VecMathTests@aos@shdfnd@physx@@YAXXZ 10001f50 f   GuContactConvexConvex.obj
 0001:00000f70       ??__EminV3Error@_VecMathTests@aos@shdfnd@physx@@YAXXZ 10001f70 f   GuContactConvexConvex.obj
 0001:00000f80       ??__EminV4Error@_VecMathTests@aos@shdfnd@physx@@YAXXZ 10001f80 f   GuContactConvexConvex.obj
 0001:00000fa0       ??__EmaxFError@_VecMathTests@aos@shdfnd@physx@@YAXXZ 10001fa0 f   GuContactConvexMesh.obj
 0001:00000fc0       ??__EmaxV3Error@_VecMathTests@aos@shdfnd@physx@@YAXXZ 10001fc0 f   GuContactConvexMesh.obj
 0001:00000fd0       ??__EmaxV4Error@_VecMathTests@aos@shdfnd@physx@@YAXXZ 10001fd0 f   GuContactConvexMesh.obj
 0001:00001000       ??__EminFError@_VecMathTests@aos@shdfnd@physx@@YAXXZ 10002000 f   GuContactConvexMesh.obj
 0001:00001020       ??__EminV3Error@_VecMathTests@aos@shdfnd@physx@@YAXXZ 10002020 f   GuContactConvexMesh.obj
 0001:00001030       ??__EminV4Error@_VecMathTests@aos@shdfnd@physx@@YAXXZ 10002030 f   GuContactConvexMesh.obj
 0001:00001050       ??__EmaxFError@_VecMathTests@aos@shdfnd@physx@@YAXXZ 10002050 f   GuContactPlaneBox.obj
 0001:00001070       ??__EmaxV3Error@_VecMathTests@aos@shdfnd@physx@@YAXXZ 10002070 f   GuContactPlaneBox.obj
 0001:00001080       ??__EmaxV4Error@_VecMathTests@aos@shdfnd@physx@@YAXXZ 10002080 f   GuContactPlaneBox.obj
 0001:000010a0       ??__EminFError@_VecMathTests@aos@shdfnd@physx@@YAXXZ 100020a0 f   GuContactPlaneBox.obj
 0001:000010c0       ??__EminV3Error@_VecMathTests@aos@shdfnd@physx@@YAXXZ 100020c0 f   GuContactPlaneBox.obj
 0001:000010d0       ??__EminV4Error@_VecMathTests@aos@shdfnd@physx@@YAXXZ 100020d0 f   GuContactPlaneBox.obj
 0001:000010f0       ??__EmaxFError@_VecMathTests@aos@shdfnd@physx@@YAXXZ 100020f0 f   GuContactPlaneCapsule.obj
 0001:00001110       ??__EmaxV3Error@_VecMathTests@aos@shdfnd@physx@@YAXXZ 10002110 f   GuContactPlaneCapsule.obj
 0001:00001120       ??__EmaxV4Error@_VecMathTests@aos@shdfnd@physx@@YAXXZ 10002120 f   GuContactPlaneCapsule.obj
 0001:00001140       ??__EminFError@_VecMathTests@aos@shdfnd@physx@@YAXXZ 10002140 f   GuContactPlaneCapsule.obj
 0001:00001160       ??__EminV3Error@_VecMathTests@aos@shdfnd@physx@@YAXXZ 10002160 f   GuContactPlaneCapsule.obj
 0001:00001170       ??__EminV4Error@_VecMathTests@aos@shdfnd@physx@@YAXXZ 10002170 f   GuContactPlaneCapsule.obj
 0001:00001190       ??__EmaxFError@_VecMathTests@aos@shdfnd@physx@@YAXXZ 10002190 f   GuContactPlaneConvex.obj
 0001:000011b0       ??__EmaxV3Error@_VecMathTests@aos@shdfnd@physx@@YAXXZ 100021b0 f   GuContactPlaneConvex.obj
 0001:000011c0       ??__EmaxV4Error@_VecMathTests@aos@shdfnd@physx@@YAXXZ 100021c0 f   GuContactPlaneConvex.obj
 0001:000011e0       ??__EminFError@_VecMathTests@aos@shdfnd@physx@@YAXXZ 100021e0 f   GuContactPlaneConvex.obj
 0001:00001200       ??__EminV3Error@_VecMathTests@aos@shdfnd@physx@@YAXXZ 10002200 f   GuContactPlaneConvex.obj
 0001:00001210       ??__EminV4Error@_VecMathTests@aos@shdfnd@physx@@YAXXZ 10002210 f   GuContactPlaneConvex.obj
 0001:00001230       ??__EmaxFError@_VecMathTests@aos@shdfnd@physx@@YAXXZ 10002230 f   GuContactSphereBox.obj
 0001:00001250       ??__EmaxV3Error@_VecMathTests@aos@shdfnd@physx@@YAXXZ 10002250 f   GuContactSphereBox.obj
 0001:00001260       ??__EmaxV4Error@_VecMathTests@aos@shdfnd@physx@@YAXXZ 10002260 f   GuContactSphereBox.obj
 0001:00001280       ??__EminFError@_VecMathTests@aos@shdfnd@physx@@YAXXZ 10002280 f   GuContactSphereBox.obj
 0001:000012a0       ??__EminV3Error@_VecMathTests@aos@shdfnd@physx@@YAXXZ 100022a0 f   GuContactSphereBox.obj
 0001:000012b0       ??__EminV4Error@_VecMathTests@aos@shdfnd@physx@@YAXXZ 100022b0 f   GuContactSphereBox.obj
 0001:000012d0       ??__EmaxFError@_VecMathTests@aos@shdfnd@physx@@YAXXZ 100022d0 f   GuContactSphereCapsule.obj
 0001:000012f0       ??__EmaxV3Error@_VecMathTests@aos@shdfnd@physx@@YAXXZ 100022f0 f   GuContactSphereCapsule.obj
 0001:00001300       ??__EmaxV4Error@_VecMathTests@aos@shdfnd@physx@@YAXXZ 10002300 f   GuContactSphereCapsule.obj
 0001:00001320       ??__EminFError@_VecMathTests@aos@shdfnd@physx@@YAXXZ 10002320 f   GuContactSphereCapsule.obj
 0001:00001340       ??__EminV3Error@_VecMathTests@aos@shdfnd@physx@@YAXXZ 10002340 f   GuContactSphereCapsule.obj
 0001:00001350       ??__EminV4Error@_VecMathTests@aos@shdfnd@physx@@YAXXZ 10002350 f   GuContactSphereCapsule.obj
 0001:00001370       ??__EmaxFError@_VecMathTests@aos@shdfnd@physx@@YAXXZ 10002370 f   GuContactSphereMesh.obj
 0001:00001390       ??__EmaxV3Error@_VecMathTests@aos@shdfnd@physx@@YAXXZ 10002390 f   GuContactSphereMesh.obj
 0001:000013a0       ??__EmaxV4Error@_VecMathTests@aos@shdfnd@physx@@YAXXZ 100023a0 f   GuContactSphereMesh.obj
 0001:000013c0       ??__EminFError@_VecMathTests@aos@shdfnd@physx@@YAXXZ 100023c0 f   GuContactSphereMesh.obj
 0001:000013e0       ??__EminV3Error@_VecMathTests@aos@shdfnd@physx@@YAXXZ 100023e0 f   GuContactSphereMesh.obj
 0001:000013f0       ??__EminV4Error@_VecMathTests@aos@shdfnd@physx@@YAXXZ 100023f0 f   GuContactSphereMesh.obj
 0001:00001410       ??__EmaxFError@_VecMathTests@aos@shdfnd@physx@@YAXXZ 10002410 f   GuContactSpherePlane.obj
 0001:00001430       ??__EmaxV3Error@_VecMathTests@aos@shdfnd@physx@@YAXXZ 10002430 f   GuContactSpherePlane.obj
 0001:00001440       ??__EmaxV4Error@_VecMathTests@aos@shdfnd@physx@@YAXXZ 10002440 f   GuContactSpherePlane.obj
 0001:00001460       ??__EminFError@_VecMathTests@aos@shdfnd@physx@@YAXXZ 10002460 f   GuContactSpherePlane.obj
 0001:00001480       ??__EminV3Error@_VecMathTests@aos@shdfnd@physx@@YAXXZ 10002480 f   GuContactSpherePlane.obj
 0001:00001490       ??__EminV4Error@_VecMathTests@aos@shdfnd@physx@@YAXXZ 10002490 f   GuContactSpherePlane.obj
 0001:000014b0       ??__EmaxFError@_VecMathTests@aos@shdfnd@physx@@YAXXZ 100024b0 f   GuContactSphereSphere.obj
 0001:000014d0       ??__EmaxV3Error@_VecMathTests@aos@shdfnd@physx@@YAXXZ 100024d0 f   GuContactSphereSphere.obj
 0001:000014e0       ??__EmaxV4Error@_VecMathTests@aos@shdfnd@physx@@YAXXZ 100024e0 f   GuContactSphereSphere.obj
 0001:00001500       ??__EminFError@_VecMathTests@aos@shdfnd@physx@@YAXXZ 10002500 f   GuContactSphereSphere.obj
 0001:00001520       ??__EminV3Error@_VecMathTests@aos@shdfnd@physx@@YAXXZ 10002520 f   GuContactSphereSphere.obj
 0001:00001530       ??__EminV4Error@_VecMathTests@aos@shdfnd@physx@@YAXXZ 10002530 f   GuContactSphereSphere.obj
 0001:00001550       ??__EmaxFError@_VecMathTests@aos@shdfnd@physx@@YAXXZ 10002550 f   GuConvexHelper.obj
 0001:00001570       ??__EmaxV3Error@_VecMathTests@aos@shdfnd@physx@@YAXXZ 10002570 f   GuConvexHelper.obj
 0001:00001580       ??__EmaxV4Error@_VecMathTests@aos@shdfnd@physx@@YAXXZ 10002580 f   GuConvexHelper.obj
 0001:000015a0       ??__EminFError@_VecMathTests@aos@shdfnd@physx@@YAXXZ 100025a0 f   GuConvexHelper.obj
 0001:000015c0       ??__EminV3Error@_VecMathTests@aos@shdfnd@physx@@YAXXZ 100025c0 f   GuConvexHelper.obj
 0001:000015d0       ??__EminV4Error@_VecMathTests@aos@shdfnd@physx@@YAXXZ 100025d0 f   GuConvexHelper.obj
 0001:000015f0       ??__EboxVertexTable@physx@@YAXXZ 100025f0 f   GuConvexSupportTable.obj
 0001:00001660       ??__EmaxFError@_VecMathTests@aos@shdfnd@physx@@YAXXZ 10002660 f   GuConvexSupportTable.obj
 0001:00001680       ??__EmaxV3Error@_VecMathTests@aos@shdfnd@physx@@YAXXZ 10002680 f   GuConvexSupportTable.obj
 0001:00001690       ??__EmaxV4Error@_VecMathTests@aos@shdfnd@physx@@YAXXZ 10002690 f   GuConvexSupportTable.obj
 0001:000016b0       ??__EminFError@_VecMathTests@aos@shdfnd@physx@@YAXXZ 100026b0 f   GuConvexSupportTable.obj
 0001:000016d0       ??__EminV3Error@_VecMathTests@aos@shdfnd@physx@@YAXXZ 100026d0 f   GuConvexSupportTable.obj
 0001:000016e0       ??__EminV4Error@_VecMathTests@aos@shdfnd@physx@@YAXXZ 100026e0 f   GuConvexSupportTable.obj
 0001:00001700       ??__EmaxFError@_VecMathTests@aos@shdfnd@physx@@YAXXZ 10002700 f   GuConvexUtilsInternal.obj
 0001:00001720       ??__EmaxV3Error@_VecMathTests@aos@shdfnd@physx@@YAXXZ 10002720 f   GuConvexUtilsInternal.obj
 0001:00001730       ??__EmaxV4Error@_VecMathTests@aos@shdfnd@physx@@YAXXZ 10002730 f   GuConvexUtilsInternal.obj
 0001:00001750       ??__EminFError@_VecMathTests@aos@shdfnd@physx@@YAXXZ 10002750 f   GuConvexUtilsInternal.obj
 0001:00001770       ??__EminV3Error@_VecMathTests@aos@shdfnd@physx@@YAXXZ 10002770 f   GuConvexUtilsInternal.obj
 0001:00001780       ??__EminV4Error@_VecMathTests@aos@shdfnd@physx@@YAXXZ 10002780 f   GuConvexUtilsInternal.obj
 0001:000017a0       ??__EmaxFError@_VecMathTests@aos@shdfnd@physx@@YAXXZ 100027a0 f   GuDistancePointTriangle.obj
 0001:000017c0       ??__EmaxV3Error@_VecMathTests@aos@shdfnd@physx@@YAXXZ 100027c0 f   GuDistancePointTriangle.obj
 0001:000017d0       ??__EmaxV4Error@_VecMathTests@aos@shdfnd@physx@@YAXXZ 100027d0 f   GuDistancePointTriangle.obj
 0001:000017f0       ??__EminFError@_VecMathTests@aos@shdfnd@physx@@YAXXZ 100027f0 f   GuDistancePointTriangle.obj
 0001:00001810       ??__EminV3Error@_VecMathTests@aos@shdfnd@physx@@YAXXZ 10002810 f   GuDistancePointTriangle.obj
 0001:00001820       ??__EminV4Error@_VecMathTests@aos@shdfnd@physx@@YAXXZ 10002820 f   GuDistancePointTriangle.obj
 0001:00001840       ??__EmaxFError@_VecMathTests@aos@shdfnd@physx@@YAXXZ 10002840 f   GuDistanceSegmentSegment.obj
 0001:00001860       ??__EmaxV3Error@_VecMathTests@aos@shdfnd@physx@@YAXXZ 10002860 f   GuDistanceSegmentSegment.obj
 0001:00001870       ??__EmaxV4Error@_VecMathTests@aos@shdfnd@physx@@YAXXZ 10002870 f   GuDistanceSegmentSegment.obj
 0001:00001890       ??__EminFError@_VecMathTests@aos@shdfnd@physx@@YAXXZ 10002890 f   GuDistanceSegmentSegment.obj
 0001:000018b0       ??__EminV3Error@_VecMathTests@aos@shdfnd@physx@@YAXXZ 100028b0 f   GuDistanceSegmentSegment.obj
 0001:000018c0       ??__EminV4Error@_VecMathTests@aos@shdfnd@physx@@YAXXZ 100028c0 f   GuDistanceSegmentSegment.obj
 0001:000018e0       ??__EmaxFError@_VecMathTests@aos@shdfnd@physx@@YAXXZ 100028e0 f   GuDistanceSegmentTriangle.obj
 0001:00001900       ??__EmaxV3Error@_VecMathTests@aos@shdfnd@physx@@YAXXZ 10002900 f   GuDistanceSegmentTriangle.obj
 0001:00001910       ??__EmaxV4Error@_VecMathTests@aos@shdfnd@physx@@YAXXZ 10002910 f   GuDistanceSegmentTriangle.obj
 0001:00001930       ??__EminFError@_VecMathTests@aos@shdfnd@physx@@YAXXZ 10002930 f   GuDistanceSegmentTriangle.obj
 0001:00001950       ??__EminV3Error@_VecMathTests@aos@shdfnd@physx@@YAXXZ 10002950 f   GuDistanceSegmentTriangle.obj
 0001:00001960       ??__EminV4Error@_VecMathTests@aos@shdfnd@physx@@YAXXZ 10002960 f   GuDistanceSegmentTriangle.obj
 0001:00001980       ??__EmaxFError@_VecMathTests@aos@shdfnd@physx@@YAXXZ 10002980 f   GuEPA.obj
 0001:000019a0       ??__EmaxV3Error@_VecMathTests@aos@shdfnd@physx@@YAXXZ 100029a0 f   GuEPA.obj
 0001:000019b0       ??__EmaxV4Error@_VecMathTests@aos@shdfnd@physx@@YAXXZ 100029b0 f   GuEPA.obj
 0001:000019d0       ??__EminFError@_VecMathTests@aos@shdfnd@physx@@YAXXZ 100029d0 f   GuEPA.obj
 0001:000019f0       ??__EminV3Error@_VecMathTests@aos@shdfnd@physx@@YAXXZ 100029f0 f   GuEPA.obj
 0001:00001a00       ??__EminV4Error@_VecMathTests@aos@shdfnd@physx@@YAXXZ 10002a00 f   GuEPA.obj
 0001:00001a20       ??__EmaxFError@_VecMathTests@aos@shdfnd@physx@@YAXXZ 10002a20 f   GuGJKSimplex.obj
 0001:00001a40       ??__EmaxV3Error@_VecMathTests@aos@shdfnd@physx@@YAXXZ 10002a40 f   GuGJKSimplex.obj
 0001:00001a50       ??__EmaxV4Error@_VecMathTests@aos@shdfnd@physx@@YAXXZ 10002a50 f   GuGJKSimplex.obj
 0001:00001a70       ??__EminFError@_VecMathTests@aos@shdfnd@physx@@YAXXZ 10002a70 f   GuGJKSimplex.obj
 0001:00001a90       ??__EminV3Error@_VecMathTests@aos@shdfnd@physx@@YAXXZ 10002a90 f   GuGJKSimplex.obj
 0001:00001aa0       ??__EminV4Error@_VecMathTests@aos@shdfnd@physx@@YAXXZ 10002aa0 f   GuGJKSimplex.obj
 0001:00001ac0       ??__EmaxFError@_VecMathTests@aos@shdfnd@physx@@YAXXZ 10002ac0 f   GuGJKTest.obj
 0001:00001ae0       ??__EmaxV3Error@_VecMathTests@aos@shdfnd@physx@@YAXXZ 10002ae0 f   GuGJKTest.obj
 0001:00001af0       ??__EmaxV4Error@_VecMathTests@aos@shdfnd@physx@@YAXXZ 10002af0 f   GuGJKTest.obj
 0001:00001b10       ??__EminFError@_VecMathTests@aos@shdfnd@physx@@YAXXZ 10002b10 f   GuGJKTest.obj
 0001:00001b30       ??__EminV3Error@_VecMathTests@aos@shdfnd@physx@@YAXXZ 10002b30 f   GuGJKTest.obj
 0001:00001b40       ??__EminV4Error@_VecMathTests@aos@shdfnd@physx@@YAXXZ 10002b40 f   GuGJKTest.obj
 0001:00001b60       ??__EmaxFError@_VecMathTests@aos@shdfnd@physx@@YAXXZ 10002b60 f   GuHeightFieldUtil.obj
 0001:00001b80       ??__EmaxV3Error@_VecMathTests@aos@shdfnd@physx@@YAXXZ 10002b80 f   GuHeightFieldUtil.obj
 0001:00001b90       ??__EmaxV4Error@_VecMathTests@aos@shdfnd@physx@@YAXXZ 10002b90 f   GuHeightFieldUtil.obj
 0001:00001bb0       ??__EminFError@_VecMathTests@aos@shdfnd@physx@@YAXXZ 10002bb0 f   GuHeightFieldUtil.obj
 0001:00001bd0       ??__EminV3Error@_VecMathTests@aos@shdfnd@physx@@YAXXZ 10002bd0 f   GuHeightFieldUtil.obj
 0001:00001be0       ??__EminV4Error@_VecMathTests@aos@shdfnd@physx@@YAXXZ 10002be0 f   GuHeightFieldUtil.obj
 0001:00001c00       ??__EmaxFError@_VecMathTests@aos@shdfnd@physx@@YAXXZ 10002c00 f   GuOverlapTestsHF.obj
 0001:00001c20       ??__EmaxV3Error@_VecMathTests@aos@shdfnd@physx@@YAXXZ 10002c20 f   GuOverlapTestsHF.obj
 0001:00001c30       ??__EmaxV4Error@_VecMathTests@aos@shdfnd@physx@@YAXXZ 10002c30 f   GuOverlapTestsHF.obj
 0001:00001c50       ??__EminFError@_VecMathTests@aos@shdfnd@physx@@YAXXZ 10002c50 f   GuOverlapTestsHF.obj
 0001:00001c70       ??__EminV3Error@_VecMathTests@aos@shdfnd@physx@@YAXXZ 10002c70 f   GuOverlapTestsHF.obj
 0001:00001c80       ??__EminV4Error@_VecMathTests@aos@shdfnd@physx@@YAXXZ 10002c80 f   GuOverlapTestsHF.obj
 0001:00001ca0       ??__EmaxFError@_VecMathTests@aos@shdfnd@physx@@YAXXZ 10002ca0 f   GuSweepsHF.obj
 0001:00001cc0       ??__EmaxV3Error@_VecMathTests@aos@shdfnd@physx@@YAXXZ 10002cc0 f   GuSweepsHF.obj
 0001:00001cd0       ??__EmaxV4Error@_VecMathTests@aos@shdfnd@physx@@YAXXZ 10002cd0 f   GuSweepsHF.obj
 0001:00001cf0       ??__EminFError@_VecMathTests@aos@shdfnd@physx@@YAXXZ 10002cf0 f   GuSweepsHF.obj
 0001:00001d10       ??__EminV3Error@_VecMathTests@aos@shdfnd@physx@@YAXXZ 10002d10 f   GuSweepsHF.obj
 0001:00001d20       ??__EminV4Error@_VecMathTests@aos@shdfnd@physx@@YAXXZ 10002d20 f   GuSweepsHF.obj
 0001:00001d40       ??__EmaxFError@_VecMathTests@aos@shdfnd@physx@@YAXXZ 10002d40 f   GuIntersectionRayBox.obj
 0001:00001d60       ??__EmaxV3Error@_VecMathTests@aos@shdfnd@physx@@YAXXZ 10002d60 f   GuIntersectionRayBox.obj
 0001:00001d70       ??__EmaxV4Error@_VecMathTests@aos@shdfnd@physx@@YAXXZ 10002d70 f   GuIntersectionRayBox.obj
 0001:00001d90       ??__EminFError@_VecMathTests@aos@shdfnd@physx@@YAXXZ 10002d90 f   GuIntersectionRayBox.obj
 0001:00001db0       ??__EminV3Error@_VecMathTests@aos@shdfnd@physx@@YAXXZ 10002db0 f   GuIntersectionRayBox.obj
 0001:00001dc0       ??__EminV4Error@_VecMathTests@aos@shdfnd@physx@@YAXXZ 10002dc0 f   GuIntersectionRayBox.obj
 0001:00001de0       ??__EmaxFError@_VecMathTests@aos@shdfnd@physx@@YAXXZ 10002de0 f   GuIntersectionTriangleBox.obj
 0001:00001e00       ??__EmaxV3Error@_VecMathTests@aos@shdfnd@physx@@YAXXZ 10002e00 f   GuIntersectionTriangleBox.obj
 0001:00001e10       ??__EmaxV4Error@_VecMathTests@aos@shdfnd@physx@@YAXXZ 10002e10 f   GuIntersectionTriangleBox.obj
 0001:00001e30       ??__EminFError@_VecMathTests@aos@shdfnd@physx@@YAXXZ 10002e30 f   GuIntersectionTriangleBox.obj
 0001:00001e50       ??__EminV3Error@_VecMathTests@aos@shdfnd@physx@@YAXXZ 10002e50 f   GuIntersectionTriangleBox.obj
 0001:00001e60       ??__EminV4Error@_VecMathTests@aos@shdfnd@physx@@YAXXZ 10002e60 f   GuIntersectionTriangleBox.obj
 0001:00001e80       ??__EmaxFError@_VecMathTests@aos@shdfnd@physx@@YAXXZ 10002e80 f   GuBV4.obj
 0001:00001ea0       ??__EmaxV3Error@_VecMathTests@aos@shdfnd@physx@@YAXXZ 10002ea0 f   GuBV4.obj
 0001:00001eb0       ??__EmaxV4Error@_VecMathTests@aos@shdfnd@physx@@YAXXZ 10002eb0 f   GuBV4.obj
 0001:00001ed0       ??__EminFError@_VecMathTests@aos@shdfnd@physx@@YAXXZ 10002ed0 f   GuBV4.obj
 0001:00001ef0       ??__EminV3Error@_VecMathTests@aos@shdfnd@physx@@YAXXZ 10002ef0 f   GuBV4.obj
 0001:00001f00       ??__EminV4Error@_VecMathTests@aos@shdfnd@physx@@YAXXZ 10002f00 f   GuBV4.obj
 0001:00001f20       ??__EmaxFError@_VecMathTests@aos@shdfnd@physx@@YAXXZ 10002f20 f   GuBV4Build.obj
 0001:00001f40       ??__EmaxV3Error@_VecMathTests@aos@shdfnd@physx@@YAXXZ 10002f40 f   GuBV4Build.obj
 0001:00001f50       ??__EmaxV4Error@_VecMathTests@aos@shdfnd@physx@@YAXXZ 10002f50 f   GuBV4Build.obj
 0001:00001f70       ??__EminFError@_VecMathTests@aos@shdfnd@physx@@YAXXZ 10002f70 f   GuBV4Build.obj
 0001:00001f90       ??__EminV3Error@_VecMathTests@aos@shdfnd@physx@@YAXXZ 10002f90 f   GuBV4Build.obj
 0001:00001fa0       ??__EminV4Error@_VecMathTests@aos@shdfnd@physx@@YAXXZ 10002fa0 f   GuBV4Build.obj
 0001:00001fc0       ??__EepsFloat4@?A0x3bd6b1b1@@YAXXZ 10002fc0 f   GuBV4_AABBSweep.obj
 0001:00001fe0       ??__EepsInflateFloat4@?A0x3bd6b1b1@@YAXXZ 10002fe0 f   GuBV4_AABBSweep.obj
 0001:00002000       ??__EmaxFError@_VecMathTests@aos@shdfnd@physx@@YAXXZ 10003000 f   GuBV4_AABBSweep.obj
 0001:00002020       ??__EmaxV3Error@_VecMathTests@aos@shdfnd@physx@@YAXXZ 10003020 f   GuBV4_AABBSweep.obj
 0001:00002030       ??__EmaxV4Error@_VecMathTests@aos@shdfnd@physx@@YAXXZ 10003030 f   GuBV4_AABBSweep.obj
 0001:00002050       ??__EminFError@_VecMathTests@aos@shdfnd@physx@@YAXXZ 10003050 f   GuBV4_AABBSweep.obj
 0001:00002070       ??__EminV3Error@_VecMathTests@aos@shdfnd@physx@@YAXXZ 10003070 f   GuBV4_AABBSweep.obj
 0001:00002080       ??__EminV4Error@_VecMathTests@aos@shdfnd@physx@@YAXXZ 10003080 f   GuBV4_AABBSweep.obj
 0001:000020a0       ??__Etwos@?A0x3bd6b1b1@@YAXXZ 100030a0 f   GuBV4_AABBSweep.obj
 0001:000020c0       ??__Ezeroes@?A0x3bd6b1b1@@YAXXZ 100030c0 f   GuBV4_AABBSweep.obj
 0001:000020d0       ??__EmaxFError@_VecMathTests@aos@shdfnd@physx@@YAXXZ 100030d0 f   GuBV4_BoxOverlap.obj
 0001:000020f0       ??__EmaxV3Error@_VecMathTests@aos@shdfnd@physx@@YAXXZ 100030f0 f   GuBV4_BoxOverlap.obj
 0001:00002100       ??__EmaxV4Error@_VecMathTests@aos@shdfnd@physx@@YAXXZ 10003100 f   GuBV4_BoxOverlap.obj
 0001:00002120       ??__EminFError@_VecMathTests@aos@shdfnd@physx@@YAXXZ 10003120 f   GuBV4_BoxOverlap.obj
 0001:00002140       ??__EminV3Error@_VecMathTests@aos@shdfnd@physx@@YAXXZ 10003140 f   GuBV4_BoxOverlap.obj
 0001:00002150       ??__EminV4Error@_VecMathTests@aos@shdfnd@physx@@YAXXZ 10003150 f   GuBV4_BoxOverlap.obj
 0001:00002170       ??__EmaxFError@_VecMathTests@aos@shdfnd@physx@@YAXXZ 10003170 f   GuBV4_CapsuleSweep.obj
 0001:00002190       ??__EmaxV3Error@_VecMathTests@aos@shdfnd@physx@@YAXXZ 10003190 f   GuBV4_CapsuleSweep.obj
 0001:000021a0       ??__EmaxV4Error@_VecMathTests@aos@shdfnd@physx@@YAXXZ 100031a0 f   GuBV4_CapsuleSweep.obj
 0001:000021c0       ??__EminFError@_VecMathTests@aos@shdfnd@physx@@YAXXZ 100031c0 f   GuBV4_CapsuleSweep.obj
 0001:000021e0       ??__EminV3Error@_VecMathTests@aos@shdfnd@physx@@YAXXZ 100031e0 f   GuBV4_CapsuleSweep.obj
 0001:000021f0       ??__EminV4Error@_VecMathTests@aos@shdfnd@physx@@YAXXZ 100031f0 f   GuBV4_CapsuleSweep.obj
 0001:00002210       ??__EepsFloat4@?A0x38ca963f@@YAXXZ 10003210 f   GuBV4_CapsuleSweepAA.obj
 0001:00002230       ??__EepsInflateFloat4@?A0x38ca963f@@YAXXZ 10003230 f   GuBV4_CapsuleSweepAA.obj
 0001:00002250       ??__EmaxFError@_VecMathTests@aos@shdfnd@physx@@YAXXZ 10003250 f   GuBV4_CapsuleSweepAA.obj
 0001:00002270       ??__EmaxV3Error@_VecMathTests@aos@shdfnd@physx@@YAXXZ 10003270 f   GuBV4_CapsuleSweepAA.obj
 0001:00002280       ??__EmaxV4Error@_VecMathTests@aos@shdfnd@physx@@YAXXZ 10003280 f   GuBV4_CapsuleSweepAA.obj
 0001:000022a0       ??__EminFError@_VecMathTests@aos@shdfnd@physx@@YAXXZ 100032a0 f   GuBV4_CapsuleSweepAA.obj
 0001:000022c0       ??__EminV3Error@_VecMathTests@aos@shdfnd@physx@@YAXXZ 100032c0 f   GuBV4_CapsuleSweepAA.obj
 0001:000022d0       ??__EminV4Error@_VecMathTests@aos@shdfnd@physx@@YAXXZ 100032d0 f   GuBV4_CapsuleSweepAA.obj
 0001:000022f0       ??__Etwos@?A0x38ca963f@@YAXXZ 100032f0 f   GuBV4_CapsuleSweepAA.obj
 0001:00002310       ??__Ezeroes@?A0x38ca963f@@YAXXZ 10003310 f   GuBV4_CapsuleSweepAA.obj
 0001:00002320       ??__EmaxFError@_VecMathTests@aos@shdfnd@physx@@YAXXZ 10003320 f   GuBV4_OBBSweep.obj
 0001:00002340       ??__EmaxV3Error@_VecMathTests@aos@shdfnd@physx@@YAXXZ 10003340 f   GuBV4_OBBSweep.obj
 0001:00002350       ??__EmaxV4Error@_VecMathTests@aos@shdfnd@physx@@YAXXZ 10003350 f   GuBV4_OBBSweep.obj
 0001:00002370       ??__EminFError@_VecMathTests@aos@shdfnd@physx@@YAXXZ 10003370 f   GuBV4_OBBSweep.obj
 0001:00002390       ??__EminV3Error@_VecMathTests@aos@shdfnd@physx@@YAXXZ 10003390 f   GuBV4_OBBSweep.obj
 0001:000023a0       ??__EminV4Error@_VecMathTests@aos@shdfnd@physx@@YAXXZ 100033a0 f   GuBV4_OBBSweep.obj
 0001:000023c0       ??__EepsFloat4@?A0xa7731f51@@YAXXZ 100033c0 f   GuBV4_Raycast.obj
 0001:000023e0       ??__EepsInflateFloat4@?A0xa7731f51@@YAXXZ 100033e0 f   GuBV4_Raycast.obj
 0001:00002400       ??__EmaxFError@_VecMathTests@aos@shdfnd@physx@@YAXXZ 10003400 f   GuBV4_Raycast.obj
 0001:00002420       ??__EmaxV3Error@_VecMathTests@aos@shdfnd@physx@@YAXXZ 10003420 f   GuBV4_Raycast.obj
 0001:00002430       ??__EmaxV4Error@_VecMathTests@aos@shdfnd@physx@@YAXXZ 10003430 f   GuBV4_Raycast.obj
 0001:00002450       ??__EminFError@_VecMathTests@aos@shdfnd@physx@@YAXXZ 10003450 f   GuBV4_Raycast.obj
 0001:00002470       ??__EminV3Error@_VecMathTests@aos@shdfnd@physx@@YAXXZ 10003470 f   GuBV4_Raycast.obj
 0001:00002480       ??__EminV4Error@_VecMathTests@aos@shdfnd@physx@@YAXXZ 10003480 f   GuBV4_Raycast.obj
 0001:000024a0       ??__Etwos@?A0xa7731f51@@YAXXZ 100034a0 f   GuBV4_Raycast.obj
 0001:000024c0       ??__Ezeroes@?A0xa7731f51@@YAXXZ 100034c0 f   GuBV4_Raycast.obj
 0001:000024d0       ??__EmaxFError@_VecMathTests@aos@shdfnd@physx@@YAXXZ 100034d0 f   GuBV4_SphereOverlap.obj
 0001:000024f0       ??__EmaxV3Error@_VecMathTests@aos@shdfnd@physx@@YAXXZ 100034f0 f   GuBV4_SphereOverlap.obj
 0001:00002500       ??__EmaxV4Error@_VecMathTests@aos@shdfnd@physx@@YAXXZ 10003500 f   GuBV4_SphereOverlap.obj
 0001:00002520       ??__EminFError@_VecMathTests@aos@shdfnd@physx@@YAXXZ 10003520 f   GuBV4_SphereOverlap.obj
 0001:00002540       ??__EminV3Error@_VecMathTests@aos@shdfnd@physx@@YAXXZ 10003540 f   GuBV4_SphereOverlap.obj
 0001:00002550       ??__EminV4Error@_VecMathTests@aos@shdfnd@physx@@YAXXZ 10003550 f   GuBV4_SphereOverlap.obj
 0001:00002570       ??__EepsFloat4@?A0xfe0ff815@@YAXXZ 10003570 f   GuBV4_SphereSweep.obj
 0001:00002590       ??__EepsInflateFloat4@?A0xfe0ff815@@YAXXZ 10003590 f   GuBV4_SphereSweep.obj
 0001:000025b0       ??__EmaxFError@_VecMathTests@aos@shdfnd@physx@@YAXXZ 100035b0 f   GuBV4_SphereSweep.obj
 0001:000025d0       ??__EmaxV3Error@_VecMathTests@aos@shdfnd@physx@@YAXXZ 100035d0 f   GuBV4_SphereSweep.obj
 0001:000025e0       ??__EmaxV4Error@_VecMathTests@aos@shdfnd@physx@@YAXXZ 100035e0 f   GuBV4_SphereSweep.obj
 0001:00002600       ??__EminFError@_VecMathTests@aos@shdfnd@physx@@YAXXZ 10003600 f   GuBV4_SphereSweep.obj
 0001:00002620       ??__EminV3Error@_VecMathTests@aos@shdfnd@physx@@YAXXZ 10003620 f   GuBV4_SphereSweep.obj
 0001:00002630       ??__EminV4Error@_VecMathTests@aos@shdfnd@physx@@YAXXZ 10003630 f   GuBV4_SphereSweep.obj
 0001:00002650       ??__Etwos@?A0xfe0ff815@@YAXXZ 10003650 f   GuBV4_SphereSweep.obj
 0001:00002670       ??__Ezeroes@?A0xfe0ff815@@YAXXZ 10003670 f   GuBV4_SphereSweep.obj
 0001:00002680       ??__EmaxFError@_VecMathTests@aos@shdfnd@physx@@YAXXZ 10003680 f   GuMidphaseBV4.obj
 0001:000026a0       ??__EmaxV3Error@_VecMathTests@aos@shdfnd@physx@@YAXXZ 100036a0 f   GuMidphaseBV4.obj
 0001:000026b0       ??__EmaxV4Error@_VecMathTests@aos@shdfnd@physx@@YAXXZ 100036b0 f   GuMidphaseBV4.obj
 0001:000026d0       ??__EminFError@_VecMathTests@aos@shdfnd@physx@@YAXXZ 100036d0 f   GuMidphaseBV4.obj
 0001:000026f0       ??__EminV3Error@_VecMathTests@aos@shdfnd@physx@@YAXXZ 100036f0 f   GuMidphaseBV4.obj
 0001:00002700       ??__EminV4Error@_VecMathTests@aos@shdfnd@physx@@YAXXZ 10003700 f   GuMidphaseBV4.obj
 0001:00002720       ??__EmaxFError@_VecMathTests@aos@shdfnd@physx@@YAXXZ 10003720 f   GuMeshQuery.obj
 0001:00002740       ??__EmaxV3Error@_VecMathTests@aos@shdfnd@physx@@YAXXZ 10003740 f   GuMeshQuery.obj
 0001:00002750       ??__EmaxV4Error@_VecMathTests@aos@shdfnd@physx@@YAXXZ 10003750 f   GuMeshQuery.obj
 0001:00002770       ??__EminFError@_VecMathTests@aos@shdfnd@physx@@YAXXZ 10003770 f   GuMeshQuery.obj
 0001:00002790       ??__EminV3Error@_VecMathTests@aos@shdfnd@physx@@YAXXZ 10003790 f   GuMeshQuery.obj
 0001:000027a0       ??__EminV4Error@_VecMathTests@aos@shdfnd@physx@@YAXXZ 100037a0 f   GuMeshQuery.obj
 0001:000027c0       ??__EmaxFError@_VecMathTests@aos@shdfnd@physx@@YAXXZ 100037c0 f   GuMidphaseRTree.obj
 0001:000027e0       ??__EmaxV3Error@_VecMathTests@aos@shdfnd@physx@@YAXXZ 100037e0 f   GuMidphaseRTree.obj
 0001:000027f0       ??__EmaxV4Error@_VecMathTests@aos@shdfnd@physx@@YAXXZ 100037f0 f   GuMidphaseRTree.obj
 0001:00002810       ??__EminFError@_VecMathTests@aos@shdfnd@physx@@YAXXZ 10003810 f   GuMidphaseRTree.obj
 0001:00002830       ??__EminV3Error@_VecMathTests@aos@shdfnd@physx@@YAXXZ 10003830 f   GuMidphaseRTree.obj
 0001:00002840       ??__EminV4Error@_VecMathTests@aos@shdfnd@physx@@YAXXZ 10003840 f   GuMidphaseRTree.obj
 0001:00002860       ??__EmaxFError@_VecMathTests@aos@shdfnd@physx@@YAXXZ 10003860 f   GuOverlapTestsMesh.obj
 0001:00002880       ??__EmaxV3Error@_VecMathTests@aos@shdfnd@physx@@YAXXZ 10003880 f   GuOverlapTestsMesh.obj
 0001:00002890       ??__EmaxV4Error@_VecMathTests@aos@shdfnd@physx@@YAXXZ 10003890 f   GuOverlapTestsMesh.obj
 0001:000028b0       ??__EminFError@_VecMathTests@aos@shdfnd@physx@@YAXXZ 100038b0 f   GuOverlapTestsMesh.obj
 0001:000028d0       ??__EminV3Error@_VecMathTests@aos@shdfnd@physx@@YAXXZ 100038d0 f   GuOverlapTestsMesh.obj
 0001:000028e0       ??__EminV4Error@_VecMathTests@aos@shdfnd@physx@@YAXXZ 100038e0 f   GuOverlapTestsMesh.obj
 0001:00002900       ??__EmaxFError@_VecMathTests@aos@shdfnd@physx@@YAXXZ 10003900 f   GuRTree.obj
 0001:00002920       ??__EmaxV3Error@_VecMathTests@aos@shdfnd@physx@@YAXXZ 10003920 f   GuRTree.obj
 0001:00002930       ??__EmaxV4Error@_VecMathTests@aos@shdfnd@physx@@YAXXZ 10003930 f   GuRTree.obj
 0001:00002950       ??__EminFError@_VecMathTests@aos@shdfnd@physx@@YAXXZ 10003950 f   GuRTree.obj
 0001:00002970       ??__EminV3Error@_VecMathTests@aos@shdfnd@physx@@YAXXZ 10003970 f   GuRTree.obj
 0001:00002980       ??__EminV4Error@_VecMathTests@aos@shdfnd@physx@@YAXXZ 10003980 f   GuRTree.obj
 0001:000029a0       ??__EepsFloat4@?A0x1bcdf246@@YAXXZ 100039a0 f   GuRTreeQueries.obj
 0001:000029c0       ??__EepsInflateFloat4@?A0x1bcdf246@@YAXXZ 100039c0 f   GuRTreeQueries.obj
 0001:000029e0       ??__EmaxFError@_VecMathTests@aos@shdfnd@physx@@YAXXZ 100039e0 f   GuRTreeQueries.obj
 0001:00002a00       ??__EmaxV3Error@_VecMathTests@aos@shdfnd@physx@@YAXXZ 10003a00 f   GuRTreeQueries.obj
 0001:00002a10       ??__EmaxV4Error@_VecMathTests@aos@shdfnd@physx@@YAXXZ 10003a10 f   GuRTreeQueries.obj
 0001:00002a30       ??__EminFError@_VecMathTests@aos@shdfnd@physx@@YAXXZ 10003a30 f   GuRTreeQueries.obj
 0001:00002a50       ??__EminV3Error@_VecMathTests@aos@shdfnd@physx@@YAXXZ 10003a50 f   GuRTreeQueries.obj
 0001:00002a60       ??__EminV4Error@_VecMathTests@aos@shdfnd@physx@@YAXXZ 10003a60 f   GuRTreeQueries.obj
 0001:00002a80       ??__Etwos@?A0x1bcdf246@@YAXXZ 10003a80 f   GuRTreeQueries.obj
 0001:00002aa0       ??__Ezeroes@?A0x1bcdf246@@YAXXZ 10003aa0 f   GuRTreeQueries.obj
 0001:00002ab0       ??__EmaxFError@_VecMathTests@aos@shdfnd@physx@@YAXXZ 10003ab0 f   GuSweepsMesh.obj
 0001:00002ad0       ??__EmaxV3Error@_VecMathTests@aos@shdfnd@physx@@YAXXZ 10003ad0 f   GuSweepsMesh.obj
 0001:00002ae0       ??__EmaxV4Error@_VecMathTests@aos@shdfnd@physx@@YAXXZ 10003ae0 f   GuSweepsMesh.obj
 0001:00002b00       ??__EminFError@_VecMathTests@aos@shdfnd@physx@@YAXXZ 10003b00 f   GuSweepsMesh.obj
 0001:00002b20       ??__EminV3Error@_VecMathTests@aos@shdfnd@physx@@YAXXZ 10003b20 f   GuSweepsMesh.obj
 0001:00002b30       ??__EminV4Error@_VecMathTests@aos@shdfnd@physx@@YAXXZ 10003b30 f   GuSweepsMesh.obj
 0001:00002b50       ??__EmaxFError@_VecMathTests@aos@shdfnd@physx@@YAXXZ 10003b50 f   GuTriangleMesh.obj
 0001:00002b70       ??__EmaxV3Error@_VecMathTests@aos@shdfnd@physx@@YAXXZ 10003b70 f   GuTriangleMesh.obj
 0001:00002b80       ??__EmaxV4Error@_VecMathTests@aos@shdfnd@physx@@YAXXZ 10003b80 f   GuTriangleMesh.obj
 0001:00002ba0       ??__EminFError@_VecMathTests@aos@shdfnd@physx@@YAXXZ 10003ba0 f   GuTriangleMesh.obj
 0001:00002bc0       ??__EminV3Error@_VecMathTests@aos@shdfnd@physx@@YAXXZ 10003bc0 f   GuTriangleMesh.obj
 0001:00002bd0       ??__EminV4Error@_VecMathTests@aos@shdfnd@physx@@YAXXZ 10003bd0 f   GuTriangleMesh.obj
 0001:00002bf0       ??__EmaxFError@_VecMathTests@aos@shdfnd@physx@@YAXXZ 10003bf0 f   GuTriangleMeshBV4.obj
 0001:00002c10       ??__EmaxV3Error@_VecMathTests@aos@shdfnd@physx@@YAXXZ 10003c10 f   GuTriangleMeshBV4.obj
 0001:00002c20       ??__EmaxV4Error@_VecMathTests@aos@shdfnd@physx@@YAXXZ 10003c20 f   GuTriangleMeshBV4.obj
 0001:00002c40       ??__EminFError@_VecMathTests@aos@shdfnd@physx@@YAXXZ 10003c40 f   GuTriangleMeshBV4.obj
 0001:00002c60       ??__EminV3Error@_VecMathTests@aos@shdfnd@physx@@YAXXZ 10003c60 f   GuTriangleMeshBV4.obj
 0001:00002c70       ??__EminV4Error@_VecMathTests@aos@shdfnd@physx@@YAXXZ 10003c70 f   GuTriangleMeshBV4.obj
 0001:00002c90       ??__EmaxFError@_VecMathTests@aos@shdfnd@physx@@YAXXZ 10003c90 f   GuTriangleMeshRTree.obj
 0001:00002cb0       ??__EmaxV3Error@_VecMathTests@aos@shdfnd@physx@@YAXXZ 10003cb0 f   GuTriangleMeshRTree.obj
 0001:00002cc0       ??__EmaxV4Error@_VecMathTests@aos@shdfnd@physx@@YAXXZ 10003cc0 f   GuTriangleMeshRTree.obj
 0001:00002ce0       ??__EminFError@_VecMathTests@aos@shdfnd@physx@@YAXXZ 10003ce0 f   GuTriangleMeshRTree.obj
 0001:00002d00       ??__EminV3Error@_VecMathTests@aos@shdfnd@physx@@YAXXZ 10003d00 f   GuTriangleMeshRTree.obj
 0001:00002d10       ??__EminV4Error@_VecMathTests@aos@shdfnd@physx@@YAXXZ 10003d10 f   GuTriangleMeshRTree.obj
 0001:00002d30       ??__EmaxFError@_VecMathTests@aos@shdfnd@physx@@YAXXZ 10003d30 f   GuBV32Build.obj
 0001:00002d50       ??__EmaxV3Error@_VecMathTests@aos@shdfnd@physx@@YAXXZ 10003d50 f   GuBV32Build.obj
 0001:00002d60       ??__EmaxV4Error@_VecMathTests@aos@shdfnd@physx@@YAXXZ 10003d60 f   GuBV32Build.obj
 0001:00002d80       ??__EminFError@_VecMathTests@aos@shdfnd@physx@@YAXXZ 10003d80 f   GuBV32Build.obj
 0001:00002da0       ??__EminV3Error@_VecMathTests@aos@shdfnd@physx@@YAXXZ 10003da0 f   GuBV32Build.obj
 0001:00002db0       ??__EminV4Error@_VecMathTests@aos@shdfnd@physx@@YAXXZ 10003db0 f   GuBV32Build.obj
 0001:00002dd0       ??__EmaxFError@_VecMathTests@aos@shdfnd@physx@@YAXXZ 10003dd0 f   GuPCMContactBoxBox.obj
 0001:00002df0       ??__EmaxV3Error@_VecMathTests@aos@shdfnd@physx@@YAXXZ 10003df0 f   GuPCMContactBoxBox.obj
 0001:00002e00       ??__EmaxV4Error@_VecMathTests@aos@shdfnd@physx@@YAXXZ 10003e00 f   GuPCMContactBoxBox.obj
 0001:00002e20       ??__EminFError@_VecMathTests@aos@shdfnd@physx@@YAXXZ 10003e20 f   GuPCMContactBoxBox.obj
 0001:00002e40       ??__EminV3Error@_VecMathTests@aos@shdfnd@physx@@YAXXZ 10003e40 f   GuPCMContactBoxBox.obj
 0001:00002e50       ??__EminV4Error@_VecMathTests@aos@shdfnd@physx@@YAXXZ 10003e50 f   GuPCMContactBoxBox.obj
 0001:00002e70       ??__EmaxFError@_VecMathTests@aos@shdfnd@physx@@YAXXZ 10003e70 f   GuPCMContactBoxConvex.obj
 0001:00002e90       ??__EmaxV3Error@_VecMathTests@aos@shdfnd@physx@@YAXXZ 10003e90 f   GuPCMContactBoxConvex.obj
 0001:00002ea0       ??__EmaxV4Error@_VecMathTests@aos@shdfnd@physx@@YAXXZ 10003ea0 f   GuPCMContactBoxConvex.obj
 0001:00002ec0       ??__EminFError@_VecMathTests@aos@shdfnd@physx@@YAXXZ 10003ec0 f   GuPCMContactBoxConvex.obj
 0001:00002ee0       ??__EminV3Error@_VecMathTests@aos@shdfnd@physx@@YAXXZ 10003ee0 f   GuPCMContactBoxConvex.obj
 0001:00002ef0       ??__EminV4Error@_VecMathTests@aos@shdfnd@physx@@YAXXZ 10003ef0 f   GuPCMContactBoxConvex.obj
 0001:00002f10       ??__EmaxFError@_VecMathTests@aos@shdfnd@physx@@YAXXZ 10003f10 f   GuPCMContactCapsuleBox.obj
 0001:00002f30       ??__EmaxV3Error@_VecMathTests@aos@shdfnd@physx@@YAXXZ 10003f30 f   GuPCMContactCapsuleBox.obj
 0001:00002f40       ??__EmaxV4Error@_VecMathTests@aos@shdfnd@physx@@YAXXZ 10003f40 f   GuPCMContactCapsuleBox.obj
 0001:00002f60       ??__EminFError@_VecMathTests@aos@shdfnd@physx@@YAXXZ 10003f60 f   GuPCMContactCapsuleBox.obj
 0001:00002f80       ??__EminV3Error@_VecMathTests@aos@shdfnd@physx@@YAXXZ 10003f80 f   GuPCMContactCapsuleBox.obj
 0001:00002f90       ??__EminV4Error@_VecMathTests@aos@shdfnd@physx@@YAXXZ 10003f90 f   GuPCMContactCapsuleBox.obj
 0001:00002fb0       ??__EmaxFError@_VecMathTests@aos@shdfnd@physx@@YAXXZ 10003fb0 f   GuPCMContactCapsuleCapsule.obj
 0001:00002fd0       ??__EmaxV3Error@_VecMathTests@aos@shdfnd@physx@@YAXXZ 10003fd0 f   GuPCMContactCapsuleCapsule.obj
 0001:00002fe0       ??__EmaxV4Error@_VecMathTests@aos@shdfnd@physx@@YAXXZ 10003fe0 f   GuPCMContactCapsuleCapsule.obj
 0001:00003000       ??__EminFError@_VecMathTests@aos@shdfnd@physx@@YAXXZ 10004000 f   GuPCMContactCapsuleCapsule.obj
 0001:00003020       ??__EminV3Error@_VecMathTests@aos@shdfnd@physx@@YAXXZ 10004020 f   GuPCMContactCapsuleCapsule.obj
 0001:00003030       ??__EminV4Error@_VecMathTests@aos@shdfnd@physx@@YAXXZ 10004030 f   GuPCMContactCapsuleCapsule.obj
 0001:00003050       ??__EmaxFError@_VecMathTests@aos@shdfnd@physx@@YAXXZ 10004050 f   GuPCMContactCapsuleConvex.obj
 0001:00003070       ??__EmaxV3Error@_VecMathTests@aos@shdfnd@physx@@YAXXZ 10004070 f   GuPCMContactCapsuleConvex.obj
 0001:00003080       ??__EmaxV4Error@_VecMathTests@aos@shdfnd@physx@@YAXXZ 10004080 f   GuPCMContactCapsuleConvex.obj
 0001:000030a0       ??__EminFError@_VecMathTests@aos@shdfnd@physx@@YAXXZ 100040a0 f   GuPCMContactCapsuleConvex.obj
 0001:000030c0       ??__EminV3Error@_VecMathTests@aos@shdfnd@physx@@YAXXZ 100040c0 f   GuPCMContactCapsuleConvex.obj
 0001:000030d0       ??__EminV4Error@_VecMathTests@aos@shdfnd@physx@@YAXXZ 100040d0 f   GuPCMContactCapsuleConvex.obj
 0001:000030f0       ??__EmaxFError@_VecMathTests@aos@shdfnd@physx@@YAXXZ 100040f0 f   GuPCMContactCapsuleHeightField.obj
 0001:00003110       ??__EmaxV3Error@_VecMathTests@aos@shdfnd@physx@@YAXXZ 10004110 f   GuPCMContactCapsuleHeightField.obj
 0001:00003120       ??__EmaxV4Error@_VecMathTests@aos@shdfnd@physx@@YAXXZ 10004120 f   GuPCMContactCapsuleHeightField.obj
 0001:00003140       ??__EminFError@_VecMathTests@aos@shdfnd@physx@@YAXXZ 10004140 f   GuPCMContactCapsuleHeightField.obj
 0001:00003160       ??__EminV3Error@_VecMathTests@aos@shdfnd@physx@@YAXXZ 10004160 f   GuPCMContactCapsuleHeightField.obj
 0001:00003170       ??__EminV4Error@_VecMathTests@aos@shdfnd@physx@@YAXXZ 10004170 f   GuPCMContactCapsuleHeightField.obj
 0001:00003190       ??__EmaxFError@_VecMathTests@aos@shdfnd@physx@@YAXXZ 10004190 f   GuPCMContactCapsuleMesh.obj
 0001:000031b0       ??__EmaxV3Error@_VecMathTests@aos@shdfnd@physx@@YAXXZ 100041b0 f   GuPCMContactCapsuleMesh.obj
 0001:000031c0       ??__EmaxV4Error@_VecMathTests@aos@shdfnd@physx@@YAXXZ 100041c0 f   GuPCMContactCapsuleMesh.obj
 0001:000031e0       ??__EminFError@_VecMathTests@aos@shdfnd@physx@@YAXXZ 100041e0 f   GuPCMContactCapsuleMesh.obj
 0001:00003200       ??__EminV3Error@_VecMathTests@aos@shdfnd@physx@@YAXXZ 10004200 f   GuPCMContactCapsuleMesh.obj
 0001:00003210       ??__EminV4Error@_VecMathTests@aos@shdfnd@physx@@YAXXZ 10004210 f   GuPCMContactCapsuleMesh.obj
 0001:00003230       ??__EmaxFError@_VecMathTests@aos@shdfnd@physx@@YAXXZ 10004230 f   GuPCMContactConvexCommon.obj
 0001:00003250       ??__EmaxV3Error@_VecMathTests@aos@shdfnd@physx@@YAXXZ 10004250 f   GuPCMContactConvexCommon.obj
 0001:00003260       ??__EmaxV4Error@_VecMathTests@aos@shdfnd@physx@@YAXXZ 10004260 f   GuPCMContactConvexCommon.obj
 0001:00003280       ??__EminFError@_VecMathTests@aos@shdfnd@physx@@YAXXZ 10004280 f   GuPCMContactConvexCommon.obj
 0001:000032a0       ??__EminV3Error@_VecMathTests@aos@shdfnd@physx@@YAXXZ 100042a0 f   GuPCMContactConvexCommon.obj
 0001:000032b0       ??__EminV4Error@_VecMathTests@aos@shdfnd@physx@@YAXXZ 100042b0 f   GuPCMContactConvexCommon.obj
 0001:000032d0       ??__EmaxFError@_VecMathTests@aos@shdfnd@physx@@YAXXZ 100042d0 f   GuPCMContactConvexConvex.obj
 0001:000032f0       ??__EmaxV3Error@_VecMathTests@aos@shdfnd@physx@@YAXXZ 100042f0 f   GuPCMContactConvexConvex.obj
 0001:00003300       ??__EmaxV4Error@_VecMathTests@aos@shdfnd@physx@@YAXXZ 10004300 f   GuPCMContactConvexConvex.obj
 0001:00003320       ??__EminFError@_VecMathTests@aos@shdfnd@physx@@YAXXZ 10004320 f   GuPCMContactConvexConvex.obj
 0001:00003340       ??__EminV3Error@_VecMathTests@aos@shdfnd@physx@@YAXXZ 10004340 f   GuPCMContactConvexConvex.obj
 0001:00003350       ??__EminV4Error@_VecMathTests@aos@shdfnd@physx@@YAXXZ 10004350 f   GuPCMContactConvexConvex.obj
 0001:00003370       ??__EmaxFError@_VecMathTests@aos@shdfnd@physx@@YAXXZ 10004370 f   GuPCMContactConvexHeightField.obj
 0001:00003390       ??__EmaxV3Error@_VecMathTests@aos@shdfnd@physx@@YAXXZ 10004390 f   GuPCMContactConvexHeightField.obj
 0001:000033a0       ??__EmaxV4Error@_VecMathTests@aos@shdfnd@physx@@YAXXZ 100043a0 f   GuPCMContactConvexHeightField.obj
 0001:000033c0       ??__EminFError@_VecMathTests@aos@shdfnd@physx@@YAXXZ 100043c0 f   GuPCMContactConvexHeightField.obj
 0001:000033e0       ??__EminV3Error@_VecMathTests@aos@shdfnd@physx@@YAXXZ 100043e0 f   GuPCMContactConvexHeightField.obj
 0001:000033f0       ??__EminV4Error@_VecMathTests@aos@shdfnd@physx@@YAXXZ 100043f0 f   GuPCMContactConvexHeightField.obj
 0001:00003410       ??__EmaxFError@_VecMathTests@aos@shdfnd@physx@@YAXXZ 10004410 f   GuPCMContactConvexMesh.obj
 0001:00003430       ??__EmaxV3Error@_VecMathTests@aos@shdfnd@physx@@YAXXZ 10004430 f   GuPCMContactConvexMesh.obj
 0001:00003440       ??__EmaxV4Error@_VecMathTests@aos@shdfnd@physx@@YAXXZ 10004440 f   GuPCMContactConvexMesh.obj
 0001:00003460       ??__EminFError@_VecMathTests@aos@shdfnd@physx@@YAXXZ 10004460 f   GuPCMContactConvexMesh.obj
 0001:00003480       ??__EminV3Error@_VecMathTests@aos@shdfnd@physx@@YAXXZ 10004480 f   GuPCMContactConvexMesh.obj
 0001:00003490       ??__EminV4Error@_VecMathTests@aos@shdfnd@physx@@YAXXZ 10004490 f   GuPCMContactConvexMesh.obj
 0001:000034b0       ??__EmaxFError@_VecMathTests@aos@shdfnd@physx@@YAXXZ 100044b0 f   GuPCMContactGenBoxConvex.obj
 0001:000034d0       ??__EmaxV3Error@_VecMathTests@aos@shdfnd@physx@@YAXXZ 100044d0 f   GuPCMContactGenBoxConvex.obj
 0001:000034e0       ??__EmaxV4Error@_VecMathTests@aos@shdfnd@physx@@YAXXZ 100044e0 f   GuPCMContactGenBoxConvex.obj
 0001:00003500       ??__EminFError@_VecMathTests@aos@shdfnd@physx@@YAXXZ 10004500 f   GuPCMContactGenBoxConvex.obj
 0001:00003520       ??__EminV3Error@_VecMathTests@aos@shdfnd@physx@@YAXXZ 10004520 f   GuPCMContactGenBoxConvex.obj
 0001:00003530       ??__EminV4Error@_VecMathTests@aos@shdfnd@physx@@YAXXZ 10004530 f   GuPCMContactGenBoxConvex.obj
 0001:00003550       ??__EmaxFError@_VecMathTests@aos@shdfnd@physx@@YAXXZ 10004550 f   GuPCMContactGenSphereCapsule.obj
 0001:00003570       ??__EmaxV3Error@_VecMathTests@aos@shdfnd@physx@@YAXXZ 10004570 f   GuPCMContactGenSphereCapsule.obj
 0001:00003580       ??__EmaxV4Error@_VecMathTests@aos@shdfnd@physx@@YAXXZ 10004580 f   GuPCMContactGenSphereCapsule.obj
 0001:000035a0       ??__EminFError@_VecMathTests@aos@shdfnd@physx@@YAXXZ 100045a0 f   GuPCMContactGenSphereCapsule.obj
 0001:000035c0       ??__EminV3Error@_VecMathTests@aos@shdfnd@physx@@YAXXZ 100045c0 f   GuPCMContactGenSphereCapsule.obj
 0001:000035d0       ??__EminV4Error@_VecMathTests@aos@shdfnd@physx@@YAXXZ 100045d0 f   GuPCMContactGenSphereCapsule.obj
 0001:000035f0       ??__EmaxFError@_VecMathTests@aos@shdfnd@physx@@YAXXZ 100045f0 f   GuPCMContactPlaneBox.obj
 0001:00003610       ??__EmaxV3Error@_VecMathTests@aos@shdfnd@physx@@YAXXZ 10004610 f   GuPCMContactPlaneBox.obj
 0001:00003620       ??__EmaxV4Error@_VecMathTests@aos@shdfnd@physx@@YAXXZ 10004620 f   GuPCMContactPlaneBox.obj
 0001:00003640       ??__EminFError@_VecMathTests@aos@shdfnd@physx@@YAXXZ 10004640 f   GuPCMContactPlaneBox.obj
 0001:00003660       ??__EminV3Error@_VecMathTests@aos@shdfnd@physx@@YAXXZ 10004660 f   GuPCMContactPlaneBox.obj
 0001:00003670       ??__EminV4Error@_VecMathTests@aos@shdfnd@physx@@YAXXZ 10004670 f   GuPCMContactPlaneBox.obj
 0001:00003690       ??__EmaxFError@_VecMathTests@aos@shdfnd@physx@@YAXXZ 10004690 f   GuPCMContactPlaneCapsule.obj
 0001:000036b0       ??__EmaxV3Error@_VecMathTests@aos@shdfnd@physx@@YAXXZ 100046b0 f   GuPCMContactPlaneCapsule.obj
 0001:000036c0       ??__EmaxV4Error@_VecMathTests@aos@shdfnd@physx@@YAXXZ 100046c0 f   GuPCMContactPlaneCapsule.obj
 0001:000036e0       ??__EminFError@_VecMathTests@aos@shdfnd@physx@@YAXXZ 100046e0 f   GuPCMContactPlaneCapsule.obj
 0001:00003700       ??__EminV3Error@_VecMathTests@aos@shdfnd@physx@@YAXXZ 10004700 f   GuPCMContactPlaneCapsule.obj
 0001:00003710       ??__EminV4Error@_VecMathTests@aos@shdfnd@physx@@YAXXZ 10004710 f   GuPCMContactPlaneCapsule.obj
 0001:00003730       ??__EmaxFError@_VecMathTests@aos@shdfnd@physx@@YAXXZ 10004730 f   GuPCMContactPlaneConvex.obj
 0001:00003750       ??__EmaxV3Error@_VecMathTests@aos@shdfnd@physx@@YAXXZ 10004750 f   GuPCMContactPlaneConvex.obj
 0001:00003760       ??__EmaxV4Error@_VecMathTests@aos@shdfnd@physx@@YAXXZ 10004760 f   GuPCMContactPlaneConvex.obj
 0001:00003780       ??__EminFError@_VecMathTests@aos@shdfnd@physx@@YAXXZ 10004780 f   GuPCMContactPlaneConvex.obj
 0001:000037a0       ??__EminV3Error@_VecMathTests@aos@shdfnd@physx@@YAXXZ 100047a0 f   GuPCMContactPlaneConvex.obj
 0001:000037b0       ??__EminV4Error@_VecMathTests@aos@shdfnd@physx@@YAXXZ 100047b0 f   GuPCMContactPlaneConvex.obj
 0001:000037d0       ??__EmaxFError@_VecMathTests@aos@shdfnd@physx@@YAXXZ 100047d0 f   GuPCMContactSphereBox.obj
 0001:000037f0       ??__EmaxV3Error@_VecMathTests@aos@shdfnd@physx@@YAXXZ 100047f0 f   GuPCMContactSphereBox.obj
 0001:00003800       ??__EmaxV4Error@_VecMathTests@aos@shdfnd@physx@@YAXXZ 10004800 f   GuPCMContactSphereBox.obj
 0001:00003820       ??__EminFError@_VecMathTests@aos@shdfnd@physx@@YAXXZ 10004820 f   GuPCMContactSphereBox.obj
 0001:00003840       ??__EminV3Error@_VecMathTests@aos@shdfnd@physx@@YAXXZ 10004840 f   GuPCMContactSphereBox.obj
 0001:00003850       ??__EminV4Error@_VecMathTests@aos@shdfnd@physx@@YAXXZ 10004850 f   GuPCMContactSphereBox.obj
 0001:00003870       ??__EmaxFError@_VecMathTests@aos@shdfnd@physx@@YAXXZ 10004870 f   GuPCMContactSphereCapsule.obj
 0001:00003890       ??__EmaxV3Error@_VecMathTests@aos@shdfnd@physx@@YAXXZ 10004890 f   GuPCMContactSphereCapsule.obj
 0001:000038a0       ??__EmaxV4Error@_VecMathTests@aos@shdfnd@physx@@YAXXZ 100048a0 f   GuPCMContactSphereCapsule.obj
 0001:000038c0       ??__EminFError@_VecMathTests@aos@shdfnd@physx@@YAXXZ 100048c0 f   GuPCMContactSphereCapsule.obj
 0001:000038e0       ??__EminV3Error@_VecMathTests@aos@shdfnd@physx@@YAXXZ 100048e0 f   GuPCMContactSphereCapsule.obj
 0001:000038f0       ??__EminV4Error@_VecMathTests@aos@shdfnd@physx@@YAXXZ 100048f0 f   GuPCMContactSphereCapsule.obj
 0001:00003910       ??__EmaxFError@_VecMathTests@aos@shdfnd@physx@@YAXXZ 10004910 f   GuPCMContactSphereConvex.obj
 0001:00003930       ??__EmaxV3Error@_VecMathTests@aos@shdfnd@physx@@YAXXZ 10004930 f   GuPCMContactSphereConvex.obj
 0001:00003940       ??__EmaxV4Error@_VecMathTests@aos@shdfnd@physx@@YAXXZ 10004940 f   GuPCMContactSphereConvex.obj
 0001:00003960       ??__EminFError@_VecMathTests@aos@shdfnd@physx@@YAXXZ 10004960 f   GuPCMContactSphereConvex.obj
 0001:00003980       ??__EminV3Error@_VecMathTests@aos@shdfnd@physx@@YAXXZ 10004980 f   GuPCMContactSphereConvex.obj
 0001:00003990       ??__EminV4Error@_VecMathTests@aos@shdfnd@physx@@YAXXZ 10004990 f   GuPCMContactSphereConvex.obj
 0001:000039b0       ??__EmaxFError@_VecMathTests@aos@shdfnd@physx@@YAXXZ 100049b0 f   GuPCMContactSphereHeightField.obj
 0001:000039d0       ??__EmaxV3Error@_VecMathTests@aos@shdfnd@physx@@YAXXZ 100049d0 f   GuPCMContactSphereHeightField.obj
 0001:000039e0       ??__EmaxV4Error@_VecMathTests@aos@shdfnd@physx@@YAXXZ 100049e0 f   GuPCMContactSphereHeightField.obj
 0001:00003a00       ??__EminFError@_VecMathTests@aos@shdfnd@physx@@YAXXZ 10004a00 f   GuPCMContactSphereHeightField.obj
 0001:00003a20       ??__EminV3Error@_VecMathTests@aos@shdfnd@physx@@YAXXZ 10004a20 f   GuPCMContactSphereHeightField.obj
 0001:00003a30       ??__EminV4Error@_VecMathTests@aos@shdfnd@physx@@YAXXZ 10004a30 f   GuPCMContactSphereHeightField.obj
 0001:00003a50       ??__EmaxFError@_VecMathTests@aos@shdfnd@physx@@YAXXZ 10004a50 f   GuPCMContactSphereMesh.obj
 0001:00003a70       ??__EmaxV3Error@_VecMathTests@aos@shdfnd@physx@@YAXXZ 10004a70 f   GuPCMContactSphereMesh.obj
 0001:00003a80       ??__EmaxV4Error@_VecMathTests@aos@shdfnd@physx@@YAXXZ 10004a80 f   GuPCMContactSphereMesh.obj
 0001:00003aa0       ??__EminFError@_VecMathTests@aos@shdfnd@physx@@YAXXZ 10004aa0 f   GuPCMContactSphereMesh.obj
 0001:00003ac0       ??__EminV3Error@_VecMathTests@aos@shdfnd@physx@@YAXXZ 10004ac0 f   GuPCMContactSphereMesh.obj
 0001:00003ad0       ??__EminV4Error@_VecMathTests@aos@shdfnd@physx@@YAXXZ 10004ad0 f   GuPCMContactSphereMesh.obj
 0001:00003af0       ??__EmaxFError@_VecMathTests@aos@shdfnd@physx@@YAXXZ 10004af0 f   GuPCMContactSpherePlane.obj
 0001:00003b10       ??__EmaxV3Error@_VecMathTests@aos@shdfnd@physx@@YAXXZ 10004b10 f   GuPCMContactSpherePlane.obj
 0001:00003b20       ??__EmaxV4Error@_VecMathTests@aos@shdfnd@physx@@YAXXZ 10004b20 f   GuPCMContactSpherePlane.obj
 0001:00003b40       ??__EminFError@_VecMathTests@aos@shdfnd@physx@@YAXXZ 10004b40 f   GuPCMContactSpherePlane.obj
 0001:00003b60       ??__EminV3Error@_VecMathTests@aos@shdfnd@physx@@YAXXZ 10004b60 f   GuPCMContactSpherePlane.obj
 0001:00003b70       ??__EminV4Error@_VecMathTests@aos@shdfnd@physx@@YAXXZ 10004b70 f   GuPCMContactSpherePlane.obj
 0001:00003b90       ??__EmaxFError@_VecMathTests@aos@shdfnd@physx@@YAXXZ 10004b90 f   GuPCMContactSphereSphere.obj
 0001:00003bb0       ??__EmaxV3Error@_VecMathTests@aos@shdfnd@physx@@YAXXZ 10004bb0 f   GuPCMContactSphereSphere.obj
 0001:00003bc0       ??__EmaxV4Error@_VecMathTests@aos@shdfnd@physx@@YAXXZ 10004bc0 f   GuPCMContactSphereSphere.obj
 0001:00003be0       ??__EminFError@_VecMathTests@aos@shdfnd@physx@@YAXXZ 10004be0 f   GuPCMContactSphereSphere.obj
 0001:00003c00       ??__EminV3Error@_VecMathTests@aos@shdfnd@physx@@YAXXZ 10004c00 f   GuPCMContactSphereSphere.obj
 0001:00003c10       ??__EminV4Error@_VecMathTests@aos@shdfnd@physx@@YAXXZ 10004c10 f   GuPCMContactSphereSphere.obj
 0001:00003c30       ??__EmaxFError@_VecMathTests@aos@shdfnd@physx@@YAXXZ 10004c30 f   GuPCMShapeConvex.obj
 0001:00003c50       ??__EmaxV3Error@_VecMathTests@aos@shdfnd@physx@@YAXXZ 10004c50 f   GuPCMShapeConvex.obj
 0001:00003c60       ??__EmaxV4Error@_VecMathTests@aos@shdfnd@physx@@YAXXZ 10004c60 f   GuPCMShapeConvex.obj
 0001:00003c80       ??__EminFError@_VecMathTests@aos@shdfnd@physx@@YAXXZ 10004c80 f   GuPCMShapeConvex.obj
 0001:00003ca0       ??__EminV3Error@_VecMathTests@aos@shdfnd@physx@@YAXXZ 10004ca0 f   GuPCMShapeConvex.obj
 0001:00003cb0       ??__EminV4Error@_VecMathTests@aos@shdfnd@physx@@YAXXZ 10004cb0 f   GuPCMShapeConvex.obj
 0001:00003cd0       ??__EmaxFError@_VecMathTests@aos@shdfnd@physx@@YAXXZ 10004cd0 f   GuPCMTriangleContactGen.obj
 0001:00003cf0       ??__EmaxV3Error@_VecMathTests@aos@shdfnd@physx@@YAXXZ 10004cf0 f   GuPCMTriangleContactGen.obj
 0001:00003d00       ??__EmaxV4Error@_VecMathTests@aos@shdfnd@physx@@YAXXZ 10004d00 f   GuPCMTriangleContactGen.obj
 0001:00003d20       ??__EminFError@_VecMathTests@aos@shdfnd@physx@@YAXXZ 10004d20 f   GuPCMTriangleContactGen.obj
 0001:00003d40       ??__EminV3Error@_VecMathTests@aos@shdfnd@physx@@YAXXZ 10004d40 f   GuPCMTriangleContactGen.obj
 0001:00003d50       ??__EminV4Error@_VecMathTests@aos@shdfnd@physx@@YAXXZ 10004d50 f   GuPCMTriangleContactGen.obj
 0001:00003d70       ??__EmaxFError@_VecMathTests@aos@shdfnd@physx@@YAXXZ 10004d70 f   GuPersistentContactManifold.obj
 0001:00003d90       ??__EmaxV3Error@_VecMathTests@aos@shdfnd@physx@@YAXXZ 10004d90 f   GuPersistentContactManifold.obj
 0001:00003da0       ??__EmaxV4Error@_VecMathTests@aos@shdfnd@physx@@YAXXZ 10004da0 f   GuPersistentContactManifold.obj
 0001:00003dc0       ??__EminFError@_VecMathTests@aos@shdfnd@physx@@YAXXZ 10004dc0 f   GuPersistentContactManifold.obj
 0001:00003de0       ??__EminV3Error@_VecMathTests@aos@shdfnd@physx@@YAXXZ 10004de0 f   GuPersistentContactManifold.obj
 0001:00003df0       ??__EminV4Error@_VecMathTests@aos@shdfnd@physx@@YAXXZ 10004df0 f   GuPersistentContactManifold.obj
 0001:00003e10       ??__EmaxFError@_VecMathTests@aos@shdfnd@physx@@YAXXZ 10004e10 f   GuSweepBoxBox.obj
 0001:00003e30       ??__EmaxV3Error@_VecMathTests@aos@shdfnd@physx@@YAXXZ 10004e30 f   GuSweepBoxBox.obj
 0001:00003e40       ??__EmaxV4Error@_VecMathTests@aos@shdfnd@physx@@YAXXZ 10004e40 f   GuSweepBoxBox.obj
 0001:00003e60       ??__EminFError@_VecMathTests@aos@shdfnd@physx@@YAXXZ 10004e60 f   GuSweepBoxBox.obj
 0001:00003e80       ??__EminV3Error@_VecMathTests@aos@shdfnd@physx@@YAXXZ 10004e80 f   GuSweepBoxBox.obj
 0001:00003e90       ??__EminV4Error@_VecMathTests@aos@shdfnd@physx@@YAXXZ 10004e90 f   GuSweepBoxBox.obj
 0001:00003eb0       ??__EmaxFError@_VecMathTests@aos@shdfnd@physx@@YAXXZ 10004eb0 f   GuSweepBoxSphere.obj
 0001:00003ed0       ??__EmaxV3Error@_VecMathTests@aos@shdfnd@physx@@YAXXZ 10004ed0 f   GuSweepBoxSphere.obj
 0001:00003ee0       ??__EmaxV4Error@_VecMathTests@aos@shdfnd@physx@@YAXXZ 10004ee0 f   GuSweepBoxSphere.obj
 0001:00003f00       ??__EminFError@_VecMathTests@aos@shdfnd@physx@@YAXXZ 10004f00 f   GuSweepBoxSphere.obj
 0001:00003f20       ??__EminV3Error@_VecMathTests@aos@shdfnd@physx@@YAXXZ 10004f20 f   GuSweepBoxSphere.obj
 0001:00003f30       ??__EminV4Error@_VecMathTests@aos@shdfnd@physx@@YAXXZ 10004f30 f   GuSweepBoxSphere.obj
 0001:00003f50       ??__EmaxFError@_VecMathTests@aos@shdfnd@physx@@YAXXZ 10004f50 f   GuSweepBoxTriangle_FeatureBased.obj
 0001:00003f70       ??__EmaxV3Error@_VecMathTests@aos@shdfnd@physx@@YAXXZ 10004f70 f   GuSweepBoxTriangle_FeatureBased.obj
 0001:00003f80       ??__EmaxV4Error@_VecMathTests@aos@shdfnd@physx@@YAXXZ 10004f80 f   GuSweepBoxTriangle_FeatureBased.obj
 0001:00003fa0       ??__EminFError@_VecMathTests@aos@shdfnd@physx@@YAXXZ 10004fa0 f   GuSweepBoxTriangle_FeatureBased.obj
 0001:00003fc0       ??__EminV3Error@_VecMathTests@aos@shdfnd@physx@@YAXXZ 10004fc0 f   GuSweepBoxTriangle_FeatureBased.obj
 0001:00003fd0       ??__EminV4Error@_VecMathTests@aos@shdfnd@physx@@YAXXZ 10004fd0 f   GuSweepBoxTriangle_FeatureBased.obj
 0001:00004000       ??__EmaxFError@_VecMathTests@aos@shdfnd@physx@@YAXXZ 10005000 f   GuSweepBoxTriangle_SAT.obj
 0001:00004020       ??__EmaxV3Error@_VecMathTests@aos@shdfnd@physx@@YAXXZ 10005020 f   GuSweepBoxTriangle_SAT.obj
 0001:00004030       ??__EmaxV4Error@_VecMathTests@aos@shdfnd@physx@@YAXXZ 10005030 f   GuSweepBoxTriangle_SAT.obj
 0001:00004050       ??__EminFError@_VecMathTests@aos@shdfnd@physx@@YAXXZ 10005050 f   GuSweepBoxTriangle_SAT.obj
 0001:00004070       ??__EminV3Error@_VecMathTests@aos@shdfnd@physx@@YAXXZ 10005070 f   GuSweepBoxTriangle_SAT.obj
 0001:00004080       ??__EminV4Error@_VecMathTests@aos@shdfnd@physx@@YAXXZ 10005080 f   GuSweepBoxTriangle_SAT.obj
 0001:000040a0       ??__EmaxFError@_VecMathTests@aos@shdfnd@physx@@YAXXZ 100050a0 f   GuSweepCapsuleBox.obj
 0001:000040c0       ??__EmaxV3Error@_VecMathTests@aos@shdfnd@physx@@YAXXZ 100050c0 f   GuSweepCapsuleBox.obj
 0001:000040d0       ??__EmaxV4Error@_VecMathTests@aos@shdfnd@physx@@YAXXZ 100050d0 f   GuSweepCapsuleBox.obj
 0001:000040f0       ??__EminFError@_VecMathTests@aos@shdfnd@physx@@YAXXZ 100050f0 f   GuSweepCapsuleBox.obj
 0001:00004110       ??__EminV3Error@_VecMathTests@aos@shdfnd@physx@@YAXXZ 10005110 f   GuSweepCapsuleBox.obj
 0001:00004120       ??__EminV4Error@_VecMathTests@aos@shdfnd@physx@@YAXXZ 10005120 f   GuSweepCapsuleBox.obj
 0001:00004140       ??__EmaxFError@_VecMathTests@aos@shdfnd@physx@@YAXXZ 10005140 f   GuSweepCapsuleTriangle.obj
 0001:00004160       ??__EmaxV3Error@_VecMathTests@aos@shdfnd@physx@@YAXXZ 10005160 f   GuSweepCapsuleTriangle.obj
 0001:00004170       ??__EmaxV4Error@_VecMathTests@aos@shdfnd@physx@@YAXXZ 10005170 f   GuSweepCapsuleTriangle.obj
 0001:00004190       ??__EminFError@_VecMathTests@aos@shdfnd@physx@@YAXXZ 10005190 f   GuSweepCapsuleTriangle.obj
 0001:000041b0       ??__EminV3Error@_VecMathTests@aos@shdfnd@physx@@YAXXZ 100051b0 f   GuSweepCapsuleTriangle.obj
 0001:000041c0       ??__EminV4Error@_VecMathTests@aos@shdfnd@physx@@YAXXZ 100051c0 f   GuSweepCapsuleTriangle.obj
 0001:000041e0       ??__EmaxFError@_VecMathTests@aos@shdfnd@physx@@YAXXZ 100051e0 f   GuSweepSphereTriangle.obj
 0001:00004200       ??__EmaxV3Error@_VecMathTests@aos@shdfnd@physx@@YAXXZ 10005200 f   GuSweepSphereTriangle.obj
 0001:00004210       ??__EmaxV4Error@_VecMathTests@aos@shdfnd@physx@@YAXXZ 10005210 f   GuSweepSphereTriangle.obj
 0001:00004230       ??__EminFError@_VecMathTests@aos@shdfnd@physx@@YAXXZ 10005230 f   GuSweepSphereTriangle.obj
 0001:00004250       ??__EminV3Error@_VecMathTests@aos@shdfnd@physx@@YAXXZ 10005250 f   GuSweepSphereTriangle.obj
 0001:00004260       ??__EminV4Error@_VecMathTests@aos@shdfnd@physx@@YAXXZ 10005260 f   GuSweepSphereTriangle.obj
 0001:00004280       ??__EmaxFError@_VecMathTests@aos@shdfnd@physx@@YAXXZ 10005280 f   GuSweepTriangleUtils.obj
 0001:000042a0       ??__EmaxV3Error@_VecMathTests@aos@shdfnd@physx@@YAXXZ 100052a0 f   GuSweepTriangleUtils.obj
 0001:000042b0       ??__EmaxV4Error@_VecMathTests@aos@shdfnd@physx@@YAXXZ 100052b0 f   GuSweepTriangleUtils.obj
 0001:000042d0       ??__EminFError@_VecMathTests@aos@shdfnd@physx@@YAXXZ 100052d0 f   GuSweepTriangleUtils.obj
 0001:000042f0       ??__EminV3Error@_VecMathTests@aos@shdfnd@physx@@YAXXZ 100052f0 f   GuSweepTriangleUtils.obj
 0001:00004300       ??__EminV4Error@_VecMathTests@aos@shdfnd@physx@@YAXXZ 10005300 f   GuSweepTriangleUtils.obj
 0001:00008254       $LN128                     10009254     CmRenderOutput.obj
 0001:00009ff8       $LN24                      1000aff8     CmWindowsDelayLoadHook.obj
 0001:0000a874       $LN326                     1000b874     GuBounds.obj
 0001:0000b384       $LN874                     1000c384     GuBounds.obj
 0001:0000b514       $LN78                      1000c514     GuBounds.obj
 0001:0000b560       ?computeMeshBounds@@YAXABVPxVec3@physx@@ABVPxMat33Padded@Gu@2@PIBVCenterExtentsPadded@42@ABVPxMeshScale@2@AAVVec3p@42@4@Z 1000c560 f   GuBounds.obj
 0001:0000bd00       ?computePlaneBounds@@YAXAAVPxBounds3@physx@@ABVPxTransform@2@MM@Z 1000cd00 f   GuBounds.obj
 0001:0000bfb0       ?computeScaledMatrix@@YAXAAVPxMat33Padded@Gu@physx@@ABVPxMeshScale@3@@Z 1000cfb0 f   GuBounds.obj
 0001:0000d560       ??_GLocalReport@?1??sweepBox_HeightFieldGeom_Precise@@YA_NABVPxGeometry@physx@@ABVPxTransform@3@ABVPxBoxGeometry@3@1ABVBox@Gu@3@ABVPxVec3@3@MAAUPxSweepHit@3@V?$PxFlags@W4Enum@PxHitFlag@physx@@G@3@M@Z@UAEPAXI@Z 1000e560 f   GuCCTSweepTests.obj
 0001:0000d560       ??_GHfTrianglesEntityReport2@?A0x673919b0@@UAEPAXI@Z 1000e560 f   GuMeshQuery.obj
 0001:0000e110       ?onEvent@LocalReport@?1??sweepBox_HeightFieldGeom_Precise@@YA_NABVPxGeometry@physx@@ABVPxTransform@4@ABVPxBoxGeometry@4@1ABVBox@Gu@4@ABVPxVec3@4@MAAUPxSweepHit@4@V?$PxFlags@W4Enum@PxHitFlag@physx@@G@4@M@Z@UAE_NIPAI@Z 1000f110 f   GuCCTSweepTests.obj
 0001:0000e570       ?sweepBoxVsTriangles@@YA_NIPBVPxTriangle@physx@@ABVBox@Gu@2@ABVPxVec3@2@MAAUPxSweepHit@2@V?$PxFlags@W4Enum@PxHitFlag@physx@@G@2@_NPBI@Z 1000f570 f   GuCCTSweepTests.obj
 0001:00010794       $LN147                     10011794     GuGeometryQuery.obj
 0001:00010ef8       $LN272                     10011ef8     GuGeometryQuery.obj
 0001:000113a0       $LN162                     100123a0     GuGeometryQuery.obj
 0001:0001165c       $LN46                      1001265c     GuGeometryUnion.obj
 0001:00013130       ?loadMeshData@@YAPAVTriangleMeshData@Gu@physx@@AAVPxInputStream@3@@Z 10014130 f   GuMeshFactory.obj
 0001:00016a40       ?getBinaryMetaData@ShadowConvexMeshGeometry@?1??0GeometryUnion@Gu@physx@@SAXAAVPxOutputStream@4@@Z@SAX0@Z 10017a40 f   GuMetaData.obj
 0001:00016d10       ?getBinaryMetaData@ShadowHeightFieldGeometry@?1??0GeometryUnion@Gu@physx@@SAXAAVPxOutputStream@4@@Z@SAX0@Z 10017d10 f   GuMetaData.obj
 0001:00017020       ?getBinaryMetaData@ShadowTriangleMeshGeometry@?1??0GeometryUnion@Gu@physx@@SAXAAVPxOutputStream@4@@Z@SAX0@Z 10018020 f   GuMetaData.obj
 0001:00017ce0       ?getBinaryMetaData_BVDataPackedQ@@YAXAAVPxOutputStream@physx@@@Z 10018ce0 f   GuMetaData.obj
 0001:00017ff0       ?getBinaryMetaData_BigConvexRawData@@YAXAAVPxOutputStream@physx@@@Z 10018ff0 f   GuMetaData.obj
 0001:00018270       ?getBinaryMetaData_ConvexHullData@@YAXAAVPxOutputStream@physx@@@Z 10019270 f   GuMetaData.obj
 0001:00018540       ?getBinaryMetaData_HeightFieldData@@YAXAAVPxOutputStream@physx@@@Z 10019540 f   GuMetaData.obj
 0001:00018940       ?getBinaryMetaData_RTreePage@@YAXAAVPxOutputStream@physx@@@Z 10019940 f   GuMetaData.obj
 0001:000192a0       ?GeomMTDCallback_NotSupported@@YA_NAAVPxVec3@physx@@AAMABVPxGeometry@2@ABVPxTransform@2@23@Z 1001a2a0 f   GuMTD.obj
 0001:000192a0       ?GeomOverlapCallback_NotSupported@@YA_NABVPxGeometry@physx@@ABVPxTransform@2@01PAUTriggerCache@Gu@2@@Z 1001a2a0 f   GuOverlapTests.obj
 0001:000192b0       ?GeomMTDCallback_SphereSphere@@YA_NAAVPxVec3@physx@@AAMABVPxGeometry@2@ABVPxTransform@2@23@Z 1001a2b0 f   GuMTD.obj
 0001:00019380       ?GeomMTDCallback_SpherePlane@@YA_NAAVPxVec3@physx@@AAMABVPxGeometry@2@ABVPxTransform@2@23@Z 1001a380 f   GuMTD.obj
 0001:00019440       ?GeomMTDCallback_SphereCapsule@@YA_NAAVPxVec3@physx@@AAMABVPxGeometry@2@ABVPxTransform@2@23@Z 1001a440 f   GuMTD.obj
 0001:00019560       ?GeomMTDCallback_SphereBox@@YA_NAAVPxVec3@physx@@AAMABVPxGeometry@2@ABVPxTransform@2@23@Z 1001a560 f   GuMTD.obj
 0001:00019680       ?GeomMTDCallback_SphereConvex@@YA_NAAVPxVec3@physx@@AAMABVPxGeometry@2@ABVPxTransform@2@23@Z 1001a680 f   GuMTD.obj
 0001:000196e0       ?GeomMTDCallback_SphereMesh@@YA_NAAVPxVec3@physx@@AAMABVPxGeometry@2@ABVPxTransform@2@23@Z 1001a6e0 f   GuMTD.obj
 0001:00019820       ?GeomMTDCallback_PlaneCapsule@@YA_NAAVPxVec3@physx@@AAMABVPxGeometry@2@ABVPxTransform@2@23@Z 1001a820 f   GuMTD.obj
 0001:000199e0       ?GeomMTDCallback_PlaneBox@@YA_NAAVPxVec3@physx@@AAMABVPxGeometry@2@ABVPxTransform@2@23@Z 1001a9e0 f   GuMTD.obj
 0001:00019ad0       ?GeomMTDCallback_PlaneConvex@@YA_NAAVPxVec3@physx@@AAMABVPxGeometry@2@ABVPxTransform@2@23@Z 1001aad0 f   GuMTD.obj
 0001:00019b00       ?GeomMTDCallback_CapsuleCapsule@@YA_NAAVPxVec3@physx@@AAMABVPxGeometry@2@ABVPxTransform@2@23@Z 1001ab00 f   GuMTD.obj
 0001:00019cc0       ?GeomMTDCallback_CapsuleBox@@YA_NAAVPxVec3@physx@@AAMABVPxGeometry@2@ABVPxTransform@2@23@Z 1001acc0 f   GuMTD.obj
 0001:00019e70       ?GeomMTDCallback_CapsuleConvex@@YA_NAAVPxVec3@physx@@AAMABVPxGeometry@2@ABVPxTransform@2@23@Z 1001ae70 f   GuMTD.obj
 0001:00019f60       ?GeomMTDCallback_CapsuleMesh@@YA_NAAVPxVec3@physx@@AAMABVPxGeometry@2@ABVPxTransform@2@23@Z 1001af60 f   GuMTD.obj
 0001:0001a140       ?GeomMTDCallback_BoxBox@@YA_NAAVPxVec3@physx@@AAMABVPxGeometry@2@ABVPxTransform@2@23@Z 1001b140 f   GuMTD.obj
 0001:0001a300       ?GeomMTDCallback_BoxConvex@@YA_NAAVPxVec3@physx@@AAMABVPxGeometry@2@ABVPxTransform@2@23@Z 1001b300 f   GuMTD.obj
 0001:0001a3f0       ?GeomMTDCallback_BoxMesh@@YA_NAAVPxVec3@physx@@AAMABVPxGeometry@2@ABVPxTransform@2@23@Z 1001b3f0 f   GuMTD.obj
 0001:0001a610       ?GeomMTDCallback_ConvexConvex@@YA_NAAVPxVec3@physx@@AAMABVPxGeometry@2@ABVPxTransform@2@23@Z 1001b610 f   GuMTD.obj
 0001:0001a620       ?GeomMTDCallback_ConvexMesh@@YA_NAAVPxVec3@physx@@AAMABVPxGeometry@2@ABVPxTransform@2@23@Z 1001b620 f   GuMTD.obj
 0001:0001a6f0       ?GeomMTDCallback_SphereHeightField@@YA_NAAVPxVec3@physx@@AAMABVPxGeometry@2@ABVPxTransform@2@23@Z 1001b6f0 f   GuMTD.obj
 0001:0001a830       ?GeomMTDCallback_CapsuleHeightField@@YA_NAAVPxVec3@physx@@AAMABVPxGeometry@2@ABVPxTransform@2@23@Z 1001b830 f   GuMTD.obj
 0001:0001aa10       ?GeomMTDCallback_BoxHeightField@@YA_NAAVPxVec3@physx@@AAMABVPxGeometry@2@ABVPxTransform@2@23@Z 1001ba10 f   GuMTD.obj
 0001:0001ac30       ?GeomMTDCallback_ConvexHeightField@@YA_NAAVPxVec3@physx@@AAMABVPxGeometry@2@ABVPxTransform@2@23@Z 1001bc30 f   GuMTD.obj
 0001:0001bc70       $LN695                     1001cc70     GuMTD.obj
 0001:0001c260       ?PxcCapsuleOBBOverlap3@@YA_NABVSegment@Gu@physx@@MABVBox@23@PAMPAVPxVec3@3@@Z 1001d260 f   GuMTD.obj
 0001:0001c810       ?PxcTestAxis@@YA_NABVPxVec3@physx@@ABVBox@Gu@2@1AAM@Z 1001d810 f   GuMTD.obj
 0001:0001ca30       ?computeMTD_BoxBox@@YA_NAAVPxVec3@physx@@AAMABVBox@Gu@2@2@Z 1001da30 f   GuMTD.obj
 0001:0001ce90       ?computeMTD_BoxConvex@@YA_NAAVPxVec3@physx@@AAMABVBox@Gu@2@ABVPxConvexMeshGeometry@2@ABVPxTransform@2@@Z 1001de90 f   GuMTD.obj
 0001:0001d670       ?computeMTD_CapsuleBox@@YA_NAAVPxVec3@physx@@AAMABVCapsule@Gu@2@ABVBox@42@@Z 1001e670 f   GuMTD.obj
 0001:0001d860       ?computeMTD_CapsuleCapsule@@YA_NAAVPxVec3@physx@@AAMABVCapsule@Gu@2@2@Z 1001e860 f   GuMTD.obj
 0001:0001da50       ?computeMTD_CapsuleConvex@@YA_NAAVPxVec3@physx@@AAMABVCapsule@Gu@2@ABVPxTransform@2@ABVPxConvexMeshGeometry@2@3@Z 1001ea50 f   GuMTD.obj
 0001:0001e3b0       ?computeMTD_ConvexConvex@@YA_NAAVPxVec3@physx@@AAMABVPxConvexMeshGeometry@2@ABVPxTransform@2@23@Z 1001f3b0 f   GuMTD.obj
 0001:0001eee0       ?computeMTD_PlaneBox@@YA_NAAVPxVec3@physx@@AAMABVPxPlane@2@ABVBox@Gu@2@@Z 1001fee0 f   GuMTD.obj
 0001:0001f0c0       ?computeMTD_PlaneConvex@@YA_NAAVPxVec3@physx@@AAMABVPxPlane@2@ABVPxConvexMeshGeometry@2@ABVPxTransform@2@@Z 100200c0 f   GuMTD.obj
 0001:0001f3d0       ?computeMTD_SphereBox@@YA_NAAVPxVec3@physx@@AAMABVSphere@Gu@2@ABVBox@42@@Z 100203d0 f   GuMTD.obj
 0001:0001f9c0       ?computeMTD_SphereCapsule@@YA_NAAVPxVec3@physx@@AAMABVSphere@Gu@2@ABVCapsule@42@@Z 100209c0 f   GuMTD.obj
 0001:0001fbc0       ?computeMTD_SphereConvex@@YA_NAAVPxVec3@physx@@AAMABVSphere@Gu@2@ABVPxConvexMeshGeometry@2@ABVPxTransform@2@@Z 10020bc0 f   GuMTD.obj
 0001:00020f50       ?processContacts@@YA_NAAVPxVec3@physx@@AAMIPBUContactPoint@Gu@2@@Z 10021f50 f   GuMTD.obj
 0001:00021a70       ?GeomOverlapCallback_SphereSphere@@YA_NABVPxGeometry@physx@@ABVPxTransform@2@01PAUTriggerCache@Gu@2@@Z 10022a70 f   GuOverlapTests.obj
 0001:00021ad0       ?GeomOverlapCallback_SpherePlane@@YA_NABVPxGeometry@physx@@ABVPxTransform@2@01PAUTriggerCache@Gu@2@@Z 10022ad0 f   GuOverlapTests.obj
 0001:00021b30       ?GeomOverlapCallback_SphereCapsule@@YA_NABVPxGeometry@physx@@ABVPxTransform@2@01PAUTriggerCache@Gu@2@@Z 10022b30 f   GuOverlapTests.obj
 0001:00021cd0       ?GeomOverlapCallback_SphereBox@@YA_NABVPxGeometry@physx@@ABVPxTransform@2@01PAUTriggerCache@Gu@2@@Z 10022cd0 f   GuOverlapTests.obj
 0001:00021de0       ?GeomOverlapCallback_SphereConvex@@YA_NABVPxGeometry@physx@@ABVPxTransform@2@01PAUTriggerCache@Gu@2@@Z 10022de0 f   GuOverlapTests.obj
 0001:00021ea0       ?GeomOverlapCallback_PlaneCapsule@@YA_NABVPxGeometry@physx@@ABVPxTransform@2@01PAUTriggerCache@Gu@2@@Z 10022ea0 f   GuOverlapTests.obj
 0001:00022010       ?GeomOverlapCallback_PlaneBox@@YA_NABVPxGeometry@physx@@ABVPxTransform@2@01PAUTriggerCache@Gu@2@@Z 10023010 f   GuOverlapTests.obj
 0001:00022290       ?GeomOverlapCallback_PlaneConvex@@YA_NABVPxGeometry@physx@@ABVPxTransform@2@01PAUTriggerCache@Gu@2@@Z 10023290 f   GuOverlapTests.obj
 0001:00022aa0       ?GeomOverlapCallback_CapsuleCapsule@@YA_NABVPxGeometry@physx@@ABVPxTransform@2@01PAUTriggerCache@Gu@2@@Z 10023aa0 f   GuOverlapTests.obj
 0001:00022c90       ?GeomOverlapCallback_CapsuleBox@@YA_NABVPxGeometry@physx@@ABVPxTransform@2@01PAUTriggerCache@Gu@2@@Z 10023c90 f   GuOverlapTests.obj
 0001:00022f20       ?GeomOverlapCallback_CapsuleConvex@@YA_NABVPxGeometry@physx@@ABVPxTransform@2@01PAUTriggerCache@Gu@2@@Z 10023f20 f   GuOverlapTests.obj
 0001:00023000       ?GeomOverlapCallback_BoxBox@@YA_NABVPxGeometry@physx@@ABVPxTransform@2@01PAUTriggerCache@Gu@2@@Z 10024000 f   GuOverlapTests.obj
 0001:00023130       ?GeomOverlapCallback_BoxConvex@@YA_NABVPxGeometry@physx@@ABVPxTransform@2@01PAUTriggerCache@Gu@2@@Z 10024130 f   GuOverlapTests.obj
 0001:00023210       ?GeomOverlapCallback_ConvexConvex@@YA_NABVPxGeometry@physx@@ABVPxTransform@2@01PAUTriggerCache@Gu@2@@Z 10024210 f   GuOverlapTests.obj
 0001:00024080       ?GeomOverlapCallback_HeightfieldUnregistered@@YA_NABVPxGeometry@physx@@ABVPxTransform@2@01PAUTriggerCache@Gu@2@@Z 10025080 f   GuOverlapTests.obj
 0001:00025064       $LN739                     10026064     GuOverlapTests.obj
 0001:0002615c       $LN771                     1002715c     GuOverlapTests.obj
 0001:000262c0       ?intersectBoxConvex@@YA_NABVPxBoxGeometry@physx@@ABVPxTransform@2@ABVConvexMesh@Gu@2@ABVPxMeshScale@2@1PAVPxVec3@2@@Z 100272c0 f   GuOverlapTests.obj
 0001:00026ca0       ?intersectCapsuleConvex@@YA_NABVPxCapsuleGeometry@physx@@ABVPxTransform@2@ABVConvexMesh@Gu@2@ABVPxMeshScale@2@1PAVPxVec3@2@@Z 10027ca0 f   GuOverlapTests.obj
 0001:00027640       ?intersectSphereConvex@@YA_NABVPxTransform@physx@@MABVConvexMesh@Gu@2@ABVPxMeshScale@2@0PAVPxVec3@2@@Z 10028640 f   GuOverlapTests.obj
 0001:00027d30       ?projectHull_@@YA?AVPxVec3@physx@@ABUConvexHullData@Gu@2@AAM1ABV12@ABVPxMat33@2@@Z 10028d30 f   GuOverlapTests.obj
 0001:00029b30       ?raycast_heightField_unregistered@@YAIABVPxGeometry@physx@@ABVPxTransform@2@ABVPxVec3@2@2MV?$PxFlags@W4Enum@PxHitFlag@physx@@G@2@IPIAUPxRaycastHit@2@@Z 1002ab30 f   GuRaycastTests.obj
 0001:00029b60       ??$traceSegment@UHFTraceSegmentCallback@?A0xbf1843e2@@$0A@$0A@@HeightFieldTraceUtil@Gu@physx@@QBEXABVPxVec3@2@0MPAUHFTraceSegmentCallback@?A0xbf1843e2@@ABVPxBounds3@2@_NPBV32@@Z 1002ab60 f   GuRaycastTests.obj
 0001:0002b980       ?faceHit@HFTraceSegmentCallback@?A0xbf1843e2@@QAE_NABVHeightFieldUtil@Gu@physx@@ABVPxVec3@5@IMM@Z 1002c980 f   GuRaycastTests.obj
 0001:0002d8a0       ??_GAccumCallback@?A0x22c79694@Gu@physx@@UAEPAXI@Z 1002e8a0 f i GuCCDSweepConvexMesh.obj
 0001:0002d8d0       ??_GEntityReportContainerCallback@?A0x22c79694@Gu@physx@@UAEPAXI@Z 1002e8d0 f i GuCCDSweepConvexMesh.obj
 0001:0002d960       ?calculateMTD@@YA_NABUPolygonalData@Gu@physx@@PAVSupportLocal@23@AAVPsTransformV@aos@shdfnd@3@ABVPsMatTransformV@673@_NABT__m128@@PBUMTDTriangle@@IIPAVMeshPersistentContact@23@AAIAAT9@9989@Z 1002e960 f   GuSweepMTD.obj
 0001:0002daa0       ?calculateMTD@@YA_NABVCapsuleV@Gu@physx@@ABT__m128@@_NPBUMTDTriangle@@IIPAVMeshPersistentContact@23@AAIAAT4@6656@Z 1002eaa0 f   GuSweepMTD.obj
 0001:00035b84       $LN1078                    10036b84     GuSweepSharedTests.obj
 0001:00035b94       $LN1079                    10036b94     GuSweepSharedTests.obj
 0001:000374e8       $LN1142                    100384e8     GuSweepSharedTests.obj
 0001:000374f8       $LN1143                    100384f8     GuSweepSharedTests.obj
 0001:00038ea4       $LN1192                    10039ea4     GuSweepSharedTests.obj
 0001:00038eb4       $LN1193                    10039eb4     GuSweepSharedTests.obj
 0001:00039d88       $LN727                     1003ad88     GuSweepSharedTests.obj
 0001:0003acc8       $LN815                     1003bcc8     GuSweepSharedTests.obj
 0001:0003bcfc       $LN879                     1003ccfc     GuSweepSharedTests.obj
 0001:0003c450       ?computeSweepConvexPlane@@YAIABVPxConvexMeshGeometry@physx@@PAUConvexHullData@Gu@2@ABIABVPxTransform@2@ABVPxVec3@2@4@Z 1003d450 f   GuSweepSharedTests.obj
 0001:00043340       ?sweepCapsule_HeightfieldUnregistered@@YA_NABVPxGeometry@physx@@ABVPxTransform@2@ABVPxCapsuleGeometry@2@1ABVCapsule@Gu@2@ABVPxVec3@2@MAAUPxSweepHit@2@V?$PxFlags@W4Enum@PxHitFlag@physx@@G@2@M@Z 10044340 f   GuSweepTests.obj
 0001:00043370       ?sweepBox_HeightfieldUnregistered@@YA_NABVPxGeometry@physx@@ABVPxTransform@2@ABVPxBoxGeometry@2@1ABVBox@Gu@2@ABVPxVec3@2@MAAUPxSweepHit@2@V?$PxFlags@W4Enum@PxHitFlag@physx@@G@2@M@Z 10044370 f   GuSweepTests.obj
 0001:000433a0       ?sweepConvex_HeightfieldUnregistered@@YA_NABVPxGeometry@physx@@ABVPxTransform@2@ABVPxConvexMeshGeometry@2@1ABVPxVec3@2@MAAUPxSweepHit@2@V?$PxFlags@W4Enum@PxHitFlag@physx@@G@2@M@Z 100443a0 f   GuSweepTests.obj
 0001:00044c34       $LN1028                    10045c34     GuSweepTests.obj
 0001:00044c44       $LN1029                    10045c44     GuSweepTests.obj
 0001:000464f4       $LN1092                    100474f4     GuSweepTests.obj
 0001:00046504       $LN1093                    10047504     GuSweepTests.obj
 0001:00047274       $LN631                     10048274     GuSweepTests.obj
 0001:00048080       $LN653                     10049080     GuSweepTests.obj
 0001:00048e60       $LN719                     10049e60     GuSweepTests.obj
 0001:0004c580       ??_GCB@?1??SweepEstimateAnyShapeMesh@Gu@physx@@YAMABUCCDShape@23@0ABVPxTransform@3@111MM@Z@UAEPAXI@Z 1004d580 f   GuCCDSweepConvexMesh.obj
 0001:0004fe30       ?calcCenterAndBounds@ConvexTriangles@?A0x22c79694@Gu@physx@@ABEXABVPxTransform@4@@Z 10050e30 f   GuCCDSweepConvexMesh.obj
 0001:000505e0       ?getPolygonNormal@ConvexTriangles@?A0x22c79694@Gu@physx@@QBE?AVPxVec3@4@I@Z 100515e0 f   GuCCDSweepConvexMesh.obj
 0001:000509e0       ?onEvent@EntityReportContainerCallback@?A0x22c79694@Gu@physx@@UAE_NIPAI@Z 100519e0 f   GuCCDSweepConvexMesh.obj
 0001:00050a50       ?processHit@AccumCallback@?A0x22c79694@Gu@physx@@UAE_NABUPxRaycastHit@4@ABVPxVec3@4@11AAMPBI@Z 10051a50 f   GuCCDSweepConvexMesh.obj
 0001:00050aa0       ?processHit@CB@?1??SweepEstimateAnyShapeMesh@Gu@physx@@YAMABUCCDShape@34@0ABVPxTransform@4@111MM@Z@UAE_NABUPxRaycastHit@4@ABVPxVec3@4@33AAMPBI@Z 10051aa0 f   GuCCDSweepConvexMesh.obj
 0001:00053aa0       ??$CCDSweep@VBoxV@Gu@physx@@V123@@Gu@physx@@YAMAAVBoxV@01@0ABVPxTransform@1@111ABT__m128@@AAVPxVec3@1@3M@Z 10054aa0 f   GuCCDSweepPrimitives.obj
 0001:00054000       ??$CCDSweep@VBoxV@Gu@physx@@VConvexHullV@23@@Gu@physx@@YAMAAVBoxV@01@AAVConvexHullV@01@ABVPxTransform@1@222ABT__m128@@AAVPxVec3@1@4M@Z 10055000 f   GuCCDSweepPrimitives.obj
 0001:00054560       ??$CCDSweep@VCapsuleV@Gu@physx@@V123@@Gu@physx@@YAMAAVCapsuleV@01@0ABVPxTransform@1@111ABT__m128@@AAVPxVec3@1@3M@Z 10055560 f   GuCCDSweepPrimitives.obj
 0001:00054ac0       ??$CCDSweep@VCapsuleV@Gu@physx@@VBoxV@23@@Gu@physx@@YAMAAVCapsuleV@01@AAVBoxV@01@ABVPxTransform@1@222ABT__m128@@AAVPxVec3@1@4M@Z 10055ac0 f   GuCCDSweepPrimitives.obj
 0001:00055020       ??$CCDSweep@VCapsuleV@Gu@physx@@VConvexHullV@23@@Gu@physx@@YAMAAVCapsuleV@01@AAVConvexHullV@01@ABVPxTransform@1@222ABT__m128@@AAVPxVec3@1@4M@Z 10056020 f   GuCCDSweepPrimitives.obj
 0001:00055580       ??$CCDSweep@VConvexHullV@Gu@physx@@V123@@Gu@physx@@YAMAAVConvexHullV@01@0ABVPxTransform@1@111ABT__m128@@AAVPxVec3@1@3M@Z 10056580 f   GuCCDSweepPrimitives.obj
 0001:00055ae0       ??$CCDSweep@VTriangleV@Gu@physx@@VBoxV@23@@Gu@physx@@YAMAAVTriangleV@01@AAVBoxV@01@ABVPxTransform@1@222ABT__m128@@AAVPxVec3@1@4M@Z 10056ae0 f   GuCCDSweepPrimitives.obj
 0001:00056040       ??$CCDSweep@VTriangleV@Gu@physx@@VCapsuleV@23@@Gu@physx@@YAMAAVTriangleV@01@AAVCapsuleV@01@ABVPxTransform@1@222ABT__m128@@AAVPxVec3@1@4M@Z 10057040 f   GuCCDSweepPrimitives.obj
 0001:000565a0       ??$CCDSweep@VTriangleV@Gu@physx@@VConvexHullV@23@@Gu@physx@@YAMAAVTriangleV@01@AAVConvexHullV@01@ABVPxTransform@1@222ABT__m128@@AAVPxVec3@1@4M@Z 100575a0 f   GuCCDSweepPrimitives.obj
 0001:000583b8       $LN1094                    100593b8     GuCCDSweepPrimitives.obj
 0001:000583c8       $LN1095                    100593c8     GuCCDSweepPrimitives.obj
 0001:00059cd4       $LN1096                    1005acd4     GuCCDSweepPrimitives.obj
 0001:00059ce4       $LN1097                    1005ace4     GuCCDSweepPrimitives.obj
 0001:0005b674       $LN1144                    1005c674     GuCCDSweepPrimitives.obj
 0001:0005b684       $LN1145                    1005c684     GuCCDSweepPrimitives.obj
 0001:0005cfe4       $LN1112                    1005dfe4     GuCCDSweepPrimitives.obj
 0001:0005cff4       $LN1113                    1005dff4     GuCCDSweepPrimitives.obj
 0001:0005e994       $LN1114                    1005f994     GuCCDSweepPrimitives.obj
 0001:0005e9a4       $LN1115                    1005f9a4     GuCCDSweepPrimitives.obj
 0001:000603e4       $LN1162                    100613e4     GuCCDSweepPrimitives.obj
 0001:000603f4       $LN1163                    100613f4     GuCCDSweepPrimitives.obj
 0001:00061204       $LN719                     10062204     GuCCDSweepPrimitives.obj
 0001:0006208c       $LN719                     1006308c     GuCCDSweepPrimitives.obj
 0001:00062ffc       $LN815                     10063ffc     GuCCDSweepPrimitives.obj
 0001:00063ea4       $LN741                     10064ea4     GuCCDSweepPrimitives.obj
 0001:00064dec       $LN741                     10065dec     GuCCDSweepPrimitives.obj
 0001:00065df4       $LN837                     10066df4     GuCCDSweepPrimitives.obj
 0001:00067290       ?doBoxBoxContactGeneration@@YAHAAVContactBuffer@Gu@physx@@ABVPxVec3@3@1AAIABVMatrix34@Cm@3@3M@Z 10068290 f   GuContactBoxBox.obj
 0001:00068918       $LN529                     10069918     GuContactBoxBox.obj
 0001:00068930       ?generateContacts@@YAHAAVContactBuffer@Gu@physx@@ABVPxVec3@3@MM1ABVMatrix34@Cm@3@2M@Z 10069930 f   GuContactBoxBox.obj
 0001:0006a000       ?GuCapsuleOBBOverlap3@@YA_NABVSegment@Gu@physx@@MABVBox@23@PAMPAVPxVec3@3@@Z 1006b000 f   GuContactCapsuleBox.obj
 0001:0006a5a0       ?GuGenerateEEContacts2@@YAXAAVContactBuffer@Gu@physx@@ABVSegment@23@MABVBox@23@ABVPxVec3@3@M@Z 1006b5a0 f   GuContactCapsuleBox.obj
 0001:0006abd0       ?GuGenerateEEContacts@@YAXAAVContactBuffer@Gu@physx@@ABVSegment@23@MABVBox@23@ABVPxVec3@3@@Z 1006bbd0 f   GuContactCapsuleBox.obj
 0001:0006b1d0       ?GuGenerateVFContacts@@YAXAAVContactBuffer@Gu@physx@@ABVSegment@23@MABVBox@23@ABVPxVec3@3@M@Z 1006c1d0 f   GuContactCapsuleBox.obj
 0001:0006c520       ?GuCapsuleConvexOverlap@@YA_NABVSegment@Gu@physx@@MABUPolygonalData@23@ABVFastVertex2ShapeScaling@Cm@3@ABVPxTransform@3@PAMPAVPxVec3@3@_N@Z 1006d520 f   GuContactCapsuleConvex.obj
 0001:0006cdb0       ?GuGenerateEEContacts2b@@YAXAAVContactBuffer@Gu@physx@@ABVSegment@23@MABVMatrix34@Cm@3@ABUPolygonalData@23@ABVFastVertex2ShapeScaling@63@ABVPxVec3@3@M@Z 1006ddb0 f   GuContactCapsuleConvex.obj
 0001:0006d680       ?GuGenerateEEContacts@@YAXAAVContactBuffer@Gu@physx@@ABVSegment@23@MMABUPolygonalData@23@ABVPxTransform@3@ABVFastVertex2ShapeScaling@Cm@3@ABVPxVec3@3@@Z 1006e680 f   GuContactCapsuleConvex.obj
 0001:0006e0b0       ?GuGenerateVFContacts2@@YAXAAVContactBuffer@Gu@physx@@ABVPxTransform@3@ABUPolygonalData@23@ABVPxMeshScale@3@IPIBVPxVec3@3@MABV73@M@Z 1006f0b0 f   GuContactCapsuleConvex.obj
 0001:0006f6a0       ??0CapsuleMeshContactGeneration@?A0x22d657b3@@QAE@AAVContactBuffer@Gu@physx@@ABVPxTransform@4@ABVSegment@34@MMM@Z 100706a0 f   GuContactCapsuleMesh.obj
 0001:0006f8c0       ??_GCapsuleHeightfieldContactGenerationCallback@?A0x22d657b3@@UAEPAXI@Z 100708c0 f   GuContactCapsuleMesh.obj
 0001:0006f8f0       ??_GCapsuleMeshContactGenerationCallback_NoScale@?A0x22d657b3@@UAEPAXI@Z 100708f0 f   GuContactCapsuleMesh.obj
 0001:0006f920       ??_GCapsuleMeshContactGenerationCallback_Scale@?A0x22d657b3@@UAEPAXI@Z 10070920 f   GuContactCapsuleMesh.obj
 0001:0006f950       ?PxcCapsuleTriOverlap3@@YA_NEABVSegment@Gu@physx@@MPIBVPxVec3@3@PIAMPIAV43@@Z 10070950 f   GuContactCapsuleMesh.obj
 0001:0006ff90       ?PxcGenerateEEContacts2@@YAXABVMatrix34@Cm@physx@@AAVContactBuffer@Gu@3@ABVSegment@53@MPIBVPxVec3@3@ABV73@IM@Z 10070f90 f   GuContactCapsuleMesh.obj
 0001:00070290       ?PxcGenerateEEContacts@@YAXABVMatrix34@Cm@physx@@AAVContactBuffer@Gu@3@ABVSegment@53@MPIBVPxVec3@3@ABV73@I@Z 10071290 f   GuContactCapsuleMesh.obj
 0001:000705b0       ?PxcGenerateVFContacts@@YAXABVMatrix34@Cm@physx@@AAVContactBuffer@Gu@3@ABVSegment@53@MPIBVPxVec3@3@ABV73@IM@Z 100715b0 f   GuContactCapsuleMesh.obj
 0001:00071890       ?onEvent@CapsuleHeightfieldContactGenerationCallback@?A0x22d657b3@@UAE_NIPAI@Z 10072890 f   GuContactCapsuleMesh.obj
 0001:00071bd0       ?processHit@CapsuleMeshContactGenerationCallback_NoScale@?A0x22d657b3@@UAE_NABUPxRaycastHit@physx@@ABVPxVec3@4@11AAMPBI@Z 10072bd0 f   GuContactCapsuleMesh.obj
 0001:00071c80       ?processHit@CapsuleMeshContactGenerationCallback_Scale@?A0x22d657b3@@UAE_NABUPxRaycastHit@physx@@ABVPxVec3@4@11AAMPBI@Z 10072c80 f   GuContactCapsuleMesh.obj
 0001:00071e80       ?processTriangle@CapsuleMeshContactGeneration@?A0x22d657b3@@QAEXIABVTrianglePadded@Gu@physx@@E@Z 10072e80 f   GuContactCapsuleMesh.obj
 0001:00072870       ?GuBruteForceOverlapBackfaceRoughPass@@YA_NABUPolygonalData@Gu@physx@@0ABVMatrix34@Cm@3@1ABVFastVertex2ShapeScaling@53@211ABVPxVec3@3@AAI4AAMAAV73@AAW4PxcSepAxisType@23@MM@Z 10073870 f   GuContactConvexConvex.obj
 0001:00072af0       ?GuContactHullHull@@YA_NABUPolygonalData@Gu@physx@@0ABVPxBounds3@3@1ABVPxTransform@3@2ABUNarrowPhaseParams@23@AAVContactBuffer@23@ABVFastVertex2ShapeScaling@Cm@3@5_N6@Z 10073af0 f   GuContactConvexConvex.obj
 0001:00074930       ?GuTestFacesSepAxesBackfaceRoughPass@@YA_NABUPolygonalData@Gu@physx@@0ABVMatrix34@Cm@3@1ABVFastVertex2ShapeScaling@53@21ABVPxVec3@3@3AAMAAV73@AAIMM3@Z 10075930 f   GuContactConvexConvex.obj
 0001:00074fe0       ?PxcBruteForceOverlapBackface@@YA_NABVPxBounds3@physx@@0ABUPolygonalData@Gu@2@1ABVMatrix34@Cm@2@2ABVFastVertex2ShapeScaling@62@322ABVPxVec3@2@AAI5AAMAAV82@AAW4PxcSepAxisType@42@MM@Z 10075fe0 f   GuContactConvexConvex.obj
 0001:000757a0       ?PxcFindSeparatingAxes@@YAXAAVSeparatingAxes@Gu@physx@@PIBIIABUPolygonalData@23@ABVMatrix34@Cm@3@ABVPxPlane@3@3ABVPxBounds3@3@MABVFastVertex2ShapeScaling@63@@Z 100767a0 f   GuContactConvexConvex.obj
 0001:00075b50       ?PxcSegmentAABBIntersect@@YA_NABVPxVec3@physx@@000ABVMatrix34@Cm@2@@Z 10076b50 f   GuContactConvexConvex.obj
 0001:00075e90       ?PxcTestFacesSepAxesBackface@@YA_NABUPolygonalData@Gu@physx@@0ABVMatrix34@Cm@3@1ABVFastVertex2ShapeScaling@53@21ABVPxVec3@3@AAMAAV73@AAIPIAI6MM3@Z 10076e90 f   GuContactConvexConvex.obj
 0001:00076770       ?prepareData@@YAXAAVPxPlane@physx@@0AAVPxBounds3@2@1ABV32@2ABV12@3ABVFastVertex2ShapeScaling@Cm@2@4ABVMatrix34@52@5M@Z 10077770 f   GuContactConvexConvex.obj
 0001:00076b40       ??0ConvexMeshContactGeneration@?A0xbca1c408@@QAE@AAV?$InlineArray@I$0EEA@V?$ReflectionAllocator@I@shdfnd@physx@@@shdfnd@physx@@ABVPxTransform@4@1ABUPolygonalData@Gu@4@ABVMatrix34@Cm@4@3ABVFastVertex2ShapeScaling@94@MM_NM11AAVContactBuffer@74@@Z 10077b40 f   GuContactConvexMesh.obj
 0001:00077050       ??_GConvexVsHeightfieldContactGenerationCallback@?A0xbca1c408@@UAEPAXI@Z 10078050 f   GuContactConvexMesh.obj
 0001:00077270       ?computeFeatureCode@@YA?AW4FeatureCode@@ABVPxVec3@physx@@PBV23@@Z 10078270 f   GuContactConvexMesh.obj
 0001:000779e0       ?contactHullHeightfield2@@YA_NABUPolygonalData@Gu@physx@@ABVPxBounds3@3@ABVPxHeightFieldGeometry@3@ABVPxTransform@3@3ABUNarrowPhaseParams@23@AAVContactBuffer@23@ABVFastVertex2ShapeScaling@Cm@3@_N@Z 100789e0 f   GuContactConvexMesh.obj
 0001:00078350       ?contactHullMesh2@@YA_NABUPolygonalData@Gu@physx@@ABVPxBounds3@3@ABUPxTriangleMeshGeometryLL@3@ABVPxTransform@3@3ABUNarrowPhaseParams@23@AAVContactBuffer@23@ABVFastVertex2ShapeScaling@Cm@3@6_N7@Z 10079350 f   GuContactConvexMesh.obj
 0001:00078d60       ?generateContacts@ConvexMeshContactGeneration@?A0xbca1c408@@QBE_NABVPxPlane@physx@@PIBVPxVec3@4@ABV54@AAV54@MI@Z 10079d60 f   GuContactConvexMesh.obj
 0001:00079c00       ?generateLastContacts@ConvexMeshContactGeneration@?A0xbca1c408@@QAEXXZ 1007ac00 f   GuContactConvexMesh.obj
 0001:00079f68       $LN136                     1007af68     GuContactConvexMesh.obj
 0001:00079f90       ?onEvent@ConvexVsHeightfieldContactGenerationCallback@?A0xbca1c408@@UAE_NIPAI@Z 1007af90 f   GuContactConvexMesh.obj
 0001:0007a2e0       ?performEETests@@YA_NABUPolygonalData@Gu@physx@@EABVMatrix34@Cm@3@1PIBVPxVec3@3@IPIBIABVPxPlane@3@ABVFastVertex2ShapeScaling@53@AAV63@AAMMMII@Z 1007b2e0 f   GuContactConvexMesh.obj
 0001:0007b380       ?processTriangle@ConvexMeshContactGeneration@?A0xbca1c408@@QAEXPBVPxVec3@physx@@IEPBI@Z 1007c380 f   GuContactConvexMesh.obj
 0001:0007b8a0       ?testFacesSepAxesBackface@@YA_NABUPolygonalData@Gu@physx@@ABVMatrix34@Cm@3@11ABVPxVec3@3@PIBV63@ABVFastVertex2ShapeScaling@53@AAIPAIAAMAAV63@5M_N@Z 1007c8a0 f   GuContactConvexMesh.obj
 0001:0007c390       ?triangleConvexTest@@YA_NABUPolygonalData@Gu@physx@@EIPIBVPxVec3@3@ABVPxPlane@3@ABV43@ABVMatrix34@Cm@3@444ABVFastVertex2ShapeScaling@73@MMAAV43@AAMAA_N_N@Z 1007d390 f   GuContactConvexMesh.obj
 0001:0007e760       ?ContactReductionAllIn@@YAXAAVContactBuffer@Gu@physx@@IIABVPxMat33@3@PIBVPxVec3@3@PIBE@Z 1007f760 f   GuContactPolygonPolygon.obj
 0001:0007f0e0       ?PointInConvexPolygon2D_OutCodes@@YA_NPIBMIMMMMAAE@Z 100800e0 f   GuContactPolygonPolygon.obj
 0001:000805f0       ?transformVertices@@YAXAAM000PIAMIPIBVPxVec3@physx@@PIBEABVPxMat33@2@@Z 100815f0 f   GuContactPolygonPolygon.obj
 0001:00081110       ??$sort@USortKey@@U?$Less@USortKey@@@shdfnd@physx@@VNullAllocator@?A0x461be81c@@@shdfnd@physx@@YAXPAUSortKey@@IABU?$Less@USortKey@@@01@ABVNullAllocator@?A0x461be81c@@I@Z 10082110 f   GuContactSphereMesh.obj
 0001:000815a0       ??_GSphereHeightfieldContactGenerationCallback@?A0x461be81c@@UAEPAXI@Z 100825a0 f   GuContactSphereMesh.obj
 0001:000815d0       ??_GSphereMeshContactGenerationCallback_NoScale@?A0x461be81c@@UAEPAXI@Z 100825d0 f   GuContactSphereMesh.obj
 0001:00081610       ??_GSphereMeshContactGenerationCallback_Scale@?A0x461be81c@@UAEPAXI@Z 10082610 f   GuContactSphereMesh.obj
 0001:00081650       ?closestPtPointTriangle@@YA?AVPxVec3@physx@@ABV12@000AAM1AAW4FeatureCode@Gu@2@@Z 10082650 f   GuContactSphereMesh.obj
 0001:000826bc       $LN260                     100836bc     GuContactSphereMesh.obj
 0001:00083d24       $LN520                     10084d24     GuContactSphereMesh.obj
 0001:00083d3c       $LN521                     10084d3c     GuContactSphereMesh.obj
 0001:00083d60       ?generateLastContacts@SphereMeshContactGeneration@?A0x461be81c@@QAEXXZ 10084d60 f   GuContactSphereMesh.obj
 0001:00084364       $LN140                     10085364     GuContactSphereMesh.obj
 0001:00084380       ?onEvent@SphereHeightfieldContactGenerationCallback@?A0x461be81c@@UAE_NIPAI@Z 10085380 f   GuContactSphereMesh.obj
 0001:000849f0       ?processHit@SphereMeshContactGenerationCallback_NoScale@?A0x461be81c@@UAE_NABUPxRaycastHit@physx@@ABVPxVec3@4@11AAMPBI@Z 100859f0 f   GuContactSphereMesh.obj
 0001:00084a20       ?processHit@SphereMeshContactGenerationCallback_Scale@?A0x461be81c@@UAE_NABUPxRaycastHit@physx@@ABVPxVec3@4@11AAMPBI@Z 10085a20 f   GuContactSphereMesh.obj
 0001:00084bf0       ?processTriangle@SphereMeshContactGeneration@?A0x461be81c@@QAEXIABVPxVec3@physx@@00PBI@Z 10085bf0 f   GuContactSphereMesh.obj
 0001:00085230       ?validateEdge@@YA_NIIPBUCachedTriangleIndices@@I@Z 10086230 f   GuContactSphereMesh.obj
 0001:00086430       ?convexHullLoad@@YA_NAAUConvexHullData@Gu@physx@@AAVPxInputStream@3@AAV?$PxBitAndDataT@I$0IAAAAAAA@@3@@Z 10087430 f   GuConvexMesh.obj
 0001:00088ab0       ?HullProjectionCB_BigConvex@@YAXABUPolygonalData@Gu@physx@@ABVPxVec3@3@ABVMatrix34@Cm@3@ABVFastVertex2ShapeScaling@63@AAM4@Z 10089ab0 f   GuShapeConvex.obj
 0001:00088e50       ?HullProjectionCB_Box@@YAXABUPolygonalData@Gu@physx@@ABVPxVec3@3@ABVMatrix34@Cm@3@ABVFastVertex2ShapeScaling@63@AAM4@Z 10089e50 f   GuShapeConvex.obj
 0001:00088f60       ?HullProjectionCB_SmallConvex@@YAXABUPolygonalData@Gu@physx@@ABVPxVec3@3@ABVMatrix34@Cm@3@ABVFastVertex2ShapeScaling@63@AAM4@Z 10089f60 f   GuShapeConvex.obj
 0001:000890d0       ?SelectClosestEdgeCB_Box@@YAIABUPolygonalData@Gu@physx@@ABVFastVertex2ShapeScaling@Cm@3@ABVPxVec3@3@@Z 1008a0d0 f   GuShapeConvex.obj
 0001:000892c0       ?SelectClosestEdgeCB_Convex@@YAIABUPolygonalData@Gu@physx@@ABVFastVertex2ShapeScaling@Cm@3@ABVPxVec3@3@@Z 1008a2c0 f   GuShapeConvex.obj
 0001:0008a010       ?distanceLineBoxSquared@@YAMABVPxVec3@physx@@000ABVPxMat33@2@PAMPAV12@@Z 1008b010 f   GuDistanceSegmentBox.obj
 0001:0008ae20       ?face@@YAXIIIAAVPxVec3@physx@@ABV12@11PAMAAM@Z 1008be20 f   GuDistanceSegmentBox.obj
 0001:0008f2ec       $LN419                     100902ec     GuEPA.obj
 0001:0008f4e0       ?calculateContactInformation@Gu@physx@@YAXPIBT__m128@@0PAVFacet@12@ABUGjkConvex@12@2_NAAUGjkOutput@12@@Z 100904e0 f   GuEPA.obj
 0001:00090d10       ?getClosestPtPointTriangle@Gu@physx@@YA?AT__m128@@PIAT3@ABT3@PAIAAI@Z 10091d10 f   GuGJKSimplex.obj
 0001:0009313c       $LN647                     1009413c     GuGJKTest.obj
 0001:00094974       $LN994                     10095974     GuGJKTest.obj
 0001:00094984       $LN995                     10095984     GuGJKTest.obj
 0001:0009b0b0       ?intersectHeightFieldBox@@YA_NABVHeightFieldTraceUtil@Gu@physx@@ABVBox@23@@Z 1009c0b0 f   GuOverlapTestsHF.obj
 0001:0009bd50       ?intersectHeightFieldCapsule@@YA_NABVHeightFieldUtil@Gu@physx@@ABVPxCapsuleGeometry@3@ABVPxTransform@3@@Z 1009cd50 f   GuOverlapTestsHF.obj
 0001:0009c590       ?intersectHeightFieldConvex@@YA_NABVHeightFieldTraceUtil@Gu@physx@@ABVPxTransform@3@ABVConvexMesh@23@1ABVPxMeshScale@3@@Z 1009d590 f   GuOverlapTestsHF.obj
 0001:0009dac0       ?intersectHeightFieldSphere@@YA_NABVHeightFieldUtil@Gu@physx@@ABVSphere@23@@Z 1009eac0 f   GuOverlapTestsHF.obj
 0001:0009dfd0       ?multiplyInverseRTLeft@@YA?AVMatrix34@Cm@physx@@ABV123@0@Z 1009efd0 f   GuOverlapTestsHF.obj
 0001:0009f200       $LN749                     100a0200     GuSweepsHF.obj
 0001:000a8ad0       ?BuildBV4FromRoot@@YA_NAAVBV4Tree@Gu@physx@@PAUBV4Node@@AAUBV4BuildParams@@_NM@Z 100a9ad0 f   GuBV4Build.obj
 0001:000a8f70       ?_BuildBV4@@YAXABVAABBTree@Gu@physx@@PAUBV4Node@@PBVAABBTreeNode@23@AAUBV4BuildParams@@@Z 100a9f70 f   GuBV4Build.obj
 0001:000a91e0       ?_Check@Local@?5??BuildBV32Internal@@YA_NAAVBV32Tree@Gu@physx@@ABVAABBTree@45@PAVSourceMesh@45@M@Z@SAXPAVAABBTreeNode@45@@Z 100aa1e0 f   GuBV32Build.obj
 0001:000a91e0       ?_Check@Local@?4??BuildBV4Internal@@YA_NAAVBV4Tree@Gu@physx@@ABVAABBTree@45@PAVSourceMesh@45@M_N@Z@SAXPAVAABBTreeNode@45@@Z 100aa1e0 f   GuBV4Build.obj
 0001:000a9340       ?_CheckMD@Local@?5??BuildBV32Internal@@YA_NAAVBV32Tree@Gu@physx@@ABVAABBTree@45@PAVSourceMesh@45@M@Z@SAXPBVAABBTreeNode@45@AAI4@Z 100aa340 f   GuBV32Build.obj
 0001:000a9340       ?_CheckMD@Local@?4??BuildBV4Internal@@YA_NAAVBV4Tree@Gu@physx@@ABVAABBTree@45@PAVSourceMesh@45@M_N@Z@SAXPBVAABBTreeNode@45@AAI5@Z 100aa340 f   GuBV4Build.obj
 0001:000a9390       ?_ComputeMaxValues@@YAXPBUBV4Node@@AAVPxVec3@physx@@1@Z 100aa390 f   GuBV4Build.obj
 0001:000a94a0       ?_FlattenQ@@YAXQAU?$BVDataPackedT@VQuantizedAABB@Gu@physx@@@Gu@physx@@IAAIPBUBV4Node@@11ABVPxVec3@3@333@Z 100aa4a0 f   GuBV4Build.obj
 0001:000a97e0       ?_Walk@Local@?1??walk@AABBTree@Gu@physx@@QBEIP6A_NPBVAABBTreeNode@45@IPAX@Z1@Z@SAX0AAI321@Z 100aa7e0 f   GuBV4Build.obj
 0001:000a9cd0       ?gReorderCallback@@YA_NPBVAABBTreeNode@Gu@physx@@IPAX@Z 100aacd0 f   GuBV4Build.obj
 0001:000a9d20       ?local_BuildHierarchy@@YAXPIAVAABBTreeNode@Gu@physx@@PIBVPxBounds3@3@PIBVPxVec3@3@AAUBuildStats@23@QIBV123@I@Z 100aad20 f   GuBV4Build.obj
 0001:000a9d90       ?local_Subdivide@@YA_NPIAVAABBTreeNode@Gu@physx@@PIBVPxBounds3@3@PIBVPxVec3@3@AAUBuildStats@23@QIBV123@I@Z 100aad90 f   GuBV4Build.obj
 0001:000aa1d0       ?precomputeNodeSorting@@YAIABVPxBounds3@physx@@0@Z 100ab1d0 f   GuBV4Build.obj
 0001:000aa440       ?setNode@@YAPAUBV4Node@@ABVAABBTree@Gu@physx@@PAU1@IPBVAABBTreeNode@34@AAUBV4BuildParams@@@Z 100ab440 f   GuBV4Build.obj
 0001:000aa550       ?setPrimitive@@YAXABVAABBTree@Gu@physx@@PAUBV4Node@@IPBVAABBTreeNode@23@M@Z 100ab550 f   GuBV4Build.obj
 0001:000aa6d0       ??$BV4_ProcessStreamKajiyaNoOrderQ@$00VLeafFunction_BoxSweepAny@?A0x3bd6b1b1@@UBoxSweepParams@2@@@YAHPIBU?$BVDataPackedT@VQuantizedAABB@Gu@physx@@@Gu@physx@@IPIAUBoxSweepParams@?A0x3bd6b1b1@@@Z 100ab6d0 f   GuBV4_AABBSweep.obj
 0001:000aab50       ??$BV4_ProcessStreamKajiyaNoOrderQ@$00VLeafFunction_BoxSweepAnyCB@?A0x3bd6b1b1@@UGenericSweepParamsCB@2@@@YAHPIBU?$BVDataPackedT@VQuantizedAABB@Gu@physx@@@Gu@physx@@IPIAUGenericSweepParamsCB@?A0x3bd6b1b1@@@Z 100abb50 f   GuBV4_AABBSweep.obj
 0001:000ab230       ??$BV4_ProcessStreamKajiyaOrderedQ@$00VLeafFunction_BoxSweepClosest@?A0x3bd6b1b1@@UBoxSweepParams@2@@@YAXPIBU?$BVDataPackedT@VQuantizedAABB@Gu@physx@@@Gu@physx@@IPIAUBoxSweepParams@?A0x3bd6b1b1@@@Z 100ac230 f   GuBV4_AABBSweep.obj
