 PhysXCommon_32

 Timestamp is 624d410a (Wed Apr  6 09:28:10 2022)

 Preferred load address is 10000000

 Start         Length     Name                   Class
 0001:00000000 0000d410H .text$di                CODE
 0001:0000d410 001b3220H .text$mn                CODE
 0001:001c0630 00000193H .text$x                 CODE
 0002:00000000 00000160H .idata$5                DATA
 0002:00000160 00000008H .00cfg                  DATA
 0002:00000168 00000004H .CRT$XCA                DATA
 0002:0000016c 00000a2cH .CRT$XCU                DATA
 0002:00000b98 00000004H .CRT$XCZ                DATA
 0002:00000b9c 00000004H .CRT$XIA                DATA
 0002:00000ba0 0000000cH .CRT$XIC                DATA
 0002:00000bac 00000004H .CRT$XIZ                DATA
 0002:00000bb0 00000004H .CRT$XPA                DATA
 0002:00000bb4 00000008H .CRT$XPX                DATA
 0002:00000bbc 00000004H .CRT$XPXA               DATA
 0002:00000bc0 00000004H .CRT$XPZ                DATA
 0002:00000bc4 00000004H .CRT$XTA                DATA
 0002:00000bc8 00000008H .CRT$XTZ                DATA
 0002:00000bcc 00000000H .gfids$y                DATA
 0002:00000bd0 0002b670H .rdata                  DATA
 0002:0002c240 00000004H .rdata$CastGuardVftablesA DATA
 0002:0002c244 00000004H .rdata$CastGuardVftablesC DATA
 0002:0002c248 000002a0H .rdata$r                DATA
 0002:0002c4e8 00000040H .rdata$sxdata           DATA
 0002:0002c528 0000003cH .rdata$voltmd           DATA
 0002:0002c564 00000468H .rdata$zzzdbg           DATA
 0002:0002c9cc 00000004H .rtc$IAA                DATA
 0002:0002c9d0 00000214H .rtc$IMZ                DATA
 0002:0002cbe4 00000004H .rtc$IZZ                DATA
 0002:0002cbe8 00000004H .rtc$TAA                DATA
 0002:0002cbec 00000214H .rtc$TMZ                DATA
 0002:0002ce00 00000008H .rtc$TZZ                DATA
 0002:0002ce08 00000c6cH .xdata$x                DATA
 0002:0002da74 00000020H .didat$2                DATA
 0002:0002da94 00000020H .didat$3                DATA
 0002:0002dab4 00000060H .didat$4                DATA
 0002:0002db14 00000444H .didat$6                DATA
 0002:0002df58 00000068H .didat$7                DATA
 0002:0002dfc0 00009f5cH .edata                  DATA
 0002:00037f1c 00000014H .idata$2                DATA
 0002:00037f30 00000014H .idata$3                DATA
 0002:00037f44 00000160H .idata$4                DATA
 0002:000380a4 00000668H .idata$6                DATA
 0003:00000000 00000d70H .data                   DATA
 0003:00000d70 00000354H .data$r                 DATA
 0003:000010c4 000000b4H .data$rs                DATA
 0003:00001178 00000068H .didat$5                DATA
 0003:000011e0 000045d4H .bss                    DATA
 0004:00000000 000000a0H .rsrc$01                DATA
 0004:000000a0 000004b0H .rsrc$02                DATA

  Address         Publics by Value              Rva+Base       Lib:Object

 0000:00000000       ___hybrid_auxiliary_iat_copy 00000000     <absolute>
 0000:00000000       __except_list              00000000     <absolute>
 0000:00000000       ___guard_iat_count         00000000     <absolute>
 0000:00000000       ___x64_code_ranges_to_entry_points_count 00000000     <absolute>
 0000:00000000       ___AbsoluteZero            00000000     <absolute>
 0000:00000000       ___guard_eh_cont_table     00000000     <absolute>
 0000:00000000       ___arm64x_extra_rfe_table_size 00000000     <absolute>
 0000:00000000       ___guard_fids_count        00000000     <absolute>
 0000:00000000       ___hybrid_code_map         00000000     <absolute>
 0000:00000000       ___enclave_config          00000000     <absolute>
 0000:00000000       ___guard_iat_table         00000000     <absolute>
 0000:00000000       ___x64_code_ranges_to_entry_points 00000000     <absolute>
 0000:00000000       ___guard_eh_cont_count     00000000     <absolute>
 0000:00000000       ___arm64x_native_entrypoint 00000000     <absolute>
 0000:00000000       ___hybrid_code_map_count   00000000     <absolute>
 0000:00000000       ___guard_fids_table        00000000     <absolute>
 0000:00000000       ___guard_longjmp_table     00000000     <absolute>
 0000:00000000       ___dynamic_value_reloc_table 00000000     <absolute>
 0000:00000000       ___hybrid_auxiliary_iat    00000000     <absolute>
 0000:00000000       ___arm64x_extra_rfe_table  00000000     <absolute>
 0000:00000000       ___arm64x_redirection_metadata_count 00000000     <absolute>
 0000:00000000       ___guard_check_icall_a64n_fptr 00000000     <absolute>
 0000:00000000       ___arm64x_redirection_metadata 00000000     <absolute>
 0000:00000000       ___guard_longjmp_count     00000000     <absolute>
 0000:00000010       ___safe_se_handler_count   00000010     <absolute>
 0000:00000100       ___guard_flags             00000100     <absolute>
 0000:00000000       ___ImageBase               10000000     <linker-defined>
 0001:0000d410       ?PxCreateCollection@@YAPAVPxCollection@physx@@XZ 1000e410 f   CmCollection.obj
 0001:0000d460       ?add@Collection@Cm@physx@@UAEXAAVPxBase@3@_K@Z 1000e460 f   CmCollection.obj
 0001:0000d530       ?remove@Collection@Cm@physx@@UAEXAAVPxBase@3@@Z 1000e530 f   CmCollection.obj
 0001:0000d5e0       ?contains@Collection@Cm@physx@@UBE_NAAVPxBase@3@@Z 1000e5e0 f   CmCollection.obj
 0001:0000d620       ?addId@Collection@Cm@physx@@UAEXAAVPxBase@3@_K@Z 1000e620 f   CmCollection.obj
 0001:0000d780       ?removeId@Collection@Cm@physx@@UAEX_K@Z 1000e780 f   CmCollection.obj
 0001:0000d850       ?find@Collection@Cm@physx@@UBEPAVPxBase@3@_K@Z 1000e850 f   CmCollection.obj
 0001:0000d8c0       ?add@Collection@Cm@physx@@UAEXAAVPxCollection@3@@Z 1000e8c0 f   CmCollection.obj
 0001:0000da60       ?remove@Collection@Cm@physx@@UAEXAAVPxCollection@3@@Z 1000ea60 f   CmCollection.obj
 0001:0000db20       ?getNbObjects@Collection@Cm@physx@@UBEIXZ 1000eb20 f   CmCollection.obj
 0001:0000db40       ?getObject@Collection@Cm@physx@@UBEAAVPxBase@3@I@Z 1000eb40 f   CmCollection.obj
 0001:0000dbb0       ?getObjects@Collection@Cm@physx@@UBEIPAPAVPxBase@3@II@Z 1000ebb0 f   CmCollection.obj
 0001:0000dc90       ?getNbIds@Collection@Cm@physx@@UBEIXZ 1000ec90 f   CmCollection.obj
 0001:0000dcb0       ?getId@Collection@Cm@physx@@UBE_KABVPxBase@3@@Z 1000ecb0 f   CmCollection.obj
 0001:0000dd00       ?getIds@Collection@Cm@physx@@UBEIPA_KII@Z 1000ed00 f   CmCollection.obj
 0001:0000de10       ??$?2V?$ReflectionAllocator@VCollection@Cm@physx@@@shdfnd@physx@@@UserAllocated@shdfnd@physx@@SAPAXIV?$ReflectionAllocator@VCollection@Cm@physx@@@12@PBDH@Z 1000ee10 f i CmCollection.obj
 0001:0000de30       ??0?$CoalescedHashMap@PAVPxBase@physx@@_KU?$Hash@PAVPxBase@physx@@@shdfnd@2@VNonTrackingAllocator@42@@shdfnd@physx@@QAE@IM@Z 1000ee30 f i CmCollection.obj
 0001:0000de60       ??0?$CoalescedHashMap@_KPAVPxBase@physx@@U?$Hash@_K@shdfnd@2@VNonTrackingAllocator@42@@shdfnd@physx@@QAE@IM@Z 1000ee60 f i CmCollection.obj
 0001:0000de90       ??0?$CollectionHashMap@PAVPxBase@physx@@_KU?$Hash@PAVPxBase@physx@@@shdfnd@2@VNonTrackingAllocator@42@@Cm@physx@@QAE@IM@Z 1000ee90 f i CmCollection.obj
 0001:0000dec0       ??0?$CollectionHashMap@_KPAVPxBase@physx@@U?$Hash@_K@shdfnd@2@VNonTrackingAllocator@42@@Cm@physx@@QAE@IM@Z 1000eec0 f i CmCollection.obj
 0001:0000def0       ??0?$HashBase@V?$Pair@$$CB_KPAVPxBase@physx@@@shdfnd@physx@@_KU?$Hash@_K@23@UGetKey@?$HashMapBase@_KPAVPxBase@physx@@U?$Hash@_K@shdfnd@2@VNonTrackingAllocator@42@@internal@23@VNonTrackingAllocator@23@$00@internal@shdfnd@physx@@QAE@IM@Z 1000eef0 f i CmCollection.obj
 0001:0000df30       ??0?$HashBase@V?$Pair@QAVPxBase@physx@@_K@shdfnd@physx@@PAVPxBase@3@U?$Hash@PAVPxBase@physx@@@23@UGetKey@?$HashMapBase@PAVPxBase@physx@@_KU?$Hash@PAVPxBase@physx@@@shdfnd@2@VNonTrackingAllocator@42@@internal@23@VNonTrackingAllocator@23@$00@internal@shdfnd@physx@@QAE@IM@Z 1000ef30 f i CmCollection.obj
 0001:0000df70       ??0?$HashMapBase@PAVPxBase@physx@@_KU?$Hash@PAVPxBase@physx@@@shdfnd@2@VNonTrackingAllocator@42@@internal@shdfnd@physx@@QAE@IM@Z 1000ef70 f i CmCollection.obj
 0001:0000dfa0       ??0?$HashMapBase@_KPAVPxBase@physx@@U?$Hash@_K@shdfnd@2@VNonTrackingAllocator@42@@internal@shdfnd@physx@@QAE@IM@Z 1000efa0 f i CmCollection.obj
 0001:0000dfd0       ??0?$Pair@$$CB_KPAVPxBase@physx@@@shdfnd@physx@@QAE@ABV012@@Z 1000efd0 f i CmCollection.obj
 0001:0000e000       ??0?$Pair@$$CB_KPAVPxBase@physx@@@shdfnd@physx@@QAE@AB_KABQAVPxBase@2@@Z 1000f000 f i CmCollection.obj
 0001:0000e030       ??0?$Pair@QAVPxBase@physx@@_K@shdfnd@physx@@QAE@ABQAVPxBase@2@AB_K@Z 1000f030 f i CmCollection.obj
 0001:0000e060       ??0?$Pair@QAVPxBase@physx@@_K@shdfnd@physx@@QAE@ABV012@@Z 1000f060 f i CmCollection.obj
 0001:0000e090       ??0?$ReflectionAllocator@VCollection@Cm@physx@@@shdfnd@physx@@QAE@PBD@Z 1000f090 f i CmCollection.obj
 0001:0000e0a0       ??0Collection@Cm@physx@@QAE@XZ 1000f0a0 f i CmCollection.obj
 0001:0000e100       ??0Iter@?$HashBase@V?$Pair@$$CB_KPAVPxBase@physx@@@shdfnd@physx@@_KU?$Hash@_K@23@UGetKey@?$HashMapBase@_KPAVPxBase@physx@@U?$Hash@_K@shdfnd@2@VNonTrackingAllocator@42@@internal@23@VNonTrackingAllocator@23@$00@internal@shdfnd@physx@@QAE@AAV1234@@Z 1000f100 f i CmCollection.obj
 0001:0000e170       ??0NonTrackingAllocator@shdfnd@physx@@QAE@PBD@Z 1000f170 f i CmCollection.obj
 0001:0000e180       ??0PxCollection@physx@@IAE@XZ 1000f180 f i CmCollection.obj
 0001:0000e1a0       ??1?$CoalescedHashMap@PAVPxBase@physx@@_KU?$Hash@PAVPxBase@physx@@@shdfnd@2@VNonTrackingAllocator@42@@shdfnd@physx@@QAE@XZ 1000f1a0 f i CmCollection.obj
 0001:0000e1c0       ??1?$CoalescedHashMap@_KPAVPxBase@physx@@U?$Hash@_K@shdfnd@2@VNonTrackingAllocator@42@@shdfnd@physx@@QAE@XZ 1000f1c0 f i CmCollection.obj
 0001:0000e1e0       ??1?$CollectionHashMap@PAVPxBase@physx@@_KU?$Hash@PAVPxBase@physx@@@shdfnd@2@VNonTrackingAllocator@42@@Cm@physx@@QAE@XZ 1000f1e0 f i CmCollection.obj
 0001:0000e200       ??1?$CollectionHashMap@_KPAVPxBase@physx@@U?$Hash@_K@shdfnd@2@VNonTrackingAllocator@42@@Cm@physx@@QAE@XZ 1000f200 f i CmCollection.obj
 0001:0000e220       ??1?$HashBase@V?$Pair@$$CB_KPAVPxBase@physx@@@shdfnd@physx@@_KU?$Hash@_K@23@UGetKey@?$HashMapBase@_KPAVPxBase@physx@@U?$Hash@_K@shdfnd@2@VNonTrackingAllocator@42@@internal@23@VNonTrackingAllocator@23@$00@internal@shdfnd@physx@@QAE@XZ 1000f220 f i CmCollection.obj
 0001:0000e250       ??1?$HashBase@V?$Pair@QAVPxBase@physx@@_K@shdfnd@physx@@PAVPxBase@3@U?$Hash@PAVPxBase@physx@@@23@UGetKey@?$HashMapBase@PAVPxBase@physx@@_KU?$Hash@PAVPxBase@physx@@@shdfnd@2@VNonTrackingAllocator@42@@internal@23@VNonTrackingAllocator@23@$00@internal@shdfnd@physx@@QAE@XZ 1000f250 f i CmCollection.obj
 0001:0000e280       ??1?$HashMapBase@PAVPxBase@physx@@_KU?$Hash@PAVPxBase@physx@@@shdfnd@2@VNonTrackingAllocator@42@@internal@shdfnd@physx@@QAE@XZ 1000f280 f i CmCollection.obj
 0001:0000e2a0       ??1?$HashMapBase@_KPAVPxBase@physx@@U?$Hash@_K@shdfnd@2@VNonTrackingAllocator@42@@internal@shdfnd@physx@@QAE@XZ 1000f2a0 f i CmCollection.obj
 0001:0000e2c0       ??1Collection@Cm@physx@@UAE@XZ 1000f2c0 f i CmCollection.obj
 0001:0000e2f0       ??1PxCollection@physx@@MAE@XZ 1000f2f0 f i CmCollection.obj
 0001:0000e310       ??2@YAPAXIPAX@Z            1000f310 f i CmCollection.obj
 0001:0000e320       ??3UserAllocated@shdfnd@physx@@SAXPAX@Z 1000f320 f i CmCollection.obj
 0001:0000e340       ??A?$HashMapBase@PAVPxBase@physx@@_KU?$Hash@PAVPxBase@physx@@@shdfnd@2@VNonTrackingAllocator@42@@internal@shdfnd@physx@@QAEAA_KABQAVPxBase@3@@Z 1000f340 f i CmCollection.obj
 0001:0000e3a0       ??A?$HashMapBase@_KPAVPxBase@physx@@U?$Hash@_K@shdfnd@2@VNonTrackingAllocator@42@@internal@shdfnd@physx@@QAEAAPAVPxBase@3@AB_K@Z 1000f3a0 f i CmCollection.obj
 0001:0000e400       ??CIter@?$HashBase@V?$Pair@$$CB_KPAVPxBase@physx@@@shdfnd@physx@@_KU?$Hash@_K@23@UGetKey@?$HashMapBase@_KPAVPxBase@physx@@U?$Hash@_K@shdfnd@2@VNonTrackingAllocator@42@@internal@23@VNonTrackingAllocator@23@$00@internal@shdfnd@physx@@QAEPAV?$Pair@$$CB_KPAVPxBase@physx@@@34@XZ 1000f400 f i CmCollection.obj
 0001:0000e430       ??EIter@?$HashBase@V?$Pair@$$CB_KPAVPxBase@physx@@@shdfnd@physx@@_KU?$Hash@_K@23@UGetKey@?$HashMapBase@_KPAVPxBase@physx@@U?$Hash@_K@shdfnd@2@VNonTrackingAllocator@42@@internal@23@VNonTrackingAllocator@23@$00@internal@shdfnd@physx@@QAE?AV01234@H@Z 1000f430 f i CmCollection.obj
 0001:0000e490       ??R?$Hash@PAVPxBase@physx@@@shdfnd@physx@@QBEIABQAVPxBase@2@@Z 1000f490 f i CmCollection.obj
 0001:0000e4b0       ??R?$Hash@_K@shdfnd@physx@@QBEIAB_K@Z 1000f4b0 f i CmCollection.obj
 0001:0000e4d0       ??RGetKey@?$HashMapBase@PAVPxBase@physx@@_KU?$Hash@PAVPxBase@physx@@@shdfnd@2@VNonTrackingAllocator@42@@internal@shdfnd@physx@@QAEABQAVPxBase@4@ABV?$Pair@QAVPxBase@physx@@_K@34@@Z 1000f4d0 f i CmCollection.obj
 0001:0000e4e0       ??RGetKey@?$HashMapBase@_KPAVPxBase@physx@@U?$Hash@_K@shdfnd@2@VNonTrackingAllocator@42@@internal@shdfnd@physx@@QAEAB_KABV?$Pair@$$CB_KPAVPxBase@physx@@@34@@Z 1000f4e0 f i CmCollection.obj
 0001:0000e4f0       ??_GCollection@Cm@physx@@UAEPAXI@Z 1000f4f0 f i CmCollection.obj
 0001:0000e4f0       ??_ECollection@Cm@physx@@UAEPAXI@Z 1000f4f0 f i CmCollection.obj
 0001:0000e540       ??_EPxCollection@physx@@MAEPAXI@Z 1000f540 f i CmCollection.obj
 0001:0000e540       ??_GPxCollection@physx@@MAEPAXI@Z 1000f540 f i CmCollection.obj
 0001:0000e570       ?__empty_global_delete@@YAXPAX@Z 1000f570 f i CmCollection.obj
 0001:0000e580       ?__empty_global_delete@@YAXPAXI@Z 1000f580 f i CmCollection.obj
 0001:0000e590       ?advance@Iter@?$HashBase@V?$Pair@$$CB_KPAVPxBase@physx@@@shdfnd@physx@@_KU?$Hash@_K@23@UGetKey@?$HashMapBase@_KPAVPxBase@physx@@U?$Hash@_K@shdfnd@2@VNonTrackingAllocator@42@@internal@23@VNonTrackingAllocator@23@$00@internal@shdfnd@physx@@AAEXXZ 1000f590 f i CmCollection.obj
 0001:0000e5c0       ?allocate@?$ReflectionAllocator@VCollection@Cm@physx@@@shdfnd@physx@@QAEPAXIPBDH@Z 1000f5c0 f i CmCollection.obj
 0001:0000e610       ?allocate@NonTrackingAllocator@shdfnd@physx@@QAEPAXIPBDH@Z 1000f610 f i CmCollection.obj
 0001:0000e660       ?capacity@?$HashBase@V?$Pair@QAVPxBase@physx@@_K@shdfnd@physx@@PAVPxBase@3@U?$Hash@PAVPxBase@physx@@@23@UGetKey@?$HashMapBase@PAVPxBase@physx@@_KU?$Hash@PAVPxBase@physx@@@shdfnd@2@VNonTrackingAllocator@42@@internal@23@VNonTrackingAllocator@23@$00@internal@shdfnd@physx@@QBEIXZ 1000f660 f i CmCollection.obj
 0001:0000e680       ?capacity@?$HashMapBase@PAVPxBase@physx@@_KU?$Hash@PAVPxBase@physx@@@shdfnd@2@VNonTrackingAllocator@42@@internal@shdfnd@physx@@QBEIXZ 1000f680 f i CmCollection.obj
 0001:0000e6a0       ?check@Iter@?$HashBase@V?$Pair@$$CB_KPAVPxBase@physx@@@shdfnd@physx@@_KU?$Hash@_K@23@UGetKey@?$HashMapBase@_KPAVPxBase@physx@@U?$Hash@_K@shdfnd@2@VNonTrackingAllocator@42@@internal@23@VNonTrackingAllocator@23@$00@internal@shdfnd@physx@@QBEXXZ 1000f6a0 f i CmCollection.obj
 0001:0000e700       ?create@?$HashBase@V?$Pair@$$CB_KPAVPxBase@physx@@@shdfnd@physx@@_KU?$Hash@_K@23@UGetKey@?$HashMapBase@_KPAVPxBase@physx@@U?$Hash@_K@shdfnd@2@VNonTrackingAllocator@42@@internal@23@VNonTrackingAllocator@23@$00@internal@shdfnd@physx@@QAEPAV?$Pair@$$CB_KPAVPxBase@physx@@@34@AB_KAA_N@Z 1000f700 f i CmCollection.obj
 0001:0000e850       ?create@?$HashBase@V?$Pair@QAVPxBase@physx@@_K@shdfnd@physx@@PAVPxBase@3@U?$Hash@PAVPxBase@physx@@@23@UGetKey@?$HashMapBase@PAVPxBase@physx@@_KU?$Hash@PAVPxBase@physx@@@shdfnd@2@VNonTrackingAllocator@42@@internal@23@VNonTrackingAllocator@23@$00@internal@shdfnd@physx@@QAEPAV?$Pair@QAVPxBase@physx@@_K@34@ABQAVPxBase@4@AA_N@Z 1000f850 f i CmCollection.obj
 0001:0000e9a0       ?deallocate@NonTrackingAllocator@shdfnd@physx@@QAEXPAX@Z 1000f9a0 f i CmCollection.obj
 0001:0000e9d0       ?destroy@?$HashBase@V?$Pair@$$CB_KPAVPxBase@physx@@@shdfnd@physx@@_KU?$Hash@_K@23@UGetKey@?$HashMapBase@_KPAVPxBase@physx@@U?$Hash@_K@shdfnd@2@VNonTrackingAllocator@42@@internal@23@VNonTrackingAllocator@23@$00@internal@shdfnd@physx@@AAEXXZ 1000f9d0 f i CmCollection.obj
 0001:0000ea30       ?destroy@?$HashBase@V?$Pair@QAVPxBase@physx@@_K@shdfnd@physx@@PAVPxBase@3@U?$Hash@PAVPxBase@physx@@@23@UGetKey@?$HashMapBase@PAVPxBase@physx@@_KU?$Hash@PAVPxBase@physx@@@shdfnd@2@VNonTrackingAllocator@42@@internal@23@VNonTrackingAllocator@23@$00@internal@shdfnd@physx@@AAEXXZ 1000fa30 f i CmCollection.obj
 0001:0000ea90       ?done@Iter@?$HashBase@V?$Pair@$$CB_KPAVPxBase@physx@@@shdfnd@physx@@_KU?$Hash@_K@23@UGetKey@?$HashMapBase@_KPAVPxBase@physx@@U?$Hash@_K@shdfnd@2@VNonTrackingAllocator@42@@internal@23@VNonTrackingAllocator@23@$00@internal@shdfnd@physx@@QBE_NXZ 1000fa90 f i CmCollection.obj
 0001:0000ead0       ?equal@?$Hash@PAVPxBase@physx@@@shdfnd@physx@@QBE_NABQAVPxBase@3@0@Z 1000fad0 f i CmCollection.obj
 0001:0000eb00       ?equal@?$Hash@_K@shdfnd@physx@@QBE_NAB_K0@Z 1000fb00 f i CmCollection.obj
 0001:0000eb50       ?erase@?$HashBase@V?$Pair@$$CB_KPAVPxBase@physx@@@shdfnd@physx@@_KU?$Hash@_K@23@UGetKey@?$HashMapBase@_KPAVPxBase@physx@@U?$Hash@_K@shdfnd@2@VNonTrackingAllocator@42@@internal@23@VNonTrackingAllocator@23@$00@internal@shdfnd@physx@@QAE_NAB_K@Z 1000fb50 f i CmCollection.obj
 0001:0000ebf0       ?erase@?$HashBase@V?$Pair@QAVPxBase@physx@@_K@shdfnd@physx@@PAVPxBase@3@U?$Hash@PAVPxBase@physx@@@23@UGetKey@?$HashMapBase@PAVPxBase@physx@@_KU?$Hash@PAVPxBase@physx@@@shdfnd@2@VNonTrackingAllocator@42@@internal@23@VNonTrackingAllocator@23@$00@internal@shdfnd@physx@@QAE_NABQAVPxBase@4@@Z 1000fbf0 f i CmCollection.obj
 0001:0000ec90       ?erase@?$HashMapBase@PAVPxBase@physx@@_KU?$Hash@PAVPxBase@physx@@@shdfnd@2@VNonTrackingAllocator@42@@internal@shdfnd@physx@@QAE_NABQAVPxBase@4@@Z 1000fc90 f i CmCollection.obj
 0001:0000ecb0       ?erase@?$HashMapBase@_KPAVPxBase@physx@@U?$Hash@_K@shdfnd@2@VNonTrackingAllocator@42@@internal@shdfnd@physx@@QAE_NAB_K@Z 1000fcb0 f i CmCollection.obj
 0001:0000ecd0       ?eraseInternal@?$HashBase@V?$Pair@$$CB_KPAVPxBase@physx@@@shdfnd@physx@@_KU?$Hash@_K@23@UGetKey@?$HashMapBase@_KPAVPxBase@physx@@U?$Hash@_K@shdfnd@2@VNonTrackingAllocator@42@@internal@23@VNonTrackingAllocator@23@$00@internal@shdfnd@physx@@AAE_NPAI@Z 1000fcd0 f i CmCollection.obj
 0001:0000ed50       ?eraseInternal@?$HashBase@V?$Pair@QAVPxBase@physx@@_K@shdfnd@physx@@PAVPxBase@3@U?$Hash@PAVPxBase@physx@@@23@UGetKey@?$HashMapBase@PAVPxBase@physx@@_KU?$Hash@PAVPxBase@physx@@@shdfnd@2@VNonTrackingAllocator@42@@internal@23@VNonTrackingAllocator@23@$00@internal@shdfnd@physx@@AAE_NPAI@Z 1000fd50 f i CmCollection.obj
 0001:0000edd0       ?find@?$HashBase@V?$Pair@$$CB_KPAVPxBase@physx@@@shdfnd@physx@@_KU?$Hash@_K@23@UGetKey@?$HashMapBase@_KPAVPxBase@physx@@U?$Hash@_K@shdfnd@2@VNonTrackingAllocator@42@@internal@23@VNonTrackingAllocator@23@$00@internal@shdfnd@physx@@QBEPBV?$Pair@$$CB_KPAVPxBase@physx@@@34@AB_K@Z 1000fdd0 f i CmCollection.obj
 0001:0000ee70       ?find@?$HashBase@V?$Pair@QAVPxBase@physx@@_K@shdfnd@physx@@PAVPxBase@3@U?$Hash@PAVPxBase@physx@@@23@UGetKey@?$HashMapBase@PAVPxBase@physx@@_KU?$Hash@PAVPxBase@physx@@@shdfnd@2@VNonTrackingAllocator@42@@internal@23@VNonTrackingAllocator@23@$00@internal@shdfnd@physx@@QBEPBV?$Pair@QAVPxBase@physx@@_K@34@ABQAVPxBase@4@@Z 1000fe70 f i CmCollection.obj
 0001:0000ef10       ?find@?$HashMapBase@PAVPxBase@physx@@_KU?$Hash@PAVPxBase@physx@@@shdfnd@2@VNonTrackingAllocator@42@@internal@shdfnd@physx@@QBEPBV?$Pair@QAVPxBase@physx@@_K@34@ABQAVPxBase@4@@Z 1000ff10 f i CmCollection.obj
 0001:0000ef30       ?find@?$HashMapBase@_KPAVPxBase@physx@@U?$Hash@_K@shdfnd@2@VNonTrackingAllocator@42@@internal@shdfnd@physx@@QBEPBV?$Pair@$$CB_KPAVPxBase@physx@@@34@AB_K@Z 1000ff30 f i CmCollection.obj
 0001:0000ef50       ?freeListAdd@?$HashBase@V?$Pair@$$CB_KPAVPxBase@physx@@@shdfnd@physx@@_KU?$Hash@_K@23@UGetKey@?$HashMapBase@_KPAVPxBase@physx@@U?$Hash@_K@shdfnd@2@VNonTrackingAllocator@42@@internal@23@VNonTrackingAllocator@23@$00@internal@shdfnd@physx@@AAEXI@Z 1000ff50 f i CmCollection.obj
 0001:0000efe0       ?freeListAdd@?$HashBase@V?$Pair@$$CB_KPAVPxBase@physx@@@shdfnd@physx@@_KU?$Hash@_K@23@UGetKey@?$HashMapBase@_KPAVPxBase@physx@@U?$Hash@_K@shdfnd@2@VNonTrackingAllocator@42@@internal@23@VNonTrackingAllocator@23@$00@internal@shdfnd@physx@@AAEXII@Z 1000ffe0 f i CmCollection.obj
 0001:0000f0a0       ?freeListAdd@?$HashBase@V?$Pair@QAVPxBase@physx@@_K@shdfnd@physx@@PAVPxBase@3@U?$Hash@PAVPxBase@physx@@@23@UGetKey@?$HashMapBase@PAVPxBase@physx@@_KU?$Hash@PAVPxBase@physx@@@shdfnd@2@VNonTrackingAllocator@42@@internal@23@VNonTrackingAllocator@23@$00@internal@shdfnd@physx@@AAEXI@Z 100100a0 f i CmCollection.obj
 0001:0000f130       ?freeListAdd@?$HashBase@V?$Pair@QAVPxBase@physx@@_K@shdfnd@physx@@PAVPxBase@3@U?$Hash@PAVPxBase@physx@@@23@UGetKey@?$HashMapBase@PAVPxBase@physx@@_KU?$Hash@PAVPxBase@physx@@@shdfnd@2@VNonTrackingAllocator@42@@internal@23@VNonTrackingAllocator@23@$00@internal@shdfnd@physx@@AAEXII@Z 10010130 f i CmCollection.obj
 0001:0000f1f0       ?freeListEmpty@?$HashBase@V?$Pair@$$CB_KPAVPxBase@physx@@@shdfnd@physx@@_KU?$Hash@_K@23@UGetKey@?$HashMapBase@_KPAVPxBase@physx@@U?$Hash@_K@shdfnd@2@VNonTrackingAllocator@42@@internal@23@VNonTrackingAllocator@23@$00@internal@shdfnd@physx@@ABE_NXZ 100101f0 f i CmCollection.obj
 0001:0000f250       ?freeListEmpty@?$HashBase@V?$Pair@QAVPxBase@physx@@_K@shdfnd@physx@@PAVPxBase@3@U?$Hash@PAVPxBase@physx@@@23@UGetKey@?$HashMapBase@PAVPxBase@physx@@_KU?$Hash@PAVPxBase@physx@@@shdfnd@2@VNonTrackingAllocator@42@@internal@23@VNonTrackingAllocator@23@$00@internal@shdfnd@physx@@ABE_NXZ 10010250 f i CmCollection.obj
 0001:0000f2b0       ?freeListGetNext@?$HashBase@V?$Pair@$$CB_KPAVPxBase@physx@@@shdfnd@physx@@_KU?$Hash@_K@23@UGetKey@?$HashMapBase@_KPAVPxBase@physx@@U?$Hash@_K@shdfnd@2@VNonTrackingAllocator@42@@internal@23@VNonTrackingAllocator@23@$00@internal@shdfnd@physx@@AAEIXZ 100102b0 f i CmCollection.obj
 0001:0000f390       ?freeListGetNext@?$HashBase@V?$Pair@QAVPxBase@physx@@_K@shdfnd@physx@@PAVPxBase@3@U?$Hash@PAVPxBase@physx@@@23@UGetKey@?$HashMapBase@PAVPxBase@physx@@_KU?$Hash@PAVPxBase@physx@@@shdfnd@2@VNonTrackingAllocator@42@@internal@23@VNonTrackingAllocator@23@$00@internal@shdfnd@physx@@AAEIXZ 10010390 f i CmCollection.obj
 0001:0000f470       ?getEntries@?$CoalescedHashMap@PAVPxBase@physx@@_KU?$Hash@PAVPxBase@physx@@@shdfnd@2@VNonTrackingAllocator@42@@shdfnd@physx@@QBEPBV?$Pair@QAVPxBase@physx@@_K@23@XZ 10010470 f i CmCollection.obj
 0001:0000f490       ?getEntries@?$HashBase@V?$Pair@QAVPxBase@physx@@_K@shdfnd@physx@@PAVPxBase@3@U?$Hash@PAVPxBase@physx@@@23@UGetKey@?$HashMapBase@PAVPxBase@physx@@_KU?$Hash@PAVPxBase@physx@@@shdfnd@2@VNonTrackingAllocator@42@@internal@23@VNonTrackingAllocator@23@$00@internal@shdfnd@physx@@QBEPBV?$Pair@QAVPxBase@physx@@_K@34@XZ 10010490 f i CmCollection.obj
 0001:0000f4b0       ?getFoundation@shdfnd@physx@@YAAAVFoundation@12@XZ 100104b0 f i CmCollection.obj
 0001:0000f4c0       ?getIterator@?$HashMapBase@_KPAVPxBase@physx@@U?$Hash@_K@shdfnd@2@VNonTrackingAllocator@42@@internal@shdfnd@physx@@QAE?AVIter@?$HashBase@V?$Pair@$$CB_KPAVPxBase@physx@@@shdfnd@physx@@_KU?$Hash@_K@23@UGetKey@?$HashMapBase@_KPAVPxBase@physx@@U?$Hash@_K@shdfnd@2@VNonTrackingAllocator@42@@internal@23@VNonTrackingAllocator@23@$00@234@XZ 100104c0 f i CmCollection.obj
 0001:0000f4e0       ?getName@?$ReflectionAllocator@VCollection@Cm@physx@@@shdfnd@physx@@CAPBDXZ 100104e0 f i CmCollection.obj
 0001:0000f520       ?grow@?$HashBase@V?$Pair@$$CB_KPAVPxBase@physx@@@shdfnd@physx@@_KU?$Hash@_K@23@UGetKey@?$HashMapBase@_KPAVPxBase@physx@@U?$Hash@_K@shdfnd@2@VNonTrackingAllocator@42@@internal@23@VNonTrackingAllocator@23@$00@internal@shdfnd@physx@@AAEXXZ 10010520 f i CmCollection.obj
 0001:0000f5c0       ?grow@?$HashBase@V?$Pair@QAVPxBase@physx@@_K@shdfnd@physx@@PAVPxBase@3@U?$Hash@PAVPxBase@physx@@@23@UGetKey@?$HashMapBase@PAVPxBase@physx@@_KU?$Hash@PAVPxBase@physx@@@shdfnd@2@VNonTrackingAllocator@42@@internal@23@VNonTrackingAllocator@23@$00@internal@shdfnd@physx@@AAEXXZ 100105c0 f i CmCollection.obj
 0001:0000f660       ?hash@?$HashBase@V?$Pair@$$CB_KPAVPxBase@physx@@@shdfnd@physx@@_KU?$Hash@_K@23@UGetKey@?$HashMapBase@_KPAVPxBase@physx@@U?$Hash@_K@shdfnd@2@VNonTrackingAllocator@42@@internal@23@VNonTrackingAllocator@23@$00@internal@shdfnd@physx@@ABEIAB_K@Z 10010660 f i CmCollection.obj
 0001:0000f680       ?hash@?$HashBase@V?$Pair@$$CB_KPAVPxBase@physx@@@shdfnd@physx@@_KU?$Hash@_K@23@UGetKey@?$HashMapBase@_KPAVPxBase@physx@@U?$Hash@_K@shdfnd@2@VNonTrackingAllocator@42@@internal@23@VNonTrackingAllocator@23@$00@internal@shdfnd@physx@@ABEIAB_KI@Z 10010680 f i CmCollection.obj
 0001:0000f6b0       ?hash@?$HashBase@V?$Pair@QAVPxBase@physx@@_K@shdfnd@physx@@PAVPxBase@3@U?$Hash@PAVPxBase@physx@@@23@UGetKey@?$HashMapBase@PAVPxBase@physx@@_KU?$Hash@PAVPxBase@physx@@@shdfnd@2@VNonTrackingAllocator@42@@internal@23@VNonTrackingAllocator@23@$00@internal@shdfnd@physx@@ABEIABQAVPxBase@4@@Z 100106b0 f i CmCollection.obj
 0001:0000f6d0       ?hash@?$HashBase@V?$Pair@QAVPxBase@physx@@_K@shdfnd@physx@@PAVPxBase@3@U?$Hash@PAVPxBase@physx@@@23@UGetKey@?$HashMapBase@PAVPxBase@physx@@_KU?$Hash@PAVPxBase@physx@@@shdfnd@2@VNonTrackingAllocator@42@@internal@23@VNonTrackingAllocator@23@$00@internal@shdfnd@physx@@ABEIABQAVPxBase@4@I@Z 100106d0 f i CmCollection.obj
 0001:0000f700       ?hash@shdfnd@physx@@YAII@Z 10010700 f i CmCollection.obj
 0001:0000f760       ?hash@shdfnd@physx@@YAIPBX@Z 10010760 f i CmCollection.obj
 0001:0000f780       ?hash@shdfnd@physx@@YAI_K@Z 10010780 f i CmCollection.obj
 0001:0000f870       ?init@?$HashBase@V?$Pair@$$CB_KPAVPxBase@physx@@@shdfnd@physx@@_KU?$Hash@_K@23@UGetKey@?$HashMapBase@_KPAVPxBase@physx@@U?$Hash@_K@shdfnd@2@VNonTrackingAllocator@42@@internal@23@VNonTrackingAllocator@23@$00@internal@shdfnd@physx@@AAEXIM@Z 10010870 f i CmCollection.obj
 0001:0000f900       ?init@?$HashBase@V?$Pair@QAVPxBase@physx@@_K@shdfnd@physx@@PAVPxBase@3@U?$Hash@PAVPxBase@physx@@@23@UGetKey@?$HashMapBase@PAVPxBase@physx@@_KU?$Hash@PAVPxBase@physx@@@shdfnd@2@VNonTrackingAllocator@42@@internal@23@VNonTrackingAllocator@23@$00@internal@shdfnd@physx@@AAEXIM@Z 10010900 f i CmCollection.obj
 0001:0000f990       ?insert@?$HashMapBase@PAVPxBase@physx@@_KU?$Hash@PAVPxBase@physx@@@shdfnd@2@VNonTrackingAllocator@42@@internal@shdfnd@physx@@QAE_NQAVPxBase@4@_K@Z 10010990 f i CmCollection.obj
 0001:0000fa00       ?insert@?$HashMapBase@_KPAVPxBase@physx@@U?$Hash@_K@shdfnd@2@VNonTrackingAllocator@42@@internal@shdfnd@physx@@QAE_N_KQAVPxBase@4@@Z 10010a00 f i CmCollection.obj
 0001:0000fa70       ?isPowerOfTwo@shdfnd@physx@@YA_NI@Z 10010a70 f i CmCollection.obj
 0001:0000faa0       ?memCopy@intrinsics@physx@@YAPAXPAXPBXI@Z 10010aa0 f i CmCollection.obj
 0001:0000fac0       ?memSet@intrinsics@physx@@YAPAXPAXHI@Z 10010ac0 f i CmCollection.obj
 0001:0000fae0       ?name@type_info@@QBEPBDXZ  10010ae0 f i CmCollection.obj
 0001:0000fb00       ?nextPowerOfTwo@shdfnd@physx@@YAII@Z 10010b00 f i CmCollection.obj
 0001:0000fb50       ?release@Collection@Cm@physx@@UAEXXZ 10010b50 f i CmCollection.obj
 0001:0000fb90       ?replaceWithLast@?$HashBase@V?$Pair@$$CB_KPAVPxBase@physx@@@shdfnd@physx@@_KU?$Hash@_K@23@UGetKey@?$HashMapBase@_KPAVPxBase@physx@@U?$Hash@_K@shdfnd@2@VNonTrackingAllocator@42@@internal@23@VNonTrackingAllocator@23@$00@internal@shdfnd@physx@@AAEXI@Z 10010b90 f i CmCollection.obj
 0001:0000fc90       ?replaceWithLast@?$HashBase@V?$Pair@QAVPxBase@physx@@_K@shdfnd@physx@@PAVPxBase@3@U?$Hash@PAVPxBase@physx@@@23@UGetKey@?$HashMapBase@PAVPxBase@physx@@_KU?$Hash@PAVPxBase@physx@@@shdfnd@2@VNonTrackingAllocator@42@@internal@23@VNonTrackingAllocator@23@$00@internal@shdfnd@physx@@AAEXI@Z 10010c90 f i CmCollection.obj
 0001:0000fd90       ?reserve@?$HashBase@V?$Pair@$$CB_KPAVPxBase@physx@@@shdfnd@physx@@_KU?$Hash@_K@23@UGetKey@?$HashMapBase@_KPAVPxBase@physx@@U?$Hash@_K@shdfnd@2@VNonTrackingAllocator@42@@internal@23@VNonTrackingAllocator@23@$00@internal@shdfnd@physx@@QAEXI@Z 10010d90 f i CmCollection.obj
 0001:0000fdc0       ?reserve@?$HashBase@V?$Pair@QAVPxBase@physx@@_K@shdfnd@physx@@PAVPxBase@3@U?$Hash@PAVPxBase@physx@@@23@UGetKey@?$HashMapBase@PAVPxBase@physx@@_KU?$Hash@PAVPxBase@physx@@@shdfnd@2@VNonTrackingAllocator@42@@internal@23@VNonTrackingAllocator@23@$00@internal@shdfnd@physx@@QAEXI@Z 10010dc0 f i CmCollection.obj
 0001:0000fdf0       ?reserve@?$HashMapBase@PAVPxBase@physx@@_KU?$Hash@PAVPxBase@physx@@@shdfnd@2@VNonTrackingAllocator@42@@internal@shdfnd@physx@@QAEXI@Z 10010df0 f i CmCollection.obj
 0001:0000fe10       ?reserveInternal@?$HashBase@V?$Pair@$$CB_KPAVPxBase@physx@@@shdfnd@physx@@_KU?$Hash@_K@23@UGetKey@?$HashMapBase@_KPAVPxBase@physx@@U?$Hash@_K@shdfnd@2@VNonTrackingAllocator@42@@internal@23@VNonTrackingAllocator@23@$00@internal@shdfnd@physx@@AAEXI@Z 10010e10 f i CmCollection.obj
 0001:000101b0       ?reserveInternal@?$HashBase@V?$Pair@QAVPxBase@physx@@_K@shdfnd@physx@@PAVPxBase@3@U?$Hash@PAVPxBase@physx@@@23@UGetKey@?$HashMapBase@PAVPxBase@physx@@_KU?$Hash@PAVPxBase@physx@@@shdfnd@2@VNonTrackingAllocator@42@@internal@23@VNonTrackingAllocator@23@$00@internal@shdfnd@physx@@AAEXI@Z 100111b0 f i CmCollection.obj
 0001:00010550       ?size@?$HashBase@V?$Pair@$$CB_KPAVPxBase@physx@@@shdfnd@physx@@_KU?$Hash@_K@23@UGetKey@?$HashMapBase@_KPAVPxBase@physx@@U?$Hash@_K@shdfnd@2@VNonTrackingAllocator@42@@internal@23@VNonTrackingAllocator@23@$00@internal@shdfnd@physx@@QBEIXZ 10011550 f i CmCollection.obj
 0001:00010570       ?size@?$HashBase@V?$Pair@QAVPxBase@physx@@_K@shdfnd@physx@@PAVPxBase@3@U?$Hash@PAVPxBase@physx@@@23@UGetKey@?$HashMapBase@PAVPxBase@physx@@_KU?$Hash@PAVPxBase@physx@@@shdfnd@2@VNonTrackingAllocator@42@@internal@23@VNonTrackingAllocator@23@$00@internal@shdfnd@physx@@QBEIXZ 10011570 f i CmCollection.obj
 0001:00010590       ?size@?$HashMapBase@PAVPxBase@physx@@_KU?$Hash@PAVPxBase@physx@@@shdfnd@2@VNonTrackingAllocator@42@@internal@shdfnd@physx@@QBEIXZ 10011590 f i CmCollection.obj
 0001:000105b0       ?size@?$HashMapBase@_KPAVPxBase@physx@@U?$Hash@_K@shdfnd@2@VNonTrackingAllocator@42@@internal@shdfnd@physx@@QBEIXZ 100115b0 f i CmCollection.obj
 0001:000105d0       ?skip@Iter@?$HashBase@V?$Pair@$$CB_KPAVPxBase@physx@@@shdfnd@physx@@_KU?$Hash@_K@23@UGetKey@?$HashMapBase@_KPAVPxBase@physx@@U?$Hash@_K@shdfnd@2@VNonTrackingAllocator@42@@internal@23@VNonTrackingAllocator@23@$00@internal@shdfnd@physx@@AAEXXZ 100115d0 f i CmCollection.obj
 0001:00010630       ??0PtrTable@Cm@physx@@QAE@XZ 10011630 f   CmPtrTable.obj
 0001:00010660       ??1PtrTable@Cm@physx@@QAE@XZ 10011660 f   CmPtrTable.obj
 0001:00010730       ?add@PtrTable@Cm@physx@@QAEXPAXAAVPtrTableStorageManager@23@@Z 10011730 f   CmPtrTable.obj
 0001:00010a00       ?replaceWithLast@PtrTable@Cm@physx@@QAEXIAAVPtrTableStorageManager@23@@Z 10011a00 f   CmPtrTable.obj
 0001:00010cc0       ?clear@PtrTable@Cm@physx@@QAEXAAVPtrTableStorageManager@23@@Z 10011cc0 f   CmPtrTable.obj
 0001:00010d30       ?find@PtrTable@Cm@physx@@QBEIPBX@Z 10011d30 f   CmPtrTable.obj
 0001:00010d90       ?exportExtraData@PtrTable@Cm@physx@@QAEXAAVPxSerializationContext@3@@Z 10011d90 f   CmPtrTable.obj
 0001:00010de0       ?importExtraData@PtrTable@Cm@physx@@QAEXAAVPxDeserializationContext@3@@Z 10011de0 f   CmPtrTable.obj
 0001:00010e10       ?getBinaryMetaData@PtrTable@Cm@physx@@SAXAAVPxOutputStream@3@@Z 10011e10 f   CmPtrTable.obj
 0001:00011010       ?realloc@PtrTable@Cm@physx@@AAEXIIAAVPtrTableStorageManager@23@@Z 10012010 f   CmPtrTable.obj
 0001:00011140       ??$readExtraData@PAX$0BA@@PxDeserializationContext@physx@@QAEPAPAXI@Z 10012140 f i CmPtrTable.obj
 0001:00011170       ??$readExtraData@PAX@PxDeserializationContext@physx@@QAEPAPAXI@Z 10012170 f i CmPtrTable.obj
 0001:000111a0       ??0PtrTable@Cm@physx@@QAE@W4PxEMPTY@2@@Z 100121a0 f i CmPtrTable.obj
 0001:000111f0       ??4PtrTable@Cm@physx@@QAEAAU012@ABU012@@Z 100121f0 f i CmPtrTable.obj
 0001:00011210       ?PxMemCopy@physx@@YAPAXPAXPBXI@Z 10012210 f i CmPtrTable.obj
 0001:00011230       ?alignExtraData@PxDeserializationContext@physx@@QAEXI@Z 10012230 f i CmPtrTable.obj
 0001:00011270       ?getCount@PtrTable@Cm@physx@@QBEIXZ 10012270 f i CmPtrTable.obj
 0001:00011290       ?getPtrs@PtrTable@Cm@physx@@QAEPAPAXXZ 10012290 f i CmPtrTable.obj
 0001:000112c0       ?getPtrs@PtrTable@Cm@physx@@QBEPBQAXXZ 100122c0 f i CmPtrTable.obj
 0001:000112f0       ??0RadixSort@Cm@physx@@QAE@XZ 100122f0 f   CmRadixSort.obj
 0001:00011370       ??1RadixSort@Cm@physx@@UAE@XZ 10012370 f   CmRadixSort.obj
 0001:00011390       ?Sort@RadixSort@Cm@physx@@QAEAAV123@PBIIW4RadixHint@23@@Z 10012390 f   CmRadixSort.obj
 0001:00011ec0       ?Sort@RadixSort@Cm@physx@@QAEAAV123@PBMI@Z 10012ec0 f   CmRadixSort.obj
 0001:00012930       ?SetBuffers@RadixSort@Cm@physx@@QAE_NPAI00PAPAI@Z 10013930 f   CmRadixSort.obj
 0001:000129a0       ??_ERadixSort@Cm@physx@@UAEPAXI@Z 100139a0 f i CmRadixSort.obj
 0001:00012a20       ??_GRadixSort@Cm@physx@@UAEPAXI@Z 10013a20 f i CmRadixSort.obj
 0001:00012a50       ??_I@YGXPAXIIP6EX0@Z@Z     10013a50 f i CmRadixSort.obj
 0001:00012ab0       ?CheckPassValidity@@YAPBIIPBIIPBXAAE@Z 10013ab0 f i CmRadixSort.obj
 0001:00012af0       ?GetNbHits@RadixSort@Cm@physx@@QBEIXZ 10013af0 f i CmRadixSort.obj
 0001:00012b10       ?GetNbTotalCalls@RadixSort@Cm@physx@@QBEIXZ 10013b10 f i CmRadixSort.obj
 0001:00012b30       ?GetRanks@RadixSort@Cm@physx@@QBEPBIXZ 10013b30 f i CmRadixSort.obj
 0001:00012b50       ?GetRecyclable@RadixSort@Cm@physx@@QBEPAIXZ 10013b50 f i CmRadixSort.obj
 0001:00012b70       ?PxMemZero@physx@@YAPAXPAXI@Z 10013b70 f i CmRadixSort.obj
 0001:00012b90       ?invalidateRanks@RadixSort@Cm@physx@@QAEXXZ 10013b90 f i CmRadixSort.obj
 0001:00012bb0       ?memZero@intrinsics@physx@@YAPAXPAXI@Z 10013bb0 f i CmRadixSort.obj
 0001:00012bd0       ??0RadixSortBuffered@Cm@physx@@QAE@XZ 10013bd0 f   CmRadixSortBuffered.obj
 0001:00012bf0       ??1RadixSortBuffered@Cm@physx@@UAE@XZ 10013bf0 f   CmRadixSortBuffered.obj
 0001:00012c20       ?reset@RadixSortBuffered@Cm@physx@@QAEXXZ 10013c20 f   CmRadixSortBuffered.obj
 0001:00012ca0       ?Sort@RadixSortBuffered@Cm@physx@@QAEAAV123@PBIIW4RadixHint@23@@Z 10013ca0 f   CmRadixSortBuffered.obj
 0001:00012d10       ?Sort@RadixSortBuffered@Cm@physx@@QAEAAV123@PBMI@Z 10013d10 f   CmRadixSortBuffered.obj
 0001:00012d80       ?Resize@RadixSortBuffered@Cm@physx@@AAE_NI@Z 10013d80 f   CmRadixSortBuffered.obj
 0001:00012e50       ??_ERadixSortBuffered@Cm@physx@@UAEPAXI@Z 10013e50 f i CmRadixSortBuffered.obj
 0001:00012ed0       ??_GRadixSortBuffered@Cm@physx@@UAEPAXI@Z 10013ed0 f i CmRadixSortBuffered.obj
 0001:00012f00       ?CheckResize@RadixSortBuffered@Cm@physx@@AAEXI@Z 10013f00 f i CmRadixSortBuffered.obj
 0001:00012f60       ??6RenderOutput@Cm@physx@@QAEAAV012@W4Primitive@012@@Z 10013f60 f   CmRenderOutput.obj
 0001:00012f90       ??6RenderOutput@Cm@physx@@QAEAAV012@I@Z 10013f90 f   CmRenderOutput.obj
 0001:00012fb0       ??6RenderOutput@Cm@physx@@QAEAAV012@ABVPxMat44@2@@Z 10013fb0 f   CmRenderOutput.obj
 0001:00012fd0       ??6RenderOutput@Cm@physx@@QAEAAV012@ABVPxTransform@2@@Z 10013fd0 f   CmRenderOutput.obj
 0001:00013000       ??6RenderOutput@Cm@physx@@QAEAAV012@VPxVec3@2@@Z 10014000 f   CmRenderOutput.obj
 0001:00013220       ??6RenderOutput@Cm@physx@@QAEAAV012@ABUDebugText@12@@Z 10014220 f   CmRenderOutput.obj
 0001:00013380       ?outputCapsule@RenderOutput@Cm@physx@@QAEAAV123@MMABVPxMat44@3@@Z 10014380 f   CmRenderOutput.obj
 0001:00013980       ??0DebugText@Cm@physx@@QAA@ABVPxVec3@2@MPBDZZ 10014980 f   CmRenderOutput.obj
 0001:000139f0       ??6Cm@physx@@YAAAVRenderOutput@01@AAV201@ABUDebugBox@01@@Z 100149f0 f   CmRenderOutput.obj
 0001:00014130       ??6Cm@physx@@YAAAVRenderOutput@01@AAV201@ABUDebugArrow@01@@Z 10015130 f   CmRenderOutput.obj
 0001:00014340       ??6Cm@physx@@YAAAVRenderOutput@01@AAV201@ABUDebugBasis@01@@Z 10015340 f   CmRenderOutput.obj
 0001:000144b0       ??6Cm@physx@@YAAAVRenderOutput@01@AAV201@ABUDebugCircle@01@@Z 100154b0 f   CmRenderOutput.obj
 0001:000145e0       ??6Cm@physx@@YAAAVRenderOutput@01@AAV201@ABUDebugArc@01@@Z 100155e0 f   CmRenderOutput.obj
 0001:00014760       ??$PX_UNUSED@W4PxIDENTITY@physx@@@@YAXABW4PxIDENTITY@physx@@@Z 10015760 f i CmRenderOutput.obj
 0001:00014770       ??$PxMax@I@physx@@YAIII@Z  10015770 f i CmRenderOutput.obj
 0001:000147a0       ??$swap@VPxVec4@physx@@@shdfnd@physx@@YAXAAVPxVec4@1@0@Z 100157a0 f i CmRenderOutput.obj
 0001:000147d0       ??0DebugArc@Cm@physx@@QAE@IMMM@Z 100157d0 f i CmRenderOutput.obj
 0001:00014810       ??0DebugArrow@Cm@physx@@QAE@ABVPxVec3@2@0M@Z 10015810 f i CmRenderOutput.obj
 0001:00014850       ??0DebugCircle@Cm@physx@@QAE@IM@Z 10015850 f i CmRenderOutput.obj
 0001:00014880       ??0DebugText@Cm@physx@@QAE@$$QAU012@@Z 10015880 f i CmRenderOutput.obj
 0001:000148d0       ??0DebugText@Cm@physx@@QAE@ABU012@@Z 100158d0 f i CmRenderOutput.obj
 0001:00014920       ??0PxDebugLine@physx@@QAE@ABU01@@Z 10015920 f i CmRenderOutput.obj
 0001:00014970       ??0PxDebugLine@physx@@QAE@ABVPxVec3@1@0ABI@Z 10015970 f i CmRenderOutput.obj
 0001:000149c0       ??0PxDebugPoint@physx@@QAE@ABU01@@Z 100159c0 f i CmRenderOutput.obj
 0001:000149f0       ??0PxDebugPoint@physx@@QAE@ABVPxVec3@1@ABI@Z 100159f0 f i CmRenderOutput.obj
 0001:00014a20       ??0PxDebugText@physx@@QAE@ABU01@@Z 10015a20 f i CmRenderOutput.obj
 0001:00014a60       ??0PxDebugText@physx@@QAE@ABVPxVec3@1@ABMABIPBD@Z 10015a60 f i CmRenderOutput.obj
 0001:00014aa0       ??0PxDebugTriangle@physx@@QAE@ABU01@@Z 10015aa0 f i CmRenderOutput.obj
 0001:00014b10       ??0PxDebugTriangle@physx@@QAE@ABVPxVec3@1@00ABI@Z 10015b10 f i CmRenderOutput.obj
 0001:00014b70       ??0PxMat33@physx@@QAE@ABVPxQuat@1@@Z 10015b70 f i CmRenderOutput.obj
 0001:00014d70       ??0PxMat44@physx@@QAE@ABV01@@Z 10015d70 f i CmRenderOutput.obj
 0001:00014dd0       ??0PxMat44@physx@@QAE@ABVPxMat33@1@ABVPxVec3@1@@Z 10015dd0 f i CmRenderOutput.obj
 0001:00014e50       ??0PxMat44@physx@@QAE@ABVPxTransform@1@@Z 10015e50 f i CmRenderOutput.obj
 0001:00014eb0       ??0PxMat44@physx@@QAE@W4PxIDENTITY@1@@Z 10015eb0 f i CmRenderOutput.obj
 0001:00014fa0       ??0PxVec3@physx@@QAE@ABV01@@Z 10015fa0 f i CmRenderOutput.obj
 0001:00014fe0       ??0PxVec3@physx@@QAE@M@Z   10015fe0 f i CmRenderOutput.obj
 0001:00015020       ??0PxVec3@physx@@QAE@MMM@Z 10016020 f i CmRenderOutput.obj
 0001:00015060       ??0PxVec3@physx@@QAE@XZ    10016060 f i CmRenderOutput.obj
 0001:00015070       ??0PxVec4@physx@@QAE@ABV01@@Z 10016070 f i CmRenderOutput.obj
 0001:000150b0       ??0PxVec4@physx@@QAE@ABVPxVec3@1@M@Z 100160b0 f i CmRenderOutput.obj
 0001:000150f0       ??0PxVec4@physx@@QAE@MMMM@Z 100160f0 f i CmRenderOutput.obj
 0001:00015140       ??0PxVec4@physx@@QAE@XZ    10016140 f i CmRenderOutput.obj
 0001:00015150       ??0RenderOutput@Cm@physx@@QAE@AAVRenderBuffer@12@@Z 10016150 f i CmRenderOutput.obj
 0001:000151c0       ??0RenderOutput@Cm@physx@@QAE@ABV012@@Z 100161c0 f i CmRenderOutput.obj
 0001:00015240       ??4DebugText@Cm@physx@@QAEAAU012@$$QAU012@@Z 10016240 f i CmRenderOutput.obj
 0001:000152c0       ??4DebugText@Cm@physx@@QAEAAU012@ABU012@@Z 100162c0 f i CmRenderOutput.obj
 0001:00015340       ??4PxMat44@physx@@QAEAAV01@ABV01@@Z 10016340 f i CmRenderOutput.obj
 0001:000153a0       ??4PxVec3@physx@@QAEAAV01@ABV01@@Z 100163a0 f i CmRenderOutput.obj
 0001:000153e0       ??4PxVec4@physx@@QAEAAV01@ABV01@@Z 100163e0 f i CmRenderOutput.obj
 0001:00015420       ??A?$Array@UPxDebugText@physx@@VNamedAllocator@shdfnd@2@@shdfnd@physx@@QAEAAUPxDebugText@2@I@Z 10016420 f i CmRenderOutput.obj
 0001:00015480       ??DPxVec3@physx@@QBE?AV01@M@Z 10016480 f i CmRenderOutput.obj
 0001:000154d0       ??DPxVec4@physx@@QBE?AV01@M@Z 100164d0 f i CmRenderOutput.obj
 0001:00015540       ??GPxVec3@physx@@QBE?AV01@ABV01@@Z 10016540 f i CmRenderOutput.obj
 0001:000155a0       ??GPxVec4@physx@@QBE?AV01@XZ 100165a0 f i CmRenderOutput.obj
 0001:00015610       ??HPxVec3@physx@@QBE?AV01@ABV01@@Z 10016610 f i CmRenderOutput.obj
 0001:00015670       ??HPxVec4@physx@@QBE?AV01@ABV01@@Z 10016670 f i CmRenderOutput.obj
 0001:000156e0       ??XPxVec3@physx@@QAEAAV01@M@Z 100166e0 f i CmRenderOutput.obj
 0001:00015730       ??YPxVec4@physx@@QAEAAV01@ABV01@@Z 10016730 f i CmRenderOutput.obj
 0001:000157a0       ??_0PxVec3@physx@@QAEAAV01@M@Z 100167a0 f i CmRenderOutput.obj
 0001:00015800       ?PxAbs@physx@@YAMM@Z       10016800 f i CmRenderOutput.obj
 0001:00015820       ?PxCos@physx@@YAMM@Z       10016820 f i CmRenderOutput.obj
 0001:00015840       ?PxSin@physx@@YAMM@Z       10016840 f i CmRenderOutput.obj
 0001:00015860       ?PxSqrt@physx@@YAMM@Z      10016860 f i CmRenderOutput.obj
 0001:00015880       ?abs@intrinsics@physx@@YAMM@Z 10016880 f i CmRenderOutput.obj
 0001:000158a0       ?allocate@?$Array@DVNamedAllocator@shdfnd@physx@@@shdfnd@physx@@IAEPADI@Z 100168a0 f i CmRenderOutput.obj
 0001:00015910       ?allocate@?$Array@UPxDebugLine@physx@@VNamedAllocator@shdfnd@2@@shdfnd@physx@@IAEPAUPxDebugLine@3@I@Z 10016910 f i CmRenderOutput.obj
 0001:00015980       ?allocate@?$Array@UPxDebugPoint@physx@@VNamedAllocator@shdfnd@2@@shdfnd@physx@@IAEPAUPxDebugPoint@3@I@Z 10016980 f i CmRenderOutput.obj
 0001:000159f0       ?allocate@?$Array@UPxDebugText@physx@@VNamedAllocator@shdfnd@2@@shdfnd@physx@@IAEPAUPxDebugText@3@I@Z 100169f0 f i CmRenderOutput.obj
 0001:00015a60       ?allocate@?$Array@UPxDebugTriangle@physx@@VNamedAllocator@shdfnd@2@@shdfnd@physx@@IAEPAUPxDebugTriangle@3@I@Z 10016a60 f i CmRenderOutput.obj
 0001:00015ad0       ?begin@?$Array@DVNamedAllocator@shdfnd@physx@@@shdfnd@physx@@QAEPADXZ 10016ad0 f i CmRenderOutput.obj
 0001:00015ae0       ?capacity@?$Array@DVNamedAllocator@shdfnd@physx@@@shdfnd@physx@@QBEIXZ 10016ae0 f i CmRenderOutput.obj
 0001:00015b00       ?capacity@?$Array@UPxDebugLine@physx@@VNamedAllocator@shdfnd@2@@shdfnd@physx@@QBEIXZ 10016b00 f i CmRenderOutput.obj
 0001:00015b20       ?capacity@?$Array@UPxDebugPoint@physx@@VNamedAllocator@shdfnd@2@@shdfnd@physx@@QBEIXZ 10016b20 f i CmRenderOutput.obj
 0001:00015b40       ?capacity@?$Array@UPxDebugText@physx@@VNamedAllocator@shdfnd@2@@shdfnd@physx@@QBEIXZ 10016b40 f i CmRenderOutput.obj
 0001:00015b60       ?capacity@?$Array@UPxDebugTriangle@physx@@VNamedAllocator@shdfnd@2@@shdfnd@physx@@QBEIXZ 10016b60 f i CmRenderOutput.obj
 0001:00015b80       ?capacityIncrement@?$Array@DVNamedAllocator@shdfnd@physx@@@shdfnd@physx@@IBEIXZ 10016b80 f i CmRenderOutput.obj
 0001:00015bc0       ?capacityIncrement@?$Array@UPxDebugLine@physx@@VNamedAllocator@shdfnd@2@@shdfnd@physx@@IBEIXZ 10016bc0 f i CmRenderOutput.obj
 0001:00015c00       ?capacityIncrement@?$Array@UPxDebugPoint@physx@@VNamedAllocator@shdfnd@2@@shdfnd@physx@@IBEIXZ 10016c00 f i CmRenderOutput.obj
 0001:00015c40       ?capacityIncrement@?$Array@UPxDebugText@physx@@VNamedAllocator@shdfnd@2@@shdfnd@physx@@IBEIXZ 10016c40 f i CmRenderOutput.obj
 0001:00015c80       ?capacityIncrement@?$Array@UPxDebugTriangle@physx@@VNamedAllocator@shdfnd@2@@shdfnd@physx@@IBEIXZ 10016c80 f i CmRenderOutput.obj
 0001:00015cc0       ?copy@?$Array@DVNamedAllocator@shdfnd@physx@@@shdfnd@physx@@KAXPAD0PBD@Z 10016cc0 f i CmRenderOutput.obj
 0001:00015d10       ?copy@?$Array@UPxDebugLine@physx@@VNamedAllocator@shdfnd@2@@shdfnd@physx@@KAXPAUPxDebugLine@3@0PBU43@@Z 10016d10 f i CmRenderOutput.obj
 0001:00015d60       ?copy@?$Array@UPxDebugPoint@physx@@VNamedAllocator@shdfnd@2@@shdfnd@physx@@KAXPAUPxDebugPoint@3@0PBU43@@Z 10016d60 f i CmRenderOutput.obj
 0001:00015db0       ?copy@?$Array@UPxDebugText@physx@@VNamedAllocator@shdfnd@2@@shdfnd@physx@@KAXPAUPxDebugText@3@0PBU43@@Z 10016db0 f i CmRenderOutput.obj
 0001:00015e00       ?copy@?$Array@UPxDebugTriangle@physx@@VNamedAllocator@shdfnd@2@@shdfnd@physx@@KAXPAUPxDebugTriangle@3@0PBU43@@Z 10016e00 f i CmRenderOutput.obj
 0001:00015e50       ?cos@intrinsics@physx@@YAMM@Z 10016e50 f i CmRenderOutput.obj
 0001:00015e70       ?cross@PxVec3@physx@@QBE?AV12@ABV12@@Z 10016e70 f i CmRenderOutput.obj
 0001:00015f10       ?deallocate@?$Array@DVNamedAllocator@shdfnd@physx@@@shdfnd@physx@@IAEXPAX@Z 10016f10 f i CmRenderOutput.obj
 0001:00015f30       ?deallocate@?$Array@UPxDebugLine@physx@@VNamedAllocator@shdfnd@2@@shdfnd@physx@@IAEXPAX@Z 10016f30 f i CmRenderOutput.obj
 0001:00015f50       ?deallocate@?$Array@UPxDebugPoint@physx@@VNamedAllocator@shdfnd@2@@shdfnd@physx@@IAEXPAX@Z 10016f50 f i CmRenderOutput.obj
 0001:00015f70       ?deallocate@?$Array@UPxDebugText@physx@@VNamedAllocator@shdfnd@2@@shdfnd@physx@@IAEXPAX@Z 10016f70 f i CmRenderOutput.obj
 0001:00015f90       ?deallocate@?$Array@UPxDebugTriangle@physx@@VNamedAllocator@shdfnd@2@@shdfnd@physx@@IAEXPAX@Z 10016f90 f i CmRenderOutput.obj
 0001:00015fb0       ?destroy@?$Array@DVNamedAllocator@shdfnd@physx@@@shdfnd@physx@@KAXPAD0@Z 10016fb0 f i CmRenderOutput.obj
 0001:00015fd0       ?destroy@?$Array@UPxDebugLine@physx@@VNamedAllocator@shdfnd@2@@shdfnd@physx@@KAXPAUPxDebugLine@3@0@Z 10016fd0 f i CmRenderOutput.obj
 0001:00015ff0       ?destroy@?$Array@UPxDebugPoint@physx@@VNamedAllocator@shdfnd@2@@shdfnd@physx@@KAXPAUPxDebugPoint@3@0@Z 10016ff0 f i CmRenderOutput.obj
 0001:00016010       ?destroy@?$Array@UPxDebugText@physx@@VNamedAllocator@shdfnd@2@@shdfnd@physx@@KAXPAUPxDebugText@3@0@Z 10017010 f i CmRenderOutput.obj
 0001:00016030       ?destroy@?$Array@UPxDebugTriangle@physx@@VNamedAllocator@shdfnd@2@@shdfnd@physx@@KAXPAUPxDebugTriangle@3@0@Z 10017030 f i CmRenderOutput.obj
 0001:00016050       ?end@?$Array@DVNamedAllocator@shdfnd@physx@@@shdfnd@physx@@QAEPADXZ 10017050 f i CmRenderOutput.obj
 0001:00016070       ?end@?$Array@UPxDebugLine@physx@@VNamedAllocator@shdfnd@2@@shdfnd@physx@@QAEPAUPxDebugLine@3@XZ 10017070 f i CmRenderOutput.obj
 0001:00016090       ?forceSize_Unsafe@?$Array@UPxDebugLine@physx@@VNamedAllocator@shdfnd@2@@shdfnd@physx@@QAEXI@Z 10017090 f i CmRenderOutput.obj
 0001:000160f0       ?getXYZ@PxVec4@physx@@QBE?AVPxVec3@2@XZ 100170f0 f i CmRenderOutput.obj
 0001:00016140       ?grow@?$Array@DVNamedAllocator@shdfnd@physx@@@shdfnd@physx@@IAEXI@Z 10017140 f i CmRenderOutput.obj
 0001:000161a0       ?grow@?$Array@UPxDebugLine@physx@@VNamedAllocator@shdfnd@2@@shdfnd@physx@@IAEXI@Z 100171a0 f i CmRenderOutput.obj
 0001:00016200       ?growAndPushBack@?$Array@DVNamedAllocator@shdfnd@physx@@@shdfnd@physx@@IAEAADABD@Z 10017200 f i CmRenderOutput.obj
 0001:00016320       ?growAndPushBack@?$Array@UPxDebugLine@physx@@VNamedAllocator@shdfnd@2@@shdfnd@physx@@IAEAAUPxDebugLine@3@ABU43@@Z 10017320 f i CmRenderOutput.obj
 0001:00016450       ?growAndPushBack@?$Array@UPxDebugPoint@physx@@VNamedAllocator@shdfnd@2@@shdfnd@physx@@IAEAAUPxDebugPoint@3@ABU43@@Z 10017450 f i CmRenderOutput.obj
 0001:00016580       ?growAndPushBack@?$Array@UPxDebugText@physx@@VNamedAllocator@shdfnd@2@@shdfnd@physx@@IAEAAUPxDebugText@3@ABU43@@Z 10017580 f i CmRenderOutput.obj
 0001:000166a0       ?growAndPushBack@?$Array@UPxDebugTriangle@physx@@VNamedAllocator@shdfnd@2@@shdfnd@physx@@IAEAAUPxDebugTriangle@3@ABU43@@Z 100176a0 f i CmRenderOutput.obj
 0001:000167c0       ?isInUserMemory@?$Array@DVNamedAllocator@shdfnd@physx@@@shdfnd@physx@@QBEIXZ 100177c0 f i CmRenderOutput.obj
 0001:000167e0       ?isInUserMemory@?$Array@UPxDebugLine@physx@@VNamedAllocator@shdfnd@2@@shdfnd@physx@@QBEIXZ 100177e0 f i CmRenderOutput.obj
 0001:00016800       ?isInUserMemory@?$Array@UPxDebugPoint@physx@@VNamedAllocator@shdfnd@2@@shdfnd@physx@@QBEIXZ 10017800 f i CmRenderOutput.obj
 0001:00016820       ?isInUserMemory@?$Array@UPxDebugText@physx@@VNamedAllocator@shdfnd@2@@shdfnd@physx@@QBEIXZ 10017820 f i CmRenderOutput.obj
 0001:00016840       ?isInUserMemory@?$Array@UPxDebugTriangle@physx@@VNamedAllocator@shdfnd@2@@shdfnd@physx@@QBEIXZ 10017840 f i CmRenderOutput.obj
 0001:00016860       ?magnitude@PxVec3@physx@@QBEMXZ 10017860 f i CmRenderOutput.obj
 0001:00016880       ?magnitudeSquared@PxVec3@physx@@QBEMXZ 10017880 f i CmRenderOutput.obj
 0001:000168d0       ?normalToTangents@shdfnd@physx@@YAXABVPxVec3@2@AAV32@1@Z 100178d0 f i CmRenderOutput.obj
 0001:000169b0       ?normalize@PxVec3@physx@@QAEMXZ 100179b0 f i CmRenderOutput.obj
 0001:000169f0       ?outputSegment@RenderOutput@Cm@physx@@QAEXABVPxVec3@3@0@Z 100179f0 f i CmRenderOutput.obj
 0001:00016a40       ?pushBack@?$Array@DVNamedAllocator@shdfnd@physx@@@shdfnd@physx@@QAEAADABD@Z 10017a40 f i CmRenderOutput.obj
 0001:00016ab0       ?pushBack@?$Array@UPxDebugLine@physx@@VNamedAllocator@shdfnd@2@@shdfnd@physx@@QAEAAUPxDebugLine@3@ABU43@@Z 10017ab0 f i CmRenderOutput.obj
 0001:00016b30       ?pushBack@?$Array@UPxDebugPoint@physx@@VNamedAllocator@shdfnd@2@@shdfnd@physx@@QAEAAUPxDebugPoint@3@ABU43@@Z 10017b30 f i CmRenderOutput.obj
 0001:00016bb0       ?pushBack@?$Array@UPxDebugText@physx@@VNamedAllocator@shdfnd@2@@shdfnd@physx@@QAEAAUPxDebugText@3@ABU43@@Z 10017bb0 f i CmRenderOutput.obj
 0001:00016c30       ?pushBack@?$Array@UPxDebugTriangle@physx@@VNamedAllocator@shdfnd@2@@shdfnd@physx@@QAEAAUPxDebugTriangle@3@ABU43@@Z 10017c30 f i CmRenderOutput.obj
 0001:00016cb0       ?recreate@?$Array@DVNamedAllocator@shdfnd@physx@@@shdfnd@physx@@IAEXI@Z 10017cb0 f i CmRenderOutput.obj
 0001:00016d80       ?recreate@?$Array@UPxDebugLine@physx@@VNamedAllocator@shdfnd@2@@shdfnd@physx@@IAEXI@Z 10017d80 f i CmRenderOutput.obj
 0001:00016e50       ?reserve@?$Array@DVNamedAllocator@shdfnd@physx@@@shdfnd@physx@@QAEXI@Z 10017e50 f i CmRenderOutput.obj
 0001:00016e80       ?reserve@?$Array@UPxDebugLine@physx@@VNamedAllocator@shdfnd@2@@shdfnd@physx@@QAEXI@Z 10017e80 f i CmRenderOutput.obj
 0001:00016eb0       ?reserveSegments@RenderOutput@Cm@physx@@QAEPAUPxDebugLine@3@I@Z 10017eb0 f i CmRenderOutput.obj
 0001:00016ee0       ?rotate@PxMat44@physx@@QBE?BVPxVec3@2@ABV32@@Z 10017ee0 f i CmRenderOutput.obj
 0001:00016f30       ?rotate@PxMat44@physx@@QBE?BVPxVec4@2@ABV32@@Z 10017f30 f i CmRenderOutput.obj
 0001:00016fb0       ?sin@intrinsics@physx@@YAMM@Z 10017fb0 f i CmRenderOutput.obj
 0001:00016fd0       ?size@?$Array@DVNamedAllocator@shdfnd@physx@@@shdfnd@physx@@QBEIXZ 10017fd0 f i CmRenderOutput.obj
 0001:00016ff0       ?size@?$Array@UPxDebugLine@physx@@VNamedAllocator@shdfnd@2@@shdfnd@physx@@QBEIXZ 10017ff0 f i CmRenderOutput.obj
 0001:00017010       ?size@?$Array@UPxDebugText@physx@@VNamedAllocator@shdfnd@2@@shdfnd@physx@@QBEIXZ 10018010 f i CmRenderOutput.obj
 0001:00017030       ?sqrt@intrinsics@physx@@YAMM@Z 10018030 f i CmRenderOutput.obj
 0001:00017050       ?transform@PxMat44@physx@@QBE?BVPxVec3@2@ABV32@@Z 10018050 f i CmRenderOutput.obj
 0001:000170a0       ?transform@PxMat44@physx@@QBE?BVPxVec4@2@ABV32@@Z 100180a0 f i CmRenderOutput.obj
 0001:00017150       _cosf                      10018150 f i CmRenderOutput.obj
 0001:00017180       _fabsf                     10018180 f i CmRenderOutput.obj
 0001:000171b0       _sinf                      100181b0 f i CmRenderOutput.obj
 0001:000171e0       _sqrtf                     100181e0 f i CmRenderOutput.obj
 0001:000172f0       ?visualizeJointFrames@Cm@physx@@YAXAAVRenderOutput@12@MABVPxTransform@2@1@Z 100182f0 f   CmVisualization.obj
 0001:000173e0       ?visualizeLinearLimit@Cm@physx@@YAXAAVRenderOutput@12@MABVPxTransform@2@1M_N@Z 100183e0 f   CmVisualization.obj
 0001:00017540       ?visualizeAngularLimit@Cm@physx@@YAXAAVRenderOutput@12@MABVPxTransform@2@MM_N@Z 10018540 f   CmVisualization.obj
 0001:00017730       ?visualizeLimitCone@Cm@physx@@YAXAAVRenderOutput@12@MABVPxTransform@2@MM_N@Z 10018730 f   CmVisualization.obj
 0001:000179a0       ?visualizeDoubleCone@Cm@physx@@YAXAAVRenderOutput@12@MABVPxTransform@2@M_N@Z 100189a0 f   CmVisualization.obj
 0001:00017dc0       ??$PX_UNUSED@W4PxZERO@physx@@@@YAXABW4PxZERO@physx@@@Z 10018dc0 f i CmVisualization.obj
 0001:00017dd0       ??0DebugArrow@Cm@physx@@QAE@ABVPxVec3@2@0@Z 10018dd0 f i CmVisualization.obj
 0001:00017e30       ??0DebugBasis@Cm@physx@@QAE@ABVPxVec3@2@III@Z 10018e30 f i CmVisualization.obj
 0001:00017e70       ??0PxQuat@physx@@QAE@ABV01@@Z 10018e70 f i CmVisualization.obj
 0001:00017eb0       ??0PxQuat@physx@@QAE@MABVPxVec3@1@@Z 10018eb0 f i CmVisualization.obj
 0001:00017f90       ??0PxQuat@physx@@QAE@MMMM@Z 10018f90 f i CmVisualization.obj
 0001:00017fe0       ??0PxQuat@physx@@QAE@W4PxIDENTITY@1@@Z 10018fe0 f i CmVisualization.obj
 0001:00018030       ??0PxTransform@physx@@QAE@ABVPxVec3@1@ABVPxQuat@1@@Z 10019030 f i CmVisualization.obj
 0001:00018080       ??0PxTransform@physx@@QAE@W4PxIDENTITY@1@@Z 10019080 f i CmVisualization.obj
 0001:000180c0       ??0PxVec3@physx@@QAE@W4PxZERO@1@@Z 100190c0 f i CmVisualization.obj
 0001:00018100       ??DPxQuat@physx@@QBE?AV01@ABV01@@Z 10019100 f i CmVisualization.obj
 0001:00018260       ??DPxQuat@physx@@QBE?AV01@M@Z 10019260 f i CmVisualization.obj
 0001:000182d0       ?PxIsFinite@physx@@YA_NM@Z 100192d0 f i CmVisualization.obj
 0001:000182f0       ?PxTan@physx@@YAMM@Z       100192f0 f i CmVisualization.obj
 0001:00018310       ?getBasisVector0@PxQuat@physx@@QBE?AVPxVec3@2@XZ 10019310 f i CmVisualization.obj
 0001:000183d0       ?isFinite@PxQuat@physx@@QBE_NXZ 100193d0 f i CmVisualization.obj
 0001:00018470       ?isFinite@intrinsics@physx@@YA_NM@Z 10019470 f i CmVisualization.obj
 0001:000184b0       ?isSane@PxQuat@physx@@QBE_NXZ 100194b0 f i CmVisualization.obj
 0001:00018530       ?magnitude@PxQuat@physx@@QBEMXZ 10019530 f i CmVisualization.obj
 0001:00018550       ?magnitudeSquared@PxQuat@physx@@QBEMXZ 10019550 f i CmVisualization.obj
 0001:000185b0       ?rotate@PxQuat@physx@@QBE?BVPxVec3@2@ABV32@@Z 100195b0 f i CmVisualization.obj
 0001:00018740       _tanf                      10019740 f i CmVisualization.obj
 0001:00018770       ??0CmModuleUpdateLoader@Cm@physx@@QAE@PBD@Z 10019770 f   CmWindowsModuleUpdateLoader.obj
 0001:000187c0       ??1CmModuleUpdateLoader@Cm@physx@@QAE@XZ 100197c0 f   CmWindowsModuleUpdateLoader.obj
 0001:000187f0       ?LoadModule@CmModuleUpdateLoader@Cm@physx@@QAEPAUHINSTANCE__@@PBD0@Z 100197f0 f   CmWindowsModuleUpdateLoader.obj
 0001:00018840       ??4CmModuleUpdateLoader@Cm@physx@@QAEAAV012@ABV012@@Z 10019840 f i CmWindowsModuleUpdateLoader.obj
 0001:00018860       ?loadLibrary@Cm@physx@@YGPAUHINSTANCE__@@PBD@Z 10019860 f i CmWindowsModuleUpdateLoader.obj
 0001:00018880       _PxSetPhysXCommonDelayLoadHook 10019880 f   CmWindowsDelayLoadHook.obj
 0001:00018890       ?commonDelayHook@@YGP6GHXZIPAUDelayLoadInfo@@@Z 10019890 f   CmWindowsDelayLoadHook.obj
 0001:000188f0       ?physXCommonDliNotePreLoadLibrary@Cm@physx@@YGP6GHXZPBDPBVPxDelayLoadHook@2@@Z 100198f0 f i CmWindowsDelayLoadHook.obj
 0001:00018960       ?computeBounds@Gu@physx@@YAXAAVPxBounds3@2@ABVPxGeometry@2@ABVPxTransform@2@MPIBVCenterExtentsPadded@12@M@Z 10019960 f   GuBounds.obj
 0001:000194a0       ?computeBoundsWithCCDThreshold@Gu@physx@@YAMAAVVec3p@12@0ABVPxGeometry@2@ABVPxTransform@2@PIBVCenterExtentsPadded@12@@Z 1001a4a0 f   GuBounds.obj
 0001:00019720       ??0ShapeData@Gu@physx@@QAE@ABVPxGeometry@2@ABVPxTransform@2@M@Z 1001a720 f   GuBounds.obj
 0001:0001aaa0       ??$PxMin@M@physx@@YAMMM@Z  1001baa0 f i GuBounds.obj
 0001:0001aad0       ??0?$PxFlags@W4Enum@PxBaseFlag@physx@@G@physx@@QAE@ABV01@@Z 1001bad0 f i GuBounds.obj
 0001:0001aaf0       ??0?$PxFlags@W4Enum@PxConvexMeshGeometryFlag@physx@@E@physx@@QAE@ABV01@@Z 1001baf0 f i GuBounds.obj
 0001:0001ab10       ??0?$PxFlags@W4Enum@PxHeightFieldFlag@physx@@G@physx@@QAE@ABV01@@Z 1001bb10 f i GuBounds.obj
 0001:0001ab30       ??0?$PxFlags@W4Enum@PxHeightFieldFlag@physx@@G@physx@@QAE@W4PxEMPTY@1@@Z 1001bb30 f i GuBounds.obj
 0001:0001ab40       ??0?$PxFlags@W4Enum@PxHeightFieldFlag@physx@@G@physx@@QAE@XZ 1001bb40 f i GuBounds.obj
 0001:0001ab60       ??0Box@Gu@physx@@QAE@ABV012@@Z 1001bb60 f i GuBounds.obj
 0001:0001aba0       ??0Box@Gu@physx@@QAE@ABVPxVec3@2@0ABVPxMat33@2@@Z 1001bba0 f i GuBounds.obj
 0001:0001abe0       ??0Box@Gu@physx@@QAE@XZ    1001bbe0 f i GuBounds.obj
 0001:0001ac10       ??0CenterExtents@Gu@physx@@QAE@ABV012@@Z 1001bc10 f i GuBounds.obj
 0001:0001ac40       ??0CenterExtents@Gu@physx@@QAE@XZ 1001bc40 f i GuBounds.obj
 0001:0001ac70       ??0HeightFieldData@Gu@physx@@QAE@$$QAU012@@Z 1001bc70 f i GuBounds.obj
 0001:0001ad00       ??0HeightFieldData@Gu@physx@@QAE@ABU012@@Z 1001bd00 f i GuBounds.obj
 0001:0001ad90       ??0HeightFieldData@Gu@physx@@QAE@W4PxEMPTY@2@@Z 1001bd90 f i GuBounds.obj
 0001:0001adc0       ??0HeightFieldData@Gu@physx@@QAE@XZ 1001bdc0 f i GuBounds.obj
 0001:0001adf0       ??0PxBounds3@physx@@QAE@XZ 1001bdf0 f i GuBounds.obj
 0001:0001ae20       ??0PxMat33@physx@@QAE@ABV01@@Z 1001be20 f i GuBounds.obj
 0001:0001ae60       ??0PxMat33@physx@@QAE@ABVPxVec3@1@00@Z 1001be60 f i GuBounds.obj
 0001:0001aea0       ??0PxMat33@physx@@QAE@W4PxIDENTITY@1@@Z 1001bea0 f i GuBounds.obj
 0001:0001af40       ??0PxMat33@physx@@QAE@XZ   1001bf40 f i GuBounds.obj
 0001:0001af70       ??0PxMat33Padded@Gu@physx@@QAE@ABVPxQuat@2@@Z 1001bf70 f i GuBounds.obj
 0001:0001b010       ??0PxMeshScale@physx@@QAE@ABVPxVec3@1@ABVPxQuat@1@@Z 1001c010 f i GuBounds.obj
 0001:0001b0a0       ??0PxPlane@physx@@QAE@ABVPxVec3@1@0@Z 1001c0a0 f i GuBounds.obj
 0001:0001b0f0       ??0PxQuat@physx@@QAE@ABVPxMat33@1@@Z 1001c0f0 f i GuBounds.obj
 0001:0001b440       ??0PxQuat@physx@@QAE@XZ    1001c440 f i GuBounds.obj
 0001:0001b450       ??0Sphere@Gu@physx@@QAE@ABVPxVec3@2@M@Z 1001c450 f i GuBounds.obj
 0001:0001b480       ??0Vec3p@Gu@physx@@QAE@ABVPxVec3@2@@Z 1001c480 f i GuBounds.obj
 0001:0001b4a0       ??0Vec3p@Gu@physx@@QAE@XZ  1001c4a0 f i GuBounds.obj
 0001:0001b4c0       ??1Box@Gu@physx@@QAE@XZ    1001c4c0 f i GuBounds.obj
 0001:0001b4d0       ??1CenterExtents@Gu@physx@@QAE@XZ 1001c4d0 f i GuBounds.obj
 0001:0001b4e0       ??1HeightFieldData@Gu@physx@@QAE@XZ 1001c4e0 f i GuBounds.obj
 0001:0001b500       ??1PxBase@physx@@MAE@XZ    1001c500 f i GuBounds.obj
 0001:0001b520       ??1PxConvexMesh@physx@@MAE@XZ 1001c520 f i GuBounds.obj
 0001:0001b540       ??1PxHeightField@physx@@MAE@XZ 1001c540 f i GuBounds.obj
 0001:0001b560       ??1PxMat33Padded@Gu@physx@@QAE@XZ 1001c560 f i GuBounds.obj
 0001:0001b570       ??1Sphere@Gu@physx@@QAE@XZ 1001c570 f i GuBounds.obj
 0001:0001b580       ??1Vec3p@Gu@physx@@QAE@XZ  1001c580 f i GuBounds.obj
 0001:0001b590       ??4?$PxFlags@W4Enum@PxHeightFieldFlag@physx@@G@physx@@QAEAAV01@ABV01@@Z 1001c590 f i GuBounds.obj
 0001:0001b5b0       ??4Box@Gu@physx@@QAEABV012@ABV012@@Z 1001c5b0 f i GuBounds.obj
 0001:0001b5f0       ??4CenterExtents@Gu@physx@@QAEAAV012@ABV012@@Z 1001c5f0 f i GuBounds.obj
 0001:0001b620       ??4HeightFieldData@Gu@physx@@QAEAAU012@$$QAU012@@Z 1001c620 f i GuBounds.obj
 0001:0001b6b0       ??4HeightFieldData@Gu@physx@@QAEAAU012@ABU012@@Z 1001c6b0 f i GuBounds.obj
 0001:0001b740       ??4PxMat33@physx@@QAEAAV01@ABV01@@Z 1001c740 f i GuBounds.obj
 0001:0001b780       ??4PxMat33Padded@Gu@physx@@QAEXABVPxMat33@2@@Z 1001c780 f i GuBounds.obj
 0001:0001b7c0       ??4PxQuat@physx@@QAEAAV01@ABV01@@Z 1001c7c0 f i GuBounds.obj
 0001:0001b800       ??4Sphere@Gu@physx@@QAEAAV012@ABV012@@Z 1001c800 f i GuBounds.obj
 0001:0001b830       ??4Vec3p@Gu@physx@@QAEAAV012@ABV012@@Z 1001c830 f i GuBounds.obj
 0001:0001b860       ??APxMat33@physx@@QBEABVPxVec3@1@I@Z 1001c860 f i GuBounds.obj
 0001:0001b880       ??APxVec3@physx@@QAEAAMI@Z 1001c880 f i GuBounds.obj
 0001:0001b8b0       ??APxVec3@physx@@QBEABMI@Z 1001c8b0 f i GuBounds.obj
 0001:0001b8e0       ??B?$PxBitAndDataT@E$0IA@@physx@@QBEEXZ 1001c8e0 f i GuBounds.obj
 0001:0001b900       ??B?$PxBitAndDataT@G$0IAAA@@physx@@QBEGXZ 1001c900 f i GuBounds.obj
 0001:0001b920       ??B?$PxFlags@W4Enum@PxBaseFlag@physx@@G@physx@@QBE_NXZ 1001c920 f i GuBounds.obj
 0001:0001b950       ??B?$PxFlags@W4Enum@PxConvexMeshGeometryFlag@physx@@E@physx@@QBE_NXZ 1001c950 f i GuBounds.obj
 0001:0001b980       ??DPxMat33@physx@@QBE?BV01@ABV01@@Z 1001c980 f i GuBounds.obj
 0001:0001b9e0       ??DPxMat33@physx@@QBE?BVPxVec3@1@ABV21@@Z 1001c9e0 f i GuBounds.obj
 0001:0001ba00       ??I?$PxFlags@W4Enum@PxBaseFlag@physx@@G@physx@@QBE?AV01@W4Enum@PxBaseFlag@1@@Z 1001ca00 f i GuBounds.obj
 0001:0001ba40       ??I?$PxFlags@W4Enum@PxConvexMeshGeometryFlag@physx@@E@physx@@QBE?AV01@W4Enum@PxConvexMeshGeometryFlag@1@@Z 1001ca40 f i GuBounds.obj
 0001:0001ba80       ??_EPxConvexMesh@physx@@MAEPAXI@Z 1001ca80 f i GuBounds.obj
 0001:0001bb00       ??_EPxHeightField@physx@@MAEPAXI@Z 1001cb00 f i GuBounds.obj
 0001:0001bb80       ??_GPxBase@physx@@MAEPAXI@Z 1001cb80 f i GuBounds.obj
 0001:0001bb80       ??_EPxBase@physx@@MAEPAXI@Z 1001cb80 f i GuBounds.obj
 0001:0001bbb0       ??_H@YGXPAXIIP6EPAX0@Z@Z   1001cbb0 f i GuBounds.obj
 0001:0001bc00       ?FLoad@aos@shdfnd@physx@@YA?AT__m128@@M@Z 1001cc00 f i GuBounds.obj
 0001:0001bc40       ?QuatGetMat33V@aos@shdfnd@physx@@YAXABT__m128@@AAT4@11@Z 1001cc40 f i GuBounds.obj
 0001:0001be40       ?V3Load@aos@shdfnd@physx@@YA?AT__m128@@M@Z 1001ce40 f i GuBounds.obj
 0001:0001be90       ?V3LoadU@aos@shdfnd@physx@@YA?AT__m128@@PBM@Z 1001ce90 f i GuBounds.obj
 0001:0001bf00       ?V4Abs@aos@shdfnd@physx@@YA?AT__m128@@T4@@Z 1001cf00 f i GuBounds.obj
 0001:0001bf50       ?V4Add@aos@shdfnd@physx@@YA?AT__m128@@T4@0@Z 1001cf50 f i GuBounds.obj
 0001:0001bf90       ?V4ClearW@aos@shdfnd@physx@@YA?AT__m128@@T4@@Z 1001cf90 f i GuBounds.obj
 0001:0001bfd0       ?V4GetW@aos@shdfnd@physx@@YA?AT__m128@@T4@@Z 1001cfd0 f i GuBounds.obj
 0001:0001c010       ?V4GetX@aos@shdfnd@physx@@YA?AT__m128@@T4@@Z 1001d010 f i GuBounds.obj
 0001:0001c050       ?V4GetY@aos@shdfnd@physx@@YA?AT__m128@@T4@@Z 1001d050 f i GuBounds.obj
 0001:0001c090       ?V4GetZ@aos@shdfnd@physx@@YA?AT__m128@@T4@@Z 1001d090 f i GuBounds.obj
 0001:0001c0d0       ?V4Load@aos@shdfnd@physx@@YA?AT__m128@@M@Z 1001d0d0 f i GuBounds.obj
 0001:0001c110       ?V4LoadU@aos@shdfnd@physx@@YA?AT__m128@@QBM@Z 1001d110 f i GuBounds.obj
 0001:0001c140       ?V4Max@aos@shdfnd@physx@@YA?AT__m128@@T4@0@Z 1001d140 f i GuBounds.obj
 0001:0001c180       ?V4Min@aos@shdfnd@physx@@YA?AT__m128@@T4@0@Z 1001d180 f i GuBounds.obj
 0001:0001c1c0       ?V4Mul@aos@shdfnd@physx@@YA?AT__m128@@T4@0@Z 1001d1c0 f i GuBounds.obj
 0001:0001c200       ?V4MulAdd@aos@shdfnd@physx@@YA?AT__m128@@T4@00@Z 1001d200 f i GuBounds.obj
 0001:0001c260       ?V4Neg@aos@shdfnd@physx@@YA?AT__m128@@T4@@Z 1001d260 f i GuBounds.obj
 0001:0001c2a0       ?V4Scale@aos@shdfnd@physx@@YA?AT__m128@@T4@0@Z 1001d2a0 f i GuBounds.obj
 0001:0001c2e0       ?V4StoreA@aos@shdfnd@physx@@YAXT__m128@@PAM@Z 1001d2e0 f i GuBounds.obj
 0001:0001c360       ?V4StoreU@aos@shdfnd@physx@@YAXT__m128@@PAM@Z 1001d360 f i GuBounds.obj
 0001:0001c390       ?V4Sub@aos@shdfnd@physx@@YA?AT__m128@@T4@0@Z 1001d390 f i GuBounds.obj
 0001:0001c3d0       ?Vec3V_From_Vec4V@aos@shdfnd@physx@@YA?AT__m128@@T4@@Z 1001d3d0 f i GuBounds.obj
 0001:0001c410       ?Vec4V_From_Vec3V@aos@shdfnd@physx@@YA?AT__m128@@T4@@Z 1001d410 f i GuBounds.obj
 0001:0001c440       ?abs@PxVec3@physx@@QBE?AV12@XZ 1001d440 f i GuBounds.obj
 0001:0001c4a0       ?basisExtent@Cm@physx@@YA?AVPxVec3@2@ABV32@000@Z 1001d4a0 f i GuBounds.obj
 0001:0001c650       ?buildFrom@physx@@YAXAAVBox@Gu@1@ABVPxQuat@1@@Z 1001d650 f i GuBounds.obj
 0001:0001c700       ?computeAABBExtent@Box@Gu@physx@@QBE?AVPxVec3@3@XZ 1001d700 f i GuBounds.obj
 0001:0001c930       ?computeBoxPoints@Box@Gu@physx@@QBEXPIAVPxVec3@3@@Z 1001d930 f i GuBounds.obj
 0001:0001c970       ?dot@PxVec3@physx@@QBEMABV12@@Z 1001d970 f i GuBounds.obj
 0001:0001c9c0       ?fsel@intrinsics@physx@@YAMMMM@Z 1001d9c0 f i GuBounds.obj
 0001:0001c9f0       ?getCapsule@Gu@physx@@YAXAAVCapsule@12@ABVPxCapsuleGeometry@2@ABVPxTransform@2@@Z 1001d9f0 f i GuBounds.obj
 0001:0001ca20       ?getCapsuleHalfHeightVector@Gu@physx@@YA?AVPxVec3@2@ABVPxTransform@2@ABVPxCapsuleGeometry@2@@Z 1001da20 f i GuBounds.obj
 0001:0001ca60       ?getCapsuleSegment@Gu@physx@@YAXABVPxTransform@2@ABVPxCapsuleGeometry@2@AAVSegment@12@@Z 1001da60 f i GuBounds.obj
 0001:0001cac0       ?getCenter@PxBounds3@physx@@QBE?AVPxVec3@2@XZ 1001dac0 f i GuBounds.obj
 0001:0001cb30       ?getConcreteTypeName@PxConvexMesh@physx@@UBEPBDXZ 1001db30 f i GuBounds.obj
 0001:0001cb40       ?getConcreteTypeName@PxHeightField@physx@@UBEPBDXZ 1001db40 f i GuBounds.obj
 0001:0001cb50       ?getConvexEdgeThreshold@HeightField@Gu@physx@@UBEMXZ 1001db50 f i GuBounds.obj
 0001:0001cb70       ?getData@HeightField@Gu@physx@@QBEABUHeightFieldData@23@XZ 1001db70 f i GuBounds.obj
 0001:0001cb90       ?getDimensions@PxBounds3@physx@@QBE?AVPxVec3@2@XZ 1001db90 f i GuBounds.obj
 0001:0001cbe0       ?getExtents@PxBounds3@physx@@QBE?AVPxVec3@2@XZ 1001dbe0 f i GuBounds.obj
 0001:0001cc40       ?getFlags@HeightField@Gu@physx@@UBE?AV?$PxFlags@W4Enum@PxHeightFieldFlag@physx@@G@3@XZ 1001dc40 f i GuBounds.obj
 0001:0001cc60       ?getFormat@HeightField@Gu@physx@@UBE?AW4Enum@PxHeightFieldFormat@3@XZ 1001dc60 f i GuBounds.obj
 0001:0001cc80       ?getHeight@HeightField@Gu@physx@@QBEMI@Z 1001dc80 f i GuBounds.obj
 0001:0001ccb0       ?getHeight@HeightField@Gu@physx@@UBEMMM@Z 1001dcb0 f i GuBounds.obj
 0001:0001cce0       ?getHeightInternal2@HeightField@Gu@physx@@QBEMIMM@Z 1001dce0 f i GuBounds.obj
 0001:0001ceb0       ?getHeightInternal@HeightField@Gu@physx@@QBEMMM@Z 1001deb0 f i GuBounds.obj
 0001:0001cf10       ?getHull@ConvexMesh@Gu@physx@@QBEABUConvexHullData@23@XZ 1001df10 f i GuBounds.obj
 0001:0001cf30       ?getHullVertices@ConvexHullData@Gu@physx@@QBEPBVPxVec3@3@XZ 1001df30 f i GuBounds.obj
 0001:0001cf60       ?getIndexBuffer@ConvexMesh@Gu@physx@@UBEPBEXZ 1001df60 f i GuBounds.obj
 0001:0001cf80       ?getMaterialIndex0@HeightField@Gu@physx@@QBEGI@Z 1001df80 f i GuBounds.obj
 0001:0001cfb0       ?getMaterialIndex1@HeightField@Gu@physx@@QBEGI@Z 1001dfb0 f i GuBounds.obj
 0001:0001cfe0       ?getNbColumns@HeightField@Gu@physx@@UBEIXZ 1001dfe0 f i GuBounds.obj
 0001:0001d000       ?getNbColumnsFast@HeightField@Gu@physx@@QBEIXZ 1001e000 f i GuBounds.obj
 0001:0001d020       ?getNbPolygons@ConvexMesh@Gu@physx@@UBEIXZ 1001e020 f i GuBounds.obj
 0001:0001d040       ?getNbRows@HeightField@Gu@physx@@UBEIXZ 1001e040 f i GuBounds.obj
 0001:0001d060       ?getNbVertices@ConvexMesh@Gu@physx@@UBEIXZ 1001e060 f i GuBounds.obj
 0001:0001d080       ?getPaddedBounds@ConvexHullData@Gu@physx@@QBEABVCenterExtentsPadded@23@XZ 1001e080 f i GuBounds.obj
 0001:0001d090       ?getPaddedBounds@HeightFieldData@Gu@physx@@QBEABVCenterExtentsPadded@23@XZ 1001e090 f i GuBounds.obj
 0001:0001d0a0       ?getPaddedBounds@TriangleMesh@Gu@physx@@QBEABVCenterExtentsPadded@23@XZ 1001e0a0 f i GuBounds.obj
 0001:0001d0c0       ?getSample@HeightField@Gu@physx@@QBEABUPxHeightFieldSample@3@I@Z 1001e0c0 f i GuBounds.obj
 0001:0001d130       ?getSample@HeightField@Gu@physx@@UBEABUPxHeightFieldSample@3@II@Z 1001e130 f i GuBounds.obj
 0001:0001d160       ?getSampleStride@HeightField@Gu@physx@@UBEIXZ 1001e160 f i GuBounds.obj
 0001:0001d170       ?getTimestamp@HeightField@Gu@physx@@UBEIXZ 1001e170 f i GuBounds.obj
 0001:0001d190       ?getTransform@Box@Gu@physx@@QBE?AVPxTransform@3@XZ 1001e190 f i GuBounds.obj
 0001:0001d1c0       ?getTranspose@PxMat33@physx@@QBE?BV12@XZ 1001e1c0 f i GuBounds.obj
 0001:0001d280       ?getTriangleMaterial@HeightField@Gu@physx@@QBEGI@Z 1001e280 f i GuBounds.obj
 0001:0001d2d0       ?getTriangleMaterialIndex@HeightField@Gu@physx@@UBEGI@Z 1001e2d0 f i GuBounds.obj
 0001:0001d2f0       ?getTriangleNormal@HeightField@Gu@physx@@UBE?AVPxVec3@3@I@Z 1001e2f0 f i GuBounds.obj
 0001:0001d310       ?getTriangleNormalInternal@HeightField@Gu@physx@@QBE?AVPxVec3@3@I@Z 1001e310 f i GuBounds.obj
 0001:0001d500       ?getTriangleVertexIndices@HeightField@Gu@physx@@QBEXIAAI00@Z 1001e500 f i GuBounds.obj
 0001:0001d5f0       ?getType@PxGeometry@physx@@QBE?AW4Enum@PxGeometryType@2@XZ 1001e5f0 f i GuBounds.obj
 0001:0001d600       ?getVertexData8@ConvexHullData@Gu@physx@@QBEPBEXZ 1001e600 f i GuBounds.obj
 0001:0001d690       ?getVertices@ConvexMesh@Gu@physx@@UBEPBVPxVec3@3@XZ 1001e690 f i GuBounds.obj
 0001:0001d6b0       ?isAligned16@aos@shdfnd@physx@@YA_NPAX@Z 1001e6b0 f i GuBounds.obj
 0001:0001d6e0       ?isBitSet@?$PxBitAndDataT@E$0IA@@physx@@QBEEXZ 1001e6e0 f i GuBounds.obj
 0001:0001d700       ?isBitSet@?$PxBitAndDataT@G$0IAAA@@physx@@QBEGXZ 1001e700 f i GuBounds.obj
 0001:0001d720       ?isFinite@PxBounds3@physx@@QBE_NXZ 1001e720 f i GuBounds.obj
 0001:0001d770       ?isFinite@PxVec3@physx@@QBE_NXZ 1001e770 f i GuBounds.obj
 0001:0001d7f0       ?isFirstTriangle@HeightField@Gu@physx@@QBE_NI@Z 1001e7f0 f i GuBounds.obj
 0001:0001d820       ?isIdentity@PxMeshScale@physx@@QBE_NXZ 1001e820 f i GuBounds.obj
 0001:0001d880       ?isKindOf@PxBase@physx@@MBE_NPBD@Z 1001e880 f i GuBounds.obj
 0001:0001d8c0       ?isKindOf@PxConvexMesh@physx@@MBE_NPBD@Z 1001e8c0 f i GuBounds.obj
 0001:0001d910       ?isKindOf@PxHeightField@physx@@MBE_NPBD@Z 1001e910 f i GuBounds.obj
 0001:0001d960       ?isReleasable@PxBase@physx@@UBE_NXZ 1001e960 f i GuBounds.obj
 0001:0001d990       ?isUnit@PxQuat@physx@@QBE_NXZ 1001e990 f i GuBounds.obj
 0001:0001da10       ?isValid@Box@Gu@physx@@QBE_NXZ 1001ea10 f i GuBounds.obj
 0001:0001da50       ?isValid@PxBounds3@physx@@QBE_NXZ 1001ea50 f i GuBounds.obj
 0001:0001db40       ?isValidVertex@HeightField@Gu@physx@@QBE_NI@Z 1001eb40 f i GuBounds.obj
 0001:0001db80       ?isZerothVertexShared@HeightField@Gu@physx@@QBE_NI@Z 1001eb80 f i GuBounds.obj
 0001:0001dbc0       ?preExportDataReset@ConvexMesh@Gu@physx@@QAEXXZ 1001ebc0 f i GuBounds.obj
 0001:0001dbe0       ?preExportDataReset@HeightField@Gu@physx@@QAEXXZ 1001ebe0 f i GuBounds.obj
 0001:0001dc00       ?preExportDataReset@RefCountable@Cm@physx@@QAEXXZ 1001ec00 f i GuBounds.obj
 0001:0001dc20       ?prefetchLine@shdfnd@physx@@YAXPBXI@Z 1001ec20 f i GuBounds.obj
 0001:0001dc40       ?rotate@Box@Gu@physx@@QBE?AVPxVec3@3@ABV43@@Z 1001ec40 f i GuBounds.obj
 0001:0001dc60       ?rotateInv@Box@Gu@physx@@QBE?AVPxVec3@3@ABV43@@Z 1001ec60 f i GuBounds.obj
 0001:0001dc80       ?selectMin@intrinsics@physx@@YAMMM@Z 1001ec80 f i GuBounds.obj
 0001:0001dcb0       ?setAxes@Box@Gu@physx@@QAEXABVPxVec3@3@00@Z 1001ecb0 f i GuBounds.obj
 0001:0001dcf0       ?setEmpty@Box@Gu@physx@@QAEXXZ 1001ecf0 f i GuBounds.obj
 0001:0001dd70       ?tessFlag@PxHeightFieldSample@physx@@QBEEXZ 1001ed70 f i GuBounds.obj
 0001:0001ddb0       ?toMat33@PxMeshScale@physx@@QBE?AVPxMat33@2@XZ 1001edb0 f i GuBounds.obj
 0001:0001de50       ?transform@Box@Gu@physx@@QBE?AVPxVec3@3@ABV43@@Z 1001ee50 f i GuBounds.obj
 0001:0001de90       ?transform@PxMat33@physx@@QBE?BVPxVec3@2@ABV32@@Z 1001ee90 f i GuBounds.obj
 0001:0001df10       ?transformTranspose@PxMat33@physx@@QBE?BVPxVec3@2@ABV32@@Z 1001ef10 f i GuBounds.obj
 0001:0001df60       ?computeOBBPoints@Gu@physx@@YAXPIAVPxVec3@2@ABV32@1111@Z 1001ef60 f   GuBox.obj
 0001:0001e160       ?create@Box@Gu@physx@@QAEXABVCapsule@23@@Z 1001f160 f   GuBox.obj
 0001:0001e240       ?getBoxEdges@Gu@physx@@YAPBEXZ 1001f240 f   GuBox.obj
 0001:0001e250       ??KPxVec3@physx@@QBE?AV01@M@Z 1001f250 f i GuBox.obj
 0001:0001e2c0       ??YPxVec3@physx@@QAEAAV01@ABV01@@Z 1001f2c0 f i GuBox.obj
 0001:0001e320       ??ZPxVec3@physx@@QAEAAV01@ABV01@@Z 1001f320 f i GuBox.obj
 0001:0001e380       ?computeBasis@shdfnd@physx@@YAXABVPxVec3@2@AAV32@1@Z 1001f380 f i GuBox.obj
 0001:0001e4e0       ?computeCenter@Segment@Gu@physx@@QBE?AVPxVec3@3@XZ 1001f4e0 f i GuBox.obj
 0001:0001e520       ?computeBoxAroundCapsule@Gu@physx@@YAXABVCapsule@12@AAVBox@12@@Z 1001f520 f   GuCapsule.obj
 0001:0001e610       ?computeBasis@shdfnd@physx@@YAXABVPxVec3@2@0AAV32@11@Z 1001f610 f i GuCapsule.obj
 0001:0001e6b0       ?sweepBoxTriangles_Precise@Gu@physx@@YA_NIPBVPxTriangle@2@_NABVPxBoxGeometry@2@ABVPxTransform@2@ABVPxVec3@2@MAAUPxSweepHit@2@PBIMV?$PxFlags@W4Enum@PxHitFlag@physx@@G@2@@Z 1001f6b0 f   GuCCTSweepTests.obj
 0001:0001e740       ?sweepCapsule_BoxGeom_Precise@@YA_NABVPxGeometry@physx@@ABVPxTransform@2@ABVPxCapsuleGeometry@2@1ABVCapsule@Gu@2@ABVPxVec3@2@MAAUPxSweepHit@2@V?$PxFlags@W4Enum@PxHitFlag@physx@@G@2@M@Z 1001f740 f   GuCCTSweepTests.obj
 0001:0001eb40       ?sweepBox_SphereGeom_Precise@@YA_NABVPxGeometry@physx@@ABVPxTransform@2@ABVPxBoxGeometry@2@1ABVBox@Gu@2@ABVPxVec3@2@MAAUPxSweepHit@2@V?$PxFlags@W4Enum@PxHitFlag@physx@@G@2@M@Z 1001fb40 f   GuCCTSweepTests.obj
 0001:0001ed70       ?sweepBox_CapsuleGeom_Precise@@YA_NABVPxGeometry@physx@@ABVPxTransform@2@ABVPxBoxGeometry@2@1ABVBox@Gu@2@ABVPxVec3@2@MAAUPxSweepHit@2@V?$PxFlags@W4Enum@PxHitFlag@physx@@G@2@M@Z 1001fd70 f   GuCCTSweepTests.obj
 0001:0001f000       ?sweepBox_BoxGeom_Precise@@YA_NABVPxGeometry@physx@@ABVPxTransform@2@ABVPxBoxGeometry@2@1ABVBox@Gu@2@ABVPxVec3@2@MAAUPxSweepHit@2@V?$PxFlags@W4Enum@PxHitFlag@physx@@G@2@M@Z 10020000 f   GuCCTSweepTests.obj
 0001:0001f8d0       ?sweepBox_HeightFieldGeom_Precise@@YA_NABVPxGeometry@physx@@ABVPxTransform@2@ABVPxBoxGeometry@2@1ABVBox@Gu@2@ABVPxVec3@2@MAAUPxSweepHit@2@V?$PxFlags@W4Enum@PxHitFlag@physx@@G@2@M@Z 100208d0 f   GuCCTSweepTests.obj
 0001:0001fc50       ??$PX_UNUSED@I@@YAXABI@Z   10020c50 f i GuCCTSweepTests.obj
 0001:0001fc60       ??$PX_UNUSED@M@@YAXABM@Z   10020c60 f i GuCCTSweepTests.obj
 0001:0001fc70       ??$PX_UNUSED@VPxBoxGeometry@physx@@@@YAXABVPxBoxGeometry@physx@@@Z 10020c70 f i GuCCTSweepTests.obj
 0001:0001fc80       ??$PX_UNUSED@VPxCapsuleGeometry@physx@@@@YAXABVPxCapsuleGeometry@physx@@@Z 10020c80 f i GuCCTSweepTests.obj
 0001:0001fc90       ??$PX_UNUSED@VPxTransform@physx@@@@YAXABVPxTransform@physx@@@Z 10020c90 f i GuCCTSweepTests.obj
 0001:0001fca0       ??$PX_UNUSED@VPxVec3@physx@@@@YAXABVPxVec3@physx@@@Z 10020ca0 f i GuCCTSweepTests.obj
 0001:0001fcb0       ??0?$EntityReport@I@Gu@physx@@QAE@XZ 10020cb0 f i GuCCTSweepTests.obj
 0001:0001fcd0       ??0?$PxFlags@W4Enum@PxHitFlag@physx@@G@physx@@QAE@ABV01@@Z 10020cd0 f i GuCCTSweepTests.obj
 0001:0001fcf0       ??0?$PxFlags@W4Enum@PxHitFlag@physx@@G@physx@@QAE@G@Z 10020cf0 f i GuCCTSweepTests.obj
 0001:0001fd10       ??0?$PxFlags@W4Enum@PxHitFlag@physx@@G@physx@@QAE@W4Enum@PxHitFlag@1@@Z 10020d10 f i GuCCTSweepTests.obj
 0001:0001fd30       ??0?$PxFlags@W4Enum@PxHitFlag@physx@@G@physx@@QAE@XZ 10020d30 f i GuCCTSweepTests.obj
 0001:0001fd50       ??0?$PxFlags@W4Enum@PxMeshGeometryFlag@physx@@E@physx@@QAE@ABV01@@Z 10020d50 f i GuCCTSweepTests.obj
 0001:0001fd70       ??0Capsule@Gu@physx@@QAE@ABV012@@Z 10020d70 f i GuCCTSweepTests.obj
 0001:0001fda0       ??0Capsule@Gu@physx@@QAE@XZ 10020da0 f i GuCCTSweepTests.obj
 0001:0001fdc0       ??0HeightFieldTraceUtil@Gu@physx@@QAE@ABVPxHeightFieldGeometry@2@@Z 10020dc0 f i GuCCTSweepTests.obj
 0001:0001fde0       ??0HeightFieldUtil@Gu@physx@@QAE@ABVPxHeightFieldGeometry@2@@Z 10020de0 f i GuCCTSweepTests.obj
 0001:0001ff70       ??0Matrix34@Cm@physx@@QAE@ABVPxMat33@2@ABVPxVec3@2@@Z 10020f70 f i GuCCTSweepTests.obj
 0001:0001ffa0       ??0Matrix34@Cm@physx@@QAE@XZ 10020fa0 f i GuCCTSweepTests.obj
 0001:0001ffd0       ??0PxActorShape@physx@@QAE@XZ 10020fd0 f i GuCCTSweepTests.obj
 0001:00020000       ??0PxBounds3@physx@@QAE@ABVPxVec3@1@0@Z 10021000 f i GuCCTSweepTests.obj
 0001:00020030       ??0PxLocationHit@physx@@QAE@XZ 10021030 f i GuCCTSweepTests.obj
 0001:00020090       ??0PxQueryHit@physx@@QAE@XZ 10021090 f i GuCCTSweepTests.obj
 0001:000200b0       ??0PxSweepHit@physx@@QAE@XZ 100210b0 f i GuCCTSweepTests.obj
 0001:000200d0       ??0PxTriangle@physx@@QAE@ABVPxVec3@1@00@Z 100210d0 f i GuCCTSweepTests.obj
 0001:00020130       ??0PxTriangle@physx@@QAE@XZ 10021130 f i GuCCTSweepTests.obj
 0001:00020150       ??0Segment@Gu@physx@@QAE@ABV012@@Z 10021150 f i GuCCTSweepTests.obj
 0001:00020180       ??0Segment@Gu@physx@@QAE@XZ 10021180 f i GuCCTSweepTests.obj
 0001:000201b0       ??1?$EntityReport@I@Gu@physx@@UAE@XZ 100211b0 f i GuCCTSweepTests.obj
 0001:000201d0       ??1Capsule@Gu@physx@@QAE@XZ 100211d0 f i GuCCTSweepTests.obj
 0001:000201f0       ??1PxTriangle@physx@@QAE@XZ 100211f0 f i GuCCTSweepTests.obj
 0001:00020200       ??1Segment@Gu@physx@@QAE@XZ 10021200 f i GuCCTSweepTests.obj
 0001:00020210       ??4?$PxFlags@W4Enum@PxHitFlag@physx@@G@physx@@QAEAAV01@ABV01@@Z 10021210 f i GuCCTSweepTests.obj
 0001:00020230       ??4?$PxFlags@W4Enum@PxHitFlag@physx@@G@physx@@QAEAAV01@W4Enum@PxHitFlag@1@@Z 10021230 f i GuCCTSweepTests.obj
 0001:00020250       ??4HeightFieldTraceUtil@Gu@physx@@QAEAAV012@$$QAV012@@Z 10021250 f i GuCCTSweepTests.obj
 0001:00020290       ??4HeightFieldTraceUtil@Gu@physx@@QAEAAV012@ABV012@@Z 10021290 f i GuCCTSweepTests.obj
 0001:000202d0       ??4HeightFieldUtil@Gu@physx@@QAEAAV012@$$QAV012@@Z 100212d0 f i GuCCTSweepTests.obj
 0001:00020320       ??4HeightFieldUtil@Gu@physx@@QAEAAV012@ABV012@@Z 10021320 f i GuCCTSweepTests.obj
 0001:00020360       ??4Matrix34@Cm@physx@@QAEABV012@ABV012@@Z 10021360 f i GuCCTSweepTests.obj
 0001:00020390       ??4PxLocationHit@physx@@QAEAAU01@ABU01@@Z 10021390 f i GuCCTSweepTests.obj
 0001:00020400       ??4PxSweepHit@physx@@QAEAAU01@ABU01@@Z 10021400 f i GuCCTSweepTests.obj
 0001:00020430       ??8PxVec3@physx@@QBE_NABV01@@Z 10021430 f i GuCCTSweepTests.obj
 0001:00020490       ??B?$PxFlags@W4Enum@PxHeightFieldFlag@physx@@G@physx@@QBE_NXZ 10021490 f i GuCCTSweepTests.obj
 0001:000204c0       ??B?$PxFlags@W4Enum@PxHitFlag@physx@@G@physx@@QBEIXZ 100214c0 f i GuCCTSweepTests.obj
 0001:000204e0       ??B?$PxFlags@W4Enum@PxHitFlag@physx@@G@physx@@QBE_NXZ 100214e0 f i GuCCTSweepTests.obj
 0001:00020510       ??B?$PxFlags@W4Enum@PxMeshGeometryFlag@physx@@E@physx@@QBE_NXZ 10021510 f i GuCCTSweepTests.obj
 0001:00020540       ??GPxVec3@physx@@QBE?AV01@XZ 10021540 f i GuCCTSweepTests.obj
 0001:000205a0       ??I?$PxFlags@W4Enum@PxHeightFieldFlag@physx@@G@physx@@QBE?AV01@W4Enum@PxHeightFieldFlag@1@@Z 100215a0 f i GuCCTSweepTests.obj
 0001:000205e0       ??I?$PxFlags@W4Enum@PxHitFlag@physx@@G@physx@@QBE?AV01@ABV01@@Z 100215e0 f i GuCCTSweepTests.obj
 0001:00020620       ??I?$PxFlags@W4Enum@PxHitFlag@physx@@G@physx@@QBE?AV01@W4Enum@PxHitFlag@1@@Z 10021620 f i GuCCTSweepTests.obj
 0001:00020660       ??I?$PxFlags@W4Enum@PxMeshGeometryFlag@physx@@E@physx@@QBE?AV01@W4Enum@PxMeshGeometryFlag@1@@Z 10021660 f i GuCCTSweepTests.obj
 0001:000206a0       ??Uphysx@@YA?AV?$PxFlags@W4Enum@PxHitFlag@physx@@G@0@W4Enum@PxHitFlag@0@0@Z 100216a0 f i GuCCTSweepTests.obj
 0001:000206d0       ??_5?$PxFlags@W4Enum@PxHitFlag@physx@@G@physx@@QAEAAV01@W4Enum@PxHitFlag@1@@Z 100216d0 f i GuCCTSweepTests.obj
 0001:00020700       ??_G?$EntityReport@I@Gu@physx@@UAEPAXI@Z 10021700 f i GuCCTSweepTests.obj
 0001:00020700       ??_E?$EntityReport@I@Gu@physx@@UAEPAXI@Z 10021700 f i GuCCTSweepTests.obj
 0001:00020730       ?PxCeil@physx@@YAMM@Z      10021730 f i GuCCTSweepTests.obj
 0001:00020750       ?PxFloor@physx@@YAMM@Z     10021750 f i GuCCTSweepTests.obj
 0001:00020770       ?PxRecipSqrt@physx@@YAMM@Z 10021770 f i GuCCTSweepTests.obj
 0001:00020790       ?basisExtent@PxBounds3@physx@@SA?AV12@ABVPxVec3@2@ABVPxMat33@2@0@Z 10021790 f i GuCCTSweepTests.obj
 0001:00020970       ?buildFrom@physx@@YAXAAVBox@Gu@1@ABVPxVec3@1@1ABVPxQuat@1@@Z 10021970 f i GuCCTSweepTests.obj
 0001:000209b0       ?buildMatrixFromBox@physx@@YAXAAVMatrix34@Cm@1@ABVBox@Gu@1@@Z 100219b0 f i GuCCTSweepTests.obj
 0001:000209e0       ?ceilUp@HeightFieldTraceUtil@Gu@physx@@SAMM@Z 100219e0 f i GuCCTSweepTests.obj
 0001:00020a30       ?computePointNormal@HeightFieldUtil@Gu@physx@@QBE?AVPxVec3@3@IABV43@ABVPxTransform@3@MMMMAAM@Z 10021a30 f i GuCCTSweepTests.obj
 0001:00020b00       ?computeWorldToBoxMatrix@physx@@YAXAAVMatrix34@Cm@1@ABVBox@Gu@1@@Z 10021b00 f i GuCCTSweepTests.obj
 0001:00020b40       ?cullTriangle@Gu@physx@@YA_NPIBVPxVec3@2@ABV32@MMM@Z 10021b40 f i GuCCTSweepTests.obj
 0001:00020c40       ?denormalizedNormal@PxTriangle@physx@@QBEXAAVPxVec3@2@@Z 10021c40 f i GuCCTSweepTests.obj
 0001:00020cb0       ?distanceSegmentBoxSquared@Gu@physx@@YAMABVSegment@12@ABVBox@12@PAMPAVPxVec3@2@@Z 10021cb0 f i GuCCTSweepTests.obj
 0001:00020cf0       ?floorDown@HeightFieldTraceUtil@Gu@physx@@SAMM@Z 10021cf0 f i GuCCTSweepTests.obj
 0001:00020d40       ?getFeatureIndex@HeightFieldUtil@Gu@physx@@SAII@Z 10021d40 f i GuCCTSweepTests.obj
 0001:00020d50       ?getFeatureType@HeightFieldUtil@Gu@physx@@SA?AW4Feature@123@I@Z 10021d50 f i GuCCTSweepTests.obj
 0001:00020d60       ?getHeightAtShapePoint@HeightFieldUtil@Gu@physx@@QBEMMM@Z 10021d60 f i GuCCTSweepTests.obj
 0001:00020dc0       ?getHeightField@HeightFieldUtil@Gu@physx@@QBEABVHeightField@23@XZ 10021dc0 f i GuCCTSweepTests.obj
 0001:00020de0       ?getHeightFieldGeometry@HeightFieldUtil@Gu@physx@@QBEABVPxHeightFieldGeometry@3@XZ 10021de0 f i GuCCTSweepTests.obj
 0001:00020e00       ?getInverseRT@Matrix34@Cm@physx@@QBE?AV123@XZ 10021e00 f i GuCCTSweepTests.obj
 0001:00020e50       ?getNbRowsFast@HeightField@Gu@physx@@QBEIXZ 10021e50 f i GuCCTSweepTests.obj
 0001:00020e70       ?getNormalAtShapePoint@HeightFieldUtil@Gu@physx@@QBE?AVPxVec3@3@MM@Z 10021e70 f i GuCCTSweepTests.obj
 0001:00020ee0       ?getNormal_2@HeightField@Gu@physx@@QBE?AVPxVec3@3@IMMMMM@Z 10021ee0 f i GuCCTSweepTests.obj
 0001:00021120       ?getNormal_@HeightField@Gu@physx@@QBE?AVPxVec3@3@MMMMM@Z 10022120 f i GuCCTSweepTests.obj
 0001:000211b0       ?getNormalized@PxVec3@physx@@QBE?AV12@XZ 100221b0 f i GuCCTSweepTests.obj
 0001:00021240       ?getOneOverColumnScale@HeightFieldUtil@Gu@physx@@QBEMXZ 10022240 f i GuCCTSweepTests.obj
 0001:00021260       ?getOneOverHeightScale@HeightFieldUtil@Gu@physx@@QBEMXZ 10022260 f i GuCCTSweepTests.obj
 0001:00021280       ?getOneOverRowScale@HeightFieldUtil@Gu@physx@@QBEMXZ 10022280 f i GuCCTSweepTests.obj
 0001:00021290       ?getTriangleIndex@physx@@YAIII@Z 10022290 f i GuCCTSweepTests.obj
 0001:000212c0       ?getVertexNormal@HeightFieldUtil@Gu@physx@@QBE?AVPxVec3@3@I@Z 100222c0 f i GuCCTSweepTests.obj
 0001:00021320       ?hf2shapen@HeightFieldUtil@Gu@physx@@QBE?AVPxVec3@3@ABV43@@Z 10022320 f i GuCCTSweepTests.obj
 0001:00021380       ?hf2shapep@HeightFieldUtil@Gu@physx@@QBE?AVPxVec3@3@ABV43@@Z 10022380 f i GuCCTSweepTests.obj
 0001:000213f0       ?hf2worldn@HeightFieldUtil@Gu@physx@@QBE?AVPxVec3@3@ABVPxTransform@3@ABV43@@Z 100223f0 f i GuCCTSweepTests.obj
 0001:00021430       ?hf2worldp@HeightFieldUtil@Gu@physx@@QBE?AVPxVec3@3@ABVPxTransform@3@ABV43@@Z 10022430 f i GuCCTSweepTests.obj
 0001:00021470       ?isCollisionVertex@HeightField@Gu@physx@@QBE_NIIIG@Z 10022470 f i GuCCTSweepTests.obj
 0001:000214b0       ?isCollisionVertex@HeightFieldUtil@Gu@physx@@QBE_NIII@Z 100224b0 f i GuCCTSweepTests.obj
 0001:000214e0       ?isFinite@PxTransform@physx@@QBE_NXZ 100224e0 f i GuCCTSweepTests.obj
 0001:00021530       ?isQueryVertex@HeightFieldUtil@Gu@physx@@QBE_NIII@Z 10022530 f i GuCCTSweepTests.obj
 0001:00021600       ?isShapePointOnHeightField@HeightFieldUtil@Gu@physx@@QBE_NMM@Z 10022600 f i GuCCTSweepTests.obj
 0001:000216a0       ?makeFeatureCode@HeightFieldUtil@Gu@physx@@SAIIW4Feature@123@@Z 100226a0 f i GuCCTSweepTests.obj
 0001:000216b0       ?poseExtent@PxBounds3@physx@@SA?AV12@ABVPxTransform@2@ABVPxVec3@2@@Z 100226b0 f i GuCCTSweepTests.obj
 0001:000216f0       ?recipSqrt@intrinsics@physx@@YAMM@Z 100226f0 f i GuCCTSweepTests.obj
 0001:00021730       ?rotate@Matrix34@Cm@physx@@QBE?AVPxVec3@3@ABV43@@Z 10022730 f i GuCCTSweepTests.obj
 0001:00021750       ?rotate@PxTransform@physx@@QBE?AVPxVec3@2@ABV32@@Z 10022750 f i GuCCTSweepTests.obj
 0001:000217a0       ?setInitialOverlapResults@Gu@physx@@YA_NAAUPxSweepHit@2@ABVPxVec3@2@I@Z 100227a0 f i GuCCTSweepTests.obj
 0001:00021800       ?shape2hfp@HeightFieldUtil@Gu@physx@@QBE?AVPxVec3@3@ABV43@@Z 10022800 f i GuCCTSweepTests.obj
 0001:00021860       ?shouldFlipNormal@Gu@physx@@YA_NABVPxVec3@2@_N100@Z 10022860 f i GuCCTSweepTests.obj
 0001:00021910       ?transform@Matrix34@Cm@physx@@QBE?AVPxVec3@3@ABV43@@Z 10022910 f i GuCCTSweepTests.obj
 0001:00021950       ?transform@PxTransform@physx@@QBE?AVPxVec3@2@ABV32@@Z 10022950 f i GuCCTSweepTests.obj
 0001:000219b0       _ceilf                     100229b0 f i GuCCTSweepTests.obj
 0001:000219e0       _floorf                    100229e0 f i GuCCTSweepTests.obj
 0001:00021a60       ?sweep@PxGeometryQuery@physx@@SA_NABVPxVec3@2@MABVPxGeometry@2@ABVPxTransform@2@12AAUPxSweepHit@2@V?$PxFlags@W4Enum@PxHitFlag@physx@@G@2@M@Z 10022a60 f   GuGeometryQuery.obj
 0001:000220a0       ?overlap@PxGeometryQuery@physx@@SA_NABVPxGeometry@2@ABVPxTransform@2@01@Z 100230a0 f   GuGeometryQuery.obj
 0001:000220e0       ?raycast@PxGeometryQuery@physx@@SAIABVPxVec3@2@0ABVPxGeometry@2@ABVPxTransform@2@MV?$PxFlags@W4Enum@PxHitFlag@physx@@G@2@IPIAUPxRaycastHit@2@@Z 100230e0 f   GuGeometryQuery.obj
 0001:000223b0       ?computePenetration@PxGeometryQuery@physx@@SA_NAAVPxVec3@2@AAMABVPxGeometry@2@ABVPxTransform@2@23@Z 100233b0 f   GuGeometryQuery.obj
 0001:000225d0       ?pointDistance@PxGeometryQuery@physx@@SAMABVPxVec3@2@ABVPxGeometry@2@ABVPxTransform@2@PAV32@@Z 100235d0 f   GuGeometryQuery.obj
 0001:00022a10       ?getWorldBounds@PxGeometryQuery@physx@@SA?AVPxBounds3@2@ABVPxGeometry@2@ABVPxTransform@2@M@Z 10023a10 f   GuGeometryQuery.obj
 0001:00022b10       ?isValid@PxGeometryQuery@physx@@SA_NABVPxGeometry@2@@Z 10023b10 f   GuGeometryQuery.obj
 0001:00022c50       ??$PxMax@M@physx@@YAMMM@Z  10023c50 f i GuGeometryQuery.obj
 0001:00022c80       ??0Capsule@Gu@physx@@QAE@ABVPxVec3@2@0M@Z 10023c80 f i GuGeometryQuery.obj
 0001:00022cb0       ??0PxBounds3@physx@@QAE@$$QAV01@@Z 10023cb0 f i GuGeometryQuery.obj
 0001:00022ce0       ??0PxCapsuleGeometry@physx@@QAE@MM@Z 10023ce0 f i GuGeometryQuery.obj
 0001:00022d20       ??0PxGeometry@physx@@IAE@W4Enum@PxGeometryType@1@@Z 10023d20 f i GuGeometryQuery.obj
 0001:00022d40       ??0SIMDGuard@shdfnd@physx@@QAE@XZ 10023d40 f i GuGeometryQuery.obj
 0001:00022d70       ??0Segment@Gu@physx@@QAE@ABVPxVec3@2@0@Z 10023d70 f i GuGeometryQuery.obj
 0001:00022da0       ??1SIMDGuard@shdfnd@physx@@QAE@XZ 10023da0 f i GuGeometryQuery.obj
 0001:00022dc0       ?distancePointBoxSquared@Gu@physx@@YAMABVPxVec3@2@ABVBox@12@PAV32@@Z 10023dc0 f i GuGeometryQuery.obj
 0001:00022df0       ?distancePointSegmentSquared@Gu@physx@@YAMABVPxVec3@2@00PAM@Z 10023df0 f i GuGeometryQuery.obj
 0001:00022e20       ?distancePointSegmentSquared@Gu@physx@@YAMABVSegment@12@ABVPxVec3@2@PAM@Z 10023e20 f i GuGeometryQuery.obj
 0001:00022e40       ?distancePointSegmentSquaredInternal@Gu@physx@@YAMABVPxVec3@2@00PAM@Z 10023e40 f i GuGeometryQuery.obj
 0001:00022f00       ?empty@PxBounds3@physx@@SA?AV12@XZ 10023f00 f i GuGeometryQuery.obj
 0001:00022f50       ?getPointAt@Segment@Gu@physx@@QBE?AVPxVec3@3@M@Z 10023f50 f i GuGeometryQuery.obj
 0001:00022fa0       ?isValid@PxBoxGeometry@physx@@QBE_NXZ 10023fa0 f i GuGeometryQuery.obj
 0001:00023000       ?isValid@PxCapsuleGeometry@physx@@QBE_NXZ 10024000 f i GuGeometryQuery.obj
 0001:00023080       ?isValid@PxConvexMeshGeometry@physx@@QBE_NXZ 10024080 f i GuGeometryQuery.obj
 0001:000230f0       ?isValid@PxSphereGeometry@physx@@QBE_NXZ 100240f0 f i GuGeometryQuery.obj
 0001:00023140       ?isValid@PxTransform@physx@@QBE_NXZ 10024140 f i GuGeometryQuery.obj
 0001:00023190       ?isValidForConvexMesh@PxMeshScale@physx@@QBE_NXZ 10024190 f i GuGeometryQuery.obj
 0001:000231f0       ?maxElement@PxVec3@physx@@QBEMXZ 100241f0 f i GuGeometryQuery.obj
 0001:00023240       ?minElement@PxVec3@physx@@QBEMXZ 10024240 f i GuGeometryQuery.obj
 0001:00023290       ?overlap@Gu@physx@@YA_NABVPxGeometry@2@ABVPxTransform@2@01PIAY06Q6A_N0101PAUTriggerCache@12@@Z@Z 10024290 f i GuGeometryQuery.obj
 0001:00023420       ?selectMax@intrinsics@physx@@YAMMM@Z 10024420 f i GuGeometryQuery.obj
 0001:00023450       ?set@GeometryUnion@Gu@physx@@QAEXABVPxGeometry@3@@Z 10024450 f   GuGeometryUnion.obj
 0001:00023710       ??$PX_UNUSED@VGeometryUnion@Gu@physx@@@@YAXABVGeometryUnion@Gu@physx@@@Z 10024710 f i GuGeometryUnion.obj
 0001:00023720       ??$checkType@UPxConvexMeshGeometryLL@physx@@@physx@@YAXABVGeometryUnion@Gu@0@@Z 10024720 f i GuGeometryUnion.obj
 0001:00023780       ??$checkType@UPxHeightFieldGeometryLL@physx@@@physx@@YAXABVGeometryUnion@Gu@0@@Z 10024780 f i GuGeometryUnion.obj
 0001:000237e0       ??$checkType@UPxTriangleMeshGeometryLL@physx@@@physx@@YAXABVGeometryUnion@Gu@0@@Z 100247e0 f i GuGeometryUnion.obj
 0001:00023840       ??$get@UPxConvexMeshGeometryLL@physx@@@GeometryUnion@Gu@physx@@QAEAAUPxConvexMeshGeometryLL@2@XZ 10024840 f i GuGeometryUnion.obj
 0001:00023860       ??$get@UPxHeightFieldGeometryLL@physx@@@GeometryUnion@Gu@physx@@QAEAAUPxHeightFieldGeometryLL@2@XZ 10024860 f i GuGeometryUnion.obj
 0001:00023880       ??$get@UPxTriangleMeshGeometryLL@physx@@@GeometryUnion@Gu@physx@@QAEAAUPxTriangleMeshGeometryLL@2@XZ 10024880 f i GuGeometryUnion.obj
 0001:000238a0       ??0GeometryUnion@Gu@physx@@QAE@ABVPxGeometry@2@@Z 100248a0 f i GuGeometryUnion.obj
 0001:000238c0       ??0GeometryUnion@Gu@physx@@QAE@W4PxEMPTY@2@@Z 100248c0 f i GuGeometryUnion.obj
 0001:000238d0       ??0GeometryUnion@Gu@physx@@QAE@XZ 100248d0 f i GuGeometryUnion.obj
 0001:000238f0       ??0InvalidGeometry@Gu@physx@@QAE@XZ 100248f0 f i GuGeometryUnion.obj
 0001:00023910       ??0MaterialIndicesStruct@physx@@QAE@W4PxEMPTY@1@@Z 10024910 f i GuGeometryUnion.obj
 0001:00023920       ??0MaterialIndicesStruct@physx@@QAE@XZ 10024920 f i GuGeometryUnion.obj
 0001:00023950       ??1MaterialIndicesStruct@physx@@QAE@XZ 10024950 f i GuGeometryUnion.obj
 0001:00023960       ??4?$PxFlags@W4Enum@PxConvexMeshGeometryFlag@physx@@E@physx@@QAEAAV01@ABV01@@Z 10024960 f i GuGeometryUnion.obj
 0001:00023980       ??4?$PxFlags@W4Enum@PxMeshGeometryFlag@physx@@E@physx@@QAEAAV01@ABV01@@Z 10024980 f i GuGeometryUnion.obj
 0001:000239a0       ??4GeometryUnion@Gu@physx@@QAEAAV012@$$QAV012@@Z 100249a0 f i GuGeometryUnion.obj
 0001:000239d0       ??4GeometryUnion@Gu@physx@@QAEAAV012@ABV012@@Z 100249d0 f i GuGeometryUnion.obj
 0001:00023a00       ??4MaterialIndicesStruct@physx@@QAEAAU01@ABU01@@Z 10024a00 f i GuGeometryUnion.obj
 0001:00023a20       ??4PxBoxGeometry@physx@@QAEAAV01@ABV01@@Z 10024a20 f i GuGeometryUnion.obj
 0001:00023a50       ??4PxConvexMeshGeometry@physx@@QAEAAV01@ABV01@@Z 10024a50 f i GuGeometryUnion.obj
 0001:00023ac0       ??4PxHeightFieldGeometry@physx@@QAEAAV01@ABV01@@Z 10024ac0 f i GuGeometryUnion.obj
 0001:00023b40       ??4PxMeshScale@physx@@QAEAAV01@ABV01@@Z 10024b40 f i GuGeometryUnion.obj
 0001:00023b70       ??4PxTriangleMeshGeometry@physx@@QAEAAV01@ABV01@@Z 10024b70 f i GuGeometryUnion.obj
 0001:00023be0       ?allocate@MaterialIndicesStruct@physx@@QAEXG@Z 10024be0 f i GuGeometryUnion.obj
 0001:00023c30       ?deallocate@MaterialIndicesStruct@physx@@QAEXXZ 10024c30 f i GuGeometryUnion.obj
 0001:00023c60       ?getGeometry@GeometryUnion@Gu@physx@@QBEABVPxGeometry@3@XZ 10024c60 f i GuGeometryUnion.obj
 0001:00023c70       ?getHull@ConvexMesh@Gu@physx@@QAEAAUConvexHullData@23@XZ 10024c70 f i GuGeometryUnion.obj
 0001:00023c90       ?getMaterials@TriangleMesh@Gu@physx@@QBEPBGXZ 10024c90 f i GuGeometryUnion.obj
 0001:00023cb0       ?getType@GeometryUnion@Gu@physx@@QBE?AW4Enum@PxGeometryType@3@XZ 10024cb0 f i GuGeometryUnion.obj
 0001:00023d20       ?computeBoxPoints@Gu@physx@@YAXABVPxBounds3@2@PIAVPxVec3@2@@Z 10024d20 f   GuInternal.obj
 0001:00023f80       ?computeBoundsAroundVertices@Gu@physx@@YAXAAVPxBounds3@2@IPIBVPxVec3@2@@Z 10024f80 f   GuInternal.obj
 0001:000240e0       ?getPlane@Gu@physx@@YA?AVPxPlane@2@ABVPxTransform@2@@Z 100250e0 f   GuInternal.obj
 0001:00024130       ?computeSweptBox@Gu@physx@@YAXAAVBox@12@ABVPxVec3@2@1ABVPxMat33@2@1M@Z 10025130 f   GuInternal.obj
 0001:000244c0       ??$swap@I@shdfnd@physx@@YAXAAI0@Z 100254c0 f i GuInternal.obj
 0001:000244f0       ??0PxPlane@physx@@QAE@ABVPxVec3@1@M@Z 100254f0 f i GuInternal.obj
 0001:00024520       ??APxMat33@physx@@QAEAAVPxVec3@1@I@Z 10025520 f i GuInternal.obj
 0001:00024540       ?setEmpty@PxBounds3@physx@@QAEXXZ 10025540 f i GuInternal.obj
 0001:00024590       ??0GuMeshFactory@physx@@QAE@XZ 10025590 f   GuMeshFactory.obj
 0001:00024660       ??1GuMeshFactory@physx@@MAE@XZ 10025660 f   GuMeshFactory.obj
 0001:000246c0       ?release@GuMeshFactory@physx@@QAEXXZ 100256c0 f   GuMeshFactory.obj
 0001:00024740       ?addTriangleMesh@GuMeshFactory@physx@@QAEXPAVTriangleMesh@Gu@2@_N@Z 10025740 f   GuMeshFactory.obj
 0001:00024780       ?createTriangleMesh@GuMeshFactory@physx@@QAEPAVPxTriangleMesh@2@AAVPxInputStream@2@@Z 10025780 f   GuMeshFactory.obj
 0001:000247e0       ?createTriangleMesh@GuMeshFactory@physx@@QAEPAVPxTriangleMesh@2@PAX@Z 100257e0 f   GuMeshFactory.obj
 0001:00024800       ?removeTriangleMesh@GuMeshFactory@physx@@QAE_NAAVPxTriangleMesh@2@@Z 10025800 f   GuMeshFactory.obj
 0001:00024850       ?getNbTriangleMeshes@GuMeshFactory@physx@@QBEIXZ 10025850 f   GuMeshFactory.obj
 0001:00024890       ?getTriangleMeshes@GuMeshFactory@physx@@QBEIPAPAVPxTriangleMesh@2@II@Z 10025890 f   GuMeshFactory.obj
 0001:000248f0       ?addConvexMesh@GuMeshFactory@physx@@QAEXPAVConvexMesh@Gu@2@_N@Z 100258f0 f   GuMeshFactory.obj
 0001:00024930       ?createConvexMesh@GuMeshFactory@physx@@QAEPAVPxConvexMesh@2@AAVPxInputStream@2@@Z 10025930 f   GuMeshFactory.obj
 0001:000249f0       ?createConvexMesh@GuMeshFactory@physx@@QAEPAVPxConvexMesh@2@PAX@Z 100259f0 f   GuMeshFactory.obj
 0001:00024a10       ?removeConvexMesh@GuMeshFactory@physx@@QAE_NAAVPxConvexMesh@2@@Z 10025a10 f   GuMeshFactory.obj
 0001:00024a60       ?getNbConvexMeshes@GuMeshFactory@physx@@QBEIXZ 10025a60 f   GuMeshFactory.obj
 0001:00024aa0       ?getConvexMeshes@GuMeshFactory@physx@@QBEIPAPAVPxConvexMesh@2@II@Z 10025aa0 f   GuMeshFactory.obj
 0001:00024b00       ?addHeightField@GuMeshFactory@physx@@QAEXPAVHeightField@Gu@2@_N@Z 10025b00 f   GuMeshFactory.obj
 0001:00024b40       ?createHeightField@GuMeshFactory@physx@@QAEPAVPxHeightField@2@PAX@Z 10025b40 f   GuMeshFactory.obj
 0001:00024bd0       ?createHeightField@GuMeshFactory@physx@@QAEPAVPxHeightField@2@AAVPxInputStream@2@@Z 10025bd0 f   GuMeshFactory.obj
 0001:00024c80       ?removeHeightField@GuMeshFactory@physx@@QAE_NAAVPxHeightField@2@@Z 10025c80 f   GuMeshFactory.obj
 0001:00024cd0       ?getNbHeightFields@GuMeshFactory@physx@@QBEIXZ 10025cd0 f   GuMeshFactory.obj
 0001:00024d10       ?getHeightFields@GuMeshFactory@physx@@QBEIPAPAVPxHeightField@2@II@Z 10025d10 f   GuMeshFactory.obj
 0001:00024d70       ?addBVHStructure@GuMeshFactory@physx@@QAEXPAVBVHStructure@Gu@2@_N@Z 10025d70 f   GuMeshFactory.obj
 0001:00024dc0       ?createBVHStructure@GuMeshFactory@physx@@QAEPAVPxBVHStructure@2@AAVPxInputStream@2@@Z 10025dc0 f   GuMeshFactory.obj
 0001:00024e70       ?createBVHStructure@GuMeshFactory@physx@@QAEPAVPxBVHStructure@2@PAX@Z 10025e70 f   GuMeshFactory.obj
 0001:00024e90       ?removeBVHStructure@GuMeshFactory@physx@@QAE_NAAVPxBVHStructure@2@@Z 10025e90 f   GuMeshFactory.obj
 0001:00024ee0       ?getNbBVHStructures@GuMeshFactory@physx@@QBEIXZ 10025ee0 f   GuMeshFactory.obj
 0001:00024f20       ?getBVHStructures@GuMeshFactory@physx@@QBEIPAPAVPxBVHStructure@2@II@Z 10025f20 f   GuMeshFactory.obj
 0001:00024f80       ?addFactoryListener@GuMeshFactory@physx@@QAEXAAVGuMeshFactoryListener@2@@Z 10025f80 f   GuMeshFactory.obj
 0001:00024fc0       ?removeFactoryListener@GuMeshFactory@physx@@QAEXAAVGuMeshFactoryListener@2@@Z 10025fc0 f   GuMeshFactory.obj
 0001:00025050       ?notifyFactoryListener@GuMeshFactory@physx@@QAEXPBVPxBase@2@G@Z 10026050 f   GuMeshFactory.obj
 0001:000250c0       ?createTriangleMesh@GuMeshFactory@physx@@IAEPAVPxTriangleMesh@2@AAVTriangleMeshData@Gu@2@@Z 100260c0 f   GuMeshFactory.obj
 0001:000251e0       ?createConvexMesh@GuMeshFactory@physx@@IAEPAVPxConvexMesh@2@AAUConvexHullInitData@Gu@2@@Z 100261e0 f   GuMeshFactory.obj
 0001:00025280       ?createBVHStructure@GuMeshFactory@physx@@IAEPAVPxBVHStructure@2@AAUBVHStructureData@Gu@2@@Z 10026280 f   GuMeshFactory.obj
 0001:000265d0       ??$?2V?$ReflectionAllocator@VBV32Tree@Gu@physx@@@shdfnd@physx@@@UserAllocated@shdfnd@physx@@SAPAXIV?$ReflectionAllocator@VBV32Tree@Gu@physx@@@12@PBDH@Z 100275d0 f i GuMeshFactory.obj
 0001:000265f0       ??$?2V?$ReflectionAllocator@VBV4TriangleData@Gu@physx@@@shdfnd@physx@@@UserAllocated@shdfnd@physx@@SAPAXIV?$ReflectionAllocator@VBV4TriangleData@Gu@physx@@@12@PBDH@Z 100275f0 f i GuMeshFactory.obj
 0001:00026610       ??$?2V?$ReflectionAllocator@VRTreeTriangleData@Gu@physx@@@shdfnd@physx@@@UserAllocated@shdfnd@physx@@SAPAXIV?$ReflectionAllocator@VRTreeTriangleData@Gu@physx@@@12@PBDH@Z 10027610 f i GuMeshFactory.obj
 0001:00026630       ??$?_UE@@YAPAXIV?$ReflectionAllocator@E@shdfnd@physx@@PBDH@Z 10027630 f i GuMeshFactory.obj
 0001:00026650       ??$?_UG@@YAPAXIV?$ReflectionAllocator@G@shdfnd@physx@@PBDH@Z 10027650 f i GuMeshFactory.obj
 0001:00026670       ??$?_UI@@YAPAXIV?$ReflectionAllocator@I@shdfnd@physx@@PBDH@Z 10027670 f i GuMeshFactory.obj
 0001:00026690       ??$PxMax@H@physx@@YAHHH@Z  10027690 f i GuMeshFactory.obj
 0001:000266c0       ??$PxMin@I@physx@@YAIII@Z  100276c0 f i GuMeshFactory.obj
 0001:000266f0       ??$getArrayOfPointers@VPxBVHStructure@physx@@VBVHStructure@Gu@2@@Cm@physx@@YAIPIAPAVPxBVHStructure@1@IIPIBQAVBVHStructure@Gu@1@I@Z 100276f0 f i GuMeshFactory.obj
 0001:00026760       ??$getArrayOfPointers@VPxConvexMesh@physx@@VConvexMesh@Gu@2@@Cm@physx@@YAIPIAPAVPxConvexMesh@1@IIPIBQAVConvexMesh@Gu@1@I@Z 10027760 f i GuMeshFactory.obj
 0001:000267d0       ??$getArrayOfPointers@VPxHeightField@physx@@VHeightField@Gu@2@@Cm@physx@@YAIPIAPAVPxHeightField@1@IIPIBQAVHeightField@Gu@1@I@Z 100277d0 f i GuMeshFactory.obj
 0001:00026840       ??$getArrayOfPointers@VPxTriangleMesh@physx@@VTriangleMesh@Gu@2@@Cm@physx@@YAIPIAPAVPxTriangleMesh@1@IIPIBQAVTriangleMesh@Gu@1@I@Z 10027840 f i GuMeshFactory.obj
 0001:000268b0       ??0?$AlignedAllocator@$0IA@VNonTrackingAllocator@shdfnd@physx@@@shdfnd@physx@@QAE@ABVNonTrackingAllocator@12@@Z 100278b0 f i GuMeshFactory.obj
 0001:000268c0       ??0?$Array@PAVGuMeshFactoryListener@physx@@VNamedAllocator@shdfnd@2@@shdfnd@physx@@QAE@ABVNamedAllocator@12@@Z 100278c0 f i GuMeshFactory.obj
 0001:00026900       ??0?$CoalescedHashSet@PAVBVHStructure@Gu@physx@@U?$Hash@PAVBVHStructure@Gu@physx@@@shdfnd@3@VNonTrackingAllocator@53@@shdfnd@physx@@QAE@ABVNonTrackingAllocator@12@@Z 10027900 f i GuMeshFactory.obj
 0001:00026930       ??0?$CoalescedHashSet@PAVConvexMesh@Gu@physx@@U?$Hash@PAVConvexMesh@Gu@physx@@@shdfnd@3@VNonTrackingAllocator@53@@shdfnd@physx@@QAE@ABVNonTrackingAllocator@12@@Z 10027930 f i GuMeshFactory.obj
 0001:00026960       ??0?$CoalescedHashSet@PAVHeightField@Gu@physx@@U?$Hash@PAVHeightField@Gu@physx@@@shdfnd@3@VNonTrackingAllocator@53@@shdfnd@physx@@QAE@ABVNonTrackingAllocator@12@@Z 10027960 f i GuMeshFactory.obj
 0001:00026990       ??0?$CoalescedHashSet@PAVTriangleMesh@Gu@physx@@U?$Hash@PAVTriangleMesh@Gu@physx@@@shdfnd@3@VNonTrackingAllocator@53@@shdfnd@physx@@QAE@ABVNonTrackingAllocator@12@@Z 10027990 f i GuMeshFactory.obj
 0001:000269c0       ??0?$HashBase@PAVBVHStructure@Gu@physx@@PAV123@U?$Hash@PAVBVHStructure@Gu@physx@@@shdfnd@3@UGetKey@?$HashSetBase@PAVBVHStructure@Gu@physx@@U?$Hash@PAVBVHStructure@Gu@physx@@@shdfnd@3@VNonTrackingAllocator@53@$00@internal@53@VNonTrackingAllocator@53@$00@internal@shdfnd@physx@@QAE@IMABVNonTrackingAllocator@23@@Z 100279c0 f i GuMeshFactory.obj
 0001:000269f0       ??0?$HashBase@PAVConvexMesh@Gu@physx@@PAV123@U?$Hash@PAVConvexMesh@Gu@physx@@@shdfnd@3@UGetKey@?$HashSetBase@PAVConvexMesh@Gu@physx@@U?$Hash@PAVConvexMesh@Gu@physx@@@shdfnd@3@VNonTrackingAllocator@53@$00@internal@53@VNonTrackingAllocator@53@$00@internal@shdfnd@physx@@QAE@IMABVNonTrackingAllocator@23@@Z 100279f0 f i GuMeshFactory.obj
 0001:00026a20       ??0?$HashBase@PAVHeightField@Gu@physx@@PAV123@U?$Hash@PAVHeightField@Gu@physx@@@shdfnd@3@UGetKey@?$HashSetBase@PAVHeightField@Gu@physx@@U?$Hash@PAVHeightField@Gu@physx@@@shdfnd@3@VNonTrackingAllocator@53@$00@internal@53@VNonTrackingAllocator@53@$00@internal@shdfnd@physx@@QAE@IMABVNonTrackingAllocator@23@@Z 10027a20 f i GuMeshFactory.obj
 0001:00026a50       ??0?$HashBase@PAVTriangleMesh@Gu@physx@@PAV123@U?$Hash@PAVTriangleMesh@Gu@physx@@@shdfnd@3@UGetKey@?$HashSetBase@PAVTriangleMesh@Gu@physx@@U?$Hash@PAVTriangleMesh@Gu@physx@@@shdfnd@3@VNonTrackingAllocator@53@$00@internal@53@VNonTrackingAllocator@53@$00@internal@shdfnd@physx@@QAE@IMABVNonTrackingAllocator@23@@Z 10027a50 f i GuMeshFactory.obj
 0001:00026a80       ??0?$HashSetBase@PAVBVHStructure@Gu@physx@@U?$Hash@PAVBVHStructure@Gu@physx@@@shdfnd@3@VNonTrackingAllocator@53@$00@internal@shdfnd@physx@@QAE@IMABVNonTrackingAllocator@23@@Z 10027a80 f i GuMeshFactory.obj
 0001:00026ab0       ??0?$HashSetBase@PAVConvexMesh@Gu@physx@@U?$Hash@PAVConvexMesh@Gu@physx@@@shdfnd@3@VNonTrackingAllocator@53@$00@internal@shdfnd@physx@@QAE@IMABVNonTrackingAllocator@23@@Z 10027ab0 f i GuMeshFactory.obj
 0001:00026ae0       ??0?$HashSetBase@PAVHeightField@Gu@physx@@U?$Hash@PAVHeightField@Gu@physx@@@shdfnd@3@VNonTrackingAllocator@53@$00@internal@shdfnd@physx@@QAE@IMABVNonTrackingAllocator@23@@Z 10027ae0 f i GuMeshFactory.obj
 0001:00026b10       ??0?$HashSetBase@PAVTriangleMesh@Gu@physx@@U?$Hash@PAVTriangleMesh@Gu@physx@@@shdfnd@3@VNonTrackingAllocator@53@$00@internal@shdfnd@physx@@QAE@IMABVNonTrackingAllocator@23@@Z 10027b10 f i GuMeshFactory.obj
 0001:00026b40       ??0?$MutexT@V?$ReflectionAllocator@VMutexImpl@shdfnd@physx@@@shdfnd@physx@@@shdfnd@physx@@QAE@ABV?$ReflectionAllocator@VMutexImpl@shdfnd@physx@@@12@@Z 10027b40 f i GuMeshFactory.obj
 0001:00026ba0       ??0?$ReflectionAllocator@E@shdfnd@physx@@QAE@PBD@Z 10027ba0 f i GuMeshFactory.obj
 0001:00026bb0       ??0?$ReflectionAllocator@G@shdfnd@physx@@QAE@PBD@Z 10027bb0 f i GuMeshFactory.obj
 0001:00026bc0       ??0?$ReflectionAllocator@I@shdfnd@physx@@QAE@PBD@Z 10027bc0 f i GuMeshFactory.obj
 0001:00026bd0       ??0?$ReflectionAllocator@VBV32Tree@Gu@physx@@@shdfnd@physx@@QAE@PBD@Z 10027bd0 f i GuMeshFactory.obj
 0001:00026be0       ??0?$ReflectionAllocator@VBV4TriangleData@Gu@physx@@@shdfnd@physx@@QAE@PBD@Z 10027be0 f i GuMeshFactory.obj
 0001:00026bf0       ??0?$ReflectionAllocator@VBV4TriangleMesh@Gu@physx@@@shdfnd@physx@@QAE@PBD@Z 10027bf0 f i GuMeshFactory.obj
 0001:00026c00       ??0?$ReflectionAllocator@VBVHStructure@Gu@physx@@@shdfnd@physx@@QAE@PBD@Z 10027c00 f i GuMeshFactory.obj
 0001:00026c10       ??0?$ReflectionAllocator@VConvexMesh@Gu@physx@@@shdfnd@physx@@QAE@PBD@Z 10027c10 f i GuMeshFactory.obj
 0001:00026c20       ??0?$ReflectionAllocator@VHeightField@Gu@physx@@@shdfnd@physx@@QAE@PBD@Z 10027c20 f i GuMeshFactory.obj
 0001:00026c30       ??0?$ReflectionAllocator@VMutexImpl@shdfnd@physx@@@shdfnd@physx@@QAE@ABV012@@Z 10027c30 f i GuMeshFactory.obj
 0001:00026c40       ??0?$ReflectionAllocator@VMutexImpl@shdfnd@physx@@@shdfnd@physx@@QAE@PBD@Z 10027c40 f i GuMeshFactory.obj
 0001:00026c50       ??0?$ReflectionAllocator@VRTreeTriangleData@Gu@physx@@@shdfnd@physx@@QAE@PBD@Z 10027c50 f i GuMeshFactory.obj
 0001:00026c60       ??0?$ReflectionAllocator@VRTreeTriangleMesh@Gu@physx@@@shdfnd@physx@@QAE@PBD@Z 10027c60 f i GuMeshFactory.obj
 0001:00026c70       ??0BV4TriangleData@Gu@physx@@QAE@XZ 10027c70 f i GuMeshFactory.obj
 0001:00026cb0       ??0MeshDataBase@Gu@physx@@QAE@XZ 10027cb0 f i GuMeshFactory.obj
 0001:00026d30       ??0RTree@Gu@physx@@QAE@XZ  10027d30 f i GuMeshFactory.obj
 0001:00026da0       ??0RTreeTriangleData@Gu@physx@@QAE@XZ 10027da0 f i GuMeshFactory.obj
 0001:00026de0       ??0ScopedLock@?$MutexT@V?$ReflectionAllocator@VMutexImpl@shdfnd@physx@@@shdfnd@physx@@@shdfnd@physx@@QAE@AAV123@@Z 10027de0 f i GuMeshFactory.obj
 0001:00026e10       ??0TriangleMeshData@Gu@physx@@QAE@XZ 10027e10 f i GuMeshFactory.obj
 0001:00026e70       ??1?$Array@PAVGuMeshFactoryListener@physx@@VNamedAllocator@shdfnd@2@@shdfnd@physx@@QAE@XZ 10027e70 f i GuMeshFactory.obj
 0001:00026ed0       ??1?$CoalescedHashSet@PAVBVHStructure@Gu@physx@@U?$Hash@PAVBVHStructure@Gu@physx@@@shdfnd@3@VNonTrackingAllocator@53@@shdfnd@physx@@QAE@XZ 10027ed0 f i GuMeshFactory.obj
 0001:00026ef0       ??1?$CoalescedHashSet@PAVConvexMesh@Gu@physx@@U?$Hash@PAVConvexMesh@Gu@physx@@@shdfnd@3@VNonTrackingAllocator@53@@shdfnd@physx@@QAE@XZ 10027ef0 f i GuMeshFactory.obj
 0001:00026f10       ??1?$CoalescedHashSet@PAVHeightField@Gu@physx@@U?$Hash@PAVHeightField@Gu@physx@@@shdfnd@3@VNonTrackingAllocator@53@@shdfnd@physx@@QAE@XZ 10027f10 f i GuMeshFactory.obj
 0001:00026f30       ??1?$CoalescedHashSet@PAVTriangleMesh@Gu@physx@@U?$Hash@PAVTriangleMesh@Gu@physx@@@shdfnd@3@VNonTrackingAllocator@53@@shdfnd@physx@@QAE@XZ 10027f30 f i GuMeshFactory.obj
 0001:00026f50       ??1?$HashBase@PAVBVHStructure@Gu@physx@@PAV123@U?$Hash@PAVBVHStructure@Gu@physx@@@shdfnd@3@UGetKey@?$HashSetBase@PAVBVHStructure@Gu@physx@@U?$Hash@PAVBVHStructure@Gu@physx@@@shdfnd@3@VNonTrackingAllocator@53@$00@internal@53@VNonTrackingAllocator@53@$00@internal@shdfnd@physx@@QAE@XZ 10027f50 f i GuMeshFactory.obj
 0001:00026f80       ??1?$HashBase@PAVConvexMesh@Gu@physx@@PAV123@U?$Hash@PAVConvexMesh@Gu@physx@@@shdfnd@3@UGetKey@?$HashSetBase@PAVConvexMesh@Gu@physx@@U?$Hash@PAVConvexMesh@Gu@physx@@@shdfnd@3@VNonTrackingAllocator@53@$00@internal@53@VNonTrackingAllocator@53@$00@internal@shdfnd@physx@@QAE@XZ 10027f80 f i GuMeshFactory.obj
 0001:00026fb0       ??1?$HashBase@PAVHeightField@Gu@physx@@PAV123@U?$Hash@PAVHeightField@Gu@physx@@@shdfnd@3@UGetKey@?$HashSetBase@PAVHeightField@Gu@physx@@U?$Hash@PAVHeightField@Gu@physx@@@shdfnd@3@VNonTrackingAllocator@53@$00@internal@53@VNonTrackingAllocator@53@$00@internal@shdfnd@physx@@QAE@XZ 10027fb0 f i GuMeshFactory.obj
 0001:00026fe0       ??1?$HashBase@PAVTriangleMesh@Gu@physx@@PAV123@U?$Hash@PAVTriangleMesh@Gu@physx@@@shdfnd@3@UGetKey@?$HashSetBase@PAVTriangleMesh@Gu@physx@@U?$Hash@PAVTriangleMesh@Gu@physx@@@shdfnd@3@VNonTrackingAllocator@53@$00@internal@53@VNonTrackingAllocator@53@$00@internal@shdfnd@physx@@QAE@XZ 10027fe0 f i GuMeshFactory.obj
 0001:00027010       ??1?$HashSetBase@PAVBVHStructure@Gu@physx@@U?$Hash@PAVBVHStructure@Gu@physx@@@shdfnd@3@VNonTrackingAllocator@53@$00@internal@shdfnd@physx@@QAE@XZ 10028010 f i GuMeshFactory.obj
 0001:00027030       ??1?$HashSetBase@PAVConvexMesh@Gu@physx@@U?$Hash@PAVConvexMesh@Gu@physx@@@shdfnd@3@VNonTrackingAllocator@53@$00@internal@shdfnd@physx@@QAE@XZ 10028030 f i GuMeshFactory.obj
 0001:00027050       ??1?$HashSetBase@PAVHeightField@Gu@physx@@U?$Hash@PAVHeightField@Gu@physx@@@shdfnd@3@VNonTrackingAllocator@53@$00@internal@shdfnd@physx@@QAE@XZ 10028050 f i GuMeshFactory.obj
 0001:00027070       ??1?$HashSetBase@PAVTriangleMesh@Gu@physx@@U?$Hash@PAVTriangleMesh@Gu@physx@@@shdfnd@3@VNonTrackingAllocator@53@$00@internal@shdfnd@physx@@QAE@XZ 10028070 f i GuMeshFactory.obj
 0001:00027090       ??1?$MutexT@V?$ReflectionAllocator@VMutexImpl@shdfnd@physx@@@shdfnd@physx@@@shdfnd@physx@@QAE@XZ 10028090 f i GuMeshFactory.obj
 0001:000270c0       ??1BV4TriangleData@Gu@physx@@UAE@XZ 100280c0 f i GuMeshFactory.obj
 0001:00027100       ??1MeshDataBase@Gu@physx@@UAE@XZ 10028100 f i GuMeshFactory.obj
 0001:00027210       ??1RTree@Gu@physx@@QAE@XZ  10028210 f i GuMeshFactory.obj
 0001:00027230       ??1RTreeTriangleData@Gu@physx@@UAE@XZ 10028230 f i GuMeshFactory.obj
 0001:00027260       ??1ScopedLock@?$MutexT@V?$ReflectionAllocator@VMutexImpl@shdfnd@physx@@@shdfnd@physx@@@shdfnd@physx@@QAE@XZ 10028260 f i GuMeshFactory.obj
 0001:00027280       ??1TriangleMeshData@Gu@physx@@UAE@XZ 10028280 f i GuMeshFactory.obj
 0001:00027360       ??2UserAllocated@shdfnd@physx@@SAPAXIPAX@Z 10028360 f i GuMeshFactory.obj
 0001:00027370       ??A?$Array@PAVGuMeshFactoryListener@physx@@VNamedAllocator@shdfnd@2@@shdfnd@physx@@QAEAAPAVGuMeshFactoryListener@2@I@Z 10028370 f i GuMeshFactory.obj
 0001:000273d0       ??R?$Hash@PAVBVHStructure@Gu@physx@@@shdfnd@physx@@QBEIABQAVBVHStructure@Gu@2@@Z 100283d0 f i GuMeshFactory.obj
 0001:000273f0       ??R?$Hash@PAVConvexMesh@Gu@physx@@@shdfnd@physx@@QBEIABQAVConvexMesh@Gu@2@@Z 100283f0 f i GuMeshFactory.obj
 0001:00027410       ??R?$Hash@PAVHeightField@Gu@physx@@@shdfnd@physx@@QBEIABQAVHeightField@Gu@2@@Z 10028410 f i GuMeshFactory.obj
 0001:00027430       ??R?$Hash@PAVTriangleMesh@Gu@physx@@@shdfnd@physx@@QBEIABQAVTriangleMesh@Gu@2@@Z 10028430 f i GuMeshFactory.obj
 0001:00027450       ??RGetKey@?$HashSetBase@PAVBVHStructure@Gu@physx@@U?$Hash@PAVBVHStructure@Gu@physx@@@shdfnd@3@VNonTrackingAllocator@53@$00@internal@shdfnd@physx@@QAEABQAVBVHStructure@Gu@4@ABQAV564@@Z 10028450 f i GuMeshFactory.obj
 0001:00027460       ??RGetKey@?$HashSetBase@PAVConvexMesh@Gu@physx@@U?$Hash@PAVConvexMesh@Gu@physx@@@shdfnd@3@VNonTrackingAllocator@53@$00@internal@shdfnd@physx@@QAEABQAVConvexMesh@Gu@4@ABQAV564@@Z 10028460 f i GuMeshFactory.obj
 0001:00027470       ??RGetKey@?$HashSetBase@PAVHeightField@Gu@physx@@U?$Hash@PAVHeightField@Gu@physx@@@shdfnd@3@VNonTrackingAllocator@53@$00@internal@shdfnd@physx@@QAEABQAVHeightField@Gu@4@ABQAV564@@Z 10028470 f i GuMeshFactory.obj
 0001:00027480       ??RGetKey@?$HashSetBase@PAVTriangleMesh@Gu@physx@@U?$Hash@PAVTriangleMesh@Gu@physx@@@shdfnd@3@VNonTrackingAllocator@53@$00@internal@shdfnd@physx@@QAEABQAVTriangleMesh@Gu@4@ABQAV564@@Z 10028480 f i GuMeshFactory.obj
 0001:00027490       ??_EGuMeshFactory@physx@@MAEPAXI@Z 10028490 f i GuMeshFactory.obj
 0001:00027550       ??_GBV32Tree@Gu@physx@@QAEPAXI@Z 10028550 f i GuMeshFactory.obj
 0001:000275a0       ??_EBV4TriangleData@Gu@physx@@UAEPAXI@Z 100285a0 f i GuMeshFactory.obj
 0001:000275a0       ??_GBV4TriangleData@Gu@physx@@UAEPAXI@Z 100285a0 f i GuMeshFactory.obj
 0001:000275f0       ??_GGuMeshFactory@physx@@MAEPAXI@Z 100285f0 f i GuMeshFactory.obj
 0001:00027640       ??_GMeshDataBase@Gu@physx@@UAEPAXI@Z 10028640 f i GuMeshFactory.obj
 0001:00027640       ??_EMeshDataBase@Gu@physx@@UAEPAXI@Z 10028640 f i GuMeshFactory.obj
 0001:00027690       ??_GMutexImpl@shdfnd@physx@@QAEPAXI@Z 10028690 f i GuMeshFactory.obj
 0001:000276c0       ??_GRTreeTriangleData@Gu@physx@@UAEPAXI@Z 100286c0 f i GuMeshFactory.obj
 0001:000276c0       ??_ERTreeTriangleData@Gu@physx@@UAEPAXI@Z 100286c0 f i GuMeshFactory.obj
 0001:00027710       ??_ETriangleMeshData@Gu@physx@@UAEPAXI@Z 10028710 f i GuMeshFactory.obj
 0001:00027710       ??_GTriangleMeshData@Gu@physx@@UAEPAXI@Z 10028710 f i GuMeshFactory.obj
 0001:00027760       ??_VUserAllocated@shdfnd@physx@@SAXPAX@Z 10028760 f i GuMeshFactory.obj
 0001:00027780       ?__global_array_delete@@YAXPAX@Z 10028780 f i GuMeshFactory.obj
 0001:000277a0       ?__global_array_delete@@YAXPAXI@Z 100287a0 f i GuMeshFactory.obj
 0001:000277c0       ?__global_delete@@YAXPAX@Z 100287c0 f i GuMeshFactory.obj
 0001:000277e0       ?__global_delete@@YAXPAXI@Z 100287e0 f i GuMeshFactory.obj
 0001:00027800       ?allocate@?$Array@PAVGuMeshFactoryListener@physx@@VNamedAllocator@shdfnd@2@@shdfnd@physx@@IAEPAPAVGuMeshFactoryListener@3@I@Z 10028800 f i GuMeshFactory.obj
 0001:00027870       ?allocate@?$ReflectionAllocator@E@shdfnd@physx@@QAEPAXIPBDH@Z 10028870 f i GuMeshFactory.obj
 0001:000278c0       ?allocate@?$ReflectionAllocator@G@shdfnd@physx@@QAEPAXIPBDH@Z 100288c0 f i GuMeshFactory.obj
 0001:00027910       ?allocate@?$ReflectionAllocator@I@shdfnd@physx@@QAEPAXIPBDH@Z 10028910 f i GuMeshFactory.obj
 0001:00027960       ?allocate@?$ReflectionAllocator@VBV32Tree@Gu@physx@@@shdfnd@physx@@QAEPAXIPBDH@Z 10028960 f i GuMeshFactory.obj
 0001:000279b0       ?allocate@?$ReflectionAllocator@VBV4TriangleData@Gu@physx@@@shdfnd@physx@@QAEPAXIPBDH@Z 100289b0 f i GuMeshFactory.obj
 0001:00027a00       ?allocate@?$ReflectionAllocator@VBV4TriangleMesh@Gu@physx@@@shdfnd@physx@@QAEPAXIPBDH@Z 10028a00 f i GuMeshFactory.obj
 0001:00027a50       ?allocate@?$ReflectionAllocator@VBVHStructure@Gu@physx@@@shdfnd@physx@@QAEPAXIPBDH@Z 10028a50 f i GuMeshFactory.obj
 0001:00027aa0       ?allocate@?$ReflectionAllocator@VConvexMesh@Gu@physx@@@shdfnd@physx@@QAEPAXIPBDH@Z 10028aa0 f i GuMeshFactory.obj
 0001:00027af0       ?allocate@?$ReflectionAllocator@VHeightField@Gu@physx@@@shdfnd@physx@@QAEPAXIPBDH@Z 10028af0 f i GuMeshFactory.obj
 0001:00027b40       ?allocate@?$ReflectionAllocator@VMutexImpl@shdfnd@physx@@@shdfnd@physx@@QAEPAXIPBDH@Z 10028b40 f i GuMeshFactory.obj
 0001:00027b90       ?allocate@?$ReflectionAllocator@VRTreeTriangleData@Gu@physx@@@shdfnd@physx@@QAEPAXIPBDH@Z 10028b90 f i GuMeshFactory.obj
 0001:00027be0       ?allocate@?$ReflectionAllocator@VRTreeTriangleMesh@Gu@physx@@@shdfnd@physx@@QAEPAXIPBDH@Z 10028be0 f i GuMeshFactory.obj
 0001:00027c30       ?allocateAdjacencies@TriangleMeshData@Gu@physx@@QAEPAIXZ 10028c30 f i GuMeshFactory.obj
 0001:00027d20       ?allocateExtraTrigData@TriangleMeshData@Gu@physx@@QAEPAEXZ 10028d20 f i GuMeshFactory.obj
 0001:00027df0       ?allocateFaceRemap@TriangleMeshData@Gu@physx@@QAEPAIXZ 10028df0 f i GuMeshFactory.obj
 0001:00027ed0       ?allocateMaterials@TriangleMeshData@Gu@physx@@QAEPAGXZ 10028ed0 f i GuMeshFactory.obj
 0001:00027fb0       ?allocateTriangles@TriangleMeshData@Gu@physx@@QAEPAXI_NI@Z 10028fb0 f i GuMeshFactory.obj
 0001:00028140       ?allocateVertices@MeshDataBase@Gu@physx@@QAEPAVPxVec3@3@I@Z 10029140 f i GuMeshFactory.obj
 0001:000281e0       ?capacity@?$Array@PAVGuMeshFactoryListener@physx@@VNamedAllocator@shdfnd@2@@shdfnd@physx@@QBEIXZ 100291e0 f i GuMeshFactory.obj
 0001:00028200       ?capacityIncrement@?$Array@PAVGuMeshFactoryListener@physx@@VNamedAllocator@shdfnd@2@@shdfnd@physx@@IBEIXZ 10029200 f i GuMeshFactory.obj
 0001:00028240       ?copy@?$Array@PAVGuMeshFactoryListener@physx@@VNamedAllocator@shdfnd@2@@shdfnd@physx@@KAXPAPAVGuMeshFactoryListener@3@0PBQAV43@@Z 10029240 f i GuMeshFactory.obj
 0001:00028290       ?create@?$HashBase@PAVBVHStructure@Gu@physx@@PAV123@U?$Hash@PAVBVHStructure@Gu@physx@@@shdfnd@3@UGetKey@?$HashSetBase@PAVBVHStructure@Gu@physx@@U?$Hash@PAVBVHStructure@Gu@physx@@@shdfnd@3@VNonTrackingAllocator@53@$00@internal@53@VNonTrackingAllocator@53@$00@internal@shdfnd@physx@@QAEPAPAVBVHStructure@Gu@4@ABQAV564@AA_N@Z 10029290 f i GuMeshFactory.obj
 0001:000283e0       ?create@?$HashBase@PAVConvexMesh@Gu@physx@@PAV123@U?$Hash@PAVConvexMesh@Gu@physx@@@shdfnd@3@UGetKey@?$HashSetBase@PAVConvexMesh@Gu@physx@@U?$Hash@PAVConvexMesh@Gu@physx@@@shdfnd@3@VNonTrackingAllocator@53@$00@internal@53@VNonTrackingAllocator@53@$00@internal@shdfnd@physx@@QAEPAPAVConvexMesh@Gu@4@ABQAV564@AA_N@Z 100293e0 f i GuMeshFactory.obj
 0001:00028530       ?create@?$HashBase@PAVHeightField@Gu@physx@@PAV123@U?$Hash@PAVHeightField@Gu@physx@@@shdfnd@3@UGetKey@?$HashSetBase@PAVHeightField@Gu@physx@@U?$Hash@PAVHeightField@Gu@physx@@@shdfnd@3@VNonTrackingAllocator@53@$00@internal@53@VNonTrackingAllocator@53@$00@internal@shdfnd@physx@@QAEPAPAVHeightField@Gu@4@ABQAV564@AA_N@Z 10029530 f i GuMeshFactory.obj
 0001:00028680       ?create@?$HashBase@PAVTriangleMesh@Gu@physx@@PAV123@U?$Hash@PAVTriangleMesh@Gu@physx@@@shdfnd@3@UGetKey@?$HashSetBase@PAVTriangleMesh@Gu@physx@@U?$Hash@PAVTriangleMesh@Gu@physx@@@shdfnd@3@VNonTrackingAllocator@53@$00@internal@53@VNonTrackingAllocator@53@$00@internal@shdfnd@physx@@QAEPAPAVTriangleMesh@Gu@4@ABQAV564@AA_N@Z 10029680 f i GuMeshFactory.obj
 0001:000287d0       ?deallocate@?$AlignedAllocator@$0IA@VNonTrackingAllocator@shdfnd@physx@@@shdfnd@physx@@QAEXPAX@Z 100297d0 f i GuMeshFactory.obj
 0001:00028810       ?deallocate@?$Array@PAVGuMeshFactoryListener@physx@@VNamedAllocator@shdfnd@2@@shdfnd@physx@@IAEXPAX@Z 10029810 f i GuMeshFactory.obj
 0001:00028830       ?deallocate@?$ReflectionAllocator@VMutexImpl@shdfnd@physx@@@shdfnd@physx@@QAEXPAX@Z 10029830 f i GuMeshFactory.obj
 0001:00028860       ?decRefCount@RefCountable@Cm@physx@@QAEXXZ 10029860 f i GuMeshFactory.obj
 0001:000288d0       ?destroy@?$Array@PAVGuMeshFactoryListener@physx@@VNamedAllocator@shdfnd@2@@shdfnd@physx@@KAXPAPAVGuMeshFactoryListener@3@0@Z 100298d0 f i GuMeshFactory.obj
 0001:000288f0       ?destroy@?$HashBase@PAVBVHStructure@Gu@physx@@PAV123@U?$Hash@PAVBVHStructure@Gu@physx@@@shdfnd@3@UGetKey@?$HashSetBase@PAVBVHStructure@Gu@physx@@U?$Hash@PAVBVHStructure@Gu@physx@@@shdfnd@3@VNonTrackingAllocator@53@$00@internal@53@VNonTrackingAllocator@53@$00@internal@shdfnd@physx@@AAEXXZ 100298f0 f i GuMeshFactory.obj
 0001:00028950       ?destroy@?$HashBase@PAVConvexMesh@Gu@physx@@PAV123@U?$Hash@PAVConvexMesh@Gu@physx@@@shdfnd@3@UGetKey@?$HashSetBase@PAVConvexMesh@Gu@physx@@U?$Hash@PAVConvexMesh@Gu@physx@@@shdfnd@3@VNonTrackingAllocator@53@$00@internal@53@VNonTrackingAllocator@53@$00@internal@shdfnd@physx@@AAEXXZ 10029950 f i GuMeshFactory.obj
 0001:000289b0       ?destroy@?$HashBase@PAVHeightField@Gu@physx@@PAV123@U?$Hash@PAVHeightField@Gu@physx@@@shdfnd@3@UGetKey@?$HashSetBase@PAVHeightField@Gu@physx@@U?$Hash@PAVHeightField@Gu@physx@@@shdfnd@3@VNonTrackingAllocator@53@$00@internal@53@VNonTrackingAllocator@53@$00@internal@shdfnd@physx@@AAEXXZ 100299b0 f i GuMeshFactory.obj
 0001:00028a10       ?destroy@?$HashBase@PAVTriangleMesh@Gu@physx@@PAV123@U?$Hash@PAVTriangleMesh@Gu@physx@@@shdfnd@3@UGetKey@?$HashSetBase@PAVTriangleMesh@Gu@physx@@U?$Hash@PAVTriangleMesh@Gu@physx@@@shdfnd@3@VNonTrackingAllocator@53@$00@internal@53@VNonTrackingAllocator@53@$00@internal@shdfnd@physx@@AAEXXZ 10029a10 f i GuMeshFactory.obj
 0001:00028a70       ?equal@?$Hash@PAVBVHStructure@Gu@physx@@@shdfnd@physx@@QBE_NABQAVBVHStructure@Gu@3@0@Z 10029a70 f i GuMeshFactory.obj
 0001:00028aa0       ?equal@?$Hash@PAVConvexMesh@Gu@physx@@@shdfnd@physx@@QBE_NABQAVConvexMesh@Gu@3@0@Z 10029aa0 f i GuMeshFactory.obj
 0001:00028ad0       ?equal@?$Hash@PAVHeightField@Gu@physx@@@shdfnd@physx@@QBE_NABQAVHeightField@Gu@3@0@Z 10029ad0 f i GuMeshFactory.obj
 0001:00028b00       ?equal@?$Hash@PAVTriangleMesh@Gu@physx@@@shdfnd@physx@@QBE_NABQAVTriangleMesh@Gu@3@0@Z 10029b00 f i GuMeshFactory.obj
 0001:00028b30       ?erase@?$HashBase@PAVBVHStructure@Gu@physx@@PAV123@U?$Hash@PAVBVHStructure@Gu@physx@@@shdfnd@3@UGetKey@?$HashSetBase@PAVBVHStructure@Gu@physx@@U?$Hash@PAVBVHStructure@Gu@physx@@@shdfnd@3@VNonTrackingAllocator@53@$00@internal@53@VNonTrackingAllocator@53@$00@internal@shdfnd@physx@@QAE_NABQAVBVHStructure@Gu@4@@Z 10029b30 f i GuMeshFactory.obj
 0001:00028bd0       ?erase@?$HashBase@PAVConvexMesh@Gu@physx@@PAV123@U?$Hash@PAVConvexMesh@Gu@physx@@@shdfnd@3@UGetKey@?$HashSetBase@PAVConvexMesh@Gu@physx@@U?$Hash@PAVConvexMesh@Gu@physx@@@shdfnd@3@VNonTrackingAllocator@53@$00@internal@53@VNonTrackingAllocator@53@$00@internal@shdfnd@physx@@QAE_NABQAVConvexMesh@Gu@4@@Z 10029bd0 f i GuMeshFactory.obj
 0001:00028c70       ?erase@?$HashBase@PAVHeightField@Gu@physx@@PAV123@U?$Hash@PAVHeightField@Gu@physx@@@shdfnd@3@UGetKey@?$HashSetBase@PAVHeightField@Gu@physx@@U?$Hash@PAVHeightField@Gu@physx@@@shdfnd@3@VNonTrackingAllocator@53@$00@internal@53@VNonTrackingAllocator@53@$00@internal@shdfnd@physx@@QAE_NABQAVHeightField@Gu@4@@Z 10029c70 f i GuMeshFactory.obj
 0001:00028d10       ?erase@?$HashBase@PAVTriangleMesh@Gu@physx@@PAV123@U?$Hash@PAVTriangleMesh@Gu@physx@@@shdfnd@3@UGetKey@?$HashSetBase@PAVTriangleMesh@Gu@physx@@U?$Hash@PAVTriangleMesh@Gu@physx@@@shdfnd@3@VNonTrackingAllocator@53@$00@internal@53@VNonTrackingAllocator@53@$00@internal@shdfnd@physx@@QAE_NABQAVTriangleMesh@Gu@4@@Z 10029d10 f i GuMeshFactory.obj
 0001:00028db0       ?erase@?$HashSetBase@PAVBVHStructure@Gu@physx@@U?$Hash@PAVBVHStructure@Gu@physx@@@shdfnd@3@VNonTrackingAllocator@53@$00@internal@shdfnd@physx@@QAE_NABQAVBVHStructure@Gu@4@@Z 10029db0 f i GuMeshFactory.obj
 0001:00028dd0       ?erase@?$HashSetBase@PAVConvexMesh@Gu@physx@@U?$Hash@PAVConvexMesh@Gu@physx@@@shdfnd@3@VNonTrackingAllocator@53@$00@internal@shdfnd@physx@@QAE_NABQAVConvexMesh@Gu@4@@Z 10029dd0 f i GuMeshFactory.obj
 0001:00028df0       ?erase@?$HashSetBase@PAVHeightField@Gu@physx@@U?$Hash@PAVHeightField@Gu@physx@@@shdfnd@3@VNonTrackingAllocator@53@$00@internal@shdfnd@physx@@QAE_NABQAVHeightField@Gu@4@@Z 10029df0 f i GuMeshFactory.obj
 0001:00028e10       ?erase@?$HashSetBase@PAVTriangleMesh@Gu@physx@@U?$Hash@PAVTriangleMesh@Gu@physx@@@shdfnd@3@VNonTrackingAllocator@53@$00@internal@shdfnd@physx@@QAE_NABQAVTriangleMesh@Gu@4@@Z 10029e10 f i GuMeshFactory.obj
 0001:00028e30       ?eraseInternal@?$HashBase@PAVBVHStructure@Gu@physx@@PAV123@U?$Hash@PAVBVHStructure@Gu@physx@@@shdfnd@3@UGetKey@?$HashSetBase@PAVBVHStructure@Gu@physx@@U?$Hash@PAVBVHStructure@Gu@physx@@@shdfnd@3@VNonTrackingAllocator@53@$00@internal@53@VNonTrackingAllocator@53@$00@internal@shdfnd@physx@@AAE_NPAI@Z 10029e30 f i GuMeshFactory.obj
 0001:00028eb0       ?eraseInternal@?$HashBase@PAVConvexMesh@Gu@physx@@PAV123@U?$Hash@PAVConvexMesh@Gu@physx@@@shdfnd@3@UGetKey@?$HashSetBase@PAVConvexMesh@Gu@physx@@U?$Hash@PAVConvexMesh@Gu@physx@@@shdfnd@3@VNonTrackingAllocator@53@$00@internal@53@VNonTrackingAllocator@53@$00@internal@shdfnd@physx@@AAE_NPAI@Z 10029eb0 f i GuMeshFactory.obj
 0001:00028f30       ?eraseInternal@?$HashBase@PAVHeightField@Gu@physx@@PAV123@U?$Hash@PAVHeightField@Gu@physx@@@shdfnd@3@UGetKey@?$HashSetBase@PAVHeightField@Gu@physx@@U?$Hash@PAVHeightField@Gu@physx@@@shdfnd@3@VNonTrackingAllocator@53@$00@internal@53@VNonTrackingAllocator@53@$00@internal@shdfnd@physx@@AAE_NPAI@Z 10029f30 f i GuMeshFactory.obj
 0001:00028fb0       ?eraseInternal@?$HashBase@PAVTriangleMesh@Gu@physx@@PAV123@U?$Hash@PAVTriangleMesh@Gu@physx@@@shdfnd@3@UGetKey@?$HashSetBase@PAVTriangleMesh@Gu@physx@@U?$Hash@PAVTriangleMesh@Gu@physx@@@shdfnd@3@VNonTrackingAllocator@53@$00@internal@53@VNonTrackingAllocator@53@$00@internal@shdfnd@physx@@AAE_NPAI@Z 10029fb0 f i GuMeshFactory.obj
 0001:00029030       ?flip@physx@@YAXAAG@Z      1002a030 f i GuMeshFactory.obj
 0001:00029080       ?flip@physx@@YAXAAI@Z      1002a080 f i GuMeshFactory.obj
 0001:00029110       ?flip@physx@@YAXAAM@Z      1002a110 f i GuMeshFactory.obj
 0001:000291a0       ?freeListAdd@?$HashBase@PAVBVHStructure@Gu@physx@@PAV123@U?$Hash@PAVBVHStructure@Gu@physx@@@shdfnd@3@UGetKey@?$HashSetBase@PAVBVHStructure@Gu@physx@@U?$Hash@PAVBVHStructure@Gu@physx@@@shdfnd@3@VNonTrackingAllocator@53@$00@internal@53@VNonTrackingAllocator@53@$00@internal@shdfnd@physx@@AAEXI@Z 1002a1a0 f i GuMeshFactory.obj
 0001:00029230       ?freeListAdd@?$HashBase@PAVBVHStructure@Gu@physx@@PAV123@U?$Hash@PAVBVHStructure@Gu@physx@@@shdfnd@3@UGetKey@?$HashSetBase@PAVBVHStructure@Gu@physx@@U?$Hash@PAVBVHStructure@Gu@physx@@@shdfnd@3@VNonTrackingAllocator@53@$00@internal@53@VNonTrackingAllocator@53@$00@internal@shdfnd@physx@@AAEXII@Z 1002a230 f i GuMeshFactory.obj
 0001:000292f0       ?freeListAdd@?$HashBase@PAVConvexMesh@Gu@physx@@PAV123@U?$Hash@PAVConvexMesh@Gu@physx@@@shdfnd@3@UGetKey@?$HashSetBase@PAVConvexMesh@Gu@physx@@U?$Hash@PAVConvexMesh@Gu@physx@@@shdfnd@3@VNonTrackingAllocator@53@$00@internal@53@VNonTrackingAllocator@53@$00@internal@shdfnd@physx@@AAEXI@Z 1002a2f0 f i GuMeshFactory.obj
 0001:00029380       ?freeListAdd@?$HashBase@PAVConvexMesh@Gu@physx@@PAV123@U?$Hash@PAVConvexMesh@Gu@physx@@@shdfnd@3@UGetKey@?$HashSetBase@PAVConvexMesh@Gu@physx@@U?$Hash@PAVConvexMesh@Gu@physx@@@shdfnd@3@VNonTrackingAllocator@53@$00@internal@53@VNonTrackingAllocator@53@$00@internal@shdfnd@physx@@AAEXII@Z 1002a380 f i GuMeshFactory.obj
 0001:00029440       ?freeListAdd@?$HashBase@PAVHeightField@Gu@physx@@PAV123@U?$Hash@PAVHeightField@Gu@physx@@@shdfnd@3@UGetKey@?$HashSetBase@PAVHeightField@Gu@physx@@U?$Hash@PAVHeightField@Gu@physx@@@shdfnd@3@VNonTrackingAllocator@53@$00@internal@53@VNonTrackingAllocator@53@$00@internal@shdfnd@physx@@AAEXI@Z 1002a440 f i GuMeshFactory.obj
 0001:000294d0       ?freeListAdd@?$HashBase@PAVHeightField@Gu@physx@@PAV123@U?$Hash@PAVHeightField@Gu@physx@@@shdfnd@3@UGetKey@?$HashSetBase@PAVHeightField@Gu@physx@@U?$Hash@PAVHeightField@Gu@physx@@@shdfnd@3@VNonTrackingAllocator@53@$00@internal@53@VNonTrackingAllocator@53@$00@internal@shdfnd@physx@@AAEXII@Z 1002a4d0 f i GuMeshFactory.obj
 0001:00029590       ?freeListAdd@?$HashBase@PAVTriangleMesh@Gu@physx@@PAV123@U?$Hash@PAVTriangleMesh@Gu@physx@@@shdfnd@3@UGetKey@?$HashSetBase@PAVTriangleMesh@Gu@physx@@U?$Hash@PAVTriangleMesh@Gu@physx@@@shdfnd@3@VNonTrackingAllocator@53@$00@internal@53@VNonTrackingAllocator@53@$00@internal@shdfnd@physx@@AAEXI@Z 1002a590 f i GuMeshFactory.obj
 0001:00029620       ?freeListAdd@?$HashBase@PAVTriangleMesh@Gu@physx@@PAV123@U?$Hash@PAVTriangleMesh@Gu@physx@@@shdfnd@3@UGetKey@?$HashSetBase@PAVTriangleMesh@Gu@physx@@U?$Hash@PAVTriangleMesh@Gu@physx@@@shdfnd@3@VNonTrackingAllocator@53@$00@internal@53@VNonTrackingAllocator@53@$00@internal@shdfnd@physx@@AAEXII@Z 1002a620 f i GuMeshFactory.obj
 0001:000296e0       ?freeListEmpty@?$HashBase@PAVBVHStructure@Gu@physx@@PAV123@U?$Hash@PAVBVHStructure@Gu@physx@@@shdfnd@3@UGetKey@?$HashSetBase@PAVBVHStructure@Gu@physx@@U?$Hash@PAVBVHStructure@Gu@physx@@@shdfnd@3@VNonTrackingAllocator@53@$00@internal@53@VNonTrackingAllocator@53@$00@internal@shdfnd@physx@@ABE_NXZ 1002a6e0 f i GuMeshFactory.obj
 0001:00029740       ?freeListEmpty@?$HashBase@PAVConvexMesh@Gu@physx@@PAV123@U?$Hash@PAVConvexMesh@Gu@physx@@@shdfnd@3@UGetKey@?$HashSetBase@PAVConvexMesh@Gu@physx@@U?$Hash@PAVConvexMesh@Gu@physx@@@shdfnd@3@VNonTrackingAllocator@53@$00@internal@53@VNonTrackingAllocator@53@$00@internal@shdfnd@physx@@ABE_NXZ 1002a740 f i GuMeshFactory.obj
 0001:000297a0       ?freeListEmpty@?$HashBase@PAVHeightField@Gu@physx@@PAV123@U?$Hash@PAVHeightField@Gu@physx@@@shdfnd@3@UGetKey@?$HashSetBase@PAVHeightField@Gu@physx@@U?$Hash@PAVHeightField@Gu@physx@@@shdfnd@3@VNonTrackingAllocator@53@$00@internal@53@VNonTrackingAllocator@53@$00@internal@shdfnd@physx@@ABE_NXZ 1002a7a0 f i GuMeshFactory.obj
 0001:00029800       ?freeListEmpty@?$HashBase@PAVTriangleMesh@Gu@physx@@PAV123@U?$Hash@PAVTriangleMesh@Gu@physx@@@shdfnd@3@UGetKey@?$HashSetBase@PAVTriangleMesh@Gu@physx@@U?$Hash@PAVTriangleMesh@Gu@physx@@@shdfnd@3@VNonTrackingAllocator@53@$00@internal@53@VNonTrackingAllocator@53@$00@internal@shdfnd@physx@@ABE_NXZ 1002a800 f i GuMeshFactory.obj
 0001:00029860       ?freeListGetNext@?$HashBase@PAVBVHStructure@Gu@physx@@PAV123@U?$Hash@PAVBVHStructure@Gu@physx@@@shdfnd@3@UGetKey@?$HashSetBase@PAVBVHStructure@Gu@physx@@U?$Hash@PAVBVHStructure@Gu@physx@@@shdfnd@3@VNonTrackingAllocator@53@$00@internal@53@VNonTrackingAllocator@53@$00@internal@shdfnd@physx@@AAEIXZ 1002a860 f i GuMeshFactory.obj
 0001:00029940       ?freeListGetNext@?$HashBase@PAVConvexMesh@Gu@physx@@PAV123@U?$Hash@PAVConvexMesh@Gu@physx@@@shdfnd@3@UGetKey@?$HashSetBase@PAVConvexMesh@Gu@physx@@U?$Hash@PAVConvexMesh@Gu@physx@@@shdfnd@3@VNonTrackingAllocator@53@$00@internal@53@VNonTrackingAllocator@53@$00@internal@shdfnd@physx@@AAEIXZ 1002a940 f i GuMeshFactory.obj
 0001:00029a20       ?freeListGetNext@?$HashBase@PAVHeightField@Gu@physx@@PAV123@U?$Hash@PAVHeightField@Gu@physx@@@shdfnd@3@UGetKey@?$HashSetBase@PAVHeightField@Gu@physx@@U?$Hash@PAVHeightField@Gu@physx@@@shdfnd@3@VNonTrackingAllocator@53@$00@internal@53@VNonTrackingAllocator@53@$00@internal@shdfnd@physx@@AAEIXZ 1002aa20 f i GuMeshFactory.obj
 0001:00029b00       ?freeListGetNext@?$HashBase@PAVTriangleMesh@Gu@physx@@PAV123@U?$Hash@PAVTriangleMesh@Gu@physx@@@shdfnd@3@UGetKey@?$HashSetBase@PAVTriangleMesh@Gu@physx@@U?$Hash@PAVTriangleMesh@Gu@physx@@@shdfnd@3@VNonTrackingAllocator@53@$00@internal@53@VNonTrackingAllocator@53@$00@internal@shdfnd@physx@@AAEIXZ 1002ab00 f i GuMeshFactory.obj
 0001:00029be0       ?getEntries@?$CoalescedHashSet@PAVBVHStructure@Gu@physx@@U?$Hash@PAVBVHStructure@Gu@physx@@@shdfnd@3@VNonTrackingAllocator@53@@shdfnd@physx@@QBEPBQAVBVHStructure@Gu@3@XZ 1002abe0 f i GuMeshFactory.obj
 0001:00029c00       ?getEntries@?$CoalescedHashSet@PAVConvexMesh@Gu@physx@@U?$Hash@PAVConvexMesh@Gu@physx@@@shdfnd@3@VNonTrackingAllocator@53@@shdfnd@physx@@QBEPBQAVConvexMesh@Gu@3@XZ 1002ac00 f i GuMeshFactory.obj
 0001:00029c20       ?getEntries@?$CoalescedHashSet@PAVHeightField@Gu@physx@@U?$Hash@PAVHeightField@Gu@physx@@@shdfnd@3@VNonTrackingAllocator@53@@shdfnd@physx@@QBEPBQAVHeightField@Gu@3@XZ 1002ac20 f i GuMeshFactory.obj
 0001:00029c40       ?getEntries@?$CoalescedHashSet@PAVTriangleMesh@Gu@physx@@U?$Hash@PAVTriangleMesh@Gu@physx@@@shdfnd@3@VNonTrackingAllocator@53@@shdfnd@physx@@QBEPBQAVTriangleMesh@Gu@3@XZ 1002ac40 f i GuMeshFactory.obj
 0001:00029c60       ?getEntries@?$HashBase@PAVBVHStructure@Gu@physx@@PAV123@U?$Hash@PAVBVHStructure@Gu@physx@@@shdfnd@3@UGetKey@?$HashSetBase@PAVBVHStructure@Gu@physx@@U?$Hash@PAVBVHStructure@Gu@physx@@@shdfnd@3@VNonTrackingAllocator@53@$00@internal@53@VNonTrackingAllocator@53@$00@internal@shdfnd@physx@@QBEPBQAVBVHStructure@Gu@4@XZ 1002ac60 f i GuMeshFactory.obj
 0001:00029c80       ?getEntries@?$HashBase@PAVConvexMesh@Gu@physx@@PAV123@U?$Hash@PAVConvexMesh@Gu@physx@@@shdfnd@3@UGetKey@?$HashSetBase@PAVConvexMesh@Gu@physx@@U?$Hash@PAVConvexMesh@Gu@physx@@@shdfnd@3@VNonTrackingAllocator@53@$00@internal@53@VNonTrackingAllocator@53@$00@internal@shdfnd@physx@@QBEPBQAVConvexMesh@Gu@4@XZ 1002ac80 f i GuMeshFactory.obj
 0001:00029ca0       ?getEntries@?$HashBase@PAVHeightField@Gu@physx@@PAV123@U?$Hash@PAVHeightField@Gu@physx@@@shdfnd@3@UGetKey@?$HashSetBase@PAVHeightField@Gu@physx@@U?$Hash@PAVHeightField@Gu@physx@@@shdfnd@3@VNonTrackingAllocator@53@$00@internal@53@VNonTrackingAllocator@53@$00@internal@shdfnd@physx@@QBEPBQAVHeightField@Gu@4@XZ 1002aca0 f i GuMeshFactory.obj
 0001:00029cc0       ?getEntries@?$HashBase@PAVTriangleMesh@Gu@physx@@PAV123@U?$Hash@PAVTriangleMesh@Gu@physx@@@shdfnd@3@UGetKey@?$HashSetBase@PAVTriangleMesh@Gu@physx@@U?$Hash@PAVTriangleMesh@Gu@physx@@@shdfnd@3@VNonTrackingAllocator@53@$00@internal@53@VNonTrackingAllocator@53@$00@internal@shdfnd@physx@@QBEPBQAVTriangleMesh@Gu@4@XZ 1002acc0 f i GuMeshFactory.obj
 0001:00029ce0       ?getName@?$ReflectionAllocator@E@shdfnd@physx@@CAPBDXZ 1002ace0 f i GuMeshFactory.obj
 0001:00029d20       ?getName@?$ReflectionAllocator@G@shdfnd@physx@@CAPBDXZ 1002ad20 f i GuMeshFactory.obj
 0001:00029d60       ?getName@?$ReflectionAllocator@I@shdfnd@physx@@CAPBDXZ 1002ad60 f i GuMeshFactory.obj
 0001:00029da0       ?getName@?$ReflectionAllocator@VBV32Tree@Gu@physx@@@shdfnd@physx@@CAPBDXZ 1002ada0 f i GuMeshFactory.obj
 0001:00029de0       ?getName@?$ReflectionAllocator@VBV4TriangleData@Gu@physx@@@shdfnd@physx@@CAPBDXZ 1002ade0 f i GuMeshFactory.obj
 0001:00029e20       ?getName@?$ReflectionAllocator@VBV4TriangleMesh@Gu@physx@@@shdfnd@physx@@CAPBDXZ 1002ae20 f i GuMeshFactory.obj
 0001:00029e60       ?getName@?$ReflectionAllocator@VBVHStructure@Gu@physx@@@shdfnd@physx@@CAPBDXZ 1002ae60 f i GuMeshFactory.obj
 0001:00029ea0       ?getName@?$ReflectionAllocator@VConvexMesh@Gu@physx@@@shdfnd@physx@@CAPBDXZ 1002aea0 f i GuMeshFactory.obj
 0001:00029ee0       ?getName@?$ReflectionAllocator@VHeightField@Gu@physx@@@shdfnd@physx@@CAPBDXZ 1002aee0 f i GuMeshFactory.obj
 0001:00029f20       ?getName@?$ReflectionAllocator@VMutexImpl@shdfnd@physx@@@shdfnd@physx@@CAPBDXZ 1002af20 f i GuMeshFactory.obj
 0001:00029f60       ?getName@?$ReflectionAllocator@VRTreeTriangleData@Gu@physx@@@shdfnd@physx@@CAPBDXZ 1002af60 f i GuMeshFactory.obj
 0001:00029fa0       ?getName@?$ReflectionAllocator@VRTreeTriangleMesh@Gu@physx@@@shdfnd@physx@@CAPBDXZ 1002afa0 f i GuMeshFactory.obj
 0001:00029fe0       ?getRefCount@RefCountable@Cm@physx@@QBEIXZ 1002afe0 f i GuMeshFactory.obj
 0001:0002a000       ?grow@?$HashBase@PAVBVHStructure@Gu@physx@@PAV123@U?$Hash@PAVBVHStructure@Gu@physx@@@shdfnd@3@UGetKey@?$HashSetBase@PAVBVHStructure@Gu@physx@@U?$Hash@PAVBVHStructure@Gu@physx@@@shdfnd@3@VNonTrackingAllocator@53@$00@internal@53@VNonTrackingAllocator@53@$00@internal@shdfnd@physx@@AAEXXZ 1002b000 f i GuMeshFactory.obj
 0001:0002a0a0       ?grow@?$HashBase@PAVConvexMesh@Gu@physx@@PAV123@U?$Hash@PAVConvexMesh@Gu@physx@@@shdfnd@3@UGetKey@?$HashSetBase@PAVConvexMesh@Gu@physx@@U?$Hash@PAVConvexMesh@Gu@physx@@@shdfnd@3@VNonTrackingAllocator@53@$00@internal@53@VNonTrackingAllocator@53@$00@internal@shdfnd@physx@@AAEXXZ 1002b0a0 f i GuMeshFactory.obj
 0001:0002a140       ?grow@?$HashBase@PAVHeightField@Gu@physx@@PAV123@U?$Hash@PAVHeightField@Gu@physx@@@shdfnd@3@UGetKey@?$HashSetBase@PAVHeightField@Gu@physx@@U?$Hash@PAVHeightField@Gu@physx@@@shdfnd@3@VNonTrackingAllocator@53@$00@internal@53@VNonTrackingAllocator@53@$00@internal@shdfnd@physx@@AAEXXZ 1002b140 f i GuMeshFactory.obj
 0001:0002a1e0       ?grow@?$HashBase@PAVTriangleMesh@Gu@physx@@PAV123@U?$Hash@PAVTriangleMesh@Gu@physx@@@shdfnd@3@UGetKey@?$HashSetBase@PAVTriangleMesh@Gu@physx@@U?$Hash@PAVTriangleMesh@Gu@physx@@@shdfnd@3@VNonTrackingAllocator@53@$00@internal@53@VNonTrackingAllocator@53@$00@internal@shdfnd@physx@@AAEXXZ 1002b1e0 f i GuMeshFactory.obj
 0001:0002a280       ?growAndPushBack@?$Array@PAVGuMeshFactoryListener@physx@@VNamedAllocator@shdfnd@2@@shdfnd@physx@@IAEAAPAVGuMeshFactoryListener@3@ABQAV43@@Z 1002b280 f i GuMeshFactory.obj
 0001:0002a3b0       ?has16BitIndices@MeshDataBase@Gu@physx@@QBE_NXZ 1002b3b0 f i GuMeshFactory.obj
 0001:0002a3e0       ?hash@?$HashBase@PAVBVHStructure@Gu@physx@@PAV123@U?$Hash@PAVBVHStructure@Gu@physx@@@shdfnd@3@UGetKey@?$HashSetBase@PAVBVHStructure@Gu@physx@@U?$Hash@PAVBVHStructure@Gu@physx@@@shdfnd@3@VNonTrackingAllocator@53@$00@internal@53@VNonTrackingAllocator@53@$00@internal@shdfnd@physx@@ABEIABQAVBVHStructure@Gu@4@@Z 1002b3e0 f i GuMeshFactory.obj
 0001:0002a400       ?hash@?$HashBase@PAVBVHStructure@Gu@physx@@PAV123@U?$Hash@PAVBVHStructure@Gu@physx@@@shdfnd@3@UGetKey@?$HashSetBase@PAVBVHStructure@Gu@physx@@U?$Hash@PAVBVHStructure@Gu@physx@@@shdfnd@3@VNonTrackingAllocator@53@$00@internal@53@VNonTrackingAllocator@53@$00@internal@shdfnd@physx@@ABEIABQAVBVHStructure@Gu@4@I@Z 1002b400 f i GuMeshFactory.obj
 0001:0002a430       ?hash@?$HashBase@PAVConvexMesh@Gu@physx@@PAV123@U?$Hash@PAVConvexMesh@Gu@physx@@@shdfnd@3@UGetKey@?$HashSetBase@PAVConvexMesh@Gu@physx@@U?$Hash@PAVConvexMesh@Gu@physx@@@shdfnd@3@VNonTrackingAllocator@53@$00@internal@53@VNonTrackingAllocator@53@$00@internal@shdfnd@physx@@ABEIABQAVConvexMesh@Gu@4@@Z 1002b430 f i GuMeshFactory.obj
 0001:0002a450       ?hash@?$HashBase@PAVConvexMesh@Gu@physx@@PAV123@U?$Hash@PAVConvexMesh@Gu@physx@@@shdfnd@3@UGetKey@?$HashSetBase@PAVConvexMesh@Gu@physx@@U?$Hash@PAVConvexMesh@Gu@physx@@@shdfnd@3@VNonTrackingAllocator@53@$00@internal@53@VNonTrackingAllocator@53@$00@internal@shdfnd@physx@@ABEIABQAVConvexMesh@Gu@4@I@Z 1002b450 f i GuMeshFactory.obj
 0001:0002a480       ?hash@?$HashBase@PAVHeightField@Gu@physx@@PAV123@U?$Hash@PAVHeightField@Gu@physx@@@shdfnd@3@UGetKey@?$HashSetBase@PAVHeightField@Gu@physx@@U?$Hash@PAVHeightField@Gu@physx@@@shdfnd@3@VNonTrackingAllocator@53@$00@internal@53@VNonTrackingAllocator@53@$00@internal@shdfnd@physx@@ABEIABQAVHeightField@Gu@4@@Z 1002b480 f i GuMeshFactory.obj
 0001:0002a4a0       ?hash@?$HashBase@PAVHeightField@Gu@physx@@PAV123@U?$Hash@PAVHeightField@Gu@physx@@@shdfnd@3@UGetKey@?$HashSetBase@PAVHeightField@Gu@physx@@U?$Hash@PAVHeightField@Gu@physx@@@shdfnd@3@VNonTrackingAllocator@53@$00@internal@53@VNonTrackingAllocator@53@$00@internal@shdfnd@physx@@ABEIABQAVHeightField@Gu@4@I@Z 1002b4a0 f i GuMeshFactory.obj
 0001:0002a4d0       ?hash@?$HashBase@PAVTriangleMesh@Gu@physx@@PAV123@U?$Hash@PAVTriangleMesh@Gu@physx@@@shdfnd@3@UGetKey@?$HashSetBase@PAVTriangleMesh@Gu@physx@@U?$Hash@PAVTriangleMesh@Gu@physx@@@shdfnd@3@VNonTrackingAllocator@53@$00@internal@53@VNonTrackingAllocator@53@$00@internal@shdfnd@physx@@ABEIABQAVTriangleMesh@Gu@4@@Z 1002b4d0 f i GuMeshFactory.obj
 0001:0002a4f0       ?hash@?$HashBase@PAVTriangleMesh@Gu@physx@@PAV123@U?$Hash@PAVTriangleMesh@Gu@physx@@@shdfnd@3@UGetKey@?$HashSetBase@PAVTriangleMesh@Gu@physx@@U?$Hash@PAVTriangleMesh@Gu@physx@@@shdfnd@3@VNonTrackingAllocator@53@$00@internal@53@VNonTrackingAllocator@53@$00@internal@shdfnd@physx@@ABEIABQAVTriangleMesh@Gu@4@I@Z 1002b4f0 f i GuMeshFactory.obj
 0001:0002a520       ?init@?$HashBase@PAVBVHStructure@Gu@physx@@PAV123@U?$Hash@PAVBVHStructure@Gu@physx@@@shdfnd@3@UGetKey@?$HashSetBase@PAVBVHStructure@Gu@physx@@U?$Hash@PAVBVHStructure@Gu@physx@@@shdfnd@3@VNonTrackingAllocator@53@$00@internal@53@VNonTrackingAllocator@53@$00@internal@shdfnd@physx@@AAEXIM@Z 1002b520 f i GuMeshFactory.obj
 0001:0002a5b0       ?init@?$HashBase@PAVConvexMesh@Gu@physx@@PAV123@U?$Hash@PAVConvexMesh@Gu@physx@@@shdfnd@3@UGetKey@?$HashSetBase@PAVConvexMesh@Gu@physx@@U?$Hash@PAVConvexMesh@Gu@physx@@@shdfnd@3@VNonTrackingAllocator@53@$00@internal@53@VNonTrackingAllocator@53@$00@internal@shdfnd@physx@@AAEXIM@Z 1002b5b0 f i GuMeshFactory.obj
 0001:0002a640       ?init@?$HashBase@PAVHeightField@Gu@physx@@PAV123@U?$Hash@PAVHeightField@Gu@physx@@@shdfnd@3@UGetKey@?$HashSetBase@PAVHeightField@Gu@physx@@U?$Hash@PAVHeightField@Gu@physx@@@shdfnd@3@VNonTrackingAllocator@53@$00@internal@53@VNonTrackingAllocator@53@$00@internal@shdfnd@physx@@AAEXIM@Z 1002b640 f i GuMeshFactory.obj
 0001:0002a6d0       ?init@?$HashBase@PAVTriangleMesh@Gu@physx@@PAV123@U?$Hash@PAVTriangleMesh@Gu@physx@@@shdfnd@3@UGetKey@?$HashSetBase@PAVTriangleMesh@Gu@physx@@U?$Hash@PAVTriangleMesh@Gu@physx@@@shdfnd@3@VNonTrackingAllocator@53@$00@internal@53@VNonTrackingAllocator@53@$00@internal@shdfnd@physx@@AAEXIM@Z 1002b6d0 f i GuMeshFactory.obj
 0001:0002a760       ?insert@?$HashSetBase@PAVBVHStructure@Gu@physx@@U?$Hash@PAVBVHStructure@Gu@physx@@@shdfnd@3@VNonTrackingAllocator@53@$00@internal@shdfnd@physx@@QAE_NABQAVBVHStructure@Gu@4@@Z 1002b760 f i GuMeshFactory.obj
 0001:0002a7c0       ?insert@?$HashSetBase@PAVConvexMesh@Gu@physx@@U?$Hash@PAVConvexMesh@Gu@physx@@@shdfnd@3@VNonTrackingAllocator@53@$00@internal@shdfnd@physx@@QAE_NABQAVConvexMesh@Gu@4@@Z 1002b7c0 f i GuMeshFactory.obj
 0001:0002a820       ?insert@?$HashSetBase@PAVHeightField@Gu@physx@@U?$Hash@PAVHeightField@Gu@physx@@@shdfnd@3@VNonTrackingAllocator@53@$00@internal@shdfnd@physx@@QAE_NABQAVHeightField@Gu@4@@Z 1002b820 f i GuMeshFactory.obj
 0001:0002a880       ?insert@?$HashSetBase@PAVTriangleMesh@Gu@physx@@U?$Hash@PAVTriangleMesh@Gu@physx@@@shdfnd@3@VNonTrackingAllocator@53@$00@internal@shdfnd@physx@@QAE_NABQAVTriangleMesh@Gu@4@@Z 1002b880 f i GuMeshFactory.obj
 0001:0002a8e0       ?isInUserMemory@?$Array@PAVGuMeshFactoryListener@physx@@VNamedAllocator@shdfnd@2@@shdfnd@physx@@QBEIXZ 1002b8e0 f i GuMeshFactory.obj
 0001:0002a900       ?lock@?$MutexT@V?$ReflectionAllocator@VMutexImpl@shdfnd@physx@@@shdfnd@physx@@@shdfnd@physx@@QBEXXZ 1002b900 f i GuMeshFactory.obj
 0001:0002a920       ?markSerializedMem@Cm@physx@@YAXPAXI@Z 1002b920 f i GuMeshFactory.obj
 0001:0002a950       ?pushBack@?$Array@PAVGuMeshFactoryListener@physx@@VNamedAllocator@shdfnd@2@@shdfnd@physx@@QAEAAPAVGuMeshFactoryListener@3@ABQAV43@@Z 1002b950 f i GuMeshFactory.obj
 0001:0002a9d0       ?release@RTree@Gu@physx@@QAEXXZ 1002b9d0 f i GuMeshFactory.obj
 0001:0002aa20       ?replaceWithLast@?$Array@PAVGuMeshFactoryListener@physx@@VNamedAllocator@shdfnd@2@@shdfnd@physx@@QAEXI@Z 1002ba20 f i GuMeshFactory.obj
 0001:0002aaa0       ?replaceWithLast@?$HashBase@PAVBVHStructure@Gu@physx@@PAV123@U?$Hash@PAVBVHStructure@Gu@physx@@@shdfnd@3@UGetKey@?$HashSetBase@PAVBVHStructure@Gu@physx@@U?$Hash@PAVBVHStructure@Gu@physx@@@shdfnd@3@VNonTrackingAllocator@53@$00@internal@53@VNonTrackingAllocator@53@$00@internal@shdfnd@physx@@AAEXI@Z 1002baa0 f i GuMeshFactory.obj
 0001:0002aba0       ?replaceWithLast@?$HashBase@PAVConvexMesh@Gu@physx@@PAV123@U?$Hash@PAVConvexMesh@Gu@physx@@@shdfnd@3@UGetKey@?$HashSetBase@PAVConvexMesh@Gu@physx@@U?$Hash@PAVConvexMesh@Gu@physx@@@shdfnd@3@VNonTrackingAllocator@53@$00@internal@53@VNonTrackingAllocator@53@$00@internal@shdfnd@physx@@AAEXI@Z 1002bba0 f i GuMeshFactory.obj
 0001:0002aca0       ?replaceWithLast@?$HashBase@PAVHeightField@Gu@physx@@PAV123@U?$Hash@PAVHeightField@Gu@physx@@@shdfnd@3@UGetKey@?$HashSetBase@PAVHeightField@Gu@physx@@U?$Hash@PAVHeightField@Gu@physx@@@shdfnd@3@VNonTrackingAllocator@53@$00@internal@53@VNonTrackingAllocator@53@$00@internal@shdfnd@physx@@AAEXI@Z 1002bca0 f i GuMeshFactory.obj
 0001:0002ada0       ?replaceWithLast@?$HashBase@PAVTriangleMesh@Gu@physx@@PAV123@U?$Hash@PAVTriangleMesh@Gu@physx@@@shdfnd@3@UGetKey@?$HashSetBase@PAVTriangleMesh@Gu@physx@@U?$Hash@PAVTriangleMesh@Gu@physx@@@shdfnd@3@VNonTrackingAllocator@53@$00@internal@53@VNonTrackingAllocator@53@$00@internal@shdfnd@physx@@AAEXI@Z 1002bda0 f i GuMeshFactory.obj
 0001:0002aea0       ?reserve@?$HashBase@PAVBVHStructure@Gu@physx@@PAV123@U?$Hash@PAVBVHStructure@Gu@physx@@@shdfnd@3@UGetKey@?$HashSetBase@PAVBVHStructure@Gu@physx@@U?$Hash@PAVBVHStructure@Gu@physx@@@shdfnd@3@VNonTrackingAllocator@53@$00@internal@53@VNonTrackingAllocator@53@$00@internal@shdfnd@physx@@QAEXI@Z 1002bea0 f i GuMeshFactory.obj
 0001:0002aed0       ?reserve@?$HashBase@PAVConvexMesh@Gu@physx@@PAV123@U?$Hash@PAVConvexMesh@Gu@physx@@@shdfnd@3@UGetKey@?$HashSetBase@PAVConvexMesh@Gu@physx@@U?$Hash@PAVConvexMesh@Gu@physx@@@shdfnd@3@VNonTrackingAllocator@53@$00@internal@53@VNonTrackingAllocator@53@$00@internal@shdfnd@physx@@QAEXI@Z 1002bed0 f i GuMeshFactory.obj
 0001:0002af00       ?reserve@?$HashBase@PAVHeightField@Gu@physx@@PAV123@U?$Hash@PAVHeightField@Gu@physx@@@shdfnd@3@UGetKey@?$HashSetBase@PAVHeightField@Gu@physx@@U?$Hash@PAVHeightField@Gu@physx@@@shdfnd@3@VNonTrackingAllocator@53@$00@internal@53@VNonTrackingAllocator@53@$00@internal@shdfnd@physx@@QAEXI@Z 1002bf00 f i GuMeshFactory.obj
 0001:0002af30       ?reserve@?$HashBase@PAVTriangleMesh@Gu@physx@@PAV123@U?$Hash@PAVTriangleMesh@Gu@physx@@@shdfnd@3@UGetKey@?$HashSetBase@PAVTriangleMesh@Gu@physx@@U?$Hash@PAVTriangleMesh@Gu@physx@@@shdfnd@3@VNonTrackingAllocator@53@$00@internal@53@VNonTrackingAllocator@53@$00@internal@shdfnd@physx@@QAEXI@Z 1002bf30 f i GuMeshFactory.obj
 0001:0002af60       ?reserveInternal@?$HashBase@PAVBVHStructure@Gu@physx@@PAV123@U?$Hash@PAVBVHStructure@Gu@physx@@@shdfnd@3@UGetKey@?$HashSetBase@PAVBVHStructure@Gu@physx@@U?$Hash@PAVBVHStructure@Gu@physx@@@shdfnd@3@VNonTrackingAllocator@53@$00@internal@53@VNonTrackingAllocator@53@$00@internal@shdfnd@physx@@AAEXI@Z 1002bf60 f i GuMeshFactory.obj
 0001:0002b2f0       ?reserveInternal@?$HashBase@PAVConvexMesh@Gu@physx@@PAV123@U?$Hash@PAVConvexMesh@Gu@physx@@@shdfnd@3@UGetKey@?$HashSetBase@PAVConvexMesh@Gu@physx@@U?$Hash@PAVConvexMesh@Gu@physx@@@shdfnd@3@VNonTrackingAllocator@53@$00@internal@53@VNonTrackingAllocator@53@$00@internal@shdfnd@physx@@AAEXI@Z 1002c2f0 f i GuMeshFactory.obj
 0001:0002b680       ?reserveInternal@?$HashBase@PAVHeightField@Gu@physx@@PAV123@U?$Hash@PAVHeightField@Gu@physx@@@shdfnd@3@UGetKey@?$HashSetBase@PAVHeightField@Gu@physx@@U?$Hash@PAVHeightField@Gu@physx@@@shdfnd@3@VNonTrackingAllocator@53@$00@internal@53@VNonTrackingAllocator@53@$00@internal@shdfnd@physx@@AAEXI@Z 1002c680 f i GuMeshFactory.obj
 0001:0002ba10       ?reserveInternal@?$HashBase@PAVTriangleMesh@Gu@physx@@PAV123@U?$Hash@PAVTriangleMesh@Gu@physx@@@shdfnd@3@UGetKey@?$HashSetBase@PAVTriangleMesh@Gu@physx@@U?$Hash@PAVTriangleMesh@Gu@physx@@@shdfnd@3@VNonTrackingAllocator@53@$00@internal@53@VNonTrackingAllocator@53@$00@internal@shdfnd@physx@@AAEXI@Z 1002ca10 f i GuMeshFactory.obj
 0001:0002bda0       ?setMeshFactory@ConvexMesh@Gu@physx@@QAEXPAVGuMeshFactory@3@@Z 1002cda0 f i GuMeshFactory.obj
 0001:0002bdc0       ?setNbTriangles@SourceMesh@Gu@physx@@QAEXI@Z 1002cdc0 f i GuMeshFactory.obj
 0001:0002bde0       ?setNbVertices@SourceMeshBase@Gu@physx@@QAEXI@Z 1002cde0 f i GuMeshFactory.obj
 0001:0002be00       ?setPointers@SourceMesh@Gu@physx@@QAEXPAVIndTri32@23@PAVIndTri16@23@PBVPxVec3@3@@Z 1002ce00 f i GuMeshFactory.obj
 0001:0002be30       ?size@?$Array@PAVGuMeshFactoryListener@physx@@VNamedAllocator@shdfnd@2@@shdfnd@physx@@QBEIXZ 1002ce30 f i GuMeshFactory.obj
 0001:0002be50       ?size@?$HashBase@PAVBVHStructure@Gu@physx@@PAV123@U?$Hash@PAVBVHStructure@Gu@physx@@@shdfnd@3@UGetKey@?$HashSetBase@PAVBVHStructure@Gu@physx@@U?$Hash@PAVBVHStructure@Gu@physx@@@shdfnd@3@VNonTrackingAllocator@53@$00@internal@53@VNonTrackingAllocator@53@$00@internal@shdfnd@physx@@QBEIXZ 1002ce50 f i GuMeshFactory.obj
 0001:0002be70       ?size@?$HashBase@PAVConvexMesh@Gu@physx@@PAV123@U?$Hash@PAVConvexMesh@Gu@physx@@@shdfnd@3@UGetKey@?$HashSetBase@PAVConvexMesh@Gu@physx@@U?$Hash@PAVConvexMesh@Gu@physx@@@shdfnd@3@VNonTrackingAllocator@53@$00@internal@53@VNonTrackingAllocator@53@$00@internal@shdfnd@physx@@QBEIXZ 1002ce70 f i GuMeshFactory.obj
 0001:0002be90       ?size@?$HashBase@PAVHeightField@Gu@physx@@PAV123@U?$Hash@PAVHeightField@Gu@physx@@@shdfnd@3@UGetKey@?$HashSetBase@PAVHeightField@Gu@physx@@U?$Hash@PAVHeightField@Gu@physx@@@shdfnd@3@VNonTrackingAllocator@53@$00@internal@53@VNonTrackingAllocator@53@$00@internal@shdfnd@physx@@QBEIXZ 1002ce90 f i GuMeshFactory.obj
 0001:0002beb0       ?size@?$HashBase@PAVTriangleMesh@Gu@physx@@PAV123@U?$Hash@PAVTriangleMesh@Gu@physx@@@shdfnd@3@UGetKey@?$HashSetBase@PAVTriangleMesh@Gu@physx@@U?$Hash@PAVTriangleMesh@Gu@physx@@@shdfnd@3@VNonTrackingAllocator@53@$00@internal@53@VNonTrackingAllocator@53@$00@internal@shdfnd@physx@@QBEIXZ 1002ceb0 f i GuMeshFactory.obj
 0001:0002bed0       ?size@?$HashSetBase@PAVBVHStructure@Gu@physx@@U?$Hash@PAVBVHStructure@Gu@physx@@@shdfnd@3@VNonTrackingAllocator@53@$00@internal@shdfnd@physx@@QBEIXZ 1002ced0 f i GuMeshFactory.obj
 0001:0002bef0       ?size@?$HashSetBase@PAVConvexMesh@Gu@physx@@U?$Hash@PAVConvexMesh@Gu@physx@@@shdfnd@3@VNonTrackingAllocator@53@$00@internal@shdfnd@physx@@QBEIXZ 1002cef0 f i GuMeshFactory.obj
 0001:0002bf10       ?size@?$HashSetBase@PAVHeightField@Gu@physx@@U?$Hash@PAVHeightField@Gu@physx@@@shdfnd@3@VNonTrackingAllocator@53@$00@internal@shdfnd@physx@@QBEIXZ 1002cf10 f i GuMeshFactory.obj
 0001:0002bf30       ?size@?$HashSetBase@PAVTriangleMesh@Gu@physx@@U?$Hash@PAVTriangleMesh@Gu@physx@@@shdfnd@3@VNonTrackingAllocator@53@$00@internal@shdfnd@physx@@QBEIXZ 1002cf30 f i GuMeshFactory.obj
 0001:0002bf50       ?to16@shdfnd@physx@@YAGI@Z 1002cf50 f i GuMeshFactory.obj
 0001:0002bfa0       ?unlock@?$MutexT@V?$ReflectionAllocator@VMutexImpl@shdfnd@physx@@@shdfnd@physx@@@shdfnd@physx@@QBEXXZ 1002cfa0 f i GuMeshFactory.obj
 0001:0002bfc0       ?getBinaryMetaData@HeightField@Gu@physx@@SAXAAVPxOutputStream@3@@Z 1002cfc0 f   GuMetaData.obj
 0001:0002c490       ?getBinaryMetaData@BigConvexData@physx@@SAXAAVPxOutputStream@2@@Z 1002d490 f   GuMetaData.obj
 0001:0002c810       ?getBinaryMetaData@ConvexMesh@Gu@physx@@SAXAAVPxOutputStream@3@@Z 1002d810 f   GuMetaData.obj
 0001:0002cfc0       ?getBinaryMetaData@RTree@Gu@physx@@SAXAAVPxOutputStream@3@@Z 1002dfc0 f   GuMetaData.obj
 0001:0002d490       ?getBinaryMetaData@SourceMesh@Gu@physx@@SAXAAVPxOutputStream@3@@Z 1002e490 f   GuMetaData.obj
 0001:0002d700       ?getBinaryMetaData@BV4Tree@Gu@physx@@SAXAAVPxOutputStream@3@@Z 1002e700 f   GuMetaData.obj
 0001:0002dc40       ?getBinaryMetaData@TriangleMesh@Gu@physx@@SAXAAVPxOutputStream@3@@Z 1002ec40 f   GuMetaData.obj
 0001:0002e8e0       ?getBinaryMetaData@BV4TriangleMesh@Gu@physx@@SAXAAVPxOutputStream@3@@Z 1002f8e0 f   GuMetaData.obj
 0001:0002ea50       ?getBinaryMetaData@RTreeTriangleMesh@Gu@physx@@SAXAAVPxOutputStream@3@@Z 1002fa50 f   GuMetaData.obj
 0001:0002eb60       ?getBinaryMetaData@MaterialIndicesStruct@physx@@SAXAAVPxOutputStream@2@@Z 1002fb60 f   GuMetaData.obj
 0001:0002ed00       ?getBinaryMetaData@GeometryUnion@Gu@physx@@SAXAAVPxOutputStream@3@@Z 1002fd00 f   GuMetaData.obj
 0001:000318b0       ??0BigConvexData@physx@@QAE@W4PxEMPTY@1@@Z 100328b0 f i GuMetaData.obj
 0001:000318c0       ??4BigConvexData@physx@@QAEAAV01@ABV01@@Z 100328c0 f i GuMetaData.obj
 0001:000318f0       ?GetAdjacentVerts@BigConvexData@physx@@QBEPBEXZ 100328f0 f i GuMetaData.obj
 0001:00031910       ?GetNbNeighbors@BigConvexData@physx@@QBEGI@Z 10032910 f i GuMetaData.obj
 0001:00031930       ?GetNbSamples@BigConvexData@physx@@QBEIXZ 10032930 f i GuMetaData.obj
 0001:00031950       ?GetNbVerts@BigConvexData@physx@@QBEIXZ 10032950 f i GuMetaData.obj
 0001:00031970       ?GetNeighbors@BigConvexData@physx@@QBEPBEI@Z 10032970 f i GuMetaData.obj
 0001:000319a0       ?GetOffset@BigConvexData@physx@@QBEGI@Z 100329a0 f i GuMetaData.obj
 0001:000319c0       ?GetSubdiv@BigConvexData@physx@@QBEIXZ 100329c0 f i GuMetaData.obj
 0001:000319e0       ?GetValencies@BigConvexData@physx@@QBEPBUValency@Gu@2@XZ 100329e0 f i GuMetaData.obj
 0001:00031a00       ?GetValency@BigConvexData@physx@@QBEGI@Z 10032a00 f i GuMetaData.obj
 0001:00032ce0       ?pointConvexDistance@@YA_NAAVPxVec3@physx@@0AAMABV12@PBVConvexMesh@Gu@2@ABVPxMeshScale@2@ABVPxTransform@2@@Z 10033ce0 f   GuMTD.obj
 0001:000361d0       ??$PX_UNUSED@PAVMeshPersistentContact@Gu@physx@@@@YAXABQAVMeshPersistentContact@Gu@physx@@@Z 100371d0 f i GuMTD.obj
 0001:000361e0       ??$PX_UNUSED@VPxGeometry@physx@@@@YAXABVPxGeometry@physx@@@Z 100371e0 f i GuMTD.obj
 0001:000361f0       ??$getConvex@VCapsuleV@Gu@physx@@@GjkConvexBase@Gu@physx@@QBEABVCapsuleV@12@XZ 100371f0 f i GuMTD.obj
 0001:00036210       ??$getConvex@VConvexHullV@Gu@physx@@@GjkConvexBase@Gu@physx@@QBEABVConvexHullV@12@XZ 10037210 f i GuMTD.obj
 0001:00036230       ??$gjk@U?$LocalConvex@VCapsuleV@Gu@physx@@@Gu@physx@@U?$LocalConvex@VConvexHullV@Gu@physx@@@23@@Gu@physx@@YA?AW4GjkStatus@01@ABU?$LocalConvex@VCapsuleV@Gu@physx@@@01@ABU?$LocalConvex@VConvexHullV@Gu@physx@@@01@ABT__m128@@2AAT5@333@Z 10037230 f i GuMTD.obj
 0001:00036bf0       ??$swap@M@shdfnd@physx@@YAXAAM0@Z 10037bf0 f i GuMTD.obj
 0001:00036c20       ??0?$LocalConvex@VCapsuleV@Gu@physx@@@Gu@physx@@QAE@ABVCapsuleV@12@@Z 10037c20 f i GuMTD.obj
 0001:00036c50       ??0?$LocalConvex@VConvexHullV@Gu@physx@@@Gu@physx@@QAE@ABVConvexHullV@12@@Z 10037c50 f i GuMTD.obj
 0001:00036c80       ??0?$SupportLocalImpl@VBoxV@Gu@physx@@@Gu@physx@@QAE@ABVBoxV@12@ABVPsTransformV@aos@shdfnd@2@ABUMat33V@562@2_N@Z 10037c80 f i GuMTD.obj
 0001:00036cc0       ??0?$SupportLocalImpl@VConvexHullNoScaleV@Gu@physx@@@Gu@physx@@QAE@ABVConvexHullNoScaleV@12@ABVPsTransformV@aos@shdfnd@2@ABUMat33V@562@2_N@Z 10037cc0 f i GuMTD.obj
 0001:00036d00       ??0?$SupportLocalImpl@VConvexHullV@Gu@physx@@@Gu@physx@@QAE@ABVConvexHullV@12@ABVPsTransformV@aos@shdfnd@2@ABUMat33V@562@2_N@Z 10037d00 f i GuMTD.obj
 0001:00036d40       ??0BoxV@Gu@physx@@QAE@ABT__m128@@0@Z 10037d40 f i GuMTD.obj
 0001:00036db0       ??0Cache@Gu@physx@@QAE@XZ  10037db0 f i GuMTD.obj
 0001:00036dd0       ??0CapsuleV@Gu@physx@@QAE@ABT__m128@@00@Z 10037dd0 f i GuMTD.obj
 0001:00036ea0       ??0CapsuleV@Gu@physx@@QAE@ABT__m128@@0@Z 10037ea0 f i GuMTD.obj
 0001:00036f40       ??0ContactBuffer@Gu@physx@@QAE@XZ 10037f40 f i GuMTD.obj
 0001:00036f60       ??0ContactPoint@Gu@physx@@QAE@XZ 10037f60 f i GuMTD.obj
 0001:00036f90       ??0ConvexHullV@Gu@physx@@QAE@PBUConvexHullData@12@ABT__m128@@11_N@Z 10037f90 f i GuMTD.obj
 0001:00037060       ??0ConvexV@Gu@physx@@QAE@W4Type@ConvexType@12@@Z 10038060 f i GuMTD.obj
 0001:000370d0       ??0ConvexV@Gu@physx@@QAE@W4Type@ConvexType@12@ABT__m128@@@Z 100380d0 f i GuMTD.obj
 0001:00037120       ??0GjkConvex@Gu@physx@@QAE@ABVConvexV@12@@Z 10038120 f i GuMTD.obj
 0001:00037150       ??0GjkConvexBase@Gu@physx@@QAE@ABVConvexV@12@@Z 10038150 f i GuMTD.obj
 0001:00037180       ??0HullPolygonData@Gu@physx@@QAE@ABU012@@Z 10038180 f i GuMTD.obj
 0001:000371d0       ??0Mat33V@aos@shdfnd@physx@@QAE@ABT__m128@@00@Z 100381d0 f i GuMTD.obj
 0001:00037210       ??0Mat33V@aos@shdfnd@physx@@QAE@XZ 10038210 f i GuMTD.obj
 0001:00037220       ??0MeshPersistentContact@Gu@physx@@QAE@XZ 10038220 f i GuMTD.obj
 0001:00037240       ??0MultiplePersistentContactManifold@Gu@physx@@QAE@XZ 10038240 f i GuMTD.obj
 0001:000372c0       ??0NarrowPhaseParams@Gu@physx@@QAE@MMM@Z 100382c0 f i GuMTD.obj
 0001:00037300       ??0PersistentContact@Gu@physx@@QAE@XZ 10038300 f i GuMTD.obj
 0001:00037310       ??0PolygonalBox@Gu@physx@@QAE@ABV012@@Z 10038310 f i GuMTD.obj
 0001:00037370       ??0PolygonalData@Gu@physx@@QAE@XZ 10038370 f i GuMTD.obj
 0001:00037390       ??0PsMatTransformV@aos@shdfnd@physx@@QAE@ABVPsTransformV@123@@Z 10038390 f i GuMTD.obj
 0001:000373e0       ??0PsTransformV@aos@shdfnd@physx@@QAE@ABT__m128@@0@Z 100383e0 f i GuMTD.obj
 0001:00037450       ??0PsTransformV@aos@shdfnd@physx@@QAE@ABVPxTransform@3@@Z 10038450 f i GuMTD.obj
 0001:000374f0       ??0PxBoxGeometry@physx@@QAE@VPxVec3@1@@Z 100384f0 f i GuMTD.obj
 0001:00037520       ??0PxCache@physx@@QAE@XZ   10038520 f i GuMTD.obj
 0001:00037550       ??0PxPlane@physx@@QAE@ABV01@@Z 10038550 f i GuMTD.obj
 0001:00037580       ??0PxSphereGeometry@physx@@QAE@M@Z 10038580 f i GuMTD.obj
 0001:000375b0       ??0PxTransform@physx@@QAE@ABVPxVec3@1@@Z 100385b0 f i GuMTD.obj
 0001:000375e0       ??0SeparatingAxes@Gu@physx@@QAE@$$QAV012@@Z 100385e0 f i GuMTD.obj
 0001:00037620       ??0SeparatingAxes@Gu@physx@@QAE@ABV012@@Z 10038620 f i GuMTD.obj
 0001:00037660       ??0SeparatingAxes@Gu@physx@@QAE@XZ 10038660 f i GuMTD.obj
 0001:00037690       ??0SinglePersistentContactManifold@Gu@physx@@QAE@XZ 10038690 f i GuMTD.obj
 0001:000376c0       ??0SupportLocal@Gu@physx@@QAE@ABVPsTransformV@aos@shdfnd@2@ABUMat33V@452@1_N@Z 100386c0 f i GuMTD.obj
 0001:00037700       ??1?$LocalConvex@VCapsuleV@Gu@physx@@@Gu@physx@@UAE@XZ 10038700 f i GuMTD.obj
 0001:00037720       ??1?$LocalConvex@VConvexHullV@Gu@physx@@@Gu@physx@@UAE@XZ 10038720 f i GuMTD.obj
 0001:00037740       ??1?$SupportLocalImpl@VBoxV@Gu@physx@@@Gu@physx@@UAE@XZ 10038740 f i GuMTD.obj
 0001:00037760       ??1?$SupportLocalImpl@VConvexHullNoScaleV@Gu@physx@@@Gu@physx@@UAE@XZ 10038760 f i GuMTD.obj
 0001:00037780       ??1?$SupportLocalImpl@VConvexHullV@Gu@physx@@@Gu@physx@@UAE@XZ 10038780 f i GuMTD.obj
 0001:000377a0       ??1BoxV@Gu@physx@@QAE@XZ   100387a0 f i GuMTD.obj
 0001:000377c0       ??1CapsuleV@Gu@physx@@QAE@XZ 100387c0 f i GuMTD.obj
 0001:000377e0       ??1ConvexHullV@Gu@physx@@QAE@XZ 100387e0 f i GuMTD.obj
 0001:00037800       ??1ConvexV@Gu@physx@@IAE@XZ 10038800 f i GuMTD.obj
 0001:00037810       ??1GjkConvex@Gu@physx@@UAE@XZ 10038810 f i GuMTD.obj
 0001:00037830       ??1GjkConvexBase@Gu@physx@@UAE@XZ 10038830 f i GuMTD.obj
 0001:00037850       ??1SupportLocal@Gu@physx@@UAE@XZ 10038850 f i GuMTD.obj
 0001:00037870       ??4MultiplePersistentContactManifold@Gu@physx@@QAEAAV012@$$QAV012@@Z 10038870 f i GuMTD.obj
 0001:00037980       ??4MultiplePersistentContactManifold@Gu@physx@@QAEAAV012@ABV012@@Z 10038980 f i GuMTD.obj
 0001:000379b0       ??4SeparatingAxes@Gu@physx@@QAEAAV012@$$QAV012@@Z 100389b0 f i GuMTD.obj
 0001:00037a20       ??4SeparatingAxes@Gu@physx@@QAEAAV012@ABV012@@Z 10038a20 f i GuMTD.obj
 0001:00037a90       ??_G?$LocalConvex@VCapsuleV@Gu@physx@@@Gu@physx@@UAEPAXI@Z 10038a90 f i GuMTD.obj
 0001:00037a90       ??_E?$LocalConvex@VCapsuleV@Gu@physx@@@Gu@physx@@UAEPAXI@Z 10038a90 f i GuMTD.obj
 0001:00037ac0       ??_E?$LocalConvex@VConvexHullV@Gu@physx@@@Gu@physx@@UAEPAXI@Z 10038ac0 f i GuMTD.obj
 0001:00037ac0       ??_G?$LocalConvex@VConvexHullV@Gu@physx@@@Gu@physx@@UAEPAXI@Z 10038ac0 f i GuMTD.obj
 0001:00037af0       ??_G?$SupportLocalImpl@VBoxV@Gu@physx@@@Gu@physx@@UAEPAXI@Z 10038af0 f i GuMTD.obj
 0001:00037af0       ??_E?$SupportLocalImpl@VBoxV@Gu@physx@@@Gu@physx@@UAEPAXI@Z 10038af0 f i GuMTD.obj
 0001:00037b20       ??_E?$SupportLocalImpl@VConvexHullNoScaleV@Gu@physx@@@Gu@physx@@UAEPAXI@Z 10038b20 f i GuMTD.obj
 0001:00037b20       ??_G?$SupportLocalImpl@VConvexHullNoScaleV@Gu@physx@@@Gu@physx@@UAEPAXI@Z 10038b20 f i GuMTD.obj
 0001:00037b50       ??_E?$SupportLocalImpl@VConvexHullV@Gu@physx@@@Gu@physx@@UAEPAXI@Z 10038b50 f i GuMTD.obj
 0001:00037b50       ??_G?$SupportLocalImpl@VConvexHullV@Gu@physx@@@Gu@physx@@UAEPAXI@Z 10038b50 f i GuMTD.obj
 0001:00037b80       ??_GGjkConvex@Gu@physx@@UAEPAXI@Z 10038b80 f i GuMTD.obj
 0001:00037b80       ??_EGjkConvex@Gu@physx@@UAEPAXI@Z 10038b80 f i GuMTD.obj
 0001:00037bb0       ??_EGjkConvexBase@Gu@physx@@UAEPAXI@Z 10038bb0 f i GuMTD.obj
 0001:00037bb0       ??_GGjkConvexBase@Gu@physx@@UAEPAXI@Z 10038bb0 f i GuMTD.obj
 0001:00037be0       ??_GSupportLocal@Gu@physx@@UAEPAXI@Z 10038be0 f i GuMTD.obj
 0001:00037be0       ??_ESupportLocal@Gu@physx@@UAEPAXI@Z 10038be0 f i GuMTD.obj
 0001:00037c10       ??__G@YGXPAX0IIP6EPAX00@Z@Z 10038c10 f i GuMTD.obj
 0001:00037c70       ?BAllEqTTTT@aos@shdfnd@physx@@YAIT__m128@@@Z 10038c70 f i GuMTD.obj
 0001:00037cc0       ?BAllTrue3_R@internalWindowsSimd@aos@shdfnd@physx@@YAIT__m128@@@Z 10038cc0 f i GuMTD.obj
 0001:00037d10       ?BAllTrue4_R@internalWindowsSimd@aos@shdfnd@physx@@YAIT__m128@@@Z 10038d10 f i GuMTD.obj
 0001:00037d60       ?BAnd@aos@shdfnd@physx@@YA?AT__m128@@T4@0@Z 10038d60 f i GuMTD.obj
 0001:00037da0       ?BFFFF@aos@shdfnd@physx@@YA?AT__m128@@XZ 10038da0 f i GuMTD.obj
 0001:00037dd0       ?BLoad@aos@shdfnd@physx@@YA?AT__m128@@_N@Z 10038dd0 f i GuMTD.obj
 0001:00037e10       ?BOr@aos@shdfnd@physx@@YA?AT__m128@@T4@0@Z 10038e10 f i GuMTD.obj
 0001:00037e50       ?BTTTF@aos@shdfnd@physx@@YA?AT__m128@@XZ 10038e50 f i GuMTD.obj
 0001:00037e90       ?BTTTT@aos@shdfnd@physx@@YA?AT__m128@@XZ 10038e90 f i GuMTD.obj
 0001:00037ed0       ?CalculateBoxMargin@Gu@physx@@YAXABT__m128@@AAM11MM@Z 10038ed0 f i GuMTD.obj
 0001:00037f50       ?CalculateConvexMargin@Gu@physx@@YAXPBUConvexHullData@12@AAM11ABT__m128@@@Z 10038f50 f i GuMTD.obj
 0001:00038000       ?ComputeCubemapNearestOffset@physx@@YAIABVPxVec3@1@I@Z 10039000 f i GuMTD.obj
 0001:000380e0       ?ConstructSkewMatrix@Gu@physx@@YAXABT__m128@@0AAUMat33V@aos@shdfnd@2@1AAT3@_N@Z 100390e0 f i GuMTD.obj
 0001:00038410       ?CubemapLookup@physx@@YA?AW4CubeIndex@1@ABVPxVec3@1@AAM1@Z 10039410 f i GuMTD.obj
 0001:00038560       ?FAbs@aos@shdfnd@physx@@YA?AT__m128@@T4@@Z 10039560 f i GuMTD.obj
 0001:000385f0       ?FAdd@aos@shdfnd@physx@@YA?AT__m128@@T4@0@Z 100395f0 f i GuMTD.obj
 0001:000386c0       ?FAllEq@aos@shdfnd@physx@@YAIT__m128@@0@Z 100396c0 f i GuMTD.obj
 0001:00038790       ?FAllGrtr@aos@shdfnd@physx@@YAIT__m128@@0@Z 10039790 f i GuMTD.obj
 0001:00038850       ?FAllGrtrOrEq@aos@shdfnd@physx@@YAIT__m128@@0@Z 10039850 f i GuMTD.obj
 0001:00038910       ?FClamp@aos@shdfnd@physx@@YA?AT__m128@@T4@00@Z 10039910 f i GuMTD.obj
 0001:000389f0       ?FDiv@aos@shdfnd@physx@@YA?AT__m128@@T4@0@Z 100399f0 f i GuMTD.obj
 0001:00038ac0       ?FEps@aos@shdfnd@physx@@YA?AT__m128@@XZ 10039ac0 f i GuMTD.obj
 0001:00038b00       ?FIsGrtr@aos@shdfnd@physx@@YA?AT__m128@@T4@0@Z 10039b00 f i GuMTD.obj
 0001:00038bd0       ?FIsGrtrOrEq@aos@shdfnd@physx@@YA?AT__m128@@T4@0@Z 10039bd0 f i GuMTD.obj
 0001:00038ca0       ?FMax@aos@shdfnd@physx@@YA?AT__m128@@T4@0@Z 10039ca0 f i GuMTD.obj
 0001:00038d70       ?FMax@aos@shdfnd@physx@@YA?AT__m128@@XZ 10039d70 f i GuMTD.obj
 0001:00038db0       ?FMin@aos@shdfnd@physx@@YA?AT__m128@@T4@0@Z 10039db0 f i GuMTD.obj
 0001:00038e80       ?FMul@aos@shdfnd@physx@@YA?AT__m128@@T4@0@Z 10039e80 f i GuMTD.obj
 0001:00038f50       ?FNeg@aos@shdfnd@physx@@YA?AT__m128@@T4@@Z 10039f50 f i GuMTD.obj
 0001:00038fd0       ?FOne@aos@shdfnd@physx@@YA?AT__m128@@XZ 10039fd0 f i GuMTD.obj
 0001:00039010       ?FRecip@aos@shdfnd@physx@@YA?AT__m128@@T4@@Z 1003a010 f i GuMTD.obj
 0001:000390a0       ?FScaleAdd@aos@shdfnd@physx@@YA?AT__m128@@T4@00@Z 1003a0a0 f i GuMTD.obj
 0001:000391d0       ?FSel@aos@shdfnd@physx@@YA?AT__m128@@T4@00@Z 1003a1d0 f i GuMTD.obj
 0001:00039320       ?FStore@aos@shdfnd@physx@@YAXT__m128@@PIAM@Z 1003a320 f i GuMTD.obj
 0001:000393a0       ?FSub@aos@shdfnd@physx@@YA?AT__m128@@T4@0@Z 1003a3a0 f i GuMTD.obj
 0001:00039470       ?FZero@aos@shdfnd@physx@@YA?AT__m128@@XZ 1003a470 f i GuMTD.obj
 0001:000394a0       ?GJKCPairDoSimplex@Gu@physx@@YA?AT__m128@@PIAT3@00ABT3@AAI@Z 1003a4a0 f i GuMTD.obj
 0001:000395a0       ?I4Load@aos@shdfnd@physx@@YA?AT__m128@@H@Z 1003a5a0 f i GuMTD.obj
 0001:000395e0       ?Invalidate@PsTransformV@aos@shdfnd@physx@@QAEXXZ 1003a5e0 f i GuMTD.obj
 0001:00039640       ?M33Diagonal@aos@shdfnd@physx@@YA?AUMat33V@123@ABT__m128@@@Z 1003a640 f i GuMTD.obj
 0001:000396f0       ?M33Identity@aos@shdfnd@physx@@YA?AUMat33V@123@XZ 1003a6f0 f i GuMTD.obj
 0001:00039750       ?M33MulM33@aos@shdfnd@physx@@YA?AUMat33V@123@ABU4123@0@Z 1003a750 f i GuMTD.obj
 0001:000397d0       ?M33MulV3@aos@shdfnd@physx@@YA?AT__m128@@ABUMat33V@123@T4@@Z 1003a7d0 f i GuMTD.obj
 0001:000398f0       ?M33Trnsps@aos@shdfnd@physx@@YA?AUMat33V@123@ABU4123@@Z 1003a8f0 f i GuMTD.obj
 0001:00039960       ?M33TrnspsMulV3@aos@shdfnd@physx@@YA?AT__m128@@ABUMat33V@123@T4@@Z 1003a960 f i GuMTD.obj
 0001:00039a20       ?PxI32_From_VecI32V@aos@shdfnd@physx@@YAXABT__m128@@PAH@Z 1003aa20 f i GuMTD.obj
 0001:00039a40       ?QuatConjugate@aos@shdfnd@physx@@YA?AT__m128@@T4@@Z 1003aa40 f i GuMTD.obj
 0001:00039aa0       ?QuatDot@aos@shdfnd@physx@@YA?AT__m128@@T4@0@Z 1003aaa0 f i GuMTD.obj
 0001:00039ae0       ?QuatIdentity@aos@shdfnd@physx@@YA?AT__m128@@XZ 1003aae0 f i GuMTD.obj
 0001:00039b30       ?QuatLength@aos@shdfnd@physx@@YA?AT__m128@@T4@@Z 1003ab30 f i GuMTD.obj
 0001:00039b70       ?QuatMul@aos@shdfnd@physx@@YA?AT__m128@@T4@0@Z 1003ab70 f i GuMTD.obj
 0001:00039d30       ?QuatRotate@aos@shdfnd@physx@@YA?AT__m128@@T4@0@Z 1003ad30 f i GuMTD.obj
 0001:00039eb0       ?QuatVLoadU@aos@shdfnd@physx@@YA?AT__m128@@PBM@Z 1003aeb0 f i GuMTD.obj
 0001:00039ef0       ?QuatVLoadXYZW@aos@shdfnd@physx@@YA?AT__m128@@MMMM@Z 1003aef0 f i GuMTD.obj
 0001:00039f30       ?V3Abs@aos@shdfnd@physx@@YA?AT__m128@@T4@@Z 1003af30 f i GuMTD.obj
 0001:00039fd0       ?V3Add@aos@shdfnd@physx@@YA?AT__m128@@T4@0@Z 1003afd0 f i GuMTD.obj
 0001:0003a0a0       ?V3AllEq@aos@shdfnd@physx@@YAIT__m128@@0@Z 1003b0a0 f i GuMTD.obj
 0001:0003a170       ?V3Cross@aos@shdfnd@physx@@YA?AT__m128@@ABUVecCrossV@123@0@Z 1003b170 f i GuMTD.obj
 0001:0003a1d0       ?V3Cross@aos@shdfnd@physx@@YA?AT__m128@@T4@0@Z 1003b1d0 f i GuMTD.obj
 0001:0003a330       ?V3Dot@aos@shdfnd@physx@@YA?AT__m128@@T4@0@Z 1003b330 f i GuMTD.obj
 0001:0003a460       ?V3ExtractMin@aos@shdfnd@physx@@YA?AT__m128@@T4@@Z 1003b460 f i GuMTD.obj
 0001:0003a540       ?V3GetX@aos@shdfnd@physx@@YA?AT__m128@@T4@@Z 1003b540 f i GuMTD.obj
 0001:0003a5c0       ?V3GetY@aos@shdfnd@physx@@YA?AT__m128@@T4@@Z 1003b5c0 f i GuMTD.obj
 0001:0003a640       ?V3GetZ@aos@shdfnd@physx@@YA?AT__m128@@T4@@Z 1003b640 f i GuMTD.obj
 0001:0003a6c0       ?V3IsGrtr@aos@shdfnd@physx@@YA?AT__m128@@T4@0@Z 1003b6c0 f i GuMTD.obj
 0001:0003a790       ?V3Length@aos@shdfnd@physx@@YA?AT__m128@@T4@@Z 1003b790 f i GuMTD.obj
 0001:0003a820       ?V3LoadU@aos@shdfnd@physx@@YA?AT__m128@@ABVPxVec3@3@@Z 1003b820 f i GuMTD.obj
 0001:0003a870       ?V3LoadU_SafeReadW@aos@shdfnd@physx@@YA?AT__m128@@ABVPxVec3@3@@Z 1003b870 f i GuMTD.obj
 0001:0003a8c0       ?V3Max@aos@shdfnd@physx@@YA?AT__m128@@T4@0@Z 1003b8c0 f i GuMTD.obj
 0001:0003a990       ?V3Mul@aos@shdfnd@physx@@YA?AT__m128@@T4@0@Z 1003b990 f i GuMTD.obj
 0001:0003aa60       ?V3Neg@aos@shdfnd@physx@@YA?AT__m128@@T4@@Z 1003ba60 f i GuMTD.obj
 0001:0003aae0       ?V3NegScaleSub@aos@shdfnd@physx@@YA?AT__m128@@T4@00@Z 1003bae0 f i GuMTD.obj
 0001:0003ac10       ?V3Normalize@aos@shdfnd@physx@@YA?AT__m128@@T4@@Z 1003bc10 f i GuMTD.obj
 0001:0003acb0       ?V3One@aos@shdfnd@physx@@YA?AT__m128@@XZ 1003bcb0 f i GuMTD.obj
 0001:0003acf0       ?V3PrepareCross@aos@shdfnd@physx@@YA?AUVecCrossV@123@T__m128@@@Z 1003bcf0 f i GuMTD.obj
 0001:0003ada0       ?V3Recip@aos@shdfnd@physx@@YA?AT__m128@@T4@@Z 1003bda0 f i GuMTD.obj
 0001:0003ae70       ?V3Scale@aos@shdfnd@physx@@YA?AT__m128@@T4@0@Z 1003be70 f i GuMTD.obj
 0001:0003af40       ?V3ScaleAdd@aos@shdfnd@physx@@YA?AT__m128@@T4@00@Z 1003bf40 f i GuMTD.obj
 0001:0003b070       ?V3ScaleInv@aos@shdfnd@physx@@YA?AT__m128@@T4@0@Z 1003c070 f i GuMTD.obj
 0001:0003b140       ?V3Sel@aos@shdfnd@physx@@YA?AT__m128@@T4@00@Z 1003c140 f i GuMTD.obj
 0001:0003b210       ?V3Splat@aos@shdfnd@physx@@YA?AT__m128@@T4@@Z 1003c210 f i GuMTD.obj
 0001:0003b2c0       ?V3StoreU@aos@shdfnd@physx@@YAXT__m128@@AAVPxVec3@3@@Z 1003c2c0 f i GuMTD.obj
 0001:0003b340       ?V3Sub@aos@shdfnd@physx@@YA?AT__m128@@T4@0@Z 1003c340 f i GuMTD.obj
 0001:0003b410       ?V3Transpose@aos@shdfnd@physx@@YAXAAT__m128@@00@Z 1003c410 f i GuMTD.obj
 0001:0003b5f0       ?V3UnitX@aos@shdfnd@physx@@YA?AT__m128@@XZ 1003c5f0 f i GuMTD.obj
 0001:0003b650       ?V3UnitY@aos@shdfnd@physx@@YA?AT__m128@@XZ 1003c650 f i GuMTD.obj
 0001:0003b6b0       ?V3UnitZ@aos@shdfnd@physx@@YA?AT__m128@@XZ 1003c6b0 f i GuMTD.obj
 0001:0003b710       ?V3Zero@aos@shdfnd@physx@@YA?AT__m128@@XZ 1003c710 f i GuMTD.obj
 0001:0003b740       ?V4Dot@aos@shdfnd@physx@@YA?AT__m128@@T4@0@Z 1003c740 f i GuMTD.obj
 0001:0003b810       ?V4ExtractMax@aos@shdfnd@physx@@YA?AT__m128@@T4@@Z 1003c810 f i GuMTD.obj
 0001:0003b8b0       ?V4IsEq@aos@shdfnd@physx@@YA?AT__m128@@T4@0@Z 1003c8b0 f i GuMTD.obj
 0001:0003b8f0       ?V4Length@aos@shdfnd@physx@@YA?AT__m128@@T4@@Z 1003c8f0 f i GuMTD.obj
 0001:0003b940       ?V4LoadXYZW@aos@shdfnd@physx@@YA?AT__m128@@ABM000@Z 1003c940 f i GuMTD.obj
 0001:0003b990       ?V4ReadW@aos@shdfnd@physx@@YAMABT__m128@@@Z 1003c990 f i GuMTD.obj
 0001:0003b9a0       ?V4ReadX@aos@shdfnd@physx@@YAMABT__m128@@@Z 1003c9a0 f i GuMTD.obj
 0001:0003b9b0       ?V4ReadY@aos@shdfnd@physx@@YAMABT__m128@@@Z 1003c9b0 f i GuMTD.obj
 0001:0003b9c0       ?V4ReadZ@aos@shdfnd@physx@@YAMABT__m128@@@Z 1003c9c0 f i GuMTD.obj
 0001:0003b9d0       ?V4Sel@aos@shdfnd@physx@@YA?AT__m128@@T4@00@Z 1003c9d0 f i GuMTD.obj
 0001:0003ba30       ?V4SetW@aos@shdfnd@physx@@YA?AT__m128@@T4@0@Z 1003ca30 f i GuMTD.obj
 0001:0003bac0       ?V4Zero@aos@shdfnd@physx@@YA?AT__m128@@XZ 1003cac0 f i GuMTD.obj
 0001:0003baf0       ?VecI32V_And@aos@shdfnd@physx@@YA?AT__m128@@ABT4@0@Z 1003caf0 f i GuMTD.obj
 0001:0003bb30       ?VecI32V_From_BoolV@aos@shdfnd@physx@@YA?AT__m128@@ABT4@@Z 1003cb30 f i GuMTD.obj
 0001:0003bb40       ?VecI32V_IsEq@aos@shdfnd@physx@@YA?AT__m128@@ABT4@0@Z 1003cb40 f i GuMTD.obj
 0001:0003bba0       ?VecI32V_One@aos@shdfnd@physx@@YA?AT__m128@@XZ 1003cba0 f i GuMTD.obj
 0001:0003bbe0       ?allElementsEqualBoolV@_VecMathTests@aos@shdfnd@physx@@YA_NT__m128@@0@Z 1003cbe0 f i GuMTD.obj
 0001:0003bc40       ?bruteForceSearch@ConvexHullV@Gu@physx@@QBEIABT__m128@@@Z 1003cc40 f i GuMTD.obj
 0001:0003bcf0       ?bruteForceSearchMinMax@ConvexHullNoScaleV@Gu@physx@@QBEXABT__m128@@AAT4@1@Z 1003ccf0 f i GuMTD.obj
 0001:0003be40       ?bruteForceSearchMinMax@ConvexHullV@Gu@physx@@QBEXABT__m128@@AAT4@1@Z 1003ce40 f i GuMTD.obj
 0001:0003bf70       ?clearManifold@MultiplePersistentContactManifold@Gu@physx@@QAEXXZ 1003cf70 f i GuMTD.obj
 0001:0003bfd0       ?clearManifold@SinglePersistentContactManifold@Gu@physx@@QAEXXZ 1003cfd0 f i GuMTD.obj
 0001:0003bff0       ?closestPtPointSegment@Gu@physx@@YA?AT__m128@@PIAT3@AAI@Z 1003cff0 f i GuMTD.obj
 0001:0003c1a0       ?closestPtPointTriangle@Gu@physx@@YA?AT__m128@@PIAT3@PAT3@1AAI@Z 1003d1a0 f i GuMTD.obj
 0001:0003c460       ?closestPtPointTriangleBaryCentric@Gu@physx@@YA?AT__m128@@ABT3@00PIAIAAIAAT3@@Z 1003d460 f i GuMTD.obj
 0001:0003d180       ?computeDirection@Segment@Gu@physx@@QBE?AVPxVec3@3@XZ 1003e180 f i GuMTD.obj
 0001:0003d1b0       ?distance@PxPlane@physx@@QBEMABVPxVec3@2@@Z 1003e1b0 f i GuMTD.obj
 0001:0003d1f0       ?distanceSegmentSegmentSquared@Gu@physx@@YAMABVSegment@12@0PAM1@Z 1003e1f0 f i GuMTD.obj
 0001:0003d230       ?doSupport@?$SupportLocalImpl@VBoxV@Gu@physx@@@Gu@physx@@UBE?AT__m128@@ABT4@@Z 1003e230 f i GuMTD.obj
 0001:0003d260       ?doSupport@?$SupportLocalImpl@VBoxV@Gu@physx@@@Gu@physx@@UBEXABT__m128@@AAT4@1@Z 1003e260 f i GuMTD.obj
 0001:0003d290       ?doSupport@?$SupportLocalImpl@VConvexHullNoScaleV@Gu@physx@@@Gu@physx@@UBE?AT__m128@@ABT4@@Z 1003e290 f i GuMTD.obj
 0001:0003d2c0       ?doSupport@?$SupportLocalImpl@VConvexHullNoScaleV@Gu@physx@@@Gu@physx@@UBEXABT__m128@@AAT4@1@Z 1003e2c0 f i GuMTD.obj
 0001:0003d2f0       ?doSupport@?$SupportLocalImpl@VConvexHullV@Gu@physx@@@Gu@physx@@UBE?AT__m128@@ABT4@@Z 1003e2f0 f i GuMTD.obj
 0001:0003d320       ?doSupport@?$SupportLocalImpl@VConvexHullV@Gu@physx@@@Gu@physx@@UBEXABT__m128@@AAT4@1@Z 1003e320 f i GuMTD.obj
 0001:0003d350       ?doVirtualGetSweepMargin@GjkConvex@Gu@physx@@ABE?AT__m128@@XZ 1003e350 f i GuMTD.obj
 0001:0003d380       ?doVirtualSupport@GjkConvex@Gu@physx@@ABE?AT__m128@@ABT4@@Z 1003e380 f i GuMTD.obj
 0001:0003d3b0       ?doVirtualSupport@GjkConvex@Gu@physx@@ABE?AT__m128@@ABT4@AAH@Z 1003e3b0 f i GuMTD.obj
 0001:0003d3e0       ?doVirtualSupportPoint@GjkConvex@Gu@physx@@ABE?AT__m128@@H@Z 1003e3e0 f i GuMTD.obj
 0001:0003d410       ?getAxes@SeparatingAxes@Gu@physx@@QBEPBVPxVec3@3@XZ 1003e410 f i GuMTD.obj
 0001:0003d430       ?getCenter@?$LocalConvex@VCapsuleV@Gu@physx@@@Gu@physx@@UBE?AT__m128@@XZ 1003e430 f i GuMTD.obj
 0001:0003d460       ?getCenter@?$LocalConvex@VConvexHullV@Gu@physx@@@Gu@physx@@UBE?AT__m128@@XZ 1003e460 f i GuMTD.obj
 0001:0003d490       ?getCenter@ConvexV@Gu@physx@@QBE?AT__m128@@XZ 1003e490 f i GuMTD.obj
 0001:0003d4b0       ?getClosestPoint@Gu@physx@@YAXPIBT__m128@@00ABT3@AAT3@2I@Z 1003e4b0 f i GuMTD.obj
 0001:0003d800       ?getConjugate@PxQuat@physx@@QBE?AV12@XZ 1003e800 f i GuMTD.obj
 0001:0003d870       ?getEmptyManifold@MultiplePersistentContactManifold@Gu@physx@@QAEPAVSinglePersistentContactManifold@23@XZ 1003e870 f i GuMTD.obj
 0001:0003d8b0       ?getIndex@CapsuleV@Gu@physx@@QBEXT__m128@@AAH@Z 1003e8b0 f i GuMTD.obj
 0001:0003d930       ?getManifold@MultiplePersistentContactManifold@Gu@physx@@QAEPAVSinglePersistentContactManifold@23@I@Z 1003e930 f i GuMTD.obj
 0001:0003d9a0       ?getMargin@ConvexV@Gu@physx@@QBE?AT__m128@@XZ 1003e9a0 f i GuMTD.obj
 0001:0003d9f0       ?getMargin@GjkConvexBase@Gu@physx@@QBE?AT__m128@@XZ 1003e9f0 f i GuMTD.obj
 0001:0003da10       ?getMinMargin@ConvexV@Gu@physx@@QBE?AT__m128@@XZ 1003ea10 f i GuMTD.obj
 0001:0003da60       ?getMinMargin@GjkConvexBase@Gu@physx@@QBE?AT__m128@@XZ 1003ea60 f i GuMTD.obj
 0001:0003da80       ?getNbPolygonsFast@ConvexMesh@Gu@physx@@QBEIXZ 1003ea80 f i GuMTD.obj
 0001:0003daa0       ?getNbVerts@ConvexMesh@Gu@physx@@QBEIXZ 1003eaa0 f i GuMTD.obj
 0001:0003dac0       ?getNumAxes@SeparatingAxes@Gu@physx@@QBEIXZ 1003eac0 f i GuMTD.obj
 0001:0003dad0       ?getPolygons@ConvexMesh@Gu@physx@@QBEPBUHullPolygonData@23@XZ 1003ead0 f i GuMTD.obj
 0001:0003daf0       ?getSweepMargin@?$LocalConvex@VCapsuleV@Gu@physx@@@Gu@physx@@UBE?AT__m128@@XZ 1003eaf0 f i GuMTD.obj
 0001:0003db20       ?getSweepMargin@?$LocalConvex@VConvexHullV@Gu@physx@@@Gu@physx@@UBE?AT__m128@@XZ 1003eb20 f i GuMTD.obj
 0001:0003db50       ?getSweepMargin@CapsuleV@Gu@physx@@QBE?AT__m128@@XZ 1003eb50 f i GuMTD.obj
 0001:0003db90       ?getSweepMargin@ConvexV@Gu@physx@@QBE?AT__m128@@XZ 1003eb90 f i GuMTD.obj
 0001:0003dbe0       ?getSweepMargin@GjkConvex@Gu@physx@@UBE?AT__m128@@XZ 1003ebe0 f i GuMTD.obj
 0001:0003dc00       ?getVerts@ConvexMesh@Gu@physx@@QBEPBVPxVec3@3@XZ 1003ec00 f i GuMTD.obj
 0001:0003dc20       ?hillClimbing@ConvexHullV@Gu@physx@@QBEIABT__m128@@@Z 1003ec20 f i GuMTD.obj
 0001:0003de50       ?initialize@MultiplePersistentContactManifold@Gu@physx@@QAEXXZ 1003ee50 f i GuMTD.obj
 0001:0003dec0       ?initialize@SinglePersistentContactManifold@Gu@physx@@QAEXXZ 1003eec0 f i GuMTD.obj
 0001:0003dee0       ?invalidate@MultiplePersistentContactManifold@Gu@physx@@QAEIABVPsTransformV@aos@shdfnd@3@ABT__m128@@1@Z 1003eee0 f i GuMTD.obj
 0001:0003dfe0       ?invalidate@MultiplePersistentContactManifold@Gu@physx@@QAEIABVPsTransformV@aos@shdfnd@3@ABT__m128@@@Z 1003efe0 f i GuMTD.obj
 0001:0003e040       ?isAlmostZero@shdfnd@physx@@YA_NABVPxVec3@2@@Z 1003f040 f i GuMTD.obj
 0001:0003e0d0       ?isEmpty@SinglePersistentContactManifold@Gu@physx@@QAE_NXZ 1003f0d0 f i GuMTD.obj
 0001:0003e100       ?isFinite@PsTransformV@aos@shdfnd@physx@@QBE_NXZ 1003f100 f i GuMTD.obj
 0001:0003e130       ?isFiniteQuatV@aos@shdfnd@physx@@YA_NT__m128@@@Z 1003f130 f i GuMTD.obj
 0001:0003e160       ?isFiniteVec3V@aos@shdfnd@physx@@YA_NT__m128@@@Z 1003f160 f i GuMTD.obj
 0001:0003e210       ?isFiniteVec4V@aos@shdfnd@physx@@YA_NT__m128@@@Z 1003f210 f i GuMTD.obj
 0001:0003e2f0       ?isMarginEqRadius@ConvexV@Gu@physx@@QBE?AT__m128@@XZ 1003f2f0 f i GuMTD.obj
 0001:0003e340       ?isMarginEqRadius@GjkConvexBase@Gu@physx@@QBE?AT__m128@@XZ 1003f340 f i GuMTD.obj
 0001:0003e360       ?isSane@PsTransformV@aos@shdfnd@physx@@QBE_NXZ 1003f360 f i GuMTD.obj
 0001:0003e390       ?isSane@PxTransform@physx@@QBE_NXZ 1003f390 f i GuMTD.obj
 0001:0003e3d0       ?isSaneQuatV@aos@shdfnd@physx@@YA_NT__m128@@@Z 1003f3d0 f i GuMTD.obj
 0001:0003e4b0       ?isValidFloatV@aos@shdfnd@physx@@YA_NT__m128@@@Z 1003f4b0 f i GuMTD.obj
 0001:0003e630       ?isValidVec3V@aos@shdfnd@physx@@YA_NT__m128@@@Z 1003f630 f i GuMTD.obj
 0001:0003e6a0       ?length@Segment@Gu@physx@@QBEMXZ 1003f6a0 f i GuMTD.obj
 0001:0003e6d0       ?m128_F2I@internalWindowsSimd@aos@shdfnd@physx@@YA?AT__m128i@@T__m128@@@Z 1003f6d0 f i GuMTD.obj
 0001:0003e700       ?m128_I2F@internalWindowsSimd@aos@shdfnd@physx@@YA?AT__m128@@T__m128i@@@Z 1003f700 f i GuMTD.obj
 0001:0003e730       ?maxTransformPositionDelta@MultiplePersistentContactManifold@Gu@physx@@QAE?AT__m128@@ABT4@@Z 1003f730 f i GuMTD.obj
 0001:0003e7b0       ?maxTransformQuatDelta@MultiplePersistentContactManifold@Gu@physx@@QAE?AT__m128@@ABT4@@Z 1003f7b0 f i GuMTD.obj
 0001:0003e830       ?maximum@PxVec3@physx@@QBE?AV12@ABV12@@Z 1003f830 f i GuMTD.obj
 0001:0003e8c0       ?minimum@PxVec3@physx@@QBE?AV12@ABV12@@Z 1003f8c0 f i GuMTD.obj
 0001:0003e950       ?populateVerts@?$SupportLocalImpl@VBoxV@Gu@physx@@@Gu@physx@@UBEXPBEIPBVPxVec3@3@PAT__m128@@@Z 1003f950 f i GuMTD.obj
 0001:0003e980       ?populateVerts@?$SupportLocalImpl@VConvexHullNoScaleV@Gu@physx@@@Gu@physx@@UBEXPBEIPBVPxVec3@3@PAT__m128@@@Z 1003f980 f i GuMTD.obj
 0001:0003e9b0       ?populateVerts@?$SupportLocalImpl@VConvexHullV@Gu@physx@@@Gu@physx@@UBEXPBEIPBVPxVec3@3@PAT__m128@@@Z 1003f9b0 f i GuMTD.obj
 0001:0003e9e0       ?populateVerts@BoxV@Gu@physx@@QBEXPBEIPBVPxVec3@3@PAT__m128@@@Z 1003f9e0 f i GuMTD.obj
 0001:0003ea50       ?populateVerts@ConvexHullNoScaleV@Gu@physx@@QBEXPBEIPBVPxVec3@3@PAT__m128@@@Z 1003fa50 f i GuMTD.obj
 0001:0003eac0       ?populateVerts@ConvexHullV@Gu@physx@@QBEXPBEIPBVPxVec3@3@PAT__m128@@@Z 1003fac0 f i GuMTD.obj
 0001:0003eb50       ?reduceManifoldContactsInDifferentPatches@MultiplePersistentContactManifold@Gu@physx@@QAEIPAPAUPCMContactPatch@23@IPAVMeshPersistentContact@23@IABT__m128@@@Z 1003fb50 f i GuMTD.obj
 0001:0003ecd0       ?refineContactPatchConnective@MultiplePersistentContactManifold@Gu@physx@@QAEXPAPAUPCMContactPatch@23@IPAVMeshPersistentContact@23@ABT__m128@@@Z 1003fcd0 f i GuMTD.obj
 0001:0003ee00       ?refreshManifold@MultiplePersistentContactManifold@Gu@physx@@QAEXABVPsMatTransformV@aos@shdfnd@3@ABT__m128@@1@Z 1003fe00 f i GuMTD.obj
 0001:0003efd0       ?reset@ContactBuffer@Gu@physx@@QAEXXZ 1003ffd0 f i GuMTD.obj
 0001:0003eff0       ?reset@SeparatingAxes@Gu@physx@@QAEXXZ 1003fff0 f i GuMTD.obj
 0001:0003f010       ?rotate@PsMatTransformV@aos@shdfnd@physx@@QBE?AT__m128@@ABT5@@Z 10040010 f i GuMTD.obj
 0001:0003f060       ?rotateInv@PxQuat@physx@@QBE?BVPxVec3@2@ABV32@@Z 10040060 f i GuMTD.obj
 0001:0003f1f0       ?rotateInv@PxTransform@physx@@QBE?AVPxVec3@2@ABV32@@Z 100401f0 f i GuMTD.obj
 0001:0003f240       ?setRelativeTransform@MultiplePersistentContactManifold@Gu@physx@@QAEXABVPsTransformV@aos@shdfnd@3@@Z 10040240 f i GuMTD.obj
 0001:0003f260       ?support@?$LocalConvex@VCapsuleV@Gu@physx@@@Gu@physx@@UBE?AT__m128@@ABT4@@Z 10040260 f i GuMTD.obj
 0001:0003f290       ?support@?$LocalConvex@VCapsuleV@Gu@physx@@@Gu@physx@@UBE?AT__m128@@ABT4@AAH@Z 10040290 f i GuMTD.obj
 0001:0003f2c0       ?support@?$LocalConvex@VConvexHullV@Gu@physx@@@Gu@physx@@UBE?AT__m128@@ABT4@@Z 100402c0 f i GuMTD.obj
 0001:0003f2f0       ?support@?$LocalConvex@VConvexHullV@Gu@physx@@@Gu@physx@@UBE?AT__m128@@ABT4@AAH@Z 100402f0 f i GuMTD.obj
 0001:0003f320       ?support@GjkConvex@Gu@physx@@UBE?AT__m128@@ABT4@@Z 10040320 f i GuMTD.obj
 0001:0003f340       ?support@GjkConvex@Gu@physx@@UBE?AT__m128@@ABT4@AAH@Z 10040340 f i GuMTD.obj
 0001:0003f370       ?supportLocal@BoxV@Gu@physx@@QBE?AT__m128@@ABT4@@Z 10040370 f i GuMTD.obj
 0001:0003f3f0       ?supportLocal@BoxV@Gu@physx@@QBEXABT__m128@@AAT4@1@Z 100403f0 f i GuMTD.obj
 0001:0003f4a0       ?supportLocal@CapsuleV@Gu@physx@@QBE?AT__m128@@ABT4@@Z 100404a0 f i GuMTD.obj
 0001:0003f540       ?supportLocal@CapsuleV@Gu@physx@@QBE?AT__m128@@ABT4@AAH@Z 10040540 f i GuMTD.obj
 0001:0003f600       ?supportLocal@ConvexHullNoScaleV@Gu@physx@@QBE?AT__m128@@ABT4@@Z 10040600 f i GuMTD.obj
 0001:0003f660       ?supportLocal@ConvexHullNoScaleV@Gu@physx@@QBEXABT__m128@@AAT4@1@Z 10040660 f i GuMTD.obj
 0001:0003f690       ?supportLocal@ConvexHullV@Gu@physx@@QBE?AT__m128@@ABT4@@Z 10040690 f i GuMTD.obj
 0001:0003f730       ?supportLocal@ConvexHullV@Gu@physx@@QBE?AT__m128@@ABT4@AAH@Z 10040730 f i GuMTD.obj
 0001:0003f7d0       ?supportLocal@ConvexHullV@Gu@physx@@QBEXABT__m128@@AAT4@1@Z 100407d0 f i GuMTD.obj
 0001:0003f800       ?supportPoint@?$LocalConvex@VCapsuleV@Gu@physx@@@Gu@physx@@UBE?AT__m128@@H@Z 10040800 f i GuMTD.obj
 0001:0003f830       ?supportPoint@?$LocalConvex@VConvexHullV@Gu@physx@@@Gu@physx@@UBE?AT__m128@@H@Z 10040830 f i GuMTD.obj
 0001:0003f860       ?supportPoint@CapsuleV@Gu@physx@@QBE?AT__m128@@H@Z 10040860 f i GuMTD.obj
 0001:0003f890       ?supportPoint@ConvexHullV@Gu@physx@@QBE?AT__m128@@H@Z 10040890 f i GuMTD.obj
 0001:0003f900       ?supportPoint@GjkConvex@Gu@physx@@UBE?AT__m128@@H@Z 10040900 f i GuMTD.obj
 0001:0003f920       ?supportVertexIndex@ConvexHullV@Gu@physx@@QBEIABT__m128@@@Z 10040920 f i GuMTD.obj
 0001:0003f960       ?supportVertexMinMax@ConvexHullNoScaleV@Gu@physx@@QBEXABT__m128@@AAT4@1@Z 10040960 f i GuMTD.obj
 0001:0003fa60       ?supportVertexMinMax@ConvexHullV@Gu@physx@@QBEXABT__m128@@AAT4@1@Z 10040a60 f i GuMTD.obj
 0001:0003fbc0       ?toBuffer@MultiplePersistentContactManifold@Gu@physx@@QAEXPIAE@Z 10040bc0 f i GuMTD.obj
 0001:0003fe00       ?transformInv@PsTransformV@aos@shdfnd@physx@@QBE?AV1234@ABV1234@@Z 10040e00 f i GuMTD.obj
 0001:0003ff30       ?transformInv@PxTransform@physx@@QBE?AV12@ABV12@@Z 10040f30 f i GuMTD.obj
 0001:0003ffe0       ?transformInv@PxTransform@physx@@QBE?AVPxVec3@2@ABV32@@Z 10040fe0 f i GuMTD.obj
 0001:00040090       ?getOverlapFuncTable@Gu@physx@@YAPAY06Q6A_NABVPxGeometry@2@ABVPxTransform@2@01PAUTriggerCache@12@@ZXZ 10041090 f   GuOverlapTests.obj
 0001:000400a0       ?registerHeightFields@Gu@physx@@YAXXZ 100410a0 f   GuOverlapTests.obj
 0001:00041f40       ??$PX_UNUSED@PAUTriggerCache@Gu@physx@@@@YAXABQAUTriggerCache@Gu@physx@@@Z 10042f40 f i GuOverlapTests.obj
 0001:00041f50       ??$getConvex@VBoxV@Gu@physx@@@GjkConvexBase@Gu@physx@@QBEABVBoxV@12@XZ 10042f50 f i GuOverlapTests.obj
 0001:00041f70       ??$gjk@U?$RelativeConvex@VBoxV@Gu@physx@@@Gu@physx@@U?$LocalConvex@VConvexHullV@Gu@physx@@@23@@Gu@physx@@YA?AW4GjkStatus@01@ABU?$RelativeConvex@VBoxV@Gu@physx@@@01@ABU?$LocalConvex@VConvexHullV@Gu@physx@@@01@ABT__m128@@2AAT5@333@Z 10042f70 f i GuOverlapTests.obj
 0001:00042930       ??$gjk@U?$RelativeConvex@VConvexHullV@Gu@physx@@@Gu@physx@@U?$LocalConvex@VConvexHullV@Gu@physx@@@23@@Gu@physx@@YA?AW4GjkStatus@01@ABU?$RelativeConvex@VConvexHullV@Gu@physx@@@01@ABU?$LocalConvex@VConvexHullV@Gu@physx@@@01@ABT__m128@@2AAT5@333@Z 10043930 f i GuOverlapTests.obj
 0001:000432f0       ??0?$RelativeConvex@VBoxV@Gu@physx@@@Gu@physx@@QAE@ABVBoxV@12@ABVPsMatTransformV@aos@shdfnd@2@@Z 100442f0 f i GuOverlapTests.obj
 0001:00043350       ??0?$RelativeConvex@VConvexHullV@Gu@physx@@@Gu@physx@@QAE@ABVConvexHullV@12@ABVPsMatTransformV@aos@shdfnd@2@@Z 10044350 f i GuOverlapTests.obj
 0001:000433b0       ??0Matrix34@Cm@physx@@QAE@ABVPxTransform@2@@Z 100443b0 f i GuOverlapTests.obj
 0001:000433e0       ??1?$RelativeConvex@VBoxV@Gu@physx@@@Gu@physx@@UAE@XZ 100443e0 f i GuOverlapTests.obj
 0001:00043400       ??1?$RelativeConvex@VConvexHullV@Gu@physx@@@Gu@physx@@UAE@XZ 10044400 f i GuOverlapTests.obj
 0001:00043420       ??_E?$RelativeConvex@VBoxV@Gu@physx@@@Gu@physx@@UAEPAXI@Z 10044420 f i GuOverlapTests.obj
 0001:00043420       ??_G?$RelativeConvex@VBoxV@Gu@physx@@@Gu@physx@@UAEPAXI@Z 10044420 f i GuOverlapTests.obj
 0001:00043450       ??_E?$RelativeConvex@VConvexHullV@Gu@physx@@@Gu@physx@@UAEPAXI@Z 10044450 f i GuOverlapTests.obj
 0001:00043450       ??_G?$RelativeConvex@VConvexHullV@Gu@physx@@@Gu@physx@@UAEPAXI@Z 10044450 f i GuOverlapTests.obj
 0001:00043480       ?BGetBitMask@aos@shdfnd@physx@@YAIT__m128@@@Z 10044480 f i GuOverlapTests.obj
 0001:000434b0       ?getCenter@?$RelativeConvex@VBoxV@Gu@physx@@@Gu@physx@@UBE?AT__m128@@XZ 100444b0 f i GuOverlapTests.obj
 0001:00043500       ?getCenter@?$RelativeConvex@VConvexHullV@Gu@physx@@@Gu@physx@@UBE?AT__m128@@XZ 10044500 f i GuOverlapTests.obj
 0001:00043550       ?getIndex@BoxV@Gu@physx@@QBEXT__m128@@AAH@Z 10044550 f i GuOverlapTests.obj
 0001:00043590       ?getInverse@PxTransform@physx@@QBE?AV12@XZ 10044590 f i GuOverlapTests.obj
 0001:00043600       ?getSamples2@BigConvexRawData@Gu@physx@@QBEPBEXZ 10044600 f i GuOverlapTests.obj
 0001:00043620       ?getSweepMargin@?$RelativeConvex@VBoxV@Gu@physx@@@Gu@physx@@UBE?AT__m128@@XZ 10044620 f i GuOverlapTests.obj
 0001:00043650       ?getSweepMargin@?$RelativeConvex@VConvexHullV@Gu@physx@@@Gu@physx@@UBE?AT__m128@@XZ 10044650 f i GuOverlapTests.obj
 0001:00043680       ?isNormalized@PxVec3@physx@@QBE_NXZ 10044680 f i GuOverlapTests.obj
 0001:00043700       ?multiply@PxVec3@physx@@QBE?AV12@ABV12@@Z 10044700 f i GuOverlapTests.obj
 0001:00043760       ?support@?$RelativeConvex@VBoxV@Gu@physx@@@Gu@physx@@UBE?AT__m128@@ABT4@@Z 10044760 f i GuOverlapTests.obj
 0001:000437a0       ?support@?$RelativeConvex@VBoxV@Gu@physx@@@Gu@physx@@UBE?AT__m128@@ABT4@AAH@Z 100447a0 f i GuOverlapTests.obj
 0001:000437e0       ?support@?$RelativeConvex@VConvexHullV@Gu@physx@@@Gu@physx@@UBE?AT__m128@@ABT4@@Z 100447e0 f i GuOverlapTests.obj
 0001:00043820       ?support@?$RelativeConvex@VConvexHullV@Gu@physx@@@Gu@physx@@UBE?AT__m128@@ABT4@AAH@Z 10044820 f i GuOverlapTests.obj
 0001:00043860       ?supportLocal@BoxV@Gu@physx@@QBE?AT__m128@@ABT4@AAH@Z 10044860 f i GuOverlapTests.obj
 0001:000438f0       ?supportPoint@?$RelativeConvex@VBoxV@Gu@physx@@@Gu@physx@@UBE?AT__m128@@H@Z 100448f0 f i GuOverlapTests.obj
 0001:00043940       ?supportPoint@?$RelativeConvex@VConvexHullV@Gu@physx@@@Gu@physx@@UBE?AT__m128@@H@Z 10044940 f i GuOverlapTests.obj
 0001:00043990       ?supportPoint@BoxV@Gu@physx@@QBE?AT__m128@@H@Z 10044990 f i GuOverlapTests.obj
 0001:00043a00       ?supportRelative@BoxV@Gu@physx@@QBE?AT__m128@@ABT4@ABVPsMatTransformV@aos@shdfnd@3@1@Z 10044a00 f i GuOverlapTests.obj
 0001:00043a60       ?supportRelative@BoxV@Gu@physx@@QBE?AT__m128@@ABT4@ABVPsMatTransformV@aos@shdfnd@3@1AAH@Z 10044a60 f i GuOverlapTests.obj
 0001:00043ac0       ?supportRelative@ConvexHullV@Gu@physx@@QBE?AT__m128@@ABT4@ABVPsMatTransformV@aos@shdfnd@3@1@Z 10044ac0 f i GuOverlapTests.obj
 0001:00043b20       ?supportRelative@ConvexHullV@Gu@physx@@QBE?AT__m128@@ABT4@ABVPsMatTransformV@aos@shdfnd@3@1AAH@Z 10044b20 f i GuOverlapTests.obj
 0001:00043b80       ?transform@PsMatTransformV@aos@shdfnd@physx@@QBE?AT__m128@@ABT5@@Z 10044b80 f i GuOverlapTests.obj
 0001:00043be0       ?transform@PxTransform@physx@@QBE?AV12@ABV12@@Z 10044be0 f i GuOverlapTests.obj
 0001:00043cd0       ?getRaycastFuncTable@Gu@physx@@YAAAY06Q6AIABVPxGeometry@2@ABVPxTransform@2@ABVPxVec3@2@2MV?$PxFlags@W4Enum@PxHitFlag@physx@@G@2@IPIAUPxRaycastHit@2@@ZXZ 10044cd0 f   GuRaycastTests.obj
 0001:00043d70       ?raycast_box@@YAIABVPxGeometry@physx@@ABVPxTransform@2@ABVPxVec3@2@2MV?$PxFlags@W4Enum@PxHitFlag@physx@@G@2@IPIAUPxRaycastHit@2@@Z 10044d70 f   GuRaycastTests.obj
 0001:00044060       ?raycast_sphere@@YAIABVPxGeometry@physx@@ABVPxTransform@2@ABVPxVec3@2@2MV?$PxFlags@W4Enum@PxHitFlag@physx@@G@2@IPIAUPxRaycastHit@2@@Z 10045060 f   GuRaycastTests.obj
 0001:00044230       ?raycast_capsule@@YAIABVPxGeometry@physx@@ABVPxTransform@2@ABVPxVec3@2@2MV?$PxFlags@W4Enum@PxHitFlag@physx@@G@2@IPIAUPxRaycastHit@2@@Z 10045230 f   GuRaycastTests.obj
 0001:000444d0       ?raycast_plane@@YAIABVPxGeometry@physx@@ABVPxTransform@2@ABVPxVec3@2@2MV?$PxFlags@W4Enum@PxHitFlag@physx@@G@2@IPIAUPxRaycastHit@2@@Z 100454d0 f   GuRaycastTests.obj
 0001:00044660       ?raycast_convexMesh@@YAIABVPxGeometry@physx@@ABVPxTransform@2@ABVPxVec3@2@2MV?$PxFlags@W4Enum@PxHitFlag@physx@@G@2@IPIAUPxRaycastHit@2@@Z 10045660 f   GuRaycastTests.obj
 0001:00044b20       ?raycast_triangleMesh@@YAIABVPxGeometry@physx@@ABVPxTransform@2@ABVPxVec3@2@2MV?$PxFlags@W4Enum@PxHitFlag@physx@@G@2@IPIAUPxRaycastHit@2@@Z 10045b20 f   GuRaycastTests.obj
 0001:00044f10       ?raycast_heightField@@YAIABVPxGeometry@physx@@ABVPxTransform@2@ABVPxVec3@2@2MV?$PxFlags@W4Enum@PxHitFlag@physx@@G@2@IPIAUPxRaycastHit@2@@Z 10045f10 f   GuRaycastTests.obj
 0001:00045350       ?registerHeightFields_Raycasts@@YAXXZ 10046350 f   GuRaycastTests.obj
 0001:00045d80       ??$PX_UNUSED@PIAUPxRaycastHit@physx@@@@YAXABQIAUPxRaycastHit@physx@@@Z 10046d80 f i GuRaycastTests.obj
 0001:00045d90       ??$PX_UNUSED@V?$PxFlags@W4Enum@PxHitFlag@physx@@G@physx@@@@YAXABV?$PxFlags@W4Enum@PxHitFlag@physx@@G@physx@@@Z 10046d90 f i GuRaycastTests.obj
 0001:00045da0       ??$PxMin@H@physx@@YAHHH@Z  10046da0 f i GuRaycastTests.obj
 0001:00047950       ??Dphysx@@YA?AVMatrix34@Cm@0@ABVPxMeshScale@0@ABVPxTransform@0@@Z 10048950 f i GuRaycastTests.obj
 0001:000479b0       ?PxSign@physx@@YAMM@Z      100489b0 f i GuRaycastTests.obj
 0001:000479d0       ?ceil@shdfnd@physx@@YAMM@Z 100489d0 f i GuRaycastTests.obj
 0001:000479f0       ?computePoint@Segment@Gu@physx@@QBEXAAVPxVec3@3@M@Z 100489f0 f i GuRaycastTests.obj
 0001:00047a40       ?floatFloor@shdfnd@physx@@YAMM@Z 10048a40 f i GuRaycastTests.obj
 0001:00047a60       ?floor@shdfnd@physx@@YAMM@Z 10048a60 f i GuRaycastTests.obj
 0001:00047a80       ?getConcreteType@PxBase@physx@@QBEGXZ 10048a80 f i GuRaycastTests.obj
 0001:00047aa0       ?getInverse@PxMeshScale@physx@@QBE?AV12@XZ 10048aa0 f i GuRaycastTests.obj
 0001:00047b10       ?getMax@HeightField@Gu@physx@@QBEIMI@Z 10048b10 f i GuRaycastTests.obj
 0001:00047b90       ?getMaxColumn@HeightField@Gu@physx@@QBEIM@Z 10048b90 f i GuRaycastTests.obj
 0001:00047bc0       ?getMaxRow@HeightField@Gu@physx@@QBEIM@Z 10048bc0 f i GuRaycastTests.obj
 0001:00047bf0       ?getMin@HeightField@Gu@physx@@QBEIMI@Z 10048bf0 f i GuRaycastTests.obj
 0001:00047c70       ?getMinColumn@HeightField@Gu@physx@@QBEIM@Z 10048c70 f i GuRaycastTests.obj
 0001:00047ca0       ?getMinRow@HeightField@Gu@physx@@QBEIM@Z 10048ca0 f i GuRaycastTests.obj
 0001:00047cd0       ?intersectRayCapsule@Gu@physx@@YA_NABVPxVec3@2@000MAAM@Z 10048cd0 f i GuRaycastTests.obj
 0001:00047e50       ?intersectRayCapsule@Gu@physx@@YA_NABVPxVec3@2@0ABVCapsule@12@AAM@Z 10048e50 f i GuRaycastTests.obj
 0001:00047e90       ?intersectRayPlane@Gu@physx@@YA_NABVPxVec3@2@0ABVPxPlane@2@AAMPAV32@@Z 10048e90 f i GuRaycastTests.obj
 0001:00047f30       ?intersectRayTriangle@Gu@physx@@YA_NABVPxVec3@2@0000AAM11_NM@Z 10048f30 f i GuRaycastTests.obj
 0001:00048200       ?isSet@?$PxFlags@W4Enum@PxHitFlag@physx@@G@physx@@QBE_NW4Enum@PxHitFlag@2@@Z 10049200 f i GuRaycastTests.obj
 0001:00048240       ?isSet@?$PxFlags@W4Enum@PxMeshGeometryFlag@physx@@E@physx@@QBE_NW4Enum@PxMeshGeometryFlag@2@@Z 10049240 f i GuRaycastTests.obj
 0001:00048280       ?normalizeSafe@PxVec3@physx@@QAEMXZ 10049280 f i GuRaycastTests.obj
 0001:000482d0       ?raycastTriangleMesh@Midphase@Gu@physx@@YAIPBVTriangleMesh@23@ABVPxTriangleMeshGeometry@3@ABVPxTransform@3@ABVPxVec3@3@3MV?$PxFlags@W4Enum@PxHitFlag@physx@@G@3@IPIAUPxRaycastHit@3@@Z 100492d0 f i GuRaycastTests.obj
 0001:00048330       ?rotateTranspose@Matrix34@Cm@physx@@QBE?AVPxVec3@3@ABV43@@Z 10049330 f i GuRaycastTests.obj
 0001:00048350       ?sign@intrinsics@physx@@YAMM@Z 10049350 f i GuRaycastTests.obj
 0001:00048390       ?readChunk@physx@@YAXAAC000AAVPxInputStream@1@@Z 10049390 f   GuSerialize.obj
 0001:000483e0       ?readWord@physx@@YAG_NAAVPxInputStream@1@@Z 100493e0 f   GuSerialize.obj
 0001:00048420       ?readDword@physx@@YAI_NAAVPxInputStream@1@@Z 10049420 f   GuSerialize.obj
 0001:00048460       ?readFloat@physx@@YAM_NAAVPxInputStream@1@@Z 10049460 f   GuSerialize.obj
 0001:000484a0       ?writeWord@physx@@YAXG_NAAVPxOutputStream@1@@Z 100494a0 f   GuSerialize.obj
 0001:000484d0       ?writeDword@physx@@YAXI_NAAVPxOutputStream@1@@Z 100494d0 f   GuSerialize.obj
 0001:00048500       ?writeFloat@physx@@YAXM_NAAVPxOutputStream@1@@Z 10049500 f   GuSerialize.obj
 0001:00048530       ?readFloatBuffer@physx@@YA_NPAMI_NAAVPxInputStream@1@@Z 10049530 f   GuSerialize.obj
 0001:00048590       ?writeFloatBuffer@physx@@YAXPBMI_NAAVPxOutputStream@1@@Z 10049590 f   GuSerialize.obj
 0001:00048610       ?writeWordBuffer@physx@@YAXPBGI_NAAVPxOutputStream@1@@Z 10049610 f   GuSerialize.obj
 0001:00048690       ?readWordBuffer@physx@@YAXPAGI_NAAVPxInputStream@1@@Z 10049690 f   GuSerialize.obj
 0001:000486f0       ?writeHeader@physx@@YA_NCCCCI_NAAVPxOutputStream@1@@Z 100496f0 f   GuSerialize.obj
 0001:00048760       ?readHeader@physx@@YA_NCCCCAAIAA_NAAVPxInputStream@1@@Z 10049760 f   GuSerialize.obj
 0001:00048850       ?computeMaxIndex@physx@@YAIPBII@Z 10049850 f   GuSerialize.obj
 0001:000488a0       ?computeMaxIndex@physx@@YAGPBGI@Z 100498a0 f   GuSerialize.obj
 0001:00048900       ?storeIndices@physx@@YAXIIPBIAAVPxOutputStream@1@_N@Z 10049900 f   GuSerialize.obj
 0001:000489c0       ?readIndices@physx@@YAXIIPAIAAVPxInputStream@1@_N@Z 100499c0 f   GuSerialize.obj
 0001:00048a70       ?WriteHeader@Gu@physx@@YA_NEEEEI_NAAVPxOutputStream@2@@Z 10049a70 f   GuSerialize.obj
 0001:00048ae0       ?ReadHeader@Gu@physx@@YA_NEEEEAAIAA_NAAVPxInputStream@2@@Z 10049ae0 f   GuSerialize.obj
 0001:00048bd0       ?StoreIndices@Gu@physx@@YAXIIPBIAAVPxOutputStream@2@_N@Z 10049bd0 f   GuSerialize.obj
 0001:00048cb0       ?ReadIndices@Gu@physx@@YAXIIPAIAAVPxInputStream@2@_N@Z 10049cb0 f   GuSerialize.obj
 0001:00048da0       ?StoreIndices@Gu@physx@@YAXGIPBGAAVPxOutputStream@2@_N@Z 10049da0 f   GuSerialize.obj
 0001:00048e30       ?ReadIndices@Gu@physx@@YAXGIPAGAAVPxInputStream@2@_N@Z 10049e30 f   GuSerialize.obj
 0001:00048ec0       ?ReadDwordBuffer@physx@@YA_NPAII_NAAVPxInputStream@1@@Z 10049ec0 f i GuSerialize.obj
 0001:00048ee0       ?littleEndian@shdfnd@physx@@YADXZ 10049ee0 f i GuSerialize.obj
 0001:00048f00       ?readIntBuffer@physx@@YA_NPAII_NAAVPxInputStream@1@@Z 10049f00 f i GuSerialize.obj
 0001:00048f20       ?writeChunk@physx@@YAXCCCCAAVPxOutputStream@1@@Z 10049f20 f i GuSerialize.obj
 0001:00048f70       ?writeIntBuffer@physx@@YAXPBII_NAAVPxOutputStream@1@@Z 10049f70 f i GuSerialize.obj
 0001:00049070       ?computeCapsule_TriangleMeshMTD@Gu@physx@@YA_NABVPxTriangleMeshGeometry@2@ABVPxTransform@2@AAVCapsuleV@12@M_NAAUPxSweepHit@2@@Z 1004a070 f   GuSweepMTD.obj
 0001:00049700       ?computeCapsule_HeightFieldMTD@Gu@physx@@YA_NABVPxHeightFieldGeometry@2@ABVPxTransform@2@AAVCapsuleV@12@M_NIAAUPxSweepHit@2@@Z 1004a700 f   GuSweepMTD.obj
 0001:00049d70       ?computeBox_TriangleMeshMTD@Gu@physx@@YA_NABVPxTriangleMeshGeometry@2@ABVPxTransform@2@ABVBox@12@1M_NAAUPxSweepHit@2@@Z 1004ad70 f   GuSweepMTD.obj
 0001:0004a650       ?computeBox_HeightFieldMTD@Gu@physx@@YA_NABVPxHeightFieldGeometry@2@ABVPxTransform@2@ABVBox@12@1M_NIAAUPxSweepHit@2@@Z 1004b650 f   GuSweepMTD.obj
 0001:0004af40       ?computeConvex_TriangleMeshMTD@Gu@physx@@YA_NABVPxTriangleMeshGeometry@2@ABVPxTransform@2@ABVPxConvexMeshGeometry@2@1M_NAAUPxSweepHit@2@@Z 1004bf40 f   GuSweepMTD.obj
 0001:0004b950       ?computeConvex_HeightFieldMTD@Gu@physx@@YA_NABVPxHeightFieldGeometry@2@ABVPxTransform@2@ABVPxConvexMeshGeometry@2@1M_NIAAUPxSweepHit@2@@Z 1004c950 f   GuSweepMTD.obj
 0001:0004c360       ?computeSphere_SphereMTD@Gu@physx@@YA_NABVSphere@12@0AAUPxSweepHit@2@@Z 1004d360 f   GuSweepMTD.obj
 0001:0004c410       ?computeSphere_CapsuleMTD@Gu@physx@@YA_NABVSphere@12@ABVCapsule@12@AAUPxSweepHit@2@@Z 1004d410 f   GuSweepMTD.obj
 0001:0004c4f0       ?computeCapsule_CapsuleMTD@Gu@physx@@YA_NABVCapsule@12@0AAUPxSweepHit@2@@Z 1004d4f0 f   GuSweepMTD.obj
 0001:0004c5e0       ?computePlane_CapsuleMTD@Gu@physx@@YA_NABVPxPlane@2@ABVCapsule@12@AAUPxSweepHit@2@@Z 1004d5e0 f   GuSweepMTD.obj
 0001:0004c6b0       ?computePlane_BoxMTD@Gu@physx@@YA_NABVPxPlane@2@ABVBox@12@AAUPxSweepHit@2@@Z 1004d6b0 f   GuSweepMTD.obj
 0001:0004c7b0       ?computePlane_ConvexMTD@Gu@physx@@YA_NABVPxPlane@2@ABVPxConvexMeshGeometry@2@ABVPxTransform@2@AAUPxSweepHit@2@@Z 1004d7b0 f   GuSweepMTD.obj
 0001:0004cf20       ??0?$Array@IVNamedAllocator@shdfnd@physx@@@shdfnd@physx@@QAE@ABVNamedAllocator@12@@Z 1004df20 f i GuSweepMTD.obj
 0001:0004cf60       ??0?$MeshHitCallback@UPxRaycastHit@physx@@@Gu@physx@@QAE@W4Enum@CallbackMode@12@@Z 1004df60 f i GuSweepMTD.obj
 0001:0004cf90       ??0FastVertex2ShapeScaling@Cm@physx@@QAE@ABVPxMeshScale@2@@Z 1004df90 f i GuSweepMTD.obj
 0001:0004cfc0       ??0FastVertex2ShapeScaling@Cm@physx@@QAE@XZ 1004dfc0 f i GuSweepMTD.obj
 0001:0004d020       ??0MTDTriangle@@QAE@XZ     1004e020 f i GuSweepMTD.obj
 0001:0004d040       ??0MeshMTDGenerationCallback@@QAE@AAV?$Array@IVNamedAllocator@shdfnd@physx@@@shdfnd@physx@@@Z 1004e040 f i GuSweepMTD.obj
 0001:0004d070       ??0MidPhaseQueryLocalReport@@QAE@AAV?$Array@IVNamedAllocator@shdfnd@physx@@@shdfnd@physx@@@Z 1004e070 f i GuSweepMTD.obj
 0001:0004d0a0       ??0PsMatTransformV@aos@shdfnd@physx@@QAE@ABT__m128@@ABUMat33V@123@@Z 1004e0a0 f i GuSweepMTD.obj
 0001:0004d0e0       ??0PxTransform@physx@@QAE@ABV01@@Z 1004e0e0 f i GuSweepMTD.obj
 0001:0004d110       ??0TriangleV@Gu@physx@@QAE@XZ 1004e110 f i GuSweepMTD.obj
 0001:0004d160       ??1?$Array@IVNamedAllocator@shdfnd@physx@@@shdfnd@physx@@QAE@XZ 1004e160 f i GuSweepMTD.obj
 0001:0004d1c0       ??1?$MeshHitCallback@UPxRaycastHit@physx@@@Gu@physx@@UAE@XZ 1004e1c0 f i GuSweepMTD.obj
 0001:0004d1e0       ??1MTDTriangle@@QAE@XZ     1004e1e0 f i GuSweepMTD.obj
 0001:0004d200       ??1MeshMTDGenerationCallback@@UAE@XZ 1004e200 f i GuSweepMTD.obj
 0001:0004d220       ??1MidPhaseQueryLocalReport@@UAE@XZ 1004e220 f i GuSweepMTD.obj
 0001:0004d240       ??1TriangleV@Gu@physx@@QAE@XZ 1004e240 f i GuSweepMTD.obj
 0001:0004d260       ??A?$Array@IVNamedAllocator@shdfnd@physx@@@shdfnd@physx@@QAEAAII@Z 1004e260 f i GuSweepMTD.obj
 0001:0004d2c0       ??DFastVertex2ShapeScaling@Cm@physx@@QBE?AVPxVec3@2@ABV32@@Z 1004e2c0 f i GuSweepMTD.obj
 0001:0004d2e0       ??DMatrix34@Cm@physx@@QBE?AV012@ABV012@@Z 1004e2e0 f i GuSweepMTD.obj
 0001:0004d340       ??Dphysx@@YA?AVMatrix34@Cm@0@ABVPxTransform@0@ABVPxMeshScale@0@@Z 1004e340 f i GuSweepMTD.obj
 0001:0004d390       ??_E?$MeshHitCallback@UPxRaycastHit@physx@@@Gu@physx@@UAEPAXI@Z 1004e390 f i GuSweepMTD.obj
 0001:0004d390       ??_G?$MeshHitCallback@UPxRaycastHit@physx@@@Gu@physx@@UAEPAXI@Z 1004e390 f i GuSweepMTD.obj
 0001:0004d3c0       ??_GMeshMTDGenerationCallback@@UAEPAXI@Z 1004e3c0 f i GuSweepMTD.obj
 0001:0004d3c0       ??_EMeshMTDGenerationCallback@@UAEPAXI@Z 1004e3c0 f i GuSweepMTD.obj
 0001:0004d3f0       ??_GMidPhaseQueryLocalReport@@UAEPAXI@Z 1004e3f0 f i GuSweepMTD.obj
 0001:0004d3f0       ??_EMidPhaseQueryLocalReport@@UAEPAXI@Z 1004e3f0 f i GuSweepMTD.obj
 0001:0004d420       ?CalculateMTDBoxMargin@Gu@physx@@YA?AT__m128@@ABT3@@Z 1004e420 f i GuSweepMTD.obj
 0001:0004d490       ?CalculateMTDConvexMargin@Gu@physx@@YA?AT__m128@@PBUConvexHullData@12@ABT3@@Z 1004e490 f i GuSweepMTD.obj
 0001:0004d530       ?QuatTransform@aos@shdfnd@physx@@YA?AT__m128@@T4@00@Z 1004e530 f i GuSweepMTD.obj
 0001:0004d6d0       ?allocate@?$Array@IVNamedAllocator@shdfnd@physx@@@shdfnd@physx@@IAEPAII@Z 1004e6d0 f i GuSweepMTD.obj
 0001:0004d740       ?begin@?$Array@IVNamedAllocator@shdfnd@physx@@@shdfnd@physx@@QAEPAIXZ 1004e740 f i GuSweepMTD.obj
 0001:0004d750       ?capacity@?$Array@IVNamedAllocator@shdfnd@physx@@@shdfnd@physx@@QBEIXZ 1004e750 f i GuSweepMTD.obj
 0001:0004d770       ?capacityIncrement@?$Array@IVNamedAllocator@shdfnd@physx@@@shdfnd@physx@@IBEIXZ 1004e770 f i GuSweepMTD.obj
 0001:0004d7b0       ?computeWorldTriangle@TriangleMesh@Gu@physx@@QBEXAAVPxTriangle@3@IABVMatrix34@Cm@3@_NPIAI3@Z 1004e7b0 f i GuSweepMTD.obj
 0001:0004da20       ?copy@?$Array@IVNamedAllocator@shdfnd@physx@@@shdfnd@physx@@KAXPAI0PBI@Z 1004ea20 f i GuSweepMTD.obj
 0001:0004da70       ?createDiagonal@PxMat33@physx@@SA?BV12@ABVPxVec3@2@@Z 1004ea70 f i GuSweepMTD.obj
 0001:0004db00       ?deallocate@?$Array@IVNamedAllocator@shdfnd@physx@@@shdfnd@physx@@IAEXPAX@Z 1004eb00 f i GuSweepMTD.obj
 0001:0004db20       ?destroy@?$Array@IVNamedAllocator@shdfnd@physx@@@shdfnd@physx@@KAXPAI0@Z 1004eb20 f i GuSweepMTD.obj
 0001:0004db40       ?empty@?$Array@IVNamedAllocator@shdfnd@physx@@@shdfnd@physx@@QBE_NXZ 1004eb40 f i GuSweepMTD.obj
 0001:0004db70       ?forceSize_Unsafe@?$Array@IVNamedAllocator@shdfnd@physx@@@shdfnd@physx@@QAEXI@Z 1004eb70 f i GuSweepMTD.obj
 0001:0004dbd0       ?getAdjacencies@TriangleMesh@Gu@physx@@QBEPBIXZ 1004ebd0 f i GuSweepMTD.obj
 0001:0004dbf0       ?getConvexEdgeFlags@Gu@physx@@YAEPBEI@Z 1004ebf0 f i GuSweepMTD.obj
 0001:0004dc20       ?getDeterminant@PxMat33@physx@@QBEMXZ 1004ec20 f i GuSweepMTD.obj
 0001:0004dc50       ?getExtraTrigData@TriangleMesh@Gu@physx@@QBEPBEXZ 1004ec50 f i GuSweepMTD.obj
 0001:0004dc70       ?getInverse@PxMat33@physx@@QBE?BV12@XZ 1004ec70 f i GuSweepMTD.obj
 0001:0004de90       ?getLocalTriangle@TriangleMesh@Gu@physx@@QBEXAAVPxTriangle@3@I_N@Z 1004ee90 f i GuSweepMTD.obj
 0001:0004dfb0       ?getTrianglesFast@TriangleMesh@Gu@physx@@QBEPBXXZ 1004efb0 f i GuSweepMTD.obj
 0001:0004dfd0       ?getVerticesFast@TriangleMesh@Gu@physx@@QBEPBVPxVec3@3@XZ 1004efd0 f i GuSweepMTD.obj
 0001:0004dff0       ?grow@?$Array@IVNamedAllocator@shdfnd@physx@@@shdfnd@physx@@IAEXI@Z 1004eff0 f i GuSweepMTD.obj
 0001:0004e050       ?growAndPushBack@?$Array@IVNamedAllocator@shdfnd@physx@@@shdfnd@physx@@IAEAAIABI@Z 1004f050 f i GuSweepMTD.obj
 0001:0004e180       ?has16BitIndices@TriangleMesh@Gu@physx@@QBE_NXZ 1004f180 f i GuSweepMTD.obj
 0001:0004e1b0       ?hasNegativeDeterminant@PxMeshScale@physx@@QBE_NXZ 1004f1b0 f i GuSweepMTD.obj
 0001:0004e1f0       ?init@FastVertex2ShapeScaling@Cm@physx@@QAEXABVPxMeshScale@3@@Z 1004f1f0 f i GuSweepMTD.obj
 0001:0004e210       ?init@FastVertex2ShapeScaling@Cm@physx@@QAEXABVPxVec3@3@ABVPxQuat@3@@Z 1004f210 f i GuSweepMTD.obj
 0001:0004e2e0       ?intersectOBB@Midphase@Gu@physx@@YAXPBVTriangleMesh@23@ABVBox@23@AAU?$MeshHitCallback@UPxRaycastHit@physx@@@23@_N3@Z 1004f2e0 f i GuSweepMTD.obj
 0001:0004e320       ?isInUserMemory@?$Array@IVNamedAllocator@shdfnd@physx@@@shdfnd@physx@@QBEIXZ 1004f320 f i GuSweepMTD.obj
 0001:0004e340       ?normal@TriangleV@Gu@physx@@QBE?AT__m128@@XZ 1004f340 f i GuSweepMTD.obj
 0001:0004e400       ?onEvent@MidPhaseQueryLocalReport@@UAE_NIPAI@Z 1004f400 f i GuSweepMTD.obj
 0001:0004e450       ?processHit@MeshMTDGenerationCallback@@UAE_NABUPxRaycastHit@physx@@ABVPxVec3@3@11AAMPBI@Z 1004f450 f i GuSweepMTD.obj
 0001:0004e480       ?pushBack@?$Array@IVNamedAllocator@shdfnd@physx@@@shdfnd@physx@@QAEAAIABI@Z 1004f480 f i GuSweepMTD.obj
 0001:0004e500       ?recreate@?$Array@IVNamedAllocator@shdfnd@physx@@@shdfnd@physx@@IAEXI@Z 1004f500 f i GuSweepMTD.obj
 0001:0004e5d0       ?reserve@?$Array@IVNamedAllocator@shdfnd@physx@@@shdfnd@physx@@QAEXI@Z 1004f5d0 f i GuSweepMTD.obj
 0001:0004e600       ?rotate@PsTransformV@aos@shdfnd@physx@@QBE?AT__m128@@ABT5@@Z 1004f600 f i GuSweepMTD.obj
 0001:0004e690       ?setCenter@CapsuleV@Gu@physx@@QAEXABT__m128@@@Z 1004f690 f i GuSweepMTD.obj
 0001:0004e720       ?setShapeSpaceCenterofMass@SupportLocal@Gu@physx@@QAEXABT__m128@@@Z 1004f720 f i GuSweepMTD.obj
 0001:0004e740       ?size@?$Array@IVNamedAllocator@shdfnd@physx@@@shdfnd@physx@@QBEIXZ 1004f740 f i GuSweepMTD.obj
 0001:0004e760       ?transform@PsTransformV@aos@shdfnd@physx@@QBE?AT__m128@@ABT5@@Z 1004f760 f i GuSweepMTD.obj
 0001:0004e840       ?sweepCapsuleTriangles@Gu@physx@@YA_NIPBVPxTriangle@2@_NABVPxCapsuleGeometry@2@ABVPxTransform@2@ABVPxVec3@2@MAAUPxSweepHit@2@PBIMV?$PxFlags@W4Enum@PxHitFlag@physx@@G@2@@Z 1004f840 f   GuSweepSharedTests.obj
 0001:0004ed60       ?sweepCapsule_SphereGeom@@YA_NABVPxGeometry@physx@@ABVPxTransform@2@ABVPxCapsuleGeometry@2@1ABVCapsule@Gu@2@ABVPxVec3@2@MAAUPxSweepHit@2@V?$PxFlags@W4Enum@PxHitFlag@physx@@G@2@M@Z 1004fd60 f   GuSweepSharedTests.obj
 0001:0004ef80       ?sweepCapsule_PlaneGeom@@YA_NABVPxGeometry@physx@@ABVPxTransform@2@ABVPxCapsuleGeometry@2@1ABVCapsule@Gu@2@ABVPxVec3@2@MAAUPxSweepHit@2@V?$PxFlags@W4Enum@PxHitFlag@physx@@G@2@M@Z 1004ff80 f   GuSweepSharedTests.obj
 0001:0004f240       ?sweepCapsule_CapsuleGeom@@YA_NABVPxGeometry@physx@@ABVPxTransform@2@ABVPxCapsuleGeometry@2@1ABVCapsule@Gu@2@ABVPxVec3@2@MAAUPxSweepHit@2@V?$PxFlags@W4Enum@PxHitFlag@physx@@G@2@M@Z 10050240 f   GuSweepSharedTests.obj
 0001:0004f3d0       ?sweepCapsule_ConvexGeom@@YA_NABVPxGeometry@physx@@ABVPxTransform@2@ABVPxCapsuleGeometry@2@1ABVCapsule@Gu@2@ABVPxVec3@2@MAAUPxSweepHit@2@V?$PxFlags@W4Enum@PxHitFlag@physx@@G@2@M@Z 100503d0 f   GuSweepSharedTests.obj
 0001:0004f970       ?sweepBox_PlaneGeom@@YA_NABVPxGeometry@physx@@ABVPxTransform@2@ABVPxBoxGeometry@2@1ABVBox@Gu@2@ABVPxVec3@2@MAAUPxSweepHit@2@V?$PxFlags@W4Enum@PxHitFlag@physx@@G@2@M@Z 10050970 f   GuSweepSharedTests.obj
 0001:0004fbf0       ?sweepBox_ConvexGeom@@YA_NABVPxGeometry@physx@@ABVPxTransform@2@ABVPxBoxGeometry@2@1ABVBox@Gu@2@ABVPxVec3@2@MAAUPxSweepHit@2@V?$PxFlags@W4Enum@PxHitFlag@physx@@G@2@M@Z 10050bf0 f   GuSweepSharedTests.obj
 0001:000500a0       ?sweepConvex_SphereGeom@@YA_NABVPxGeometry@physx@@ABVPxTransform@2@ABVPxConvexMeshGeometry@2@1ABVPxVec3@2@MAAUPxSweepHit@2@V?$PxFlags@W4Enum@PxHitFlag@physx@@G@2@M@Z 100510a0 f   GuSweepSharedTests.obj
 0001:00050560       ?sweepConvex_PlaneGeom@@YA_NABVPxGeometry@physx@@ABVPxTransform@2@ABVPxConvexMeshGeometry@2@1ABVPxVec3@2@MAAUPxSweepHit@2@V?$PxFlags@W4Enum@PxHitFlag@physx@@G@2@M@Z 10051560 f   GuSweepSharedTests.obj
 0001:000507e0       ?sweepConvex_CapsuleGeom@@YA_NABVPxGeometry@physx@@ABVPxTransform@2@ABVPxConvexMeshGeometry@2@1ABVPxVec3@2@MAAUPxSweepHit@2@V?$PxFlags@W4Enum@PxHitFlag@physx@@G@2@M@Z 100517e0 f   GuSweepSharedTests.obj
 0001:00050960       ?sweepConvex_BoxGeom@@YA_NABVPxGeometry@physx@@ABVPxTransform@2@ABVPxConvexMeshGeometry@2@1ABVPxVec3@2@MAAUPxSweepHit@2@V?$PxFlags@W4Enum@PxHitFlag@physx@@G@2@M@Z 10051960 f   GuSweepSharedTests.obj
 0001:00050ae0       ?sweepConvex_ConvexGeom@@YA_NABVPxGeometry@physx@@ABVPxTransform@2@ABVPxConvexMeshGeometry@2@1ABVPxVec3@2@MAAUPxSweepHit@2@V?$PxFlags@W4Enum@PxHitFlag@physx@@G@2@M@Z 10051ae0 f   GuSweepSharedTests.obj
 0001:00050fc0       ??$PX_UNUSED@T__m128@@@@YAXABT__m128@@@Z 10051fc0 f i GuSweepSharedTests.obj
 0001:00050fd0       ??$gjkPenetration@U?$LocalConvex@VCapsuleV@Gu@physx@@@Gu@physx@@U?$LocalConvex@VConvexHullV@Gu@physx@@@23@@Gu@physx@@YA?AW4GjkStatus@01@ABU?$LocalConvex@VCapsuleV@Gu@physx@@@01@ABU?$LocalConvex@VConvexHullV@Gu@physx@@@01@ABT__m128@@2_NPIAE4AAEAAUGjkOutput@01@@Z 10051fd0 f i GuSweepSharedTests.obj
 0001:00051aa0       ??$gjkPenetration@U?$RelativeConvex@VBoxV@Gu@physx@@@Gu@physx@@U?$LocalConvex@VConvexHullV@Gu@physx@@@23@@Gu@physx@@YA?AW4GjkStatus@01@ABU?$RelativeConvex@VBoxV@Gu@physx@@@01@ABU?$LocalConvex@VConvexHullV@Gu@physx@@@01@ABT__m128@@2_NPIAE4AAEAAUGjkOutput@01@@Z 10052aa0 f i GuSweepSharedTests.obj
 0001:00052570       ??$gjkPenetration@U?$RelativeConvex@VConvexHullV@Gu@physx@@@Gu@physx@@U?$LocalConvex@VConvexHullV@Gu@physx@@@23@@Gu@physx@@YA?AW4GjkStatus@01@ABU?$RelativeConvex@VConvexHullV@Gu@physx@@@01@ABU?$LocalConvex@VConvexHullV@Gu@physx@@@01@ABT__m128@@2_NPIAE4AAEAAUGjkOutput@01@@Z 10053570 f i GuSweepSharedTests.obj
 0001:00053040       ??$gjkRaycast@U?$LocalConvex@VCapsuleV@Gu@physx@@@Gu@physx@@U?$LocalConvex@VConvexHullV@Gu@physx@@@23@@Gu@physx@@YA_NABU?$LocalConvex@VCapsuleV@Gu@physx@@@01@ABU?$LocalConvex@VConvexHullV@Gu@physx@@@01@ABT__m128@@222AAT4@33M@Z 10054040 f i GuSweepSharedTests.obj
 0001:00053c40       ??$gjkRaycast@U?$RelativeConvex@VBoxV@Gu@physx@@@Gu@physx@@U?$LocalConvex@VConvexHullV@Gu@physx@@@23@@Gu@physx@@YA_NABU?$RelativeConvex@VBoxV@Gu@physx@@@01@ABU?$LocalConvex@VConvexHullV@Gu@physx@@@01@ABT__m128@@222AAT4@33M@Z 10054c40 f i GuSweepSharedTests.obj
 0001:00054840       ??$gjkRaycast@U?$RelativeConvex@VConvexHullV@Gu@physx@@@Gu@physx@@U?$LocalConvex@VConvexHullV@Gu@physx@@@23@@Gu@physx@@YA_NABU?$RelativeConvex@VConvexHullV@Gu@physx@@@01@ABU?$LocalConvex@VConvexHullV@Gu@physx@@@01@ABT__m128@@222AAT4@33M@Z 10055840 f i GuSweepSharedTests.obj
 0001:00055440       ??$gjkRaycastPenetration@U?$LocalConvex@VCapsuleV@Gu@physx@@@Gu@physx@@U?$LocalConvex@VConvexHullV@Gu@physx@@@23@@Gu@physx@@YA_NABU?$LocalConvex@VCapsuleV@Gu@physx@@@01@ABU?$LocalConvex@VConvexHullV@Gu@physx@@@01@ABT__m128@@222AAT4@33M_N@Z 10056440 f i GuSweepSharedTests.obj
 0001:000556f0       ??$gjkRaycastPenetration@U?$RelativeConvex@VBoxV@Gu@physx@@@Gu@physx@@U?$LocalConvex@VConvexHullV@Gu@physx@@@23@@Gu@physx@@YA_NABU?$RelativeConvex@VBoxV@Gu@physx@@@01@ABU?$LocalConvex@VConvexHullV@Gu@physx@@@01@ABT__m128@@222AAT4@33M_N@Z 100566f0 f i GuSweepSharedTests.obj
 0001:000559b0       ??$gjkRaycastPenetration@U?$RelativeConvex@VConvexHullV@Gu@physx@@@Gu@physx@@U?$LocalConvex@VConvexHullV@Gu@physx@@@23@@Gu@physx@@YA_NABU?$RelativeConvex@VConvexHullV@Gu@physx@@@01@ABU?$LocalConvex@VConvexHullV@Gu@physx@@@01@ABT__m128@@222AAT4@33M_N@Z 100569b0 f i GuSweepSharedTests.obj
 0001:00055c70       ??0BoxPadded@Gu@physx@@QAE@XZ 10056c70 f i GuSweepSharedTests.obj
 0001:00055c90       ??0GjkOutput@Gu@physx@@QAE@XZ 10056c90 f i GuSweepSharedTests.obj
 0001:00055d00       ??0PxPlane@physx@@QAE@XZ   10056d00 f i GuSweepSharedTests.obj
 0001:00055d20       ??1BoxPadded@Gu@physx@@QAE@XZ 10056d20 f i GuSweepSharedTests.obj
 0001:00055d40       ??S?$PxFlags@W4Enum@PxHitFlag@physx@@G@physx@@QBE?AV01@XZ 10056d40 f i GuSweepSharedTests.obj
 0001:00055d80       ??Sphysx@@YA?AV?$PxFlags@W4Enum@PxHitFlag@physx@@G@0@W4Enum@PxHitFlag@0@@Z 10056d80 f i GuSweepSharedTests.obj
 0001:00055db0       ??_4?$PxFlags@W4Enum@PxHitFlag@physx@@G@physx@@QAEAAV01@ABV01@@Z 10056db0 f i GuSweepSharedTests.obj
 0001:00055de0       ?BAllEqFFFF@aos@shdfnd@physx@@YAIT__m128@@@Z 10056de0 f i GuSweepSharedTests.obj
 0001:00055e30       ?GJKCPairDoSimplex@Gu@physx@@YA?AT__m128@@PIAT3@00PIAH1ABT3@AAI@Z 10056e30 f i GuSweepSharedTests.obj
 0001:00055f40       ?QuatRotateInv@aos@shdfnd@physx@@YA?AT__m128@@T4@0@Z 10056f40 f i GuSweepSharedTests.obj
 0001:000560c0       ?V3NormalizeSafe@aos@shdfnd@physx@@YA?AT__m128@@T4@0@Z 100570c0 f i GuSweepSharedTests.obj
 0001:000561b0       ?assignWarmStartValue@Gu@physx@@YAXPIAE0AAEPIAH2I@Z 100571b0 f i GuSweepSharedTests.obj
 0001:00056260       ?closestPtPointTriangle@Gu@physx@@YA?AT__m128@@PIAT3@PAT3@1PIAH2AAI@Z 10057260 f i GuSweepSharedTests.obj
 0001:000565c0       ?getGjkConvex@?$LocalConvex@VCapsuleV@Gu@physx@@@Gu@physx@@QBE?AU123@XZ 100575c0 f i GuSweepSharedTests.obj
 0001:000565e0       ?getGjkConvex@?$LocalConvex@VConvexHullV@Gu@physx@@@Gu@physx@@QBE?AU123@XZ 100575e0 f i GuSweepSharedTests.obj
 0001:00056600       ?getGjkConvex@?$RelativeConvex@VBoxV@Gu@physx@@@Gu@physx@@QBE?AU123@XZ 10057600 f i GuSweepSharedTests.obj
 0001:00056630       ?getGjkConvex@?$RelativeConvex@VConvexHullV@Gu@physx@@@Gu@physx@@QBE?AU123@XZ 10057630 f i GuSweepSharedTests.obj
 0001:00056660       ?getSweepContactEps@Gu@physx@@YA?AT__m128@@ABT3@0@Z 10057660 f i GuSweepSharedTests.obj
 0001:000566e0       ?loadTransformU@aos@shdfnd@physx@@YA?AVPsTransformV@123@ABVPxTransform@3@@Z 100576e0 f i GuSweepSharedTests.obj
 0001:00056750       ?rotateInv@PsTransformV@aos@shdfnd@physx@@QBE?AT__m128@@ABT5@@Z 10057750 f i GuSweepSharedTests.obj
 0001:000567e0       ?to8@shdfnd@physx@@YAEH@Z  100577e0 f i GuSweepSharedTests.obj
 0001:00056860       ?to8@shdfnd@physx@@YAEI@Z  10057860 f i GuSweepSharedTests.obj
 0001:000568b0       ?transformPlaneToShapeSpace@FastVertex2ShapeScaling@Cm@physx@@QBEXABVPxVec3@3@MAAV43@AAM@Z 100578b0 f i GuSweepSharedTests.obj
 0001:00056920       ?getSweepFuncTable@Gu@physx@@YAABUGeomSweepFuncs@12@XZ 10057920 f   GuSweepTests.obj
 0001:00056930       ?sweepBoxTriangles@Gu@physx@@YA_NIPBVPxTriangle@2@_NABVPxBoxGeometry@2@ABVPxTransform@2@ABVPxVec3@2@MAAUPxSweepHit@2@PBIMV?$PxFlags@W4Enum@PxHitFlag@physx@@G@2@@Z 10057930 f   GuSweepTests.obj
 0001:000573b0       ?sweepCapsule_BoxGeom@@YA_NABVPxGeometry@physx@@ABVPxTransform@2@ABVPxCapsuleGeometry@2@1ABVCapsule@Gu@2@ABVPxVec3@2@MAAUPxSweepHit@2@V?$PxFlags@W4Enum@PxHitFlag@physx@@G@2@M@Z 100583b0 f   GuSweepTests.obj
 0001:00057940       ?sweepBox_SphereGeom@@YA_NABVPxGeometry@physx@@ABVPxTransform@2@ABVPxBoxGeometry@2@1ABVBox@Gu@2@ABVPxVec3@2@MAAUPxSweepHit@2@V?$PxFlags@W4Enum@PxHitFlag@physx@@G@2@M@Z 10058940 f   GuSweepTests.obj
 0001:00057e20       ?sweepBox_CapsuleGeom@@YA_NABVPxGeometry@physx@@ABVPxTransform@2@ABVPxBoxGeometry@2@1ABVBox@Gu@2@ABVPxVec3@2@MAAUPxSweepHit@2@V?$PxFlags@W4Enum@PxHitFlag@physx@@G@2@M@Z 10058e20 f   GuSweepTests.obj
 0001:00058390       ?sweepBox_BoxGeom@@YA_NABVPxGeometry@physx@@ABVPxTransform@2@ABVPxBoxGeometry@2@1ABVBox@Gu@2@ABVPxVec3@2@MAAUPxSweepHit@2@V?$PxFlags@W4Enum@PxHitFlag@physx@@G@2@M@Z 10059390 f   GuSweepTests.obj
 0001:00058a20       ?registerHeightFields_Sweeps@@YAXXZ 10059a20 f   GuSweepTests.obj
 0001:00058a80       ??$PX_UNUSED@UPxSweepHit@physx@@@@YAXABUPxSweepHit@physx@@@Z 10059a80 f i GuSweepTests.obj
 0001:00058a90       ??$PX_UNUSED@VBox@Gu@physx@@@@YAXABVBox@Gu@physx@@@Z 10059a90 f i GuSweepTests.obj
 0001:00058aa0       ??$PX_UNUSED@VCapsule@Gu@physx@@@@YAXABVCapsule@Gu@physx@@@Z 10059aa0 f i GuSweepTests.obj
 0001:00058ab0       ??$PX_UNUSED@VPxConvexMeshGeometry@physx@@@@YAXABVPxConvexMeshGeometry@physx@@@Z 10059ab0 f i GuSweepTests.obj
 0001:00058ac0       ??$getConvex@VTriangleV@Gu@physx@@@GjkConvexBase@Gu@physx@@QBEABVTriangleV@12@XZ 10059ac0 f i GuSweepTests.obj
 0001:00058ae0       ??$gjkPenetration@U?$LocalConvex@VCapsuleV@Gu@physx@@@Gu@physx@@U?$LocalConvex@VBoxV@Gu@physx@@@23@@Gu@physx@@YA?AW4GjkStatus@01@ABU?$LocalConvex@VCapsuleV@Gu@physx@@@01@ABU?$LocalConvex@VBoxV@Gu@physx@@@01@ABT__m128@@2_NPIAE4AAEAAUGjkOutput@01@@Z 10059ae0 f i GuSweepTests.obj
 0001:000595b0       ??$gjkPenetration@U?$LocalConvex@VTriangleV@Gu@physx@@@Gu@physx@@U?$LocalConvex@VBoxV@Gu@physx@@@23@@Gu@physx@@YA?AW4GjkStatus@01@ABU?$LocalConvex@VTriangleV@Gu@physx@@@01@ABU?$LocalConvex@VBoxV@Gu@physx@@@01@ABT__m128@@2_NPIAE4AAEAAUGjkOutput@01@@Z 1005a5b0 f i GuSweepTests.obj
 0001:0005a080       ??$gjkPenetration@U?$RelativeConvex@VBoxV@Gu@physx@@@Gu@physx@@U?$LocalConvex@VBoxV@Gu@physx@@@23@@Gu@physx@@YA?AW4GjkStatus@01@ABU?$RelativeConvex@VBoxV@Gu@physx@@@01@ABU?$LocalConvex@VBoxV@Gu@physx@@@01@ABT__m128@@2_NPIAE4AAEAAUGjkOutput@01@@Z 1005b080 f i GuSweepTests.obj
 0001:0005ab50       ??$gjkRaycast@U?$LocalConvex@VCapsuleV@Gu@physx@@@Gu@physx@@U?$LocalConvex@VBoxV@Gu@physx@@@23@@Gu@physx@@YA_NABU?$LocalConvex@VCapsuleV@Gu@physx@@@01@ABU?$LocalConvex@VBoxV@Gu@physx@@@01@ABT__m128@@222AAT4@33M@Z 1005bb50 f i GuSweepTests.obj
 0001:0005b750       ??$gjkRaycast@U?$LocalConvex@VTriangleV@Gu@physx@@@Gu@physx@@U?$LocalConvex@VBoxV@Gu@physx@@@23@@Gu@physx@@YA_NABU?$LocalConvex@VTriangleV@Gu@physx@@@01@ABU?$LocalConvex@VBoxV@Gu@physx@@@01@ABT__m128@@222AAT4@33M@Z 1005c750 f i GuSweepTests.obj
 0001:0005c350       ??$gjkRaycast@U?$RelativeConvex@VBoxV@Gu@physx@@@Gu@physx@@U?$LocalConvex@VBoxV@Gu@physx@@@23@@Gu@physx@@YA_NABU?$RelativeConvex@VBoxV@Gu@physx@@@01@ABU?$LocalConvex@VBoxV@Gu@physx@@@01@ABT__m128@@222AAT4@33M@Z 1005d350 f i GuSweepTests.obj
 0001:0005cf50       ??$gjkRaycastPenetration@U?$LocalConvex@VCapsuleV@Gu@physx@@@Gu@physx@@U?$LocalConvex@VBoxV@Gu@physx@@@23@@Gu@physx@@YA_NABU?$LocalConvex@VCapsuleV@Gu@physx@@@01@ABU?$LocalConvex@VBoxV@Gu@physx@@@01@ABT__m128@@222AAT4@33M_N@Z 1005df50 f i GuSweepTests.obj
 0001:0005d200       ??$gjkRaycastPenetration@U?$LocalConvex@VTriangleV@Gu@physx@@@Gu@physx@@U?$LocalConvex@VBoxV@Gu@physx@@@23@@Gu@physx@@YA_NABU?$LocalConvex@VTriangleV@Gu@physx@@@01@ABU?$LocalConvex@VBoxV@Gu@physx@@@01@ABT__m128@@222AAT4@33M_N@Z 1005e200 f i GuSweepTests.obj
 0001:0005d4b0       ??$gjkRaycastPenetration@U?$RelativeConvex@VBoxV@Gu@physx@@@Gu@physx@@U?$LocalConvex@VBoxV@Gu@physx@@@23@@Gu@physx@@YA_NABU?$RelativeConvex@VBoxV@Gu@physx@@@01@ABU?$LocalConvex@VBoxV@Gu@physx@@@01@ABT__m128@@222AAT4@33M_N@Z 1005e4b0 f i GuSweepTests.obj
 0001:0005d770       ??0?$LocalConvex@VBoxV@Gu@physx@@@Gu@physx@@QAE@ABVBoxV@12@@Z 1005e770 f i GuSweepTests.obj
 0001:0005d7a0       ??0?$LocalConvex@VTriangleV@Gu@physx@@@Gu@physx@@QAE@ABVTriangleV@12@@Z 1005e7a0 f i GuSweepTests.obj
 0001:0005d7d0       ??0TriangleV@Gu@physx@@QAE@ABT__m128@@00@Z 1005e7d0 f i GuSweepTests.obj
 0001:0005d8e0       ??1?$LocalConvex@VBoxV@Gu@physx@@@Gu@physx@@UAE@XZ 1005e8e0 f i GuSweepTests.obj
 0001:0005d900       ??1?$LocalConvex@VTriangleV@Gu@physx@@@Gu@physx@@UAE@XZ 1005e900 f i GuSweepTests.obj
 0001:0005d920       ??_G?$LocalConvex@VBoxV@Gu@physx@@@Gu@physx@@UAEPAXI@Z 1005e920 f i GuSweepTests.obj
 0001:0005d920       ??_E?$LocalConvex@VBoxV@Gu@physx@@@Gu@physx@@UAEPAXI@Z 1005e920 f i GuSweepTests.obj
 0001:0005d950       ??_G?$LocalConvex@VTriangleV@Gu@physx@@@Gu@physx@@UAEPAXI@Z 1005e950 f i GuSweepTests.obj
 0001:0005d950       ??_E?$LocalConvex@VTriangleV@Gu@physx@@@Gu@physx@@UAEPAXI@Z 1005e950 f i GuSweepTests.obj
 0001:0005d980       ?V3Merge@aos@shdfnd@physx@@YA?AT__m128@@ABT4@00@Z 1005e980 f i GuSweepTests.obj
 0001:0005dad0       ?VecI32V_Sel@aos@shdfnd@physx@@YA?AT__m128@@T4@ABT4@1@Z 1005ead0 f i GuSweepTests.obj
 0001:0005db90       ?VecI32V_Two@aos@shdfnd@physx@@YA?AT__m128@@XZ 1005eb90 f i GuSweepTests.obj
 0001:0005dbd0       ?VecI32V_Zero@aos@shdfnd@physx@@YA?AT__m128@@XZ 1005ebd0 f i GuSweepTests.obj
 0001:0005dc00       ?getCenter@?$LocalConvex@VBoxV@Gu@physx@@@Gu@physx@@UBE?AT__m128@@XZ 1005ec00 f i GuSweepTests.obj
 0001:0005dc30       ?getCenter@?$LocalConvex@VTriangleV@Gu@physx@@@Gu@physx@@UBE?AT__m128@@XZ 1005ec30 f i GuSweepTests.obj
 0001:0005dc60       ?getGjkConvex@?$LocalConvex@VBoxV@Gu@physx@@@Gu@physx@@QBE?AU123@XZ 1005ec60 f i GuSweepTests.obj
 0001:0005dc80       ?getGjkConvex@?$LocalConvex@VTriangleV@Gu@physx@@@Gu@physx@@QBE?AU123@XZ 1005ec80 f i GuSweepTests.obj
 0001:0005dca0       ?getSweepMargin@?$LocalConvex@VBoxV@Gu@physx@@@Gu@physx@@UBE?AT__m128@@XZ 1005eca0 f i GuSweepTests.obj
 0001:0005dcd0       ?getSweepMargin@?$LocalConvex@VTriangleV@Gu@physx@@@Gu@physx@@UBE?AT__m128@@XZ 1005ecd0 f i GuSweepTests.obj
 0001:0005dd00       ?getSweepMargin@TriangleV@Gu@physx@@QBE?AT__m128@@XZ 1005ed00 f i GuSweepTests.obj
 0001:0005dd40       ?support@?$LocalConvex@VBoxV@Gu@physx@@@Gu@physx@@UBE?AT__m128@@ABT4@@Z 1005ed40 f i GuSweepTests.obj
 0001:0005dd70       ?support@?$LocalConvex@VBoxV@Gu@physx@@@Gu@physx@@UBE?AT__m128@@ABT4@AAH@Z 1005ed70 f i GuSweepTests.obj
 0001:0005dda0       ?support@?$LocalConvex@VTriangleV@Gu@physx@@@Gu@physx@@UBE?AT__m128@@ABT4@@Z 1005eda0 f i GuSweepTests.obj
 0001:0005ddd0       ?support@?$LocalConvex@VTriangleV@Gu@physx@@@Gu@physx@@UBE?AT__m128@@ABT4@AAH@Z 1005edd0 f i GuSweepTests.obj
 0001:0005de00       ?supportLocal@TriangleV@Gu@physx@@QBE?AT__m128@@ABT4@@Z 1005ee00 f i GuSweepTests.obj
 0001:0005df80       ?supportLocal@TriangleV@Gu@physx@@QBE?AT__m128@@ABT4@AAH@Z 1005ef80 f i GuSweepTests.obj
 0001:0005e1b0       ?supportPoint@?$LocalConvex@VBoxV@Gu@physx@@@Gu@physx@@UBE?AT__m128@@H@Z 1005f1b0 f i GuSweepTests.obj
 0001:0005e1e0       ?supportPoint@?$LocalConvex@VTriangleV@Gu@physx@@@Gu@physx@@UBE?AT__m128@@H@Z 1005f1e0 f i GuSweepTests.obj
 0001:0005e210       ?supportPoint@TriangleV@Gu@physx@@QBE?AT__m128@@H@Z 1005f210 f i GuSweepTests.obj
 0001:0005e240       ?subdivide@AABBTreeBuildNode@Gu@physx@@QAEXABVAABBTreeBuildParams@23@AAUBuildStats@23@AAVNodeAllocator@23@QAI@Z 1005f240 f   GuAABBTreeBuild.obj
 0001:0005e890       ?_buildHierarchy@AABBTreeBuildNode@Gu@physx@@QAEXAAVAABBTreeBuildParams@23@AAUBuildStats@23@AAVNodeAllocator@23@QAI@Z 1005f890 f   GuAABBTreeBuild.obj
 0001:0005e960       ??0NodeAllocator@Gu@physx@@QAE@XZ 1005f960 f   GuAABBTreeBuild.obj
 0001:0005e9b0       ??1NodeAllocator@Gu@physx@@QAE@XZ 1005f9b0 f   GuAABBTreeBuild.obj
 0001:0005e9d0       ?release@NodeAllocator@Gu@physx@@QAEXXZ 1005f9d0 f   GuAABBTreeBuild.obj
 0001:0005ea70       ?init@NodeAllocator@Gu@physx@@QAEXII@Z 1005fa70 f   GuAABBTreeBuild.obj
 0001:0005eba0       ?getBiNode@NodeAllocator@Gu@physx@@QAEPAVAABBTreeBuildNode@23@XZ 1005fba0 f   GuAABBTreeBuild.obj
 0001:0005ecc0       ?initAABBTreeBuild@Gu@physx@@YA_NAAVAABBTreeBuildParams@12@AAVNodeAllocator@12@AAUBuildStats@12@AAPAI@Z 1005fcc0 f   GuAABBTreeBuild.obj
 0001:0005eeb0       ?buildAABBTree@Gu@physx@@YA_NAAVAABBTreeBuildParams@12@AAVNodeAllocator@12@AAUBuildStats@12@AAPAI@Z 1005feb0 f   GuAABBTreeBuild.obj
 0001:0005f030       ??$?4VNamedAllocator@shdfnd@physx@@@?$Array@USlab@NodeAllocator@Gu@physx@@VNamedAllocator@shdfnd@4@@shdfnd@physx@@QAEAAV012@ABV012@@Z 10060030 f i GuAABBTreeBuild.obj
 0001:0005f0a0       ??$?_UV?$ReflectionAllocator@VAABBTreeBuildNode@Gu@physx@@@shdfnd@physx@@@UserAllocated@shdfnd@physx@@SAPAXIV?$ReflectionAllocator@VAABBTreeBuildNode@Gu@physx@@@12@PBDH@Z 100600a0 f i GuAABBTreeBuild.obj
 0001:0005f0c0       ??$copy@VNamedAllocator@shdfnd@physx@@@?$Array@USlab@NodeAllocator@Gu@physx@@VNamedAllocator@shdfnd@4@@shdfnd@physx@@IAEXABV012@@Z 100600c0 f i GuAABBTreeBuild.obj
 0001:0005f150       ??0?$Array@USlab@NodeAllocator@Gu@physx@@VNamedAllocator@shdfnd@4@@shdfnd@physx@@QAE@ABV012@ABVNamedAllocator@12@@Z 10060150 f i GuAABBTreeBuild.obj
 0001:0005f180       ??0?$Array@USlab@NodeAllocator@Gu@physx@@VNamedAllocator@shdfnd@4@@shdfnd@physx@@QAE@ABVNamedAllocator@12@@Z 10060180 f i GuAABBTreeBuild.obj
 0001:0005f1c0       ??0?$ReflectionAllocator@VAABBTreeBuildNode@Gu@physx@@@shdfnd@physx@@QAE@PBD@Z 100601c0 f i GuAABBTreeBuild.obj
 0001:0005f1d0       ??0AABBTreeBuildNode@Gu@physx@@QAE@ABV012@@Z 100601d0 f i GuAABBTreeBuild.obj
 0001:0005f210       ??0AABBTreeBuildNode@Gu@physx@@QAE@XZ 10060210 f i GuAABBTreeBuild.obj
 0001:0005f230       ??0AABBTreeBuildParams@Gu@physx@@QAE@IIPBVPxBounds3@2@@Z 10060230 f i GuAABBTreeBuild.obj
 0001:0005f270       ??0BuildStats@Gu@physx@@QAE@XZ 10060270 f i GuAABBTreeBuild.obj
 0001:0005f2a0       ??0NodeAllocator@Gu@physx@@QAE@ABV012@@Z 100602a0 f i GuAABBTreeBuild.obj
 0001:0005f300       ??0PxBounds3@physx@@QAE@ABV01@@Z 10060300 f i GuAABBTreeBuild.obj
 0001:0005f330       ??0Slab@NodeAllocator@Gu@physx@@QAE@PAVAABBTreeBuildNode@23@II@Z 10060330 f i GuAABBTreeBuild.obj
 0001:0005f360       ??0Slab@NodeAllocator@Gu@physx@@QAE@XZ 10060360 f i GuAABBTreeBuild.obj
 0001:0005f370       ??1?$Array@USlab@NodeAllocator@Gu@physx@@VNamedAllocator@shdfnd@4@@shdfnd@physx@@QAE@XZ 10060370 f i GuAABBTreeBuild.obj
 0001:0005f3d0       ??1AABBTreeBuildNode@Gu@physx@@QAE@XZ 100603d0 f i GuAABBTreeBuild.obj
 0001:0005f3e0       ??1AABBTreeBuildParams@Gu@physx@@QAE@XZ 100603e0 f i GuAABBTreeBuild.obj
 0001:0005f400       ??4?$Array@USlab@NodeAllocator@Gu@physx@@VNamedAllocator@shdfnd@4@@shdfnd@physx@@QAEAAV012@ABV012@@Z 10060400 f i GuAABBTreeBuild.obj
 0001:0005f420       ??4AABBTreeBuildNode@Gu@physx@@QAEAAV012@ABV012@@Z 10060420 f i GuAABBTreeBuild.obj
 0001:0005f460       ??4AABBTreeBuildParams@Gu@physx@@QAEAAV012@ABV012@@Z 10060460 f i GuAABBTreeBuild.obj
 0001:0005f490       ??4BuildStats@Gu@physx@@QAEAAU012@$$QAU012@@Z 10060490 f i GuAABBTreeBuild.obj
 0001:0005f4c0       ??4BuildStats@Gu@physx@@QAEAAU012@ABU012@@Z 100604c0 f i GuAABBTreeBuild.obj
 0001:0005f4e0       ??4NodeAllocator@Gu@physx@@QAEAAV012@ABV012@@Z 100604e0 f i GuAABBTreeBuild.obj
 0001:0005f530       ??4PxBounds3@physx@@QAEAAV01@ABV01@@Z 10060530 f i GuAABBTreeBuild.obj
 0001:0005f560       ??A?$Array@USlab@NodeAllocator@Gu@physx@@VNamedAllocator@shdfnd@4@@shdfnd@physx@@QAEAAUSlab@NodeAllocator@Gu@2@I@Z 10060560 f i GuAABBTreeBuild.obj
 0001:0005f5c0       ??_EAABBTreeBuildNode@Gu@physx@@QAEPAXI@Z 100605c0 f i GuAABBTreeBuild.obj
 0001:0005f670       ??_FAABBTreeBuildParams@Gu@physx@@QAEXXZ 10060670 f i GuAABBTreeBuild.obj
 0001:0005f690       ?allocate@?$Array@USlab@NodeAllocator@Gu@physx@@VNamedAllocator@shdfnd@4@@shdfnd@physx@@IAEPAUSlab@NodeAllocator@Gu@3@I@Z 10060690 f i GuAABBTreeBuild.obj
 0001:0005f700       ?allocate@?$ReflectionAllocator@VAABBTreeBuildNode@Gu@physx@@@shdfnd@physx@@QAEPAXIPBDH@Z 10060700 f i GuAABBTreeBuild.obj
 0001:0005f750       ?begin@?$Array@USlab@NodeAllocator@Gu@physx@@VNamedAllocator@shdfnd@4@@shdfnd@physx@@QBEPBUSlab@NodeAllocator@Gu@3@XZ 10060750 f i GuAABBTreeBuild.obj
 0001:0005f760       ?capacity@?$Array@USlab@NodeAllocator@Gu@physx@@VNamedAllocator@shdfnd@4@@shdfnd@physx@@QBEIXZ 10060760 f i GuAABBTreeBuild.obj
 0001:0005f780       ?capacityIncrement@?$Array@USlab@NodeAllocator@Gu@physx@@VNamedAllocator@shdfnd@4@@shdfnd@physx@@IBEIXZ 10060780 f i GuAABBTreeBuild.obj
 0001:0005f7c0       ?clear@?$Array@USlab@NodeAllocator@Gu@physx@@VNamedAllocator@shdfnd@4@@shdfnd@physx@@QAEXXZ 100607c0 f i GuAABBTreeBuild.obj
 0001:0005f7f0       ?copy@?$Array@USlab@NodeAllocator@Gu@physx@@VNamedAllocator@shdfnd@4@@shdfnd@physx@@KAXPAUSlab@NodeAllocator@Gu@3@0PBU4563@@Z 100607f0 f i GuAABBTreeBuild.obj
 0001:0005f850       ?create@?$Array@USlab@NodeAllocator@Gu@physx@@VNamedAllocator@shdfnd@4@@shdfnd@physx@@KAXPAUSlab@NodeAllocator@Gu@3@0ABU4563@@Z 10060850 f i GuAABBTreeBuild.obj
 0001:0005f8a0       ?deallocate@?$Array@USlab@NodeAllocator@Gu@physx@@VNamedAllocator@shdfnd@4@@shdfnd@physx@@IAEXPAX@Z 100608a0 f i GuAABBTreeBuild.obj
 0001:0005f8c0       ?destroy@?$Array@USlab@NodeAllocator@Gu@physx@@VNamedAllocator@shdfnd@4@@shdfnd@physx@@KAXPAUSlab@NodeAllocator@Gu@3@0@Z 100608c0 f i GuAABBTreeBuild.obj
 0001:0005f8e0       ?empty@?$Array@USlab@NodeAllocator@Gu@physx@@VNamedAllocator@shdfnd@4@@shdfnd@physx@@QBE_NXZ 100608e0 f i GuAABBTreeBuild.obj
 0001:0005f910       ?getAABB@AABBTreeBuildNode@Gu@physx@@QBEABVPxBounds3@3@XZ 10060910 f i GuAABBTreeBuild.obj
 0001:0005f920       ?getCenter@PxBounds3@physx@@QBEMI@Z 10060920 f i GuAABBTreeBuild.obj
 0001:0005f990       ?getCount@BuildStats@Gu@physx@@QBEIXZ 10060990 f i GuAABBTreeBuild.obj
 0001:0005f9a0       ?getName@?$ReflectionAllocator@VAABBTreeBuildNode@Gu@physx@@@shdfnd@physx@@CAPBDXZ 100609a0 f i GuAABBTreeBuild.obj
 0001:0005f9e0       ?getNbPrimitives@AABBTreeBuildNode@Gu@physx@@QBEIXZ 100609e0 f i GuAABBTreeBuild.obj
 0001:0005fa00       ?getNbRuntimePrimitives@AABBTreeBuildNode@Gu@physx@@QBEIXZ 10060a00 f i GuAABBTreeBuild.obj
 0001:0005fa20       ?getNeg@AABBTreeBuildNode@Gu@physx@@QBEPBV123@XZ 10060a20 f i GuAABBTreeBuild.obj
 0001:0005fa60       ?getPos@AABBTreeBuildNode@Gu@physx@@QBEPBV123@XZ 10060a60 f i GuAABBTreeBuild.obj
 0001:0005fa80       ?getPrimitives@AABBTreeBuildNode@Gu@physx@@QAEPAIPAI@Z 10060a80 f i GuAABBTreeBuild.obj
 0001:0005faa0       ?getPrimitives@AABBTreeBuildNode@Gu@physx@@QBEPBIPBI@Z 10060aa0 f i GuAABBTreeBuild.obj
 0001:0005fac0       ?grow@?$Array@USlab@NodeAllocator@Gu@physx@@VNamedAllocator@shdfnd@4@@shdfnd@physx@@IAEXI@Z 10060ac0 f i GuAABBTreeBuild.obj
 0001:0005fb20       ?growAndPushBack@?$Array@USlab@NodeAllocator@Gu@physx@@VNamedAllocator@shdfnd@4@@shdfnd@physx@@IAEAAUSlab@NodeAllocator@Gu@3@ABU4563@@Z 10060b20 f i GuAABBTreeBuild.obj
 0001:0005fc50       ?increaseCount@BuildStats@Gu@physx@@QAEXI@Z 10060c50 f i GuAABBTreeBuild.obj
 0001:0005fc70       ?isInUserMemory@?$Array@USlab@NodeAllocator@Gu@physx@@VNamedAllocator@shdfnd@4@@shdfnd@physx@@QBEIXZ 10060c70 f i GuAABBTreeBuild.obj
 0001:0005fc90       ?isLeaf@AABBTreeBuildNode@Gu@physx@@QBE_NXZ 10060c90 f i GuAABBTreeBuild.obj
 0001:0005fcc0       ?largestAxis@shdfnd@physx@@YAIABVPxVec3@2@@Z 10060cc0 f i GuAABBTreeBuild.obj
 0001:0005fd20       ?pushBack@?$Array@USlab@NodeAllocator@Gu@physx@@VNamedAllocator@shdfnd@4@@shdfnd@physx@@QAEAAUSlab@NodeAllocator@Gu@3@ABU4563@@Z 10060d20 f i GuAABBTreeBuild.obj
 0001:0005fda0       ?recreate@?$Array@USlab@NodeAllocator@Gu@physx@@VNamedAllocator@shdfnd@4@@shdfnd@physx@@IAEXI@Z 10060da0 f i GuAABBTreeBuild.obj
 0001:0005fe70       ?reserve@?$Array@USlab@NodeAllocator@Gu@physx@@VNamedAllocator@shdfnd@4@@shdfnd@physx@@QAEXI@Z 10060e70 f i GuAABBTreeBuild.obj
 0001:0005fea0       ?reset@?$Array@USlab@NodeAllocator@Gu@physx@@VNamedAllocator@shdfnd@4@@shdfnd@physx@@QAEXXZ 10060ea0 f i GuAABBTreeBuild.obj
 0001:0005fed0       ?reset@AABBTreeBuildParams@Gu@physx@@QAEXXZ 10060ed0 f i GuAABBTreeBuild.obj
 0001:0005ff20       ?reset@BuildStats@Gu@physx@@QAEXXZ 10060f20 f i GuAABBTreeBuild.obj
 0001:0005ff40       ?resize@?$Array@USlab@NodeAllocator@Gu@physx@@VNamedAllocator@shdfnd@4@@shdfnd@physx@@QAEXIABUSlab@NodeAllocator@Gu@3@@Z 10060f40 f i GuAABBTreeBuild.obj
 0001:0005ffb0       ?setCount@BuildStats@Gu@physx@@QAEXI@Z 10060fb0 f i GuAABBTreeBuild.obj
 0001:0005ffd0       ?setNbRunTimePrimitives@AABBTreeBuildNode@Gu@physx@@QAEXI@Z 10060fd0 f i GuAABBTreeBuild.obj
 0001:0005fff0       ?shrink@?$Array@USlab@NodeAllocator@Gu@physx@@VNamedAllocator@shdfnd@4@@shdfnd@physx@@QAEXXZ 10060ff0 f i GuAABBTreeBuild.obj
 0001:00060010       ?size@?$Array@USlab@NodeAllocator@Gu@physx@@VNamedAllocator@shdfnd@4@@shdfnd@physx@@QBEIXZ 10061010 f i GuAABBTreeBuild.obj
 0001:00060030       ??0BVHStructure@Gu@physx@@QAE@PAVGuMeshFactory@2@@Z 10061030 f   GuBVHStructure.obj
 0001:000600c0       ??0BVHStructure@Gu@physx@@QAE@PAVGuMeshFactory@2@AAUBVHStructureData@12@@Z 100610c0 f   GuBVHStructure.obj
 0001:00060160       ??1BVHStructure@Gu@physx@@UAE@XZ 10061160 f   GuBVHStructure.obj
 0001:000601a0       ?load@BVHStructure@Gu@physx@@QAE_NAAVPxInputStream@3@@Z 100611a0 f   GuBVHStructure.obj
 0001:00060350       ?release@BVHStructure@Gu@physx@@UAEXXZ 10061350 f   GuBVHStructure.obj
 0001:00060370       ?raycast@BVHStructure@Gu@physx@@UBEIABVPxVec3@3@0MIPIAI@Z 10061370 f   GuBVHStructure.obj
 0001:000603f0       ?sweep@BVHStructure@Gu@physx@@UBEIABVPxBounds3@3@ABVPxVec3@3@MIPIAI@Z 100613f0 f   GuBVHStructure.obj
 0001:00060480       ?overlap@BVHStructure@Gu@physx@@UBEIABVPxBounds3@3@IPIAI@Z 10061480 f   GuBVHStructure.obj
 0001:00060510       ?onRefCountZero@BVHStructure@Gu@physx@@UAEXXZ 10061510 f   GuBVHStructure.obj
 0001:00060630       ?createVolumes@BVHStructure@Gu@physx@@ABEXXZ 10061630 f   GuBVHStructure.obj
 0001:000609b0       ??$check@$00@RayAABBTest@Gu@physx@@QBEIT__m128@@0@Z 100619b0 f i GuBVHStructure.obj
 0001:00060c30       ??$check@$0A@@RayAABBTest@Gu@physx@@QBEIT__m128@@0@Z 10061c30 f i GuBVHStructure.obj
 0001:00060eb0       ??$deletePxBase@VBVHStructure@Gu@physx@@@Cm@physx@@YAXPAVBVHStructure@Gu@1@@Z 10061eb0 f i GuBVHStructure.obj
 0001:00060f20       ??0?$Array@PBUBVHNode@Gu@physx@@V?$InlineAllocator@$0EAA@VNamedAllocator@shdfnd@physx@@@shdfnd@3@@shdfnd@physx@@QAE@ABV?$InlineAllocator@$0EAA@VNamedAllocator@shdfnd@physx@@@12@@Z 10061f20 f i GuBVHStructure.obj
 0001:00060f70       ??0?$InlineAllocator@$0EAA@VNamedAllocator@shdfnd@physx@@@shdfnd@physx@@QAE@ABV012@@Z 10061f70 f i GuBVHStructure.obj
 0001:00060fa0       ??0?$InlineAllocator@$0EAA@VNamedAllocator@shdfnd@physx@@@shdfnd@physx@@QAE@ABVNamedAllocator@12@@Z 10061fa0 f i GuBVHStructure.obj
 0001:00060fd0       ??0?$InlineArray@PBUBVHNode@Gu@physx@@$0BAA@VNamedAllocator@shdfnd@3@@shdfnd@physx@@QAE@ABVNamedAllocator@12@@Z 10061fd0 f i GuBVHStructure.obj
 0001:00061040       ??0?$PxFlags@W4Enum@PxBaseFlag@physx@@G@physx@@QAE@W4Enum@PxBaseFlag@1@@Z 10062040 f i GuBVHStructure.obj
 0001:00061060       ??0AABBAABBTest@Gu@physx@@QAE@ABVPxBounds3@2@@Z 10062060 f i GuBVHStructure.obj
 0001:000610d0       ??0BVHCallback@Gu@physx@@QAE@PAII@Z 100620d0 f i GuBVHStructure.obj
 0001:00061100       ??0BVHTree@Gu@physx@@QAE@PBUBVHNode@12@PBI@Z 10062100 f i GuBVHStructure.obj
 0001:00061130       ??0PxBVHStructure@physx@@IAE@GV?$PxFlags@W4Enum@PxBaseFlag@physx@@G@1@@Z 10062130 f i GuBVHStructure.obj
 0001:00061170       ??0PxBase@physx@@IAE@GV?$PxFlags@W4Enum@PxBaseFlag@physx@@G@1@@Z 10062170 f i GuBVHStructure.obj
 0001:000611b0       ??0RayAABBTest@Gu@physx@@QAE@ABVPxVec3@2@0M0@Z 100621b0 f i GuBVHStructure.obj
 0001:00061470       ??0RefCountable@Cm@physx@@QAE@I@Z 10062470 f i GuBVHStructure.obj
 0001:000614d0       ??1?$Array@PBUBVHNode@Gu@physx@@V?$InlineAllocator@$0EAA@VNamedAllocator@shdfnd@physx@@@shdfnd@3@@shdfnd@physx@@QAE@XZ 100624d0 f i GuBVHStructure.obj
 0001:00061540       ??1?$InlineAllocator@$0EAA@VNamedAllocator@shdfnd@physx@@@shdfnd@physx@@QAE@XZ 10062540 f i GuBVHStructure.obj
 0001:00061560       ??1?$InlineArray@PBUBVHNode@Gu@physx@@$0BAA@VNamedAllocator@shdfnd@3@@shdfnd@physx@@QAE@XZ 10062560 f i GuBVHStructure.obj
 0001:00061580       ??1PxBVHStructure@physx@@MAE@XZ 10062580 f i GuBVHStructure.obj
 0001:000615a0       ??1RefCountable@Cm@physx@@UAE@XZ 100625a0 f i GuBVHStructure.obj
 0001:000615c0       ??A?$Array@PBUBVHNode@Gu@physx@@V?$InlineAllocator@$0EAA@VNamedAllocator@shdfnd@physx@@@shdfnd@3@@shdfnd@physx@@QAEAAPBUBVHNode@Gu@2@I@Z 100625c0 f i GuBVHStructure.obj
 0001:00061630       ??R?$AABBTreeOverlap@UAABBAABBTest@Gu@physx@@UBVHTree@23@UBVHNode@23@IUBVHCallback@23@@Gu@physx@@QAE_NPBIPBVPxBounds3@2@ABUBVHTree@12@ABUAABBAABBTest@12@AAUBVHCallback@12@@Z 10062630 f i GuBVHStructure.obj
 0001:00061930       ??R?$AABBTreeRaycast@$00UBVHTree@Gu@physx@@UBVHNode@23@IUBVHCallback@23@@Gu@physx@@QAE_NPBIPBVPxBounds3@2@ABUBVHTree@12@ABVPxVec3@2@3AAM3AAUBVHCallback@12@@Z 10062930 f i GuBVHStructure.obj
 0001:00061c70       ??R?$AABBTreeRaycast@$0A@UBVHTree@Gu@physx@@UBVHNode@23@IUBVHCallback@23@@Gu@physx@@QAE_NPBIPBVPxBounds3@2@ABUBVHTree@12@ABVPxVec3@2@3AAM3AAUBVHCallback@12@@Z 10062c70 f i GuBVHStructure.obj
 0001:00061fb0       ??RAABBAABBTest@Gu@physx@@QBEHT__m128@@0@Z 10062fb0 f i GuBVHStructure.obj
 0001:00062020       ??Uphysx@@YA?AV?$PxFlags@W4Enum@PxBaseFlag@physx@@G@0@W4Enum@PxBaseFlag@0@0@Z 10063020 f i GuBVHStructure.obj
 0001:00062050       ??_5?$PxFlags@W4Enum@PxBaseFlag@physx@@G@physx@@QAEAAV01@W4Enum@PxBaseFlag@1@@Z 10063050 f i GuBVHStructure.obj
 0001:00062072       ??_EBVHStructure@Gu@physx@@W7AEPAXI@Z 10063072 f i GuBVHStructure.obj
 0001:00062080       ??_GBVHStructure@Gu@physx@@UAEPAXI@Z 10063080 f i GuBVHStructure.obj
 0001:00062080       ??_EBVHStructure@Gu@physx@@UAEPAXI@Z 10063080 f i GuBVHStructure.obj
 0001:000620d0       ??_EPxBVHStructure@physx@@MAEPAXI@Z 100630d0 f i GuBVHStructure.obj
 0001:000620d0       ??_GPxBVHStructure@physx@@MAEPAXI@Z 100630d0 f i GuBVHStructure.obj
 0001:00062100       ??_GRefCountable@Cm@physx@@UAEPAXI@Z 10063100 f i GuBVHStructure.obj
 0001:00062100       ??_ERefCountable@Cm@physx@@UAEPAXI@Z 10063100 f i GuBVHStructure.obj
 0001:00062130       ?V3AllGrtrOrEq@aos@shdfnd@physx@@YAIT__m128@@0@Z 10063130 f i GuBVHStructure.obj
 0001:00062200       ?V3IsGrtrOrEq@aos@shdfnd@physx@@YA?AT__m128@@T4@0@Z 10063200 f i GuBVHStructure.obj
 0001:000622d0       ?V3Min@aos@shdfnd@physx@@YA?AT__m128@@T4@0@Z 100632d0 f i GuBVHStructure.obj
 0001:000623a0       ?V3MulAdd@aos@shdfnd@physx@@YA?AT__m128@@T4@00@Z 100633a0 f i GuBVHStructure.obj
 0001:000624d0       ?V3NegMulSub@aos@shdfnd@physx@@YA?AT__m128@@T4@00@Z 100634d0 f i GuBVHStructure.obj
 0001:00062600       ?V3PermYZX@aos@shdfnd@physx@@YA?AT__m128@@T4@@Z 10063600 f i GuBVHStructure.obj
 0001:00062680       ?V4IsGrtrOrEq@aos@shdfnd@physx@@YA?AT__m128@@T4@0@Z 10063680 f i GuBVHStructure.obj
 0001:000626c0       ?allocate@?$Array@PBUBVHNode@Gu@physx@@V?$InlineAllocator@$0EAA@VNamedAllocator@shdfnd@physx@@@shdfnd@3@@shdfnd@physx@@IAEPAPBUBVHNode@Gu@3@I@Z 100636c0 f i GuBVHStructure.obj
 0001:00062730       ?allocate@?$InlineAllocator@$0EAA@VNamedAllocator@shdfnd@physx@@@shdfnd@physx@@QAEPAXIPBDH@Z 10063730 f i GuBVHStructure.obj
 0001:00062780       ?capacity@?$Array@PBUBVHNode@Gu@physx@@V?$InlineAllocator@$0EAA@VNamedAllocator@shdfnd@physx@@@shdfnd@3@@shdfnd@physx@@QBEIXZ 10063780 f i GuBVHStructure.obj
 0001:000627a0       ?copy@?$Array@PBUBVHNode@Gu@physx@@V?$InlineAllocator@$0EAA@VNamedAllocator@shdfnd@physx@@@shdfnd@3@@shdfnd@physx@@KAXPAPBUBVHNode@Gu@3@0PBQBU453@@Z 100637a0 f i GuBVHStructure.obj
 0001:000627f0       ?deallocate@?$Array@PBUBVHNode@Gu@physx@@V?$InlineAllocator@$0EAA@VNamedAllocator@shdfnd@physx@@@shdfnd@3@@shdfnd@physx@@IAEXPAX@Z 100637f0 f i GuBVHStructure.obj
 0001:00062810       ?deallocate@?$InlineAllocator@$0EAA@VNamedAllocator@shdfnd@physx@@@shdfnd@physx@@QAEXPAX@Z 10063810 f i GuBVHStructure.obj
 0001:00062840       ?destroy@?$Array@PBUBVHNode@Gu@physx@@V?$InlineAllocator@$0EAA@VNamedAllocator@shdfnd@physx@@@shdfnd@3@@shdfnd@physx@@KAXPAPBUBVHNode@Gu@3@0@Z 10063840 f i GuBVHStructure.obj
 0001:00062860       ?forceSize_Unsafe@?$Array@PBUBVHNode@Gu@physx@@V?$InlineAllocator@$0EAA@VNamedAllocator@shdfnd@physx@@@shdfnd@3@@shdfnd@physx@@QAEXI@Z 10063860 f i GuBVHStructure.obj
 0001:000628c0       ?getAABBCenterExtentsV2@BVHNode@Gu@physx@@QBEXPAT__m128@@0@Z 100638c0 f i GuBVHStructure.obj
 0001:00062980       ?getAABBCenterExtentsV@BVHNode@Gu@physx@@QBEXPAT__m128@@0@Z 10063980 f i GuBVHStructure.obj
 0001:00062aa0       ?getBaseFlags@PxBase@physx@@QBE?AV?$PxFlags@W4Enum@PxBaseFlag@physx@@G@2@XZ 10063aa0 f i GuBVHStructure.obj
 0001:00062ac0       ?getBounds@BVHStructure@Gu@physx@@UBEPBVPxBounds3@3@XZ 10063ac0 f i GuBVHStructure.obj
 0001:00062ae0       ?getConcreteTypeName@PxBVHStructure@physx@@UBEPBDXZ 10063ae0 f i GuBVHStructure.obj
 0001:00062af0       ?getIndices@BVHTree@Gu@physx@@QBEPBIXZ 10063af0 f i GuBVHStructure.obj
 0001:00062b10       ?getNbBounds@BVHStructure@Gu@physx@@UBEIXZ 10063b10 f i GuBVHStructure.obj
 0001:00062b30       ?getNbPrimitives@BVHNode@Gu@physx@@QBEIXZ 10063b30 f i GuBVHStructure.obj
 0001:00062b50       ?getNodes@BVHTree@Gu@physx@@QBEPBUBVHNode@23@XZ 10063b50 f i GuBVHStructure.obj
 0001:00062b60       ?getPos@BVHNode@Gu@physx@@QBEPBU123@PBU123@@Z 10063b60 f i GuBVHStructure.obj
 0001:00062b80       ?getPrimitives@BVHNode@Gu@physx@@QBEPBIPBI@Z 10063b80 f i GuBVHStructure.obj
 0001:00062ba0       ?grow@?$Array@PBUBVHNode@Gu@physx@@V?$InlineAllocator@$0EAA@VNamedAllocator@shdfnd@physx@@@shdfnd@3@@shdfnd@physx@@IAEXI@Z 10063ba0 f i GuBVHStructure.obj
 0001:00062c00       ?invoke@BVHCallback@Gu@physx@@QAE_NAAMI@Z 10063c00 f i GuBVHStructure.obj
 0001:00062c50       ?isInUserMemory@?$Array@PBUBVHNode@Gu@physx@@V?$InlineAllocator@$0EAA@VNamedAllocator@shdfnd@physx@@@shdfnd@3@@shdfnd@physx@@QBEIXZ 10063c50 f i GuBVHStructure.obj
 0001:00062c70       ?isKindOf@PxBVHStructure@physx@@MBE_NPBD@Z 10063c70 f i GuBVHStructure.obj
 0001:00062cc0       ?isLeaf@BVHNode@Gu@physx@@QBEIXZ 10063cc0 f i GuBVHStructure.obj
 0001:00062ce0       ?onRefCountZero@RefCountable@Cm@physx@@UAEXXZ 10063ce0 f i GuBVHStructure.obj
 0001:00062d20       ?recreate@?$Array@PBUBVHNode@Gu@physx@@V?$InlineAllocator@$0EAA@VNamedAllocator@shdfnd@physx@@@shdfnd@3@@shdfnd@physx@@IAEXI@Z 10063d20 f i GuBVHStructure.obj
 0001:00062e20       ?reserve@?$Array@PBUBVHNode@Gu@physx@@V?$InlineAllocator@$0EAA@VNamedAllocator@shdfnd@physx@@@shdfnd@3@@shdfnd@physx@@QAEXI@Z 10063e20 f i GuBVHStructure.obj
 0001:00062e50       ?resizeUninitialized@?$Array@PBUBVHNode@Gu@physx@@V?$InlineAllocator@$0EAA@VNamedAllocator@shdfnd@physx@@@shdfnd@3@@shdfnd@physx@@QAEXI@Z 10063e50 f i GuBVHStructure.obj
 0001:00062e80       ?setDistance@RayAABBTest@Gu@physx@@QAEXM@Z 10063e80 f i GuBVHStructure.obj
 0001:00062f20       ?SweepEstimateAnyShapeHeightfield@Gu@physx@@YAMABUCCDShape@12@0ABVPxTransform@2@111MM@Z 10063f20 f   GuCCDSweepConvexMesh.obj
 0001:00063320       ?SweepEstimateAnyShapeMesh@Gu@physx@@YAMABUCCDShape@12@0ABVPxTransform@2@111MM@Z 10064320 f   GuCCDSweepConvexMesh.obj
 0001:00063b60       ?SweepAnyShapeHeightfield@Gu@physx@@YAMABUCCDShape@12@0ABVPxTransform@2@111MAAVPxVec3@2@2MAAIM@Z 10064b60 f   GuCCDSweepConvexMesh.obj
 0001:00064640       ?SweepAnyShapeMesh@Gu@physx@@YAMABUCCDShape@12@0ABVPxTransform@2@111MAAVPxVec3@2@2MAAIM@Z 10065640 f   GuCCDSweepConvexMesh.obj
 0001:00065430       ??$checkType@$$CBUPxHeightFieldGeometryLL@physx@@@physx@@YAXABVGeometryUnion@Gu@0@@Z 10066430 f i GuCCDSweepConvexMesh.obj
 0001:00065490       ??$checkType@$$CBUPxTriangleMeshGeometryLL@physx@@@physx@@YAXABVGeometryUnion@Gu@0@@Z 10066490 f i GuCCDSweepConvexMesh.obj
 0001:000654f0       ??$get@$$CBUPxHeightFieldGeometryLL@physx@@@GeometryUnion@Gu@physx@@QBEABUPxHeightFieldGeometryLL@2@XZ 100664f0 f i GuCCDSweepConvexMesh.obj
 0001:00065510       ??$get@$$CBUPxTriangleMeshGeometryLL@physx@@@GeometryUnion@Gu@physx@@QBEABUPxTriangleMeshGeometryLL@2@XZ 10066510 f i GuCCDSweepConvexMesh.obj
 0001:00065530       ??0?$Array@IV?$InlineAllocator@$0BAA@VNamedAllocator@shdfnd@physx@@@shdfnd@physx@@@shdfnd@physx@@QAE@ABV?$InlineAllocator@$0BAA@VNamedAllocator@shdfnd@physx@@@12@@Z 10066530 f i GuCCDSweepConvexMesh.obj
 0001:00065580       ??0?$Array@IVNamedAllocator@shdfnd@physx@@@shdfnd@physx@@QAE@IABIABVNamedAllocator@12@@Z 10066580 f i GuCCDSweepConvexMesh.obj
 0001:000655d0       ??0?$InlineAllocator@$0BAA@VNamedAllocator@shdfnd@physx@@@shdfnd@physx@@QAE@ABV012@@Z 100665d0 f i GuCCDSweepConvexMesh.obj
 0001:00065600       ??0?$InlineAllocator@$0BAA@VNamedAllocator@shdfnd@physx@@@shdfnd@physx@@QAE@ABVNamedAllocator@12@@Z 10066600 f i GuCCDSweepConvexMesh.obj
 0001:00065630       ??0?$InlineArray@I$0EA@VNamedAllocator@shdfnd@physx@@@shdfnd@physx@@QAE@ABVNamedAllocator@12@@Z 10066630 f i GuCCDSweepConvexMesh.obj
 0001:00065690       ??0HullPolygonData@Gu@physx@@QAE@XZ 10066690 f i GuCCDSweepConvexMesh.obj
 0001:000656b0       ??1?$Array@IV?$InlineAllocator@$0BAA@VNamedAllocator@shdfnd@physx@@@shdfnd@physx@@@shdfnd@physx@@QAE@XZ 100666b0 f i GuCCDSweepConvexMesh.obj
 0001:00065720       ??1?$InlineAllocator@$0BAA@VNamedAllocator@shdfnd@physx@@@shdfnd@physx@@QAE@XZ 10066720 f i GuCCDSweepConvexMesh.obj
 0001:00065740       ??1?$InlineArray@I$0EA@VNamedAllocator@shdfnd@physx@@@shdfnd@physx@@QAE@XZ 10066740 f i GuCCDSweepConvexMesh.obj
 0001:00065760       ?allocate@?$Array@IV?$InlineAllocator@$0BAA@VNamedAllocator@shdfnd@physx@@@shdfnd@physx@@@shdfnd@physx@@IAEPAII@Z 10066760 f i GuCCDSweepConvexMesh.obj
 0001:000657d0       ?allocate@?$InlineAllocator@$0BAA@VNamedAllocator@shdfnd@physx@@@shdfnd@physx@@QAEPAXIPBDH@Z 100667d0 f i GuCCDSweepConvexMesh.obj
 0001:00065820       ?begin@?$Array@IV?$InlineAllocator@$0BAA@VNamedAllocator@shdfnd@physx@@@shdfnd@physx@@@shdfnd@physx@@QAEPAIXZ 10066820 f i GuCCDSweepConvexMesh.obj
 0001:00065840       ?capacity@?$Array@IV?$InlineAllocator@$0BAA@VNamedAllocator@shdfnd@physx@@@shdfnd@physx@@@shdfnd@physx@@QBEIXZ 10066840 f i GuCCDSweepConvexMesh.obj
 0001:00065860       ?capacityIncrement@?$Array@IV?$InlineAllocator@$0BAA@VNamedAllocator@shdfnd@physx@@@shdfnd@physx@@@shdfnd@physx@@IBEIXZ 10066860 f i GuCCDSweepConvexMesh.obj
 0001:000658a0       ?copy@?$Array@IV?$InlineAllocator@$0BAA@VNamedAllocator@shdfnd@physx@@@shdfnd@physx@@@shdfnd@physx@@KAXPAI0PBI@Z 100668a0 f i GuCCDSweepConvexMesh.obj
 0001:000658f0       ?create@?$Array@IV?$InlineAllocator@$0BAA@VNamedAllocator@shdfnd@physx@@@shdfnd@physx@@@shdfnd@physx@@KAXPAI0ABI@Z 100668f0 f i GuCCDSweepConvexMesh.obj
 0001:00065930       ?create@?$Array@IVNamedAllocator@shdfnd@physx@@@shdfnd@physx@@KAXPAI0ABI@Z 10066930 f i GuCCDSweepConvexMesh.obj
 0001:00065970       ?deallocate@?$Array@IV?$InlineAllocator@$0BAA@VNamedAllocator@shdfnd@physx@@@shdfnd@physx@@@shdfnd@physx@@IAEXPAX@Z 10066970 f i GuCCDSweepConvexMesh.obj
 0001:00065990       ?deallocate@?$InlineAllocator@$0BAA@VNamedAllocator@shdfnd@physx@@@shdfnd@physx@@QAEXPAX@Z 10066990 f i GuCCDSweepConvexMesh.obj
 0001:000659c0       ?destroy@?$Array@IV?$InlineAllocator@$0BAA@VNamedAllocator@shdfnd@physx@@@shdfnd@physx@@@shdfnd@physx@@KAXPAI0@Z 100669c0 f i GuCCDSweepConvexMesh.obj
 0001:000659e0       ?distancePointTriangleSquared@Gu@physx@@YAMABVPxVec3@2@000PAM1@Z 100669e0 f i GuCCDSweepConvexMesh.obj
 0001:00065a70       ?flipsNormal@FastVertex2ShapeScaling@Cm@physx@@QBE_NXZ 10066a70 f i GuCCDSweepConvexMesh.obj
 0001:00065a90       ?forceSize_Unsafe@?$Array@IV?$InlineAllocator@$0BAA@VNamedAllocator@shdfnd@physx@@@shdfnd@physx@@@shdfnd@physx@@QAEXI@Z 10066a90 f i GuCCDSweepConvexMesh.obj
 0001:00065af0       ?getTriangleVerts@TriangleVertexPointers@Gu@physx@@SAXPBVTriangleMesh@23@IAAVPxVec3@3@11@Z 10066af0 f i GuCCDSweepConvexMesh.obj
 0001:00065bf0       ?grow@?$Array@IV?$InlineAllocator@$0BAA@VNamedAllocator@shdfnd@physx@@@shdfnd@physx@@@shdfnd@physx@@IAEXI@Z 10066bf0 f i GuCCDSweepConvexMesh.obj
 0001:00065c50       ?growAndPushBack@?$Array@IV?$InlineAllocator@$0BAA@VNamedAllocator@shdfnd@physx@@@shdfnd@physx@@@shdfnd@physx@@IAEAAIABI@Z 10066c50 f i GuCCDSweepConvexMesh.obj
 0001:00065db0       ?include@PxBounds3@physx@@QAEXABVPxVec3@2@@Z 10066db0 f i GuCCDSweepConvexMesh.obj
 0001:00065e20       ?isEmpty@PxBounds3@physx@@QBE_NXZ 10066e20 f i GuCCDSweepConvexMesh.obj
 0001:00065e80       ?isInUserMemory@?$Array@IV?$InlineAllocator@$0BAA@VNamedAllocator@shdfnd@physx@@@shdfnd@physx@@@shdfnd@physx@@QBEIXZ 10066e80 f i GuCCDSweepConvexMesh.obj
 0001:00065ea0       ?isZero@PxVec3@physx@@QBE_NXZ 10066ea0 f i GuCCDSweepConvexMesh.obj
 0001:00065f00       ?pushBack@?$Array@IV?$InlineAllocator@$0BAA@VNamedAllocator@shdfnd@physx@@@shdfnd@physx@@@shdfnd@physx@@QAEAAIABI@Z 10066f00 f i GuCCDSweepConvexMesh.obj
 0001:00065f90       ?recreate@?$Array@IV?$InlineAllocator@$0BAA@VNamedAllocator@shdfnd@physx@@@shdfnd@physx@@@shdfnd@physx@@IAEXI@Z 10066f90 f i GuCCDSweepConvexMesh.obj
 0001:00066090       ?reserve@?$Array@IV?$InlineAllocator@$0BAA@VNamedAllocator@shdfnd@physx@@@shdfnd@physx@@@shdfnd@physx@@QAEXI@Z 10067090 f i GuCCDSweepConvexMesh.obj
 0001:000660c0       ?resize@?$Array@IV?$InlineAllocator@$0BAA@VNamedAllocator@shdfnd@physx@@@shdfnd@physx@@@shdfnd@physx@@QAEXIABI@Z 100670c0 f i GuCCDSweepConvexMesh.obj
 0001:00066150       ?resize@?$Array@IVNamedAllocator@shdfnd@physx@@@shdfnd@physx@@QAEXIABI@Z 10067150 f i GuCCDSweepConvexMesh.obj
 0001:000661c0       ?size@?$Array@IV?$InlineAllocator@$0BAA@VNamedAllocator@shdfnd@physx@@@shdfnd@physx@@@shdfnd@physx@@QBEIXZ 100671c0 f i GuCCDSweepConvexMesh.obj
 0001:000661e0       ?sweepAABBAABB@Gu@physx@@YAMABVPxVec3@2@00000@Z 100671e0 f i GuCCDSweepConvexMesh.obj
 0001:00066600       ?transformBoxOrthonormal@physx@@YA?AVBox@Gu@1@ABV231@ABVPxTransform@1@@Z 10067600 f i GuCCDSweepConvexMesh.obj
 0001:000666c0       ?SweepShapeShape@Gu@physx@@YAMABUCCDShape@12@0ABVPxTransform@2@111MAAVPxVec3@2@2MAAIM@Z 100676c0 f   GuCCDSweepPrimitives.obj
 0001:00066740       ?UnimplementedSweep@Gu@physx@@YAMABUCCDShape@12@0ABVPxTransform@2@111MAAVPxVec3@2@2MAAIM@Z 10067740 f   GuCCDSweepPrimitives.obj
 0001:00066750       ?UnimplementedTriangleSweep@Gu@physx@@YAMABVGeometryUnion@12@0ABVPxTransform@2@111MAAVPxVec3@2@2ABVFastVertex2ShapeScaling@Cm@2@AAVTriangleV@12@M@Z 10067750 f   GuCCDSweepPrimitives.obj
 0001:000667f0       ?SweepShapeTriangle@Gu@physx@@YAMABVGeometryUnion@12@0ABVPxTransform@2@111MAAVPxVec3@2@2ABVFastVertex2ShapeScaling@Cm@2@AAVTriangleV@12@M@Z 100677f0 f   GuCCDSweepPrimitives.obj
 0001:000686c0       ??$SweepGeomGeom@VCapsuleV@Gu@physx@@V123@@Gu@physx@@YAMABUCCDShape@01@0ABVPxTransform@1@111MAAVPxVec3@1@2MAAIM@Z 100696c0 f i GuCCDSweepPrimitives.obj
 0001:000687e0       ??$SweepGeomGeom@VCapsuleV@Gu@physx@@VBoxV@23@@Gu@physx@@YAMABUCCDShape@01@0ABVPxTransform@1@111MAAVPxVec3@1@2MAAIM@Z 100697e0 f i GuCCDSweepPrimitives.obj
 0001:000688f0       ??$SweepGeomGeom@VCapsuleV@Gu@physx@@VConvexHullV@23@@Gu@physx@@YAMABUCCDShape@01@0ABVPxTransform@1@111MAAVPxVec3@1@2MAAIM@Z 100698f0 f i GuCCDSweepPrimitives.obj
 0001:00068a10       ??$SweepGeomGeom@VBoxV@Gu@physx@@V123@@Gu@physx@@YAMABUCCDShape@01@0ABVPxTransform@1@111MAAVPxVec3@1@2MAAIM@Z 10069a10 f i GuCCDSweepPrimitives.obj
 0001:00068b20       ??$SweepGeomGeom@VBoxV@Gu@physx@@VConvexHullV@23@@Gu@physx@@YAMABUCCDShape@01@0ABVPxTransform@1@111MAAVPxVec3@1@2MAAIM@Z 10069b20 f i GuCCDSweepPrimitives.obj
 0001:00068c30       ??$SweepGeomGeom@VConvexHullV@Gu@physx@@V123@@Gu@physx@@YAMABUCCDShape@01@0ABVPxTransform@1@111MAAVPxVec3@1@2MAAIM@Z 10069c30 f i GuCCDSweepPrimitives.obj
 0001:00068d50       ??$SweepGeomTriangles@VCapsuleV@Gu@physx@@@Gu@physx@@YAMABVGeometryUnion@01@0ABVPxTransform@1@111MAAVPxVec3@1@2ABVFastVertex2ShapeScaling@Cm@1@AAVTriangleV@01@M@Z 10069d50 f i GuCCDSweepPrimitives.obj
 0001:00068e20       ??$SweepGeomTriangles@VBoxV@Gu@physx@@@Gu@physx@@YAMABVGeometryUnion@01@0ABVPxTransform@1@111MAAVPxVec3@1@2ABVFastVertex2ShapeScaling@Cm@1@AAVTriangleV@01@M@Z 10069e20 f i GuCCDSweepPrimitives.obj
 0001:00068ee0       ??$SweepGeomTriangles@VConvexHullV@Gu@physx@@@Gu@physx@@YAMABVGeometryUnion@01@0ABVPxTransform@1@111MAAVPxVec3@1@2ABVFastVertex2ShapeScaling@Cm@1@AAVTriangleV@01@M@Z 10069ee0 f i GuCCDSweepPrimitives.obj
 0001:00068fb0       ??$PX_UNUSED@VFastVertex2ShapeScaling@Cm@physx@@@@YAXABVFastVertex2ShapeScaling@Cm@physx@@@Z 10069fb0 f i GuCCDSweepPrimitives.obj
 0001:00068fc0       ??$PX_UNUSED@VTriangleV@Gu@physx@@@@YAXABVTriangleV@Gu@physx@@@Z 10069fc0 f i GuCCDSweepPrimitives.obj
 0001:00068fd0       ??$getRadius@VBoxV@Gu@physx@@@Gu@physx@@YAMABVPxGeometry@1@@Z 10069fd0 f i GuCCDSweepPrimitives.obj
 0001:00068fe0       ??$getRadius@VCapsuleV@Gu@physx@@@Gu@physx@@YAMABVPxGeometry@1@@Z 10069fe0 f i GuCCDSweepPrimitives.obj
 0001:00069040       ??$getRadius@VConvexHullV@Gu@physx@@@Gu@physx@@YAMABVPxGeometry@1@@Z 1006a040 f i GuCCDSweepPrimitives.obj
 0001:00069050       ??$gjkPenetration@U?$RelativeConvex@VCapsuleV@Gu@physx@@@Gu@physx@@U?$LocalConvex@VBoxV@Gu@physx@@@23@@Gu@physx@@YA?AW4GjkStatus@01@ABU?$RelativeConvex@VCapsuleV@Gu@physx@@@01@ABU?$LocalConvex@VBoxV@Gu@physx@@@01@ABT__m128@@2_NPIAE4AAEAAUGjkOutput@01@@Z 1006a050 f i GuCCDSweepPrimitives.obj
 0001:00069b20       ??$gjkPenetration@U?$RelativeConvex@VCapsuleV@Gu@physx@@@Gu@physx@@U?$LocalConvex@VCapsuleV@Gu@physx@@@23@@Gu@physx@@YA?AW4GjkStatus@01@ABU?$RelativeConvex@VCapsuleV@Gu@physx@@@01@ABU?$LocalConvex@VCapsuleV@Gu@physx@@@01@ABT__m128@@2_NPIAE4AAEAAUGjkOutput@01@@Z 1006ab20 f i GuCCDSweepPrimitives.obj
 0001:0006a5f0       ??$gjkPenetration@U?$RelativeConvex@VCapsuleV@Gu@physx@@@Gu@physx@@U?$LocalConvex@VConvexHullV@Gu@physx@@@23@@Gu@physx@@YA?AW4GjkStatus@01@ABU?$RelativeConvex@VCapsuleV@Gu@physx@@@01@ABU?$LocalConvex@VConvexHullV@Gu@physx@@@01@ABT__m128@@2_NPIAE4AAEAAUGjkOutput@01@@Z 1006b5f0 f i GuCCDSweepPrimitives.obj
 0001:0006b0c0       ??$gjkPenetration@U?$RelativeConvex@VTriangleV@Gu@physx@@@Gu@physx@@U?$LocalConvex@VBoxV@Gu@physx@@@23@@Gu@physx@@YA?AW4GjkStatus@01@ABU?$RelativeConvex@VTriangleV@Gu@physx@@@01@ABU?$LocalConvex@VBoxV@Gu@physx@@@01@ABT__m128@@2_NPIAE4AAEAAUGjkOutput@01@@Z 1006c0c0 f i GuCCDSweepPrimitives.obj
 0001:0006bb90       ??$gjkPenetration@U?$RelativeConvex@VTriangleV@Gu@physx@@@Gu@physx@@U?$LocalConvex@VCapsuleV@Gu@physx@@@23@@Gu@physx@@YA?AW4GjkStatus@01@ABU?$RelativeConvex@VTriangleV@Gu@physx@@@01@ABU?$LocalConvex@VCapsuleV@Gu@physx@@@01@ABT__m128@@2_NPIAE4AAEAAUGjkOutput@01@@Z 1006cb90 f i GuCCDSweepPrimitives.obj
 0001:0006c660       ??$gjkPenetration@U?$RelativeConvex@VTriangleV@Gu@physx@@@Gu@physx@@U?$LocalConvex@VConvexHullV@Gu@physx@@@23@@Gu@physx@@YA?AW4GjkStatus@01@ABU?$RelativeConvex@VTriangleV@Gu@physx@@@01@ABU?$LocalConvex@VConvexHullV@Gu@physx@@@01@ABT__m128@@2_NPIAE4AAEAAUGjkOutput@01@@Z 1006d660 f i GuCCDSweepPrimitives.obj
 0001:0006d130       ??$gjkRaycast@U?$RelativeConvex@VCapsuleV@Gu@physx@@@Gu@physx@@U?$LocalConvex@VBoxV@Gu@physx@@@23@@Gu@physx@@YA_NABU?$RelativeConvex@VCapsuleV@Gu@physx@@@01@ABU?$LocalConvex@VBoxV@Gu@physx@@@01@ABT__m128@@222AAT4@33M@Z 1006e130 f i GuCCDSweepPrimitives.obj
 0001:0006dd30       ??$gjkRaycast@U?$RelativeConvex@VCapsuleV@Gu@physx@@@Gu@physx@@U?$LocalConvex@VCapsuleV@Gu@physx@@@23@@Gu@physx@@YA_NABU?$RelativeConvex@VCapsuleV@Gu@physx@@@01@ABU?$LocalConvex@VCapsuleV@Gu@physx@@@01@ABT__m128@@222AAT4@33M@Z 1006ed30 f i GuCCDSweepPrimitives.obj
 0001:0006e930       ??$gjkRaycast@U?$RelativeConvex@VCapsuleV@Gu@physx@@@Gu@physx@@U?$LocalConvex@VConvexHullV@Gu@physx@@@23@@Gu@physx@@YA_NABU?$RelativeConvex@VCapsuleV@Gu@physx@@@01@ABU?$LocalConvex@VConvexHullV@Gu@physx@@@01@ABT__m128@@222AAT4@33M@Z 1006f930 f i GuCCDSweepPrimitives.obj
 0001:0006f530       ??$gjkRaycast@U?$RelativeConvex@VTriangleV@Gu@physx@@@Gu@physx@@U?$LocalConvex@VBoxV@Gu@physx@@@23@@Gu@physx@@YA_NABU?$RelativeConvex@VTriangleV@Gu@physx@@@01@ABU?$LocalConvex@VBoxV@Gu@physx@@@01@ABT__m128@@222AAT4@33M@Z 10070530 f i GuCCDSweepPrimitives.obj
 0001:00070130       ??$gjkRaycast@U?$RelativeConvex@VTriangleV@Gu@physx@@@Gu@physx@@U?$LocalConvex@VCapsuleV@Gu@physx@@@23@@Gu@physx@@YA_NABU?$RelativeConvex@VTriangleV@Gu@physx@@@01@ABU?$LocalConvex@VCapsuleV@Gu@physx@@@01@ABT__m128@@222AAT4@33M@Z 10071130 f i GuCCDSweepPrimitives.obj
 0001:00070d30       ??$gjkRaycast@U?$RelativeConvex@VTriangleV@Gu@physx@@@Gu@physx@@U?$LocalConvex@VConvexHullV@Gu@physx@@@23@@Gu@physx@@YA_NABU?$RelativeConvex@VTriangleV@Gu@physx@@@01@ABU?$LocalConvex@VConvexHullV@Gu@physx@@@01@ABT__m128@@222AAT4@33M@Z 10071d30 f i GuCCDSweepPrimitives.obj
 0001:00071930       ??$gjkRaycastPenetration@U?$RelativeConvex@VCapsuleV@Gu@physx@@@Gu@physx@@U?$LocalConvex@VBoxV@Gu@physx@@@23@@Gu@physx@@YA_NABU?$RelativeConvex@VCapsuleV@Gu@physx@@@01@ABU?$LocalConvex@VBoxV@Gu@physx@@@01@ABT__m128@@222AAT4@33M_N@Z 10072930 f i GuCCDSweepPrimitives.obj
 0001:00071bf0       ??$gjkRaycastPenetration@U?$RelativeConvex@VCapsuleV@Gu@physx@@@Gu@physx@@U?$LocalConvex@VCapsuleV@Gu@physx@@@23@@Gu@physx@@YA_NABU?$RelativeConvex@VCapsuleV@Gu@physx@@@01@ABU?$LocalConvex@VCapsuleV@Gu@physx@@@01@ABT__m128@@222AAT4@33M_N@Z 10072bf0 f i GuCCDSweepPrimitives.obj
 0001:00071eb0       ??$gjkRaycastPenetration@U?$RelativeConvex@VCapsuleV@Gu@physx@@@Gu@physx@@U?$LocalConvex@VConvexHullV@Gu@physx@@@23@@Gu@physx@@YA_NABU?$RelativeConvex@VCapsuleV@Gu@physx@@@01@ABU?$LocalConvex@VConvexHullV@Gu@physx@@@01@ABT__m128@@222AAT4@33M_N@Z 10072eb0 f i GuCCDSweepPrimitives.obj
 0001:00072170       ??$gjkRaycastPenetration@U?$RelativeConvex@VTriangleV@Gu@physx@@@Gu@physx@@U?$LocalConvex@VBoxV@Gu@physx@@@23@@Gu@physx@@YA_NABU?$RelativeConvex@VTriangleV@Gu@physx@@@01@ABU?$LocalConvex@VBoxV@Gu@physx@@@01@ABT__m128@@222AAT4@33M_N@Z 10073170 f i GuCCDSweepPrimitives.obj
 0001:00072430       ??$gjkRaycastPenetration@U?$RelativeConvex@VTriangleV@Gu@physx@@@Gu@physx@@U?$LocalConvex@VCapsuleV@Gu@physx@@@23@@Gu@physx@@YA_NABU?$RelativeConvex@VTriangleV@Gu@physx@@@01@ABU?$LocalConvex@VCapsuleV@Gu@physx@@@01@ABT__m128@@222AAT4@33M_N@Z 10073430 f i GuCCDSweepPrimitives.obj
 0001:000726f0       ??$gjkRaycastPenetration@U?$RelativeConvex@VTriangleV@Gu@physx@@@Gu@physx@@U?$LocalConvex@VConvexHullV@Gu@physx@@@23@@Gu@physx@@YA_NABU?$RelativeConvex@VTriangleV@Gu@physx@@@01@ABU?$LocalConvex@VConvexHullV@Gu@physx@@@01@ABT__m128@@222AAT4@33M_N@Z 100736f0 f i GuCCDSweepPrimitives.obj
 0001:000729b0       ??0?$RelativeConvex@VCapsuleV@Gu@physx@@@Gu@physx@@QAE@ABVCapsuleV@12@ABVPsMatTransformV@aos@shdfnd@2@@Z 100739b0 f i GuCCDSweepPrimitives.obj
 0001:00072a10       ??0?$RelativeConvex@VTriangleV@Gu@physx@@@Gu@physx@@QAE@ABVTriangleV@12@ABVPsMatTransformV@aos@shdfnd@2@@Z 10073a10 f i GuCCDSweepPrimitives.obj
 0001:00072a70       ??0BoxV@Gu@physx@@QAE@ABVPxGeometry@2@@Z 10073a70 f i GuCCDSweepPrimitives.obj
 0001:00072b20       ??0CapsuleV@Gu@physx@@QAE@ABVPxGeometry@2@@Z 10073b20 f i GuCCDSweepPrimitives.obj
 0001:00072c50       ??0ConvexHullV@Gu@physx@@QAE@ABVPxGeometry@2@@Z 10073c50 f i GuCCDSweepPrimitives.obj
 0001:00072d90       ??1?$RelativeConvex@VCapsuleV@Gu@physx@@@Gu@physx@@UAE@XZ 10073d90 f i GuCCDSweepPrimitives.obj
 0001:00072db0       ??1?$RelativeConvex@VTriangleV@Gu@physx@@@Gu@physx@@UAE@XZ 10073db0 f i GuCCDSweepPrimitives.obj
 0001:00072dd0       ??_G?$RelativeConvex@VCapsuleV@Gu@physx@@@Gu@physx@@UAEPAXI@Z 10073dd0 f i GuCCDSweepPrimitives.obj
 0001:00072dd0       ??_E?$RelativeConvex@VCapsuleV@Gu@physx@@@Gu@physx@@UAEPAXI@Z 10073dd0 f i GuCCDSweepPrimitives.obj
 0001:00072e00       ??_E?$RelativeConvex@VTriangleV@Gu@physx@@@Gu@physx@@UAEPAXI@Z 10073e00 f i GuCCDSweepPrimitives.obj
 0001:00072e00       ??_G?$RelativeConvex@VTriangleV@Gu@physx@@@Gu@physx@@UAEPAXI@Z 10073e00 f i GuCCDSweepPrimitives.obj
 0001:00072e30       ?QuatVLoadA@aos@shdfnd@physx@@YA?AT__m128@@PBM@Z 10073e30 f i GuCCDSweepPrimitives.obj
 0001:00072e70       ?V3LoadA@aos@shdfnd@physx@@YA?AT__m128@@PBM@Z 10073e70 f i GuCCDSweepPrimitives.obj
 0001:00072f00       ?V4LoadA@aos@shdfnd@physx@@YA?AT__m128@@QBM@Z 10073f00 f i GuCCDSweepPrimitives.obj
 0001:00072f80       ?getCenter@?$RelativeConvex@VCapsuleV@Gu@physx@@@Gu@physx@@UBE?AT__m128@@XZ 10073f80 f i GuCCDSweepPrimitives.obj
 0001:00072fd0       ?getCenter@?$RelativeConvex@VTriangleV@Gu@physx@@@Gu@physx@@UBE?AT__m128@@XZ 10073fd0 f i GuCCDSweepPrimitives.obj
 0001:00073020       ?getGjkConvex@?$RelativeConvex@VCapsuleV@Gu@physx@@@Gu@physx@@QBE?AU123@XZ 10074020 f i GuCCDSweepPrimitives.obj
 0001:00073050       ?getGjkConvex@?$RelativeConvex@VTriangleV@Gu@physx@@@Gu@physx@@QBE?AU123@XZ 10074050 f i GuCCDSweepPrimitives.obj
 0001:00073080       ?getSweepMargin@?$RelativeConvex@VCapsuleV@Gu@physx@@@Gu@physx@@UBE?AT__m128@@XZ 10074080 f i GuCCDSweepPrimitives.obj
 0001:000730b0       ?getSweepMargin@?$RelativeConvex@VTriangleV@Gu@physx@@@Gu@physx@@UBE?AT__m128@@XZ 100740b0 f i GuCCDSweepPrimitives.obj
 0001:000730e0       ?support@?$RelativeConvex@VCapsuleV@Gu@physx@@@Gu@physx@@UBE?AT__m128@@ABT4@@Z 100740e0 f i GuCCDSweepPrimitives.obj
 0001:00073120       ?support@?$RelativeConvex@VCapsuleV@Gu@physx@@@Gu@physx@@UBE?AT__m128@@ABT4@AAH@Z 10074120 f i GuCCDSweepPrimitives.obj
 0001:00073160       ?support@?$RelativeConvex@VTriangleV@Gu@physx@@@Gu@physx@@UBE?AT__m128@@ABT4@@Z 10074160 f i GuCCDSweepPrimitives.obj
 0001:000731a0       ?support@?$RelativeConvex@VTriangleV@Gu@physx@@@Gu@physx@@UBE?AT__m128@@ABT4@AAH@Z 100741a0 f i GuCCDSweepPrimitives.obj
 0001:000731e0       ?supportPoint@?$RelativeConvex@VCapsuleV@Gu@physx@@@Gu@physx@@UBE?AT__m128@@H@Z 100741e0 f i GuCCDSweepPrimitives.obj
 0001:00073230       ?supportPoint@?$RelativeConvex@VTriangleV@Gu@physx@@@Gu@physx@@UBE?AT__m128@@H@Z 10074230 f i GuCCDSweepPrimitives.obj
 0001:00073280       ?supportRelative@CapsuleV@Gu@physx@@QBE?AT__m128@@ABT4@ABVPsMatTransformV@aos@shdfnd@3@1@Z 10074280 f i GuCCDSweepPrimitives.obj
 0001:000732e0       ?supportRelative@CapsuleV@Gu@physx@@QBE?AT__m128@@ABT4@ABVPsMatTransformV@aos@shdfnd@3@1AAH@Z 100742e0 f i GuCCDSweepPrimitives.obj
 0001:00073340       ?supportRelative@TriangleV@Gu@physx@@QBE?AT__m128@@ABT4@ABVPsMatTransformV@aos@shdfnd@3@1@Z 10074340 f i GuCCDSweepPrimitives.obj
 0001:000733a0       ?supportRelative@TriangleV@Gu@physx@@QBE?AT__m128@@ABT4@ABVPsMatTransformV@aos@shdfnd@3@1AAH@Z 100743a0 f i GuCCDSweepPrimitives.obj
 0001:00073400       ?barycentricCoordinates@Gu@physx@@YAXABT__m128@@00AAT3@@Z 10074400 f   GuBarycentricCoordinates.obj
 0001:00073560       ?barycentricCoordinates@Gu@physx@@YAXABT__m128@@000AAT3@1@Z 10074560 f   GuBarycentricCoordinates.obj
 0001:000738b0       ?barycentricCoordinates@Gu@physx@@YAXABT__m128@@00AAT3@1@Z 100748b0 f   GuBarycentricCoordinates.obj
 0001:00073ab0       ?FIsEq@aos@shdfnd@physx@@YA?AT__m128@@T4@0@Z 10074ab0 f i GuBarycentricCoordinates.obj
 0001:00073b80       ?addAxis@SeparatingAxes@Gu@physx@@QAE_NABVPxVec3@3@@Z 10074b80 f   GuSeparatingAxes.obj
 0001:00073c80       ?contactBoxBox@Gu@physx@@YA_NABVGeometryUnion@12@0ABVPxTransform@2@1ABUNarrowPhaseParams@12@AAUCache@12@AAVContactBuffer@12@PAVRenderOutput@Cm@2@@Z 10074c80 f   GuContactBoxBox.obj
 0001:00076c30       ??$PX_UNUSED@PAVRenderOutput@Cm@physx@@@@YAXABQAVRenderOutput@Cm@physx@@@Z 10077c30 f i GuContactBoxBox.obj
 0001:00076c40       ??$checkType@$$CBVPxBoxGeometry@physx@@@physx@@YAXABVGeometryUnion@Gu@0@@Z 10077c40 f i GuContactBoxBox.obj
 0001:00076ca0       ??$get@$$CBVPxBoxGeometry@physx@@@GeometryUnion@Gu@physx@@QBEABVPxBoxGeometry@2@XZ 10077ca0 f i GuContactBoxBox.obj
 0001:00076cc0       ??0VertexInfo@@QAE@XZ      10077cc0 f i GuContactBoxBox.obj
 0001:00076ce0       ?contact@ContactBuffer@Gu@physx@@QAE_NABVPxVec3@3@0MI@Z 10077ce0 f i GuContactBoxBox.obj
 0001:00076e20       ?contactCapsuleBox@Gu@physx@@YA_NABVGeometryUnion@12@0ABVPxTransform@2@1ABUNarrowPhaseParams@12@AAUCache@12@AAVContactBuffer@12@PAVRenderOutput@Cm@2@@Z 10077e20 f   GuContactCapsuleBox.obj
 0001:00077e20       ??$PX_UNUSED@UCache@Gu@physx@@@@YAXABUCache@Gu@physx@@@Z 10078e20 f i GuContactCapsuleBox.obj
 0001:00077e30       ??$checkType@$$CBVPxCapsuleGeometry@physx@@@physx@@YAXABVGeometryUnion@Gu@0@@Z 10078e30 f i GuContactCapsuleBox.obj
 0001:00077ea0       ??$get@$$CBVPxCapsuleGeometry@physx@@@GeometryUnion@Gu@physx@@QBEABVPxCapsuleGeometry@2@XZ 10078ea0 f i GuContactCapsuleBox.obj
 0001:00077ec0       ?closestAxis@shdfnd@physx@@YAIABVPxVec3@2@AAI1@Z 10078ec0 f i GuContactCapsuleBox.obj
 0001:00077f90       ?makeFatEdge@shdfnd@physx@@YAXAAVPxVec3@2@0M@Z 10078f90 f i GuContactCapsuleBox.obj
 0001:00078050       ?contactCapsuleCapsule@Gu@physx@@YA_NABVGeometryUnion@12@0ABVPxTransform@2@1ABUNarrowPhaseParams@12@AAUCache@12@AAVContactBuffer@12@PAVRenderOutput@Cm@2@@Z 10079050 f   GuContactCapsuleCapsule.obj
 0001:00078960       ?contactCapsuleConvex@Gu@physx@@YA_NABVGeometryUnion@12@0ABVPxTransform@2@1ABUNarrowPhaseParams@12@AAUCache@12@AAVContactBuffer@12@PAVRenderOutput@Cm@2@@Z 10079960 f   GuContactCapsuleConvex.obj
 0001:00079e90       ??$checkType@$$CBUPxConvexMeshGeometryLL@physx@@@physx@@YAXABVGeometryUnion@Gu@0@@Z 1007ae90 f i GuContactCapsuleConvex.obj
 0001:00079ef0       ??$get@$$CBUPxConvexMeshGeometryLL@physx@@@GeometryUnion@Gu@physx@@QBEABUPxConvexMeshGeometryLL@2@XZ 1007aef0 f i GuContactCapsuleConvex.obj
 0001:00079f10       ??0ConvexEdge@Gu@physx@@QAE@XZ 1007af10 f i GuContactCapsuleConvex.obj
 0001:00079f80       ?contactCapsuleMesh@Gu@physx@@YA_NABVGeometryUnion@12@0ABVPxTransform@2@1ABUNarrowPhaseParams@12@AAUCache@12@AAVContactBuffer@12@PAVRenderOutput@Cm@2@@Z 1007af80 f   GuContactCapsuleMesh.obj
 0001:0007a180       ?contactCapsuleHeightfield@Gu@physx@@YA_NABVGeometryUnion@12@0ABVPxTransform@2@1ABUNarrowPhaseParams@12@AAUCache@12@AAVContactBuffer@12@PAVRenderOutput@Cm@2@@Z 1007b180 f   GuContactCapsuleMesh.obj
 0001:0007b790       ??0Capsule@Gu@physx@@QAE@ABVSegment@12@M@Z 1007c790 f i GuContactCapsuleMesh.obj
 0001:0007b7c0       ??0TrianglePadded@Gu@physx@@QAE@XZ 1007c7c0 f i GuContactCapsuleMesh.obj
 0001:0007b7e0       ??1TrianglePadded@Gu@physx@@QAE@XZ 1007c7e0 f i GuContactCapsuleMesh.obj
 0001:0007b800       ??4PxBounds3@physx@@QAEAAV01@$$QAV01@@Z 1007c800 f i GuContactCapsuleMesh.obj
 0001:0007b830       ?computeBarycentricPoint@shdfnd@physx@@YA?AVPxVec3@2@ABV32@00MM@Z 1007c830 f i GuContactCapsuleMesh.obj
 0001:0007b900       ?distanceSegmentTriangleSquared@Gu@physx@@YAMABVSegment@12@ABVPxVec3@2@11PAM22@Z 1007c900 f i GuContactCapsuleMesh.obj
 0001:0007b940       ?getNextIndex3@shdfnd@physx@@YAII@Z 1007c940 f i GuContactCapsuleMesh.obj
 0001:0007b960       ?getScaledVertices@Cm@physx@@YAXPAVPxVec3@2@ABV32@11_NABVFastVertex2ShapeScaling@12@@Z 1007c960 f i GuContactCapsuleMesh.obj
 0001:0007ba40       ?intersectRayTriangleCulling@Gu@physx@@YA_NABVPxVec3@2@0000AAM11M@Z 1007ca40 f i GuContactCapsuleMesh.obj
 0001:0007ba80       ?normal@PxTriangle@physx@@QBEXAAVPxVec3@2@@Z 1007ca80 f i GuContactCapsuleMesh.obj
 0001:0007baf0       ?transformFast@PxBounds3@physx@@SA?AV12@ABVPxTransform@2@ABV12@@Z 1007caf0 f i GuContactCapsuleMesh.obj
 0001:0007bb70       ?transformQueryBounds@FastVertex2ShapeScaling@Cm@physx@@QBEXAAVPxVec3@3@0AAVPxMat33@3@@Z 1007cb70 f i GuContactCapsuleMesh.obj
 0001:0007bc60       ?contactBoxConvex@Gu@physx@@YA_NABVGeometryUnion@12@0ABVPxTransform@2@1ABUNarrowPhaseParams@12@AAUCache@12@AAVContactBuffer@12@PAVRenderOutput@Cm@2@@Z 1007cc60 f   GuContactConvexConvex.obj
 0001:0007bd70       ?contactConvexConvex@Gu@physx@@YA_NABVGeometryUnion@12@0ABVPxTransform@2@1ABUNarrowPhaseParams@12@AAUCache@12@AAVContactBuffer@12@PAVRenderOutput@Cm@2@@Z 1007cd70 f   GuContactConvexConvex.obj
 0001:0007df60       ??0Matrix34@Cm@physx@@QAE@ABVPxVec3@2@000@Z 1007ef60 f i GuContactConvexConvex.obj
 0001:0007dfa0       ??4PxPlane@physx@@QAEAAV01@$$QAV01@@Z 1007efa0 f i GuContactConvexConvex.obj
 0001:0007dfd0       ??4PxTransform@physx@@QAEAAV01@$$QAV01@@Z 1007efd0 f i GuContactConvexConvex.obj
 0001:0007e000       ??LFastVertex2ShapeScaling@Cm@physx@@QBE?AVPxVec3@2@ABV32@@Z 1007f000 f i GuContactConvexConvex.obj
 0001:0007e030       ?BoxSupport@@YAXQBMABVPxVec3@physx@@QAM@Z 1007f030 f i GuContactConvexConvex.obj
 0001:0007e0e0       ?PxcMultiplyAdd3x4@@YAMIABVPxVec3@physx@@0ABVMatrix34@Cm@2@@Z 1007f0e0 f i GuContactConvexConvex.obj
 0001:0007e1c0       ?PxcMultiplySub3x4@@YAMIABVPxVec3@physx@@0ABVMatrix34@Cm@2@@Z 1007f1c0 f i GuContactConvexConvex.obj
 0001:0007e270       ?getMax@HullPolygonData@Gu@physx@@QBEMXZ 1007f270 f i GuContactConvexConvex.obj
 0001:0007e2a0       ?getMin@HullPolygonData@Gu@physx@@QBEMPIBVPxVec3@3@@Z 1007f2a0 f i GuContactConvexConvex.obj
 0001:0007e2d0       ?getPolygonVertexRefs@PolygonalData@Gu@physx@@QBEPBEABUHullPolygonData@23@@Z 1007f2d0 f i GuContactConvexConvex.obj
 0001:0007e2f0       ?set@Matrix34@Cm@physx@@QAEXABVPxQuat@3@@Z 1007f2f0 f i GuContactConvexConvex.obj
 0001:0007e330       ?contactBoxMesh@Gu@physx@@YA_NABVGeometryUnion@12@0ABVPxTransform@2@1ABUNarrowPhaseParams@12@AAUCache@12@AAVContactBuffer@12@PAVRenderOutput@Cm@2@@Z 1007f330 f   GuContactConvexMesh.obj
 0001:0007e430       ?contactConvexMesh@Gu@physx@@YA_NABVGeometryUnion@12@0ABVPxTransform@2@1ABUNarrowPhaseParams@12@AAUCache@12@AAVContactBuffer@12@PAVRenderOutput@Cm@2@@Z 1007f430 f   GuContactConvexMesh.obj
 0001:0007e510       ?contactBoxHeightfield@Gu@physx@@YA_NABVGeometryUnion@12@0ABVPxTransform@2@1ABUNarrowPhaseParams@12@AAUCache@12@AAVContactBuffer@12@PAVRenderOutput@Cm@2@@Z 1007f510 f   GuContactConvexMesh.obj
 0001:0007e600       ?contactConvexHeightfield@Gu@physx@@YA_NABVGeometryUnion@12@0ABVPxTransform@2@1ABUNarrowPhaseParams@12@AAUCache@12@AAVContactBuffer@12@PAVRenderOutput@Cm@2@@Z 1007f600 f   GuContactConvexMesh.obj
 0001:00081200       ??0?$Array@IV?$InlineAllocator@$0BBAA@VNamedAllocator@shdfnd@physx@@@shdfnd@physx@@@shdfnd@physx@@QAE@ABV?$InlineAllocator@$0BBAA@VNamedAllocator@shdfnd@physx@@@12@@Z 10082200 f i GuContactConvexMesh.obj
 0001:00081250       ??0?$CacheMap@UCachedEdge@Gu@physx@@$0IA@@Gu@physx@@QAE@XZ 10082250 f i GuContactConvexMesh.obj
 0001:000812b0       ??0?$CacheMap@UCachedVertex@Gu@physx@@$0IA@@Gu@physx@@QAE@XZ 100822b0 f i GuContactConvexMesh.obj
 0001:00081310       ??0?$InlineAllocator@$0BBAA@VNamedAllocator@shdfnd@physx@@@shdfnd@physx@@QAE@ABV012@@Z 10082310 f i GuContactConvexMesh.obj
 0001:00081340       ??0?$InlineAllocator@$0BBAA@VNamedAllocator@shdfnd@physx@@@shdfnd@physx@@QAE@ABVNamedAllocator@12@@Z 10082340 f i GuContactConvexMesh.obj
 0001:00081370       ??0?$InlineArray@I$0EEA@VNamedAllocator@shdfnd@physx@@@shdfnd@physx@@QAE@ABVNamedAllocator@12@@Z 10082370 f i GuContactConvexMesh.obj
 0001:000813e0       ??0CachedEdge@Gu@physx@@QAE@II@Z 100823e0 f i GuContactConvexMesh.obj
 0001:00081420       ??0CachedEdge@Gu@physx@@QAE@XZ 10082420 f i GuContactConvexMesh.obj
 0001:00081430       ??0CachedVertex@Gu@physx@@QAE@I@Z 10082430 f i GuContactConvexMesh.obj
 0001:00081450       ??0CachedVertex@Gu@physx@@QAE@XZ 10082450 f i GuContactConvexMesh.obj
 0001:00081460       ??0ConvexMeshContactGenerationCallback@@QAE@AAV?$InlineArray@I$0EEA@VNamedAllocator@shdfnd@physx@@@shdfnd@physx@@ABVPxTransform@3@1ABUPolygonalData@Gu@3@ABVMatrix34@Cm@3@3PBVTriangleMesh@63@PIBEABVFastVertex2ShapeScaling@83@6MM_N7M11AAVContactBuffer@63@ABVBoxPadded@63@@Z 10082460 f i GuContactConvexMesh.obj
 0001:00081520       ??0Matrix34@Cm@physx@@QAE@ABV012@@Z 10082520 f i GuContactConvexMesh.obj
 0001:00081550       ??0PxPlane@physx@@QAE@ABVPxVec3@1@00@Z 10082550 f i GuContactConvexMesh.obj
 0001:000815d0       ??1?$Array@IV?$InlineAllocator@$0BBAA@VNamedAllocator@shdfnd@physx@@@shdfnd@physx@@@shdfnd@physx@@QAE@XZ 100825d0 f i GuContactConvexMesh.obj
 0001:00081640       ??1?$InlineAllocator@$0BBAA@VNamedAllocator@shdfnd@physx@@@shdfnd@physx@@QAE@XZ 10082640 f i GuContactConvexMesh.obj
 0001:00081660       ??1?$InlineArray@I$0EEA@VNamedAllocator@shdfnd@physx@@@shdfnd@physx@@QAE@XZ 10082660 f i GuContactConvexMesh.obj
 0001:00081680       ??1ConvexMeshContactGenerationCallback@@UAE@XZ 10082680 f i GuContactConvexMesh.obj
 0001:000816a0       ??8CachedEdge@Gu@physx@@QBE_NABU012@@Z 100826a0 f i GuContactConvexMesh.obj
 0001:000816e0       ??8CachedVertex@Gu@physx@@QBE_NABU012@@Z 100826e0 f i GuContactConvexMesh.obj
 0001:00081710       ??_EConvexMeshContactGenerationCallback@@UAEPAXI@Z 10082710 f i GuContactConvexMesh.obj
 0001:00081710       ??_GConvexMeshContactGenerationCallback@@UAEPAXI@Z 10082710 f i GuContactConvexMesh.obj
 0001:00081750       ?addData@?$CacheMap@UCachedEdge@Gu@physx@@$0IA@@Gu@physx@@QAE_NABUCachedEdge@23@@Z 10082750 f i GuContactConvexMesh.obj
 0001:00081890       ?addData@?$CacheMap@UCachedVertex@Gu@physx@@$0IA@@Gu@physx@@QAE_NABUCachedVertex@23@@Z 10082890 f i GuContactConvexMesh.obj
 0001:000819c0       ?allocate@?$Array@IV?$InlineAllocator@$0BBAA@VNamedAllocator@shdfnd@physx@@@shdfnd@physx@@@shdfnd@physx@@IAEPAII@Z 100829c0 f i GuContactConvexMesh.obj
 0001:00081a30       ?allocate@?$InlineAllocator@$0BBAA@VNamedAllocator@shdfnd@physx@@@shdfnd@physx@@QAEPAXIPBDH@Z 10082a30 f i GuContactConvexMesh.obj
 0001:00081a80       ?begin@?$Array@IV?$InlineAllocator@$0BBAA@VNamedAllocator@shdfnd@physx@@@shdfnd@physx@@@shdfnd@physx@@QAEPAIXZ 10082a80 f i GuContactConvexMesh.obj
 0001:00081aa0       ?capacity@?$Array@IV?$InlineAllocator@$0BBAA@VNamedAllocator@shdfnd@physx@@@shdfnd@physx@@@shdfnd@physx@@QBEIXZ 10082aa0 f i GuContactConvexMesh.obj
 0001:00081ac0       ?contains@?$CacheMap@UCachedEdge@Gu@physx@@$0IA@@Gu@physx@@QBE_NABUCachedEdge@23@@Z 10082ac0 f i GuContactConvexMesh.obj
 0001:00081b40       ?contains@?$CacheMap@UCachedVertex@Gu@physx@@$0IA@@Gu@physx@@QBE_NABUCachedVertex@23@@Z 10082b40 f i GuContactConvexMesh.obj
 0001:00081bc0       ?copy@?$Array@IV?$InlineAllocator@$0BBAA@VNamedAllocator@shdfnd@physx@@@shdfnd@physx@@@shdfnd@physx@@KAXPAI0PBI@Z 10082bc0 f i GuContactConvexMesh.obj
 0001:00081c10       ?deallocate@?$Array@IV?$InlineAllocator@$0BBAA@VNamedAllocator@shdfnd@physx@@@shdfnd@physx@@@shdfnd@physx@@IAEXPAX@Z 10082c10 f i GuContactConvexMesh.obj
 0001:00081c30       ?deallocate@?$InlineAllocator@$0BBAA@VNamedAllocator@shdfnd@physx@@@shdfnd@physx@@QAEXPAX@Z 10082c30 f i GuContactConvexMesh.obj
 0001:00081c60       ?destroy@?$Array@IV?$InlineAllocator@$0BBAA@VNamedAllocator@shdfnd@physx@@@shdfnd@physx@@@shdfnd@physx@@KAXPAI0@Z 10082c60 f i GuContactConvexMesh.obj
 0001:00081c80       ?end@?$Array@IV?$InlineAllocator@$0BBAA@VNamedAllocator@shdfnd@physx@@@shdfnd@physx@@@shdfnd@physx@@QAEPAIXZ 10082c80 f i GuContactConvexMesh.obj
 0001:00081ca0       ?forceSize_Unsafe@?$Array@IV?$InlineAllocator@$0BBAA@VNamedAllocator@shdfnd@physx@@@shdfnd@physx@@@shdfnd@physx@@QAEXI@Z 10082ca0 f i GuContactConvexMesh.obj
 0001:00081d00       ?getHashCode@CachedEdge@Gu@physx@@QBEIXZ 10082d00 f i GuContactConvexMesh.obj
 0001:00081d30       ?getHashCode@CachedVertex@Gu@physx@@QBEIXZ 10082d30 f i GuContactConvexMesh.obj
 0001:00081d40       ?grow@?$Array@IV?$InlineAllocator@$0BBAA@VNamedAllocator@shdfnd@physx@@@shdfnd@physx@@@shdfnd@physx@@IAEXI@Z 10082d40 f i GuContactConvexMesh.obj
 0001:00081da0       ?isInUserMemory@?$Array@IV?$InlineAllocator@$0BBAA@VNamedAllocator@shdfnd@physx@@@shdfnd@physx@@@shdfnd@physx@@QBEIXZ 10082da0 f i GuContactConvexMesh.obj
 0001:00081dc0       ?processHit@ConvexMeshContactGenerationCallback@@UAE_NABUPxRaycastHit@physx@@ABVPxVec3@3@11AAMPBI@Z 10082dc0 f i GuContactConvexMesh.obj
 0001:00081e80       ?recreate@?$Array@IV?$InlineAllocator@$0BBAA@VNamedAllocator@shdfnd@physx@@@shdfnd@physx@@@shdfnd@physx@@IAEXI@Z 10082e80 f i GuContactConvexMesh.obj
 0001:00081f80       ?reserve@?$Array@IV?$InlineAllocator@$0BBAA@VNamedAllocator@shdfnd@physx@@@shdfnd@physx@@@shdfnd@physx@@QAEXI@Z 10082f80 f i GuContactConvexMesh.obj
 0001:00081fb0       ?size@?$Array@IV?$InlineAllocator@$0BBAA@VNamedAllocator@shdfnd@physx@@@shdfnd@physx@@@shdfnd@physx@@QBEIXZ 10082fb0 f i GuContactConvexMesh.obj
 0001:00081fd0       ?contactPlaneBox@Gu@physx@@YA_NABVGeometryUnion@12@0ABVPxTransform@2@1ABUNarrowPhaseParams@12@AAUCache@12@AAVContactBuffer@12@PAVRenderOutput@Cm@2@@Z 10082fd0 f   GuContactPlaneBox.obj
 0001:000826b0       ??$PxUnionCast@PAIPAM@physx@@YAPAIPAM@Z 100836b0 f i GuContactPlaneBox.obj
 0001:000826d0       ??0AB@?1???$PxUnionCast@PAIPAM@physx@@YAPAIPAM@Z@QAE@0@Z 100836d0 f i GuContactPlaneBox.obj
 0001:000826f0       ?contactPlaneCapsule@Gu@physx@@YA_NABVGeometryUnion@12@0ABVPxTransform@2@1ABUNarrowPhaseParams@12@AAUCache@12@AAVContactBuffer@12@PAVRenderOutput@Cm@2@@Z 100836f0 f   GuContactPlaneCapsule.obj
 0001:000828a0       ?contactPlaneConvex@Gu@physx@@YA_NABVGeometryUnion@12@0ABVPxTransform@2@1ABUNarrowPhaseParams@12@AAUCache@12@AAVContactBuffer@12@PAVRenderOutput@Cm@2@@Z 100838a0 f   GuContactPlaneConvex.obj
 0001:00082a80       ??AMatrix34@Cm@physx@@QAEAAVPxVec3@2@H@Z 10083a80 f i GuContactPlaneConvex.obj
 0001:00082aa0       ?contact@ContactBuffer@Gu@physx@@QAEPAUContactPoint@23@XZ 10083aa0 f i GuContactPlaneConvex.obj
 0001:00082af0       ?getVertex2ShapeSkew@FastVertex2ShapeScaling@Cm@physx@@QBEABVPxMat33@3@XZ 10083af0 f i GuContactPlaneConvex.obj
 0001:00082b50       ?findRotationMatrixFromZ@Gu@physx@@YA?AVPxMat33@2@ABVPxVec3@2@@Z 10083b50 f   GuContactPolygonPolygon.obj
 0001:00083180       ?contactPolygonPolygonExt@Gu@physx@@YA_NIPBVPxVec3@2@PBEABVMatrix34@Cm@2@ABVPxPlane@2@ABVPxMat33@2@I01234ABV32@22IIAAVContactBuffer@12@_N5M@Z 10084180 f   GuContactPolygonPolygon.obj
 0001:00084970       ??4ContactPoint@Gu@physx@@QAEAAU012@ABU012@@Z 10085970 f i GuContactPolygonPolygon.obj
 0001:00084a20       ??RPxMat33@physx@@QAEAAMII@Z 10085a20 f i GuContactPolygonPolygon.obj
 0001:00084a50       ?EdgeEdgeContactSpecial@@YA_NABVPxVec3@physx@@ABVPxPlane@2@00000AAMAAV12@IIM@Z 10085a50 f i GuContactPolygonPolygon.obj
 0001:00084c50       ?cross001@shdfnd@physx@@YA?AVPxVec3@2@ABV32@@Z 10085c50 f i GuContactPolygonPolygon.obj
 0001:00084c90       ?degToRad@shdfnd@physx@@YAMM@Z 10085c90 f i GuContactPolygonPolygon.obj
 0001:00084cb0       ?pointInTriangle2D@@YA_NMMMMMMMM@Z 10085cb0 f i GuContactPolygonPolygon.obj
 0001:00084e10       ?transform2D@@YAXAAM0ABVPxVec3@physx@@ABVMatrix34@Cm@2@@Z 10085e10 f i GuContactPolygonPolygon.obj
 0001:00084ea0       ?transform2DT@@YAXAAM0ABVPxVec3@physx@@ABVPxMat33@2@@Z 10085ea0 f i GuContactPolygonPolygon.obj
 0001:00084ed0       ?transformTranspose@@YA?AVMatrix34@Cm@physx@@ABVPxMat33@3@ABV123@@Z 10085ed0 f i GuContactPolygonPolygon.obj
 0001:00084f40       ?transformZ@@YAMABVPxVec3@physx@@ABVMatrix34@Cm@2@@Z 10085f40 f i GuContactPolygonPolygon.obj
 0001:00084f90       ?contactSphereBox@Gu@physx@@YA_NABVGeometryUnion@12@0ABVPxTransform@2@1ABUNarrowPhaseParams@12@AAUCache@12@AAVContactBuffer@12@PAVRenderOutput@Cm@2@@Z 10085f90 f   GuContactSphereBox.obj
 0001:000854e0       ??$checkType@$$CBVPxSphereGeometry@physx@@@physx@@YAXABVGeometryUnion@Gu@0@@Z 100864e0 f i GuContactSphereBox.obj
 0001:00085540       ??$get@$$CBVPxSphereGeometry@physx@@@GeometryUnion@Gu@physx@@QBEABVPxSphereGeometry@2@XZ 10086540 f i GuContactSphereBox.obj
 0001:000855b0       ?contactSphereCapsule@Gu@physx@@YA_NABVGeometryUnion@12@0ABVPxTransform@2@1ABUNarrowPhaseParams@12@AAUCache@12@AAVContactBuffer@12@PAVRenderOutput@Cm@2@@Z 100865b0 f   GuContactSphereCapsule.obj
 0001:00085800       ?contactSphereMesh@Gu@physx@@YA_NABVGeometryUnion@12@0ABVPxTransform@2@1ABUNarrowPhaseParams@12@AAUCache@12@AAVContactBuffer@12@PAVRenderOutput@Cm@2@@Z 10086800 f   GuContactSphereMesh.obj
 0001:00085a10       ?contactSphereHeightfield@Gu@physx@@YA_NABVGeometryUnion@12@0ABVPxTransform@2@1ABUNarrowPhaseParams@12@AAUCache@12@AAVContactBuffer@12@PAVRenderOutput@Cm@2@@Z 10086a10 f   GuContactSphereMesh.obj
 0001:000870e0       ??$median3@USortKey@@$$CBU?$Less@USortKey@@@shdfnd@physx@@@internal@shdfnd@physx@@YAXPAUSortKey@@HHABU?$Less@USortKey@@@12@@Z 100880e0 f i GuContactSphereMesh.obj
 0001:000871d0       ??$partition@USortKey@@$$CBU?$Less@USortKey@@@shdfnd@physx@@@internal@shdfnd@physx@@YAHPAUSortKey@@HHABU?$Less@USortKey@@@12@@Z 100881d0 f i GuContactSphereMesh.obj
 0001:00087340       ??$smallSort@USortKey@@$$CBU?$Less@USortKey@@@shdfnd@physx@@@internal@shdfnd@physx@@YAXPAUSortKey@@HHABU?$Less@USortKey@@@12@@Z 10088340 f i GuContactSphereMesh.obj
 0001:00087620       ??$swap@USortKey@@@shdfnd@physx@@YAXAAUSortKey@@0@Z 10088620 f i GuContactSphereMesh.obj
 0001:00087660       ??0?$ScopedPointer@HVTempAllocator@shdfnd@physx@@@shdfnd@physx@@QAE@XZ 10088660 f i GuContactSphereMesh.obj
 0001:00087680       ??0TempAllocator@shdfnd@physx@@QAE@PBD@Z 10088680 f i GuContactSphereMesh.obj
 0001:00087690       ??0TriangleData@@QAE@XZ    10088690 f i GuContactSphereMesh.obj
 0001:000876b0       ??1?$ScopedPointer@HVTempAllocator@shdfnd@physx@@@shdfnd@physx@@QAE@XZ 100886b0 f i GuContactSphereMesh.obj
 0001:000876e0       ??B?$ScopedPointer@HVTempAllocator@shdfnd@physx@@@shdfnd@physx@@QBEPAHXZ 100886e0 f i GuContactSphereMesh.obj
 0001:000876f0       ??MSortKey@@QBE_NABU0@@Z   100886f0 f i GuContactSphereMesh.obj
 0001:00087730       ??R?$Less@USortKey@@@shdfnd@physx@@QBE_NABUSortKey@@0@Z 10088730 f i GuContactSphereMesh.obj
 0001:00087750       ?contactSpherePlane@Gu@physx@@YA_NABVGeometryUnion@12@0ABVPxTransform@2@1ABUNarrowPhaseParams@12@AAUCache@12@AAVContactBuffer@12@PAVRenderOutput@Cm@2@@Z 10088750 f   GuContactSpherePlane.obj
 0001:00087820       ?contactSphereSphere@Gu@physx@@YA_NABVGeometryUnion@12@0ABVPxTransform@2@1ABUNarrowPhaseParams@12@AAUCache@12@AAVContactBuffer@12@PAVRenderOutput@Cm@2@@Z 10088820 f   GuContactSphereSphere.obj
 0001:000879a0       ?selectNormal@Gu@physx@@YA_NEMM@Z 100889a0 f   GuFeatureCode.obj
 0001:00087b50       ??0BigConvexData@physx@@QAE@XZ 10088b50 f   GuBigConvexData.obj
 0001:00087bb0       ??1BigConvexData@physx@@QAE@XZ 10088bb0 f   GuBigConvexData.obj
 0001:00087c30       ?Load@BigConvexData@physx@@QAE_NAAVPxInputStream@2@@Z 10088c30 f   GuBigConvexData.obj
 0001:00087d40       ?ComputeOffset@BigConvexData@physx@@QBEIABVPxVec3@2@@Z 10088d40 f   GuBigConvexData.obj
 0001:00087d60       ?ComputeNearestOffset@BigConvexData@physx@@QBEIABVPxVec3@2@@Z 10088d60 f   GuBigConvexData.obj
 0001:00087d80       ?exportExtraData@BigConvexData@physx@@QAEXAAVPxSerializationContext@2@@Z 10088d80 f   GuBigConvexData.obj
 0001:00087e20       ?importExtraData@BigConvexData@physx@@QAEXAAVPxDeserializationContext@2@@Z 10088e20 f   GuBigConvexData.obj
 0001:00087ea0       ?CreateOffsets@BigConvexData@physx@@IAEXXZ 10088ea0 f   GuBigConvexData.obj
 0001:00087f10       ?VLoad@BigConvexData@physx@@IAE_NAAVPxInputStream@2@@Z 10088f10 f   GuBigConvexData.obj
 0001:00088130       ??$readExtraData@E$0BA@@PxDeserializationContext@physx@@QAEPAEI@Z 10089130 f i GuBigConvexData.obj
 0001:00088160       ??$readExtraData@E@PxDeserializationContext@physx@@QAEPAEI@Z 10089160 f i GuBigConvexData.obj
 0001:00088190       ??$readExtraData@UValency@Gu@physx@@@PxDeserializationContext@physx@@QAEPAUValency@Gu@1@I@Z 10089190 f i GuBigConvexData.obj
 0001:000881c0       ?ComputeCubemapOffset@physx@@YAIABVPxVec3@1@I@Z 100891c0 f i GuBigConvexData.obj
 0001:00088290       ?getScaledConvex@Gu@physx@@YAXAAPAVPxVec3@2@AAPAEPAV32@PAE_NPBV32@PBEIABVFastVertex2ShapeScaling@Cm@2@@Z 10089290 f   GuConvexHelper.obj
 0001:00088330       ?getConvexData@Gu@physx@@YA_NABVGeometryUnion@12@AAVFastVertex2ShapeScaling@Cm@2@AAVPxBounds3@2@AAUPolygonalData@12@@Z 10089330 f   GuConvexHelper.obj
 0001:00088400       ?findUniqueConvexEdges@Gu@physx@@YAIIPIAUConvexEdge@12@IPIBUHullPolygonData@12@PIBE@Z 10089400 f   GuConvexHelper.obj
 0001:000885c0       ?isEmpty@CenterExtents@Gu@physx@@QBE_NXZ 100895c0 f i GuConvexHelper.obj
 0001:000885e0       ?isEmpty@Cm@physx@@YA_NABVPxVec3@2@0@Z 100895e0 f i GuConvexHelper.obj
 0001:00088660       ?isValid@CenterExtents@Gu@physx@@QBE_NXZ 10089660 f i GuConvexHelper.obj
 0001:00088680       ?isValid@Cm@physx@@YA_NABVPxVec3@2@0@Z 10089680 f i GuConvexHelper.obj
 0001:00088730       ?reset@InternalObjectsData@Gu@physx@@QAEXXZ 10089730 f i GuConvexHelper.obj
 0001:00088780       ?transformFast@CenterExtents@Gu@physx@@QBE?AVPxBounds3@3@ABVPxMat33@3@@Z 10089780 f i GuConvexHelper.obj
 0001:000888b0       ?exportExtraData@ConvexMesh@Gu@physx@@UAEXAAVPxSerializationContext@3@@Z 100898b0 f   GuConvexMesh.obj
 0001:00088940       ?importExtraData@ConvexMesh@Gu@physx@@QAEXAAVPxDeserializationContext@3@@Z 10089940 f   GuConvexMesh.obj
 0001:000889e0       ?onRefCountZero@ConvexMesh@Gu@physx@@UAEXXZ 100899e0 f   GuConvexMesh.obj
 0001:00088a60       ?createObject@ConvexMesh@Gu@physx@@SAPAV123@AAPAEAAVPxDeserializationContext@3@@Z 10089a60 f   GuConvexMesh.obj
 0001:00088ae0       ??0ConvexMesh@Gu@physx@@QAE@XZ 10089ae0 f   GuConvexMesh.obj
 0001:00088b80       ??0ConvexMesh@Gu@physx@@QAE@AAVGuMeshFactory@2@AAUConvexHullInitData@12@@Z 10089b80 f   GuConvexMesh.obj
 0001:00088c30       ?load@ConvexMesh@Gu@physx@@QAE_NAAVPxInputStream@3@@Z 10089c30 f   GuConvexMesh.obj
 0001:000890f0       ?release@ConvexMesh@Gu@physx@@UAEXXZ 1008a0f0 f   GuConvexMesh.obj
 0001:00089110       ?getPolygonData@ConvexMesh@Gu@physx@@UBE_NIAAUPxHullPolygon@3@@Z 1008a110 f   GuConvexMesh.obj
 0001:000891b0       ?isGpuCompatible@ConvexMesh@Gu@physx@@UBE_NXZ 1008a1b0 f   GuConvexMesh.obj
 0001:00089210       ?getReferenceCount@ConvexMesh@Gu@physx@@UBEIXZ 1008a210 f   GuConvexMesh.obj
 0001:00089230       ?acquireReference@ConvexMesh@Gu@physx@@UAEXXZ 1008a230 f   GuConvexMesh.obj
 0001:00089250       ?getMassInformation@ConvexMesh@Gu@physx@@UBEXAAMAAVPxMat33@3@AAVPxVec3@3@@Z 1008a250 f   GuConvexMesh.obj
 0001:00089290       ?getLocalBounds@ConvexMesh@Gu@physx@@UBE?AVPxBounds3@3@XZ 1008a290 f   GuConvexMesh.obj
 0001:00089310       ??1ConvexMesh@Gu@physx@@UAE@XZ 1008a310 f   GuConvexMesh.obj
 0001:00089a40       ??$PX_UNUSED@G@@YAXABG@Z   1008aa40 f i GuConvexMesh.obj
 0001:00089a50       ??$deletePxBase@VConvexMesh@Gu@physx@@@Cm@physx@@YAXPAVConvexMesh@Gu@1@@Z 1008aa50 f i GuConvexMesh.obj
 0001:00089ac0       ??$readExtraData@VBigConvexData@physx@@$0BA@@PxDeserializationContext@physx@@QAEPAVBigConvexData@1@I@Z 1008aac0 f i GuConvexMesh.obj
 0001:00089af0       ??$readExtraData@VBigConvexData@physx@@@PxDeserializationContext@physx@@QAEPAVBigConvexData@1@I@Z 1008aaf0 f i GuConvexMesh.obj
 0001:00089b20       ??0?$PxBitAndDataT@G$0IAAA@@physx@@QAE@G_N@Z 1008ab20 f i GuConvexMesh.obj
 0001:00089b60       ??0?$PxBitAndDataT@G$0IAAA@@physx@@QAE@W4PxEMPTY@1@@Z 1008ab60 f i GuConvexMesh.obj
 0001:00089b70       ??0?$PxBitAndDataT@G$0IAAA@@physx@@QAE@XZ 1008ab70 f i GuConvexMesh.obj
 0001:00089b90       ??0?$PxBitAndDataT@I$0IAAAAAAA@@physx@@QAE@I_N@Z 1008ab90 f i GuConvexMesh.obj
 0001:00089bd0       ??0?$PxBitAndDataT@I$0IAAAAAAA@@physx@@QAE@W4PxEMPTY@1@@Z 1008abd0 f i GuConvexMesh.obj
 0001:00089be0       ??0?$ReflectionAllocator@VBigConvexData@physx@@@shdfnd@physx@@QAE@PBD@Z 1008abe0 f i GuConvexMesh.obj
 0001:00089bf0       ??0CenterExtents@Gu@physx@@QAE@ABVPxBounds3@2@@Z 1008abf0 f i GuConvexMesh.obj
 0001:00089c50       ??0ConvexHullData@Gu@physx@@QAE@W4PxEMPTY@2@@Z 1008ac50 f i GuConvexMesh.obj
 0001:00089c80       ??0ConvexHullData@Gu@physx@@QAE@XZ 1008ac80 f i GuConvexMesh.obj
 0001:00089cb0       ??0ConvexMesh@Gu@physx@@QAE@V?$PxFlags@W4Enum@PxBaseFlag@physx@@G@2@@Z 1008acb0 f i GuConvexMesh.obj
 0001:00089d30       ??0PxBase@physx@@IAE@V?$PxFlags@W4Enum@PxBaseFlag@physx@@G@1@@Z 1008ad30 f i GuConvexMesh.obj
 0001:00089d60       ??0PxConvexMesh@physx@@IAE@GV?$PxFlags@W4Enum@PxBaseFlag@physx@@G@1@@Z 1008ad60 f i GuConvexMesh.obj
 0001:00089da0       ??0PxConvexMesh@physx@@IAE@V?$PxFlags@W4Enum@PxBaseFlag@physx@@G@1@@Z 1008ada0 f i GuConvexMesh.obj
 0001:00089dd0       ??0RefCountable@Cm@physx@@QAE@W4PxEMPTY@2@@Z 1008add0 f i GuConvexMesh.obj
 0001:00089e30       ??1ConvexHullData@Gu@physx@@QAE@XZ 1008ae30 f i GuConvexMesh.obj
 0001:00089e50       ??4ConvexHullData@Gu@physx@@QAEAAU012@ABU012@@Z 1008ae50 f i GuConvexMesh.obj
 0001:00089ee0       ??B?$PxBitAndDataT@I$0IAAAAAAA@@physx@@QBEIXZ 1008aee0 f i GuConvexMesh.obj
 0001:00089f00       ??_EConvexMesh@Gu@physx@@UAEPAXI@Z 1008af00 f i GuConvexMesh.obj
 0001:00089fb3       ??_EConvexMesh@Gu@physx@@W7AEPAXI@Z 1008afb3 f i GuConvexMesh.obj
 0001:00089fc0       ??_GBigConvexData@physx@@QAEPAXI@Z 1008afc0 f i GuConvexMesh.obj
 0001:0008a010       ?allocate@?$ReflectionAllocator@VBigConvexData@physx@@@shdfnd@physx@@QAEPAXIPBDH@Z 1008b010 f i GuConvexMesh.obj
 0001:0008a060       ?centerExtents@PxBounds3@physx@@SA?AV12@ABVPxVec3@2@0@Z 1008b060 f i GuConvexMesh.obj
 0001:0008a0a0       ?computeBufferSize@Gu@physx@@YAIABUConvexHullData@12@I@Z 1008b0a0 f i GuConvexMesh.obj
 0001:0008a160       ?flipData@Gu@physx@@YAXAAUHullPolygonData@12@@Z 1008b160 f i GuConvexMesh.obj
 0001:0008a1b0       ?getBufferSize@ConvexMesh@Gu@physx@@QBEIXZ 1008b1b0 f i GuConvexMesh.obj
 0001:0008a1e0       ?getInertia@ConvexMesh@Gu@physx@@QBEABVPxMat33@3@XZ 1008b1e0 f i GuConvexMesh.obj
 0001:0008a200       ?getMass@ConvexMesh@Gu@physx@@QBEMXZ 1008b200 f i GuConvexMesh.obj
 0001:0008a220       ?getName@?$ReflectionAllocator@VBigConvexData@physx@@@shdfnd@physx@@CAPBDXZ 1008b220 f i GuConvexMesh.obj
 0001:0008a260       ?getNb@ConvexMesh@Gu@physx@@ABEIXZ 1008b260 f i GuConvexMesh.obj
 0001:0008a280       ?incRefCount@RefCountable@Cm@physx@@QAEXXZ 1008b280 f i GuConvexMesh.obj
 0001:0008a2e0       ?requiresObjects@ConvexMesh@Gu@physx@@UAEXAAVPxProcessPxBaseCallback@3@@Z 1008b2e0 f i GuConvexMesh.obj
 0001:0008a2f0       ?resolveReferences@ConvexMesh@Gu@physx@@QAEXAAVPxDeserializationContext@3@@Z 1008b2f0 f i GuConvexMesh.obj
 0001:0008a300       ?setBit@?$PxBitAndDataT@I$0IAAAAAAA@@physx@@QAEXXZ 1008b300 f i GuConvexMesh.obj
 0001:0008a320       ?setEmpty@CenterExtents@Gu@physx@@QAEXXZ 1008b320 f i GuConvexMesh.obj
 0001:0008a350       ?BFFTF@aos@shdfnd@physx@@YA?AT__m128@@XZ 1008b350 f i GuConvexSupportTable.obj
 0001:0008a390       ?BFTFF@aos@shdfnd@physx@@YA?AT__m128@@XZ 1008b390 f i GuConvexSupportTable.obj
 0001:0008a3d0       ?BFTTF@aos@shdfnd@physx@@YA?AT__m128@@XZ 1008b3d0 f i GuConvexSupportTable.obj
 0001:0008a410       ?BTFFF@aos@shdfnd@physx@@YA?AT__m128@@XZ 1008b410 f i GuConvexSupportTable.obj
 0001:0008a450       ?BTFTF@aos@shdfnd@physx@@YA?AT__m128@@XZ 1008b450 f i GuConvexSupportTable.obj
 0001:0008a490       ?BTTFF@aos@shdfnd@physx@@YA?AT__m128@@XZ 1008b490 f i GuConvexSupportTable.obj
 0001:0008a4d0       ?computeHullOBB@Gu@physx@@YAXAAVBox@12@ABVPxBounds3@2@MABVMatrix34@Cm@2@2ABVFastVertex2ShapeScaling@62@_N@Z 1008b4d0 f   GuConvexUtilsInternal.obj
 0001:0008a580       ?computeVertexSpaceOBB@Gu@physx@@YAXAAVBox@12@ABV312@ABVPxTransform@2@ABVPxMeshScale@2@@Z 1008b580 f   GuConvexUtilsInternal.obj
 0001:0008a5f0       ?computeOBBAroundConvex@Gu@physx@@YAXAAVBox@12@ABVPxConvexMeshGeometry@2@PBVPxConvexMesh@2@ABVPxTransform@2@@Z 1008b5f0 f   GuConvexUtilsInternal.obj
 0001:0008a790       ??DMatrix34@Cm@physx@@QBE?AV012@ABVPxMat33@2@@Z 1008b790 f i GuConvexUtilsInternal.obj
 0001:0008a7d0       ??Dphysx@@YA?AVMatrix34@Cm@0@ABVPxMeshScale@0@ABV120@@Z 1008b7d0 f i GuConvexUtilsInternal.obj
 0001:0008a820       ?getLocalBoundsFast@ConvexMesh@Gu@physx@@QBEABVCenterExtents@23@XZ 1008b820 f i GuConvexUtilsInternal.obj
 0001:0008a840       ?transform@physx@@YA?AVBox@Gu@1@ABVMatrix34@Cm@1@ABV231@@Z 1008b840 f i GuConvexUtilsInternal.obj
 0001:0008a950       ?transformTranspose@Matrix34@Cm@physx@@QBE?AV123@ABV123@@Z 1008b950 f i GuConvexUtilsInternal.obj
 0001:0008a9d0       ?localSearch@physx@@YAXAAIABVPxVec3@1@PBV21@PBUBigConvexRawData@Gu@1@@Z 1008b9d0 f   GuHillClimbing.obj
 0001:0008ac70       ??0PolygonalBox@Gu@physx@@QAE@ABVPxVec3@2@@Z 1008bc70 f   GuShapeConvex.obj
 0001:0008b460       ?getPolygonalData@PolygonalBox@Gu@physx@@QBEXPIAUPolygonalData@23@@Z 1008c460 f   GuShapeConvex.obj
 0001:0008b550       ?getPolygonalData_Convex@Gu@physx@@YAXPIAUPolygonalData@12@PIBUConvexHullData@12@ABVFastVertex2ShapeScaling@Cm@2@@Z 1008c550 f   GuShapeConvex.obj
 0001:0008c060       ?getFacesByEdges8@ConvexHullData@Gu@physx@@QBEPBEXZ 1008d060 f i GuShapeConvex.obj
 0001:0008c0a0       ?distancePointBoxSquared@Gu@physx@@YAMABVPxVec3@2@00ABVPxMat33@2@PAV32@@Z 1008d0a0 f   GuDistancePointBox.obj
 0001:0008c2a0       ?closestPtPointTriangle@Gu@physx@@YA?AVPxVec3@2@ABV32@000AAM1@Z 1008d2a0 f   GuDistancePointTriangle.obj
 0001:0008c6f0       ?distancePointTriangleSquared@Gu@physx@@YA?AT__m128@@ABT3@000AAT3@11@Z 1008d6f0 f   GuDistancePointTriangle.obj
 0001:0008d3b0       ?distanceSegmentBoxSquared@Gu@physx@@YAMABVPxVec3@2@000ABVPxMat33@2@PAMPAV32@@Z 1008e3b0 f   GuDistanceSegmentBox.obj
 0001:0008fd70       ?distanceSegmentSegmentSquared@Gu@physx@@YAMABVPxVec3@2@0M00MPAM1@Z 10090d70 f   GuDistanceSegmentSegment.obj
 0001:00090dc0       ?distanceSegmentSegmentSquared@Gu@physx@@YAMABVPxVec3@2@000PAM1@Z 10091dc0 f   GuDistanceSegmentSegment.obj
 0001:00090fd0       ?distanceSegmentSegmentSquared@Gu@physx@@YA?AT__m128@@ABT3@000AAT3@1@Z 10091fd0 f   GuDistanceSegmentSegment.obj
 0001:000914e0       ?distanceSegmentSegmentSquared4@Gu@physx@@YA?AT__m128@@ABT3@000000000AAT3@1@Z 100924e0 f   GuDistanceSegmentSegment.obj
 0001:00092100       ?FHalf@aos@shdfnd@physx@@YA?AT__m128@@XZ 10093100 f i GuDistanceSegmentSegment.obj
 0001:00092140       ?V3Dot4@aos@shdfnd@physx@@YA?AT__m128@@ABT4@0000000@Z 10093140 f i GuDistanceSegmentSegment.obj
 0001:00092360       ?V4Clamp@aos@shdfnd@physx@@YA?AT__m128@@T4@00@Z 10093360 f i GuDistanceSegmentSegment.obj
 0001:000923c0       ?V4Div@aos@shdfnd@physx@@YA?AT__m128@@T4@0@Z 100933c0 f i GuDistanceSegmentSegment.obj
 0001:00092400       ?V4Eps@aos@shdfnd@physx@@YA?AT__m128@@XZ 10093400 f i GuDistanceSegmentSegment.obj
 0001:00092440       ?V4IsGrtr@aos@shdfnd@physx@@YA?AT__m128@@T4@0@Z 10093440 f i GuDistanceSegmentSegment.obj
 0001:00092480       ?V4One@aos@shdfnd@physx@@YA?AT__m128@@XZ 10093480 f i GuDistanceSegmentSegment.obj
 0001:000924c0       ?V4Recip@aos@shdfnd@physx@@YA?AT__m128@@T4@@Z 100934c0 f i GuDistanceSegmentSegment.obj
 0001:00092500       ?V4Splat@aos@shdfnd@physx@@YA?AT__m128@@T4@@Z 10093500 f i GuDistanceSegmentSegment.obj
 0001:00092570       ?V4UnpackXY@aos@shdfnd@physx@@YA?AT__m128@@ABT4@0@Z 10093570 f i GuDistanceSegmentSegment.obj
 0001:000925b0       ?V4UnpackZW@aos@shdfnd@physx@@YA?AT__m128@@ABT4@0@Z 100935b0 f i GuDistanceSegmentSegment.obj
 0001:000925f0       ?distanceSegmentTriangleSquared@Gu@physx@@YAMABVPxVec3@2@0000PAM11@Z 100935f0 f   GuDistanceSegmentTriangle.obj
 0001:00093aa0       ?distanceSegmentTriangleSquared@Gu@physx@@YA?AT__m128@@ABT3@0000AAT3@1@Z 10094aa0 f   GuDistanceSegmentTriangle.obj
 0001:00094b70       ?isValidTriangleBarycentricCoord@Gu@physx@@YA?AT__m128@@ABT3@0@Z 10095b70 f i GuDistanceSegmentTriangle.obj
 0001:00094d00       ?epaPenetration@Gu@physx@@YA?AW4GjkStatus@12@ABUGjkConvex@12@0PIBE1E_NT__m128@@AAUGjkOutput@12@@Z 10095d00 f   GuEPA.obj
 0001:00094e30       ?isValid2@Facet@Gu@physx@@QAE?AT__m128@@IIIPIBT4@0ABT4@@Z 10095e30 f   GuEPA.obj
 0001:000950e0       ?silhouette@Facet@Gu@physx@@QAEXABT__m128@@PIBT4@1AAVEdgeBuffer@23@AAV?$InlineDeferredIDPool@$0EA@@Cm@3@@Z 100960e0 f   GuEPA.obj
 0001:00095140       ?PenetrationDepth@EPA@Gu@physx@@QAE?AW4GjkStatus@23@ABUGjkConvex@23@0PIBT__m128@@1E_NT6@AAUGjkOutput@23@@Z 10096140 f   GuEPA.obj
 0001:00095ea0       ?expandPoint@EPA@Gu@physx@@QAE_NABUGjkConvex@23@0AAHABT__m128@@@Z 10096ea0 f   GuEPA.obj
 0001:00095f80       ?expandSegment@EPA@Gu@physx@@QAE_NABUGjkConvex@23@0AAHABT__m128@@@Z 10096f80 f   GuEPA.obj
 0001:00096200       ?expandTriangle@EPA@Gu@physx@@QAE_NAAHABT__m128@@@Z 10097200 f   GuEPA.obj
 0001:00096290       ?addFacet@EPA@Gu@physx@@QAEPAVFacet@23@IIIABT__m128@@@Z 10097290 f   GuEPA.obj
 0001:000966e0       ??0?$DeferredIDPoolBase@V?$InlineFixedArray@I$0EA@@Cm@physx@@@Cm@physx@@QAE@XZ 100976e0 f i GuEPA.obj
 0001:00096710       ??0?$IDPoolBase@V?$InlineFixedArray@I$0EA@@Cm@physx@@@Cm@physx@@QAE@XZ 10097710 f i GuEPA.obj
 0001:00096740       ??0?$InlineDeferredIDPool@$0EA@@Cm@physx@@QAE@XZ 10097740 f i GuEPA.obj
 0001:00096760       ??0?$InlineFixedArray@I$0EA@@Cm@physx@@QAE@XZ 10097760 f i GuEPA.obj
 0001:00096780       ??0?$InlinePriorityQueue@PAVFacet@Gu@physx@@$0EA@UFacetDistanceComparator@23@@Cm@physx@@QAE@ABUFacetDistanceComparator@Gu@2@@Z 10097780 f i GuEPA.obj
 0001:000967b0       ??0?$PriorityQueueBase@PAVFacet@Gu@physx@@UFacetDistanceComparator@23@@Cm@physx@@QAE@ABUFacetDistanceComparator@Gu@2@PAPAVFacet@42@@Z 100977b0 f i GuEPA.obj
 0001:000967e0       ??0EPA@Gu@physx@@QAE@XZ    100977e0 f i GuEPA.obj
 0001:00096830       ??0Edge@Gu@physx@@QAE@PIAVFacet@12@I@Z 10097830 f i GuEPA.obj
 0001:00096860       ??0Edge@Gu@physx@@QAE@XZ   10097860 f i GuEPA.obj
 0001:00096870       ??0EdgeBuffer@Gu@physx@@QAE@XZ 10097870 f i GuEPA.obj
 0001:000968b0       ??0Facet@Gu@physx@@QAE@III@Z 100978b0 f i GuEPA.obj
 0001:00096990       ??0Facet@Gu@physx@@QAE@XZ  10097990 f i GuEPA.obj
 0001:000969a0       ??1?$DeferredIDPoolBase@V?$InlineFixedArray@I$0EA@@Cm@physx@@@Cm@physx@@QAE@XZ 100979a0 f i GuEPA.obj
 0001:000969d0       ??1?$IDPoolBase@V?$InlineFixedArray@I$0EA@@Cm@physx@@@Cm@physx@@QAE@XZ 100979d0 f i GuEPA.obj
 0001:000969f0       ??1?$InlineDeferredIDPool@$0EA@@Cm@physx@@QAE@XZ 100979f0 f i GuEPA.obj
 0001:00096a10       ??1?$InlineFixedArray@I$0EA@@Cm@physx@@QAE@XZ 10097a10 f i GuEPA.obj
 0001:00096a20       ??1?$InlinePriorityQueue@PAVFacet@Gu@physx@@$0EA@UFacetDistanceComparator@23@@Cm@physx@@QAE@XZ 10097a20 f i GuEPA.obj
 0001:00096a40       ??1?$PriorityQueueBase@PAVFacet@Gu@physx@@UFacetDistanceComparator@23@@Cm@physx@@QAE@XZ 10097a40 f i GuEPA.obj
 0001:00096a50       ??1EPA@Gu@physx@@QAE@XZ    10097a50 f i GuEPA.obj
 0001:00096a80       ??4Edge@Gu@physx@@QAEAAV012@ABV012@@Z 10097a80 f i GuEPA.obj
 0001:00096ab0       ??A?$InlineFixedArray@I$0EA@@Cm@physx@@QAEAAII@Z 10097ab0 f i GuEPA.obj
 0001:00096b10       ??AFacet@Gu@physx@@QBEII@Z 10097b10 f i GuEPA.obj
 0001:00096b30       ??MFacet@Gu@physx@@QBE_NABV012@@Z 10097b30 f i GuEPA.obj
 0001:00096b70       ??RFacetDistanceComparator@Gu@physx@@QBE_NPBVFacet@12@0@Z 10097b70 f i GuEPA.obj
 0001:00096b90       ?FNegScaleSub@aos@shdfnd@physx@@YA?AT__m128@@T4@00@Z 10097b90 f i GuEPA.obj
 0001:00096cc0       ?FRsqrt@aos@shdfnd@physx@@YA?AT__m128@@T4@@Z 10097cc0 f i GuEPA.obj
 0001:00096d50       ?FSqrt@aos@shdfnd@physx@@YA?AT__m128@@T4@@Z 10097d50 f i GuEPA.obj
 0001:00096dd0       ?Get@EdgeBuffer@Gu@physx@@QAEPAVEdge@23@I@Z 10097dd0 f i GuEPA.obj
 0001:00096e30       ?Insert@EdgeBuffer@Gu@physx@@QAEPAVEdge@23@PIAVFacet@23@I@Z 10097e30 f i GuEPA.obj
 0001:00096ea0       ?IsValid@EdgeBuffer@Gu@physx@@QAE_NXZ 10097ea0 f i GuEPA.obj
 0001:00096ee0       ?MakeEmpty@EdgeBuffer@Gu@physx@@QAEXXZ 10097ee0 f i GuEPA.obj
 0001:00096f10       ?Size@EdgeBuffer@Gu@physx@@QAEIXZ 10097f10 f i GuEPA.obj
 0001:00096f30       ?Valid@Facet@Gu@physx@@QAE_NXZ 10097f30 f i GuEPA.obj
 0001:00096fb0       ?clear@?$InlineFixedArray@I$0EA@@Cm@physx@@QAEXXZ 10097fb0 f i GuEPA.obj
 0001:00096fd0       ?clear@?$PriorityQueueBase@PAVFacet@Gu@physx@@UFacetDistanceComparator@23@@Cm@physx@@QAEXXZ 10097fd0 f i GuEPA.obj
 0001:00096ff0       ?compare@?$PriorityQueueBase@PAVFacet@Gu@physx@@UFacetDistanceComparator@23@@Cm@physx@@IBE_NABQAVFacet@Gu@3@0@Z 10097ff0 f i GuEPA.obj
 0001:00097020       ?deferredFreeID@?$DeferredIDPoolBase@V?$InlineFixedArray@I$0EA@@Cm@physx@@@Cm@physx@@QAEXI@Z 10098020 f i GuEPA.obj
 0001:00097040       ?empty@?$PriorityQueueBase@PAVFacet@Gu@physx@@UFacetDistanceComparator@23@@Cm@physx@@QBE_NXZ 10098040 f i GuEPA.obj
 0001:00097070       ?freeID@?$IDPoolBase@V?$InlineFixedArray@I$0EA@@Cm@physx@@@Cm@physx@@QAEXI@Z 10098070 f i GuEPA.obj
 0001:000970b0       ?getClosestPoint@Facet@Gu@physx@@QAEXPIBT__m128@@0AAT4@1@Z 100980b0 f i GuEPA.obj
 0001:000975e0       ?getFacet@Edge@Gu@physx@@QBEPAVFacet@23@XZ 100985e0 f i GuEPA.obj
 0001:000975f0       ?getIndex@Edge@Gu@physx@@QBEIXZ 100985f0 f i GuEPA.obj
 0001:00097610       ?getNewID@?$IDPoolBase@V?$InlineFixedArray@I$0EA@@Cm@physx@@@Cm@physx@@QAEIXZ 10098610 f i GuEPA.obj
 0001:00097660       ?getNumRemainingIDs@?$InlineDeferredIDPool@$0EA@@Cm@physx@@QAEIXZ 10098660 f i GuEPA.obj
 0001:00097680       ?getNumUsedID@?$DeferredIDPoolBase@V?$InlineFixedArray@I$0EA@@Cm@physx@@@Cm@physx@@QBEIXZ 10098680 f i GuEPA.obj
 0001:000976b0       ?getNumUsedID@?$IDPoolBase@V?$InlineFixedArray@I$0EA@@Cm@physx@@@Cm@physx@@QBEIXZ 100986b0 f i GuEPA.obj
 0001:000976d0       ?getPlaneDist@Facet@Gu@physx@@QBE?AT__m128@@ABT4@PIBT4@1@Z 100986d0 f i GuEPA.obj
 0001:00097780       ?getPlaneDist@Facet@Gu@physx@@QBE?AT__m128@@XZ 10098780 f i GuEPA.obj
 0001:000977d0       ?getPlaneNormal@Facet@Gu@physx@@QBE?AT__m128@@XZ 100987d0 f i GuEPA.obj
 0001:000977f0       ?getSource@Edge@Gu@physx@@QBEIXZ 100987f0 f i GuEPA.obj
 0001:00097850       ?getTarget@Edge@Gu@physx@@QBEIXZ 10098850 f i GuEPA.obj
 0001:000978c0       ?incMod3@Gu@physx@@YAII@Z  100988c0 f i GuEPA.obj
 0001:000978d0       ?isObsolete@Facet@Gu@physx@@QBE_NXZ 100988d0 f i GuEPA.obj
 0001:000978f0       ?left@?$PriorityQueueBase@PAVFacet@Gu@physx@@UFacetDistanceComparator@23@@Cm@physx@@KAII@Z 100988f0 f i GuEPA.obj
 0001:00097900       ?link@Facet@Gu@physx@@QAE_NIPIAV123@I@Z 10098900 f i GuEPA.obj
 0001:000979b0       ?parent@?$PriorityQueueBase@PAVFacet@Gu@physx@@UFacetDistanceComparator@23@@Cm@physx@@KAII@Z 100989b0 f i GuEPA.obj
 0001:000979c0       ?pop@?$PriorityQueueBase@PAVFacet@Gu@physx@@UFacetDistanceComparator@23@@Cm@physx@@QAEPAVFacet@Gu@3@XZ 100989c0 f i GuEPA.obj
 0001:00097b60       ?popBack@?$InlineFixedArray@I$0EA@@Cm@physx@@QAEIXZ 10098b60 f i GuEPA.obj
 0001:00097be0       ?processDeferredIds@?$DeferredIDPoolBase@V?$InlineFixedArray@I$0EA@@Cm@physx@@@Cm@physx@@QAEXXZ 10098be0 f i GuEPA.obj
 0001:00097c50       ?push@?$InlinePriorityQueue@PAVFacet@Gu@physx@@$0EA@UFacetDistanceComparator@23@@Cm@physx@@QAEXAAPAVFacet@Gu@3@@Z 10098c50 f i GuEPA.obj
 0001:00097cb0       ?push@?$PriorityQueueBase@PAVFacet@Gu@physx@@UFacetDistanceComparator@23@@Cm@physx@@QAEXABQAVFacet@Gu@3@@Z 10098cb0 f i GuEPA.obj
 0001:00097d90       ?pushBack@?$InlineFixedArray@I$0EA@@Cm@physx@@QAEXABI@Z 10098d90 f i GuEPA.obj
 0001:00097e10       ?silhouette@Facet@Gu@physx@@QAEXIABT__m128@@PIBT4@1AAVEdgeBuffer@23@AAV?$InlineDeferredIDPool@$0EA@@Cm@3@@Z 10098e10 f i GuEPA.obj
 0001:00098060       ?size@?$InlineFixedArray@I$0EA@@Cm@physx@@QBEIXZ 10099060 f i GuEPA.obj
 0001:00098080       ?size@?$PriorityQueueBase@PAVFacet@Gu@physx@@UFacetDistanceComparator@23@@Cm@physx@@QBEIXZ 10099080 f i GuEPA.obj
 0001:00098090       ?toI8@shdfnd@physx@@YACI@Z 10099090 f i GuEPA.obj
 0001:000980e0       ?top@?$PriorityQueueBase@PAVFacet@Gu@physx@@UFacetDistanceComparator@23@@Cm@physx@@QAEPAVFacet@Gu@3@XZ 100990e0 f i GuEPA.obj
 0001:00098100       ?valid@?$PriorityQueueBase@PAVFacet@Gu@physx@@UFacetDistanceComparator@23@@Cm@physx@@QBE_NXZ 10099100 f i GuEPA.obj
 0001:00098170       ?closestPtPointTetrahedron@Gu@physx@@YA?AT__m128@@PIAT3@00AAI@Z 10099170 f   GuGJKSimplex.obj
 0001:00098560       ?closestPtPointTetrahedron@Gu@physx@@YA?AT__m128@@PIAT3@00PIAH1AAI@Z 10099560 f   GuGJKSimplex.obj
 0001:00098ef0       ?BGetW@aos@shdfnd@physx@@YA?AT__m128@@T4@@Z 10099ef0 f i GuGJKSimplex.obj
 0001:00098f30       ?BGetX@aos@shdfnd@physx@@YA?AT__m128@@T4@@Z 10099f30 f i GuGJKSimplex.obj
 0001:00098f70       ?BGetY@aos@shdfnd@physx@@YA?AT__m128@@T4@@Z 10099f70 f i GuGJKSimplex.obj
 0001:00098fb0       ?BGetZ@aos@shdfnd@physx@@YA?AT__m128@@T4@@Z 10099fb0 f i GuGJKSimplex.obj
 0001:00098ff0       ?PointOutsideOfPlane4@Gu@physx@@YA?AT__m128@@ABT3@000@Z 10099ff0 f i GuGJKSimplex.obj
 0001:00099340       ?V4Merge@aos@shdfnd@physx@@YA?AT__m128@@ABT4@000@Z 1009a340 f i GuGJKSimplex.obj
 0001:000994d0       ?testGjk@Gu@physx@@YA?AW4GjkStatus@12@AAUGjkConvex@12@0ABT__m128@@1AAT5@222@Z 1009a4d0 f   GuGJKTest.obj
 0001:00099500       ?testGjkPenetration@Gu@physx@@YA?AW4GjkStatus@12@AAUGjkConvex@12@0ABT__m128@@1PAE2AAEAAUGjkOutput@12@@Z 1009a500 f   GuGJKTest.obj
 0001:00099530       ?testEpaPenetration@Gu@physx@@YA?AW4GjkStatus@12@AAUGjkConvex@12@0PBE1EAAUGjkOutput@12@@Z 1009a530 f   GuGJKTest.obj
 0001:000995a0       ?testGjkRaycast@Gu@physx@@YA_NAAUGjkConvex@12@0ABT__m128@@111AAT4@22M@Z 1009a5a0 f   GuGJKTest.obj
 0001:000995e0       ??$gjk@UGjkConvex@Gu@physx@@U123@@Gu@physx@@YA?AW4GjkStatus@01@ABUGjkConvex@01@0ABT__m128@@1AAT4@222@Z 1009a5e0 f i GuGJKTest.obj
 0001:00099fa0       ??$gjkPenetration@UGjkConvex@Gu@physx@@U123@@Gu@physx@@YA?AW4GjkStatus@01@ABUGjkConvex@01@0ABT__m128@@1_NPIAE3AAEAAUGjkOutput@01@@Z 1009afa0 f i GuGJKTest.obj
 0001:0009aa70       ??$gjkRaycast@UGjkConvex@Gu@physx@@U123@@Gu@physx@@YA_NABUGjkConvex@01@0ABT__m128@@111AAT3@22M@Z 1009ba70 f i GuGJKTest.obj
 0001:0009b670       ?exportExtraData@HeightField@Gu@physx@@UAEXAAVPxSerializationContext@3@@Z 1009c670 f   GuHeightField.obj
 0001:0009b6c0       ?importExtraData@HeightField@Gu@physx@@QAEXAAVPxDeserializationContext@3@@Z 1009c6c0 f   GuHeightField.obj
 0001:0009b6f0       ?createObject@HeightField@Gu@physx@@SAPAV123@AAPAEAAVPxDeserializationContext@3@@Z 1009c6f0 f   GuHeightField.obj
 0001:0009b760       ??0HeightField@Gu@physx@@QAE@PAVGuMeshFactory@2@@Z 1009c760 f   GuHeightField.obj
 0001:0009b840       ??0HeightField@Gu@physx@@QAE@AAVGuMeshFactory@2@AAUHeightFieldData@12@@Z 1009c840 f   GuHeightField.obj
 0001:0009b8f0       ?release@HeightField@Gu@physx@@UAEXXZ 1009c8f0 f   GuHeightField.obj
 0001:0009b910       ?saveCells@HeightField@Gu@physx@@UBEIPAXI@Z 1009c910 f   GuHeightField.obj
 0001:0009b960       ?modifySamples@HeightField@Gu@physx@@UAE_NHHABVPxHeightFieldDesc@3@_N@Z 1009c960 f   GuHeightField.obj
 0001:0009bc60       ?acquireReference@HeightField@Gu@physx@@UAEXXZ 1009cc60 f   GuHeightField.obj
 0001:0009bc80       ?getReferenceCount@HeightField@Gu@physx@@UBEIXZ 1009cc80 f   GuHeightField.obj
 0001:0009bca0       ?onRefCountZero@HeightField@Gu@physx@@UAEXXZ 1009cca0 f   GuHeightField.obj
 0001:0009bd50       ?loadFromDesc@HeightField@Gu@physx@@QAE_NABVPxHeightFieldDesc@3@@Z 1009cd50 f   GuHeightField.obj
 0001:0009c150       ?load@HeightField@Gu@physx@@QAE_NAAVPxInputStream@3@@Z 1009d150 f   GuHeightField.obj
 0001:0009c470       ?computeCellCoordinates@HeightField@Gu@physx@@QBEIMMAAM0@Z 1009d470 f   GuHeightField.obj
 0001:0009c720       ?isSolidVertex@HeightField@Gu@physx@@QBE_NIIIGAA_N@Z 1009d720 f   GuHeightField.obj
 0001:0009c8b0       ?isCollisionVertexPreca@HeightField@Gu@physx@@QBE_NIIIG@Z 1009d8b0 f   GuHeightField.obj
 0001:0009ca00       ?parseTrianglesForCollisionVertices@HeightField@Gu@physx@@QAEXG@Z 1009da00 f   GuHeightField.obj
 0001:0009ccd0       ?releaseMemory@HeightField@Gu@physx@@QAEXXZ 1009dcd0 f   GuHeightField.obj
 0001:0009cd30       ??1HeightField@Gu@physx@@UAE@XZ 1009dd30 f   GuHeightField.obj
 0001:0009cd80       ?getVertexEdgeIndices@physx@@YAIABVHeightField@Gu@1@IIIQAUEdgeData@1@@Z 1009dd80 f   GuHeightField.obj
 0001:0009d180       ?getEdgeTriangleIndices@physx@@YAIABVHeightField@Gu@1@ABUEdgeData@1@PIAI@Z 1009e180 f   GuHeightField.obj
 0001:0009d410       ??$deletePxBase@VHeightField@Gu@physx@@@Cm@physx@@YAXPAVHeightField@Gu@1@@Z 1009e410 f i GuHeightField.obj
 0001:0009d480       ??$readExtraData@UPxHeightFieldSample@physx@@$0BA@@PxDeserializationContext@physx@@QAEPAUPxHeightFieldSample@1@I@Z 1009e480 f i GuHeightField.obj
 0001:0009d4b0       ??$readExtraData@UPxHeightFieldSample@physx@@@PxDeserializationContext@physx@@QAEPAUPxHeightFieldSample@1@I@Z 1009e4b0 f i GuHeightField.obj
 0001:0009d4e0       ??0?$BitMapBase@VNonTrackingAllocator@shdfnd@physx@@@Cm@physx@@QAE@XZ 1009e4e0 f i GuHeightField.obj
 0001:0009d510       ??0?$PxFlags@W4Enum@PxHeightFieldFlag@physx@@G@physx@@QAE@G@Z 1009e510 f i GuHeightField.obj
 0001:0009d530       ??0HeightField@Gu@physx@@QAE@V?$PxFlags@W4Enum@PxBaseFlag@physx@@G@2@@Z 1009e530 f i GuHeightField.obj
 0001:0009d590       ??0PxHeightField@physx@@IAE@GV?$PxFlags@W4Enum@PxBaseFlag@physx@@G@1@@Z 1009e590 f i GuHeightField.obj
 0001:0009d5d0       ??0PxHeightField@physx@@IAE@V?$PxFlags@W4Enum@PxBaseFlag@physx@@G@1@@Z 1009e5d0 f i GuHeightField.obj
 0001:0009d600       ??1?$BitMapBase@VNonTrackingAllocator@shdfnd@physx@@@Cm@physx@@QAE@XZ 1009e600 f i GuHeightField.obj
 0001:0009d640       ??9?$PxFlags@W4Enum@PxHeightFieldFlag@physx@@G@physx@@QBE_NABV01@@Z 1009e640 f i GuHeightField.obj
 0001:0009d680       ??_EHeightField@Gu@physx@@UAEPAXI@Z 1009e680 f i GuHeightField.obj
 0001:0009d72a       ??_EHeightField@Gu@physx@@W7AEPAXI@Z 1009e72a f i GuHeightField.obj
 0001:0009d740       ?PxMemSet@physx@@YAPAXPAXHI@Z 1009e740 f i GuHeightField.obj
 0001:0009d760       ?anyHole@@YAIIG@Z          1009e760 f i GuHeightField.obj
 0001:0009d7b0       ?clear@?$BitMapBase@VNonTrackingAllocator@shdfnd@physx@@@Cm@physx@@QAEXXZ 1009e7b0 f i GuHeightField.obj
 0001:0009d7e0       ?clearBit@?$PxBitAndDataT@E$0IA@@physx@@QAEXXZ 1009e7e0 f i GuHeightField.obj
 0001:0009d800       ?extendUninitialized@?$BitMapBase@VNonTrackingAllocator@shdfnd@physx@@@Cm@physx@@IAEXI@Z 1009e800 f i GuHeightField.obj
 0001:0009d880       ?flip@physx@@YAXAAF@Z      1009e880 f i GuHeightField.obj
 0001:0009d8d0       ?getMaterialIndex01@HeightField@Gu@physx@@QBEII@Z 1009e8d0 f i GuHeightField.obj
 0001:0009d920       ?getMaxHeight@HeightField@Gu@physx@@QBEMXZ 1009e920 f i GuHeightField.obj
 0001:0009d940       ?getMinHeight@HeightField@Gu@physx@@QBEMXZ 1009e940 f i GuHeightField.obj
 0001:0009d960       ?getWordCount@?$BitMapBase@VNonTrackingAllocator@shdfnd@physx@@@Cm@physx@@QBEIXZ 1009e960 f i GuHeightField.obj
 0001:0009d980       ?isConvexVertex@HeightField@Gu@physx@@QBE_NIII@Z 1009e980 f i GuHeightField.obj
 0001:0009db40       ?isInUserMemory@?$BitMapBase@VNonTrackingAllocator@shdfnd@physx@@@Cm@physx@@QBEIXZ 1009eb40 f i GuHeightField.obj
 0001:0009db60       ?isValid@PxHeightFieldDesc@physx@@QBE_NXZ 1009eb60 f i GuHeightField.obj
 0001:0009dbe0       ?requiresObjects@HeightField@Gu@physx@@UAEXAAVPxProcessPxBaseCallback@3@@Z 1009ebe0 f i GuHeightField.obj
 0001:0009dbf0       ?resizeAndClear@?$BitMapBase@VNonTrackingAllocator@shdfnd@physx@@@Cm@physx@@QAEXI@Z 1009ebf0 f i GuHeightField.obj
 0001:0009dc30       ?resolveReferences@HeightField@Gu@physx@@QAEXAAVPxDeserializationContext@3@@Z 1009ec30 f i GuHeightField.obj
 0001:0009dc40       ?set@?$BitMapBase@VNonTrackingAllocator@shdfnd@physx@@@Cm@physx@@QAEXI@Z 1009ec40 f i GuHeightField.obj
 0001:0009dcc0       ?setBit@?$PxBitAndDataT@E$0IA@@physx@@QAEXXZ 1009ecc0 f i GuHeightField.obj
 0001:0009dce0       ?test@?$BitMapBase@VNonTrackingAllocator@shdfnd@physx@@@Cm@physx@@QBEHI@Z 1009ece0 f i GuHeightField.obj
 0001:0009ddb0       ?computeLocalBounds@HeightFieldUtil@Gu@physx@@QBEXAAVPxBounds3@3@@Z 1009edb0 f   GuHeightFieldUtil.obj
 0001:0009def0       ?getFaceIndexAtShapePoint@HeightFieldUtil@Gu@physx@@QBEIMM@Z 1009eef0 f   GuHeightFieldUtil.obj
 0001:0009df90       ?getVertexNormal@HeightFieldUtil@Gu@physx@@QBE?AVPxVec3@3@III@Z 1009ef90 f   GuHeightFieldUtil.obj
 0001:0009e150       ?getVertexFaceIndex@HeightFieldUtil@Gu@physx@@QBEIIII@Z 1009f150 f   GuHeightFieldUtil.obj
 0001:0009e2a0       ?getEdge@HeightFieldUtil@Gu@physx@@QBEXIIIIAAVPxVec3@3@0@Z 1009f2a0 f   GuHeightFieldUtil.obj
 0001:0009e8b0       ?getEdgeFaceIndex@HeightFieldUtil@Gu@physx@@QBEII@Z 1009f8b0 f   GuHeightFieldUtil.obj
 0001:0009e970       ?getEdgeFaceIndex@HeightFieldUtil@Gu@physx@@QBEIIIII@Z 1009f970 f   GuHeightFieldUtil.obj
 0001:0009ea40       ?getEdgeFaceIndex@HeightFieldUtil@Gu@physx@@QBEIIIPIBI@Z 1009fa40 f   GuHeightFieldUtil.obj
 0001:0009eb00       ?findClosestPointsOnCell@HeightFieldUtil@Gu@physx@@QBEIIIVPxVec3@3@PIAV43@PIAI_N33@Z 1009fb00 f   GuHeightFieldUtil.obj
 0001:0009f4d0       ?findProjectionOnTriangle@HeightFieldUtil@Gu@physx@@QBE_NIIIABVPxVec3@3@AAV43@@Z 100a04d0 f   GuHeightFieldUtil.obj
 0001:0009fb80       ?findClosestPointOnEdge@HeightFieldUtil@Gu@physx@@QBEMIIIIABVPxVec3@3@AAV43@@Z 100a0b80 f   GuHeightFieldUtil.obj
 0001:000a0400       ?getTriangle@HeightFieldUtil@Gu@physx@@QBEIABVPxTransform@3@AAVPxTriangle@3@PAI2I_N3@Z 100a1400 f   GuHeightFieldUtil.obj
 0001:000a0790       ?overlapAABBTriangles@HeightFieldUtil@Gu@physx@@QBE_NABVPxTransform@3@ABVPxBounds3@3@IPAV?$EntityReport@I@23@@Z 100a1790 f   GuHeightFieldUtil.obj
 0001:000a0cc0       ?getEdgeTriangleIndices@HeightField@Gu@physx@@QBEIIQAI@Z 100a1cc0 f i GuHeightFieldUtil.obj
 0001:000a0e60       ?getEdgeTriangleIndices@HeightField@Gu@physx@@QBEIIQAIIII@Z 100a1e60 f i GuHeightFieldUtil.obj
 0001:000a0fd0       ?getMax@CenterExtents@Gu@physx@@QBE?AVPxVec3@3@XZ 100a1fd0 f i GuHeightFieldUtil.obj
 0001:000a1000       ?getMin@CenterExtents@Gu@physx@@QBE?AVPxVec3@3@XZ 100a2000 f i GuHeightFieldUtil.obj
 0001:000a1030       ?getTriangleAdjacencyIndices@HeightField@Gu@physx@@QBEXIIIIAAI00@Z 100a2030 f i GuHeightFieldUtil.obj
 0001:000a1310       ?getTriangleIndex2@HeightField@Gu@physx@@QBEIIMM@Z 100a2310 f i GuHeightFieldUtil.obj
 0001:000a1390       ?getTriangleIndex@HeightField@Gu@physx@@QBEIMM@Z 100a2390 f i GuHeightFieldUtil.obj
 0001:000a13f0       ?getVertex@HeightField@Gu@physx@@QBE?AVPxVec3@3@I@Z 100a23f0 f i GuHeightFieldUtil.obj
 0001:000a1490       ?isValidTriangle@HeightField@Gu@physx@@QBE_NI@Z 100a2490 f i GuHeightFieldUtil.obj
 0001:000a14f0       ?checkOverlapAABB_heightFieldGeom@Gu@physx@@YA_NABVPxGeometry@2@ABVPxTransform@2@ABVPxBounds3@2@@Z 100a24f0 f   GuOverlapTestsHF.obj
 0001:000a3070       ?GeomOverlapCallback_SphereHeightfield@@YA_NABVPxGeometry@physx@@ABVPxTransform@2@01PAUTriggerCache@Gu@2@@Z 100a4070 f   GuOverlapTestsHF.obj
 0001:000a3170       ?GeomOverlapCallback_CapsuleHeightfield@@YA_NABVPxGeometry@physx@@ABVPxTransform@2@01PAUTriggerCache@Gu@2@@Z 100a4170 f   GuOverlapTestsHF.obj
 0001:000a3250       ?GeomOverlapCallback_BoxHeightfield@@YA_NABVPxGeometry@physx@@ABVPxTransform@2@01PAUTriggerCache@Gu@2@@Z 100a4250 f   GuOverlapTestsHF.obj
 0001:000a3360       ?GeomOverlapCallback_ConvexHeightfield@@YA_NABVPxGeometry@physx@@ABVPxTransform@2@01PAUTriggerCache@Gu@2@@Z 100a4360 f   GuOverlapTestsHF.obj
 0001:000a3440       ??$traceSegment@UTriggerTraceSegmentCallback@Gu@physx@@$0A@$0A@@HeightFieldTraceUtil@Gu@physx@@QBEXABVPxVec3@2@0MPAUTriggerTraceSegmentCallback@12@ABVPxBounds3@2@_NPBV32@@Z 100a4440 f i GuOverlapTestsHF.obj
 0001:000a4fc0       ??0?$OverlapTraceSegment@UTriggerTraceSegmentCallback@Gu@physx@@@HeightFieldTraceUtil@Gu@physx@@QAE@ABVHeightFieldUtil@23@ABVHeightField@23@@Z 100a5fc0 f i GuOverlapTestsHF.obj
 0001:000a5000       ??0EdgeCache@Gu@physx@@QAE@XZ 100a6000 f i GuOverlapTestsHF.obj
 0001:000a5020       ??0Matrix34@Cm@physx@@QAE@ABVPxMat33@2@@Z 100a6020 f i GuOverlapTestsHF.obj
 0001:000a5050       ??0OverlapHeightfieldTraceSegmentHelper@Gu@physx@@QAE@ABVHeightFieldTraceUtil@12@@Z 100a6050 f i GuOverlapTestsHF.obj
 0001:000a5090       ??0TriggerTraceSegmentCallback@Gu@physx@@QAE@XZ 100a6090 f i GuOverlapTestsHF.obj
 0001:000a50b0       ?V4AllGrtr@aos@shdfnd@physx@@YAIT__m128@@0@Z 100a60b0 f i GuOverlapTestsHF.obj
 0001:000a5100       ?addIndex@?$OverlapTraceSegment@UTriggerTraceSegmentCallback@Gu@physx@@@HeightFieldTraceUtil@Gu@physx@@QAE_NI@Z 100a6100 f i GuOverlapTestsHF.obj
 0001:000a5160       ?computeRectangleDifference@?$OverlapTraceSegment@UTriggerTraceSegmentCallback@Gu@physx@@@HeightFieldTraceUtil@Gu@physx@@QAEXABUOverlapRectangle@1234@0AAUOverlapLine@1234@@Z 100a6160 f i GuOverlapTestsHF.obj
 0001:000a5220       ?faceHit@TriggerTraceSegmentCallback@Gu@physx@@QAE_NABVHeightFieldUtil@23@ABVPxVec3@3@IMM@Z 100a6220 f i GuOverlapTestsHF.obj
 0001:000a5240       ?getInverse@PsTransformV@aos@shdfnd@physx@@QBE?AV1234@XZ 100a6240 f i GuOverlapTestsHF.obj
 0001:000a52f0       ?hash@EdgeCache@Gu@physx@@QBEII@Z 100a62f0 f i GuOverlapTestsHF.obj
 0001:000a5310       ?init@?$OverlapTraceSegment@UTriggerTraceSegmentCallback@Gu@physx@@@HeightFieldTraceUtil@Gu@physx@@QAE_NHHHHHPAUTriggerTraceSegmentCallback@34@@Z 100a6310 f i GuOverlapTestsHF.obj
 0001:000a53f0       ?initialized@?$OverlapTraceSegment@UTriggerTraceSegmentCallback@Gu@physx@@@HeightFieldTraceUtil@Gu@physx@@QBE_NXZ 100a63f0 f i GuOverlapTestsHF.obj
 0001:000a5400       ?invalidate@OverlapRectangle@?$OverlapTraceSegment@UTriggerTraceSegmentCallback@Gu@physx@@@HeightFieldTraceUtil@Gu@physx@@QAEXXZ 100a6400 f i GuOverlapTestsHF.obj
 0001:000a5440       ?isDeltaHeightInsideExtent@HeightField@Gu@physx@@QBE_NMM@Z 100a6440 f i GuOverlapTestsHF.obj
 0001:000a5490       ?isDeltaHeightOppositeExtent@HeightField@Gu@physx@@QBE_NM@Z 100a6490 f i GuOverlapTestsHF.obj
 0001:000a54e0       ?isInCache@EdgeCache@Gu@physx@@QAE_NEE@Z 100a64e0 f i GuOverlapTestsHF.obj
 0001:000a5580       ?onEvent@TriggerTraceSegmentCallback@Gu@physx@@QAE_NIPAI@Z 100a6580 f i GuOverlapTestsHF.obj
 0001:000a5590       ?prepare@?$OverlapTraceSegment@UTriggerTraceSegmentCallback@Gu@physx@@@HeightFieldTraceUtil@Gu@physx@@QAEXABVPxVec3@4@00AAM1@Z 100a6590 f i GuOverlapTestsHF.obj
 0001:000a5870       ?reportOverlaps@?$OverlapTraceSegment@UTriggerTraceSegmentCallback@Gu@physx@@@HeightFieldTraceUtil@Gu@physx@@QAE_NXZ 100a6870 f i GuOverlapTestsHF.obj
 0001:000a58c0       ?step@?$OverlapTraceSegment@UTriggerTraceSegmentCallback@Gu@physx@@@HeightFieldTraceUtil@Gu@physx@@QAE_NHH@Z 100a68c0 f i GuOverlapTestsHF.obj
 0001:000a5980       ?testVertexIndex@?$OverlapTraceSegment@UTriggerTraceSegmentCallback@Gu@physx@@@HeightFieldTraceUtil@Gu@physx@@QAE_NI@Z 100a6980 f i GuOverlapTestsHF.obj
 0001:000a5ad0       ?traceSegment@OverlapHeightfieldTraceSegmentHelper@Gu@physx@@QBEXABVPxVec3@3@0PAUTriggerTraceSegmentCallback@23@@Z 100a6ad0 f i GuOverlapTestsHF.obj
 0001:000a5b20       ?underFaceHit@TriggerTraceSegmentCallback@Gu@physx@@QAE_NABVHeightFieldUtil@23@ABVPxVec3@3@1MMMI@Z 100a6b20 f i GuOverlapTestsHF.obj
 0001:000a5b30       ?visitCells@?$OverlapTraceSegment@UTriggerTraceSegmentCallback@Gu@physx@@@HeightFieldTraceUtil@Gu@physx@@QAE_NABUOverlapLine@1234@@Z 100a6b30 f i GuOverlapTestsHF.obj
 0001:000a5ca0       ?visitCells@?$OverlapTraceSegment@UTriggerTraceSegmentCallback@Gu@physx@@@HeightFieldTraceUtil@Gu@physx@@QAE_NABUOverlapRectangle@1234@@Z 100a6ca0 f i GuOverlapTestsHF.obj
 0001:000a6210       ?sweepCapsule_HeightFieldGeom@@YA_NABVPxGeometry@physx@@ABVPxTransform@2@ABVPxCapsuleGeometry@2@1ABVCapsule@Gu@2@ABVPxVec3@2@MAAUPxSweepHit@2@V?$PxFlags@W4Enum@PxHitFlag@physx@@G@2@M@Z 100a7210 f   GuSweepsHF.obj
 0001:000a6420       ?sweepConvex_HeightFieldGeom@@YA_NABVPxGeometry@physx@@ABVPxTransform@2@ABVPxConvexMeshGeometry@2@1ABVPxVec3@2@MAAUPxSweepHit@2@V?$PxFlags@W4Enum@PxHitFlag@physx@@G@2@M@Z 100a7420 f   GuSweepsHF.obj
 0001:000a6700       ?sweepBox_HeightFieldGeom@@YA_NABVPxGeometry@physx@@ABVPxTransform@2@ABVPxBoxGeometry@2@1ABVBox@Gu@2@ABVPxVec3@2@MAAUPxSweepHit@2@V?$PxFlags@W4Enum@PxHitFlag@physx@@G@2@M@Z 100a7700 f   GuSweepsHF.obj
 0001:000a6a00       ??$gjkPenetration@U?$LocalConvex@VTriangleV@Gu@physx@@@Gu@physx@@U?$LocalConvex@VConvexHullV@Gu@physx@@@23@@Gu@physx@@YA?AW4GjkStatus@01@ABU?$LocalConvex@VTriangleV@Gu@physx@@@01@ABU?$LocalConvex@VConvexHullV@Gu@physx@@@01@ABT__m128@@2_NPIAE4AAEAAUGjkOutput@01@@Z 100a7a00 f i GuSweepsHF.obj
 0001:000a74d0       ??$gjkRaycast@U?$LocalConvex@VTriangleV@Gu@physx@@@Gu@physx@@U?$LocalConvex@VConvexHullV@Gu@physx@@@23@@Gu@physx@@YA_NABU?$LocalConvex@VTriangleV@Gu@physx@@@01@ABU?$LocalConvex@VConvexHullV@Gu@physx@@@01@ABT__m128@@222AAT4@33M@Z 100a84d0 f i GuSweepsHF.obj
 0001:000a80d0       ??$gjkRaycastPenetration@U?$LocalConvex@VTriangleV@Gu@physx@@@Gu@physx@@U?$LocalConvex@VConvexHullV@Gu@physx@@@23@@Gu@physx@@YA_NABU?$LocalConvex@VTriangleV@Gu@physx@@@01@ABU?$LocalConvex@VConvexHullV@Gu@physx@@@01@ABT__m128@@222AAT4@33M_N@Z 100a90d0 f i GuSweepsHF.obj
 0001:000a8380       ??$traceSegment@VBoxTraceSegmentReport@@$0A@$00@HeightFieldTraceUtil@Gu@physx@@QBEXABVPxVec3@2@0MPAVBoxTraceSegmentReport@@ABVPxBounds3@2@_NPBV32@@Z 100a9380 f i GuSweepsHF.obj
 0001:000a9f10       ??$traceSegment@VBoxTraceSegmentReport@@@HeightFieldTraceSegmentSweepHelper@@QBEXABVPxVec3@physx@@0MPAVBoxTraceSegmentReport@@@Z 100aaf10 f i GuSweepsHF.obj
 0001:000a9f50       ??$traceSegment@VCapsuleTraceSegmentReport@@$0A@$00@HeightFieldTraceUtil@Gu@physx@@QBEXABVPxVec3@2@0MPAVCapsuleTraceSegmentReport@@ABVPxBounds3@2@_NPBV32@@Z 100aaf50 f i GuSweepsHF.obj
 0001:000abae0       ??$traceSegment@VCapsuleTraceSegmentReport@@@HeightFieldTraceSegmentSweepHelper@@QBEXABVPxVec3@physx@@0MPAVCapsuleTraceSegmentReport@@@Z 100acae0 f i GuSweepsHF.obj
 0001:000abb20       ??$traceSegment@VConvexTraceSegmentReport@@$0A@$00@HeightFieldTraceUtil@Gu@physx@@QBEXABVPxVec3@2@0MPAVConvexTraceSegmentReport@@ABVPxBounds3@2@_NPBV32@@Z 100acb20 f i GuSweepsHF.obj
 0001:000ad6b0       ??$traceSegment@VConvexTraceSegmentReport@@@HeightFieldTraceSegmentSweepHelper@@QBEXABVPxVec3@physx@@0MPAVConvexTraceSegmentReport@@@Z 100ae6b0 f i GuSweepsHF.obj
 0001:000ad6f0       ??0?$OverlapTraceSegment@VBoxTraceSegmentReport@@@HeightFieldTraceUtil@Gu@physx@@QAE@ABVHeightFieldUtil@23@ABVHeightField@23@@Z 100ae6f0 f i GuSweepsHF.obj
 0001:000ad730       ??0?$OverlapTraceSegment@VCapsuleTraceSegmentReport@@@HeightFieldTraceUtil@Gu@physx@@QAE@ABVHeightFieldUtil@23@ABVHeightField@23@@Z 100ae730 f i GuSweepsHF.obj
 0001:000ad770       ??0?$OverlapTraceSegment@VConvexTraceSegmentReport@@@HeightFieldTraceUtil@Gu@physx@@QAE@ABVHeightFieldUtil@23@ABVHeightField@23@@Z 100ae770 f i GuSweepsHF.obj
 0001:000ad7b0       ??0BoxTraceSegmentReport@@QAE@ABVHeightFieldUtil@Gu@physx@@V?$PxFlags@W4Enum@PxHitFlag@physx@@G@3@ABVPsTransformV@aos@shdfnd@3@ABVPxTransform@3@ABVBoxV@23@ABVPxVec3@3@AAUPxSweepHit@3@M@Z 100ae7b0 f i GuSweepsHF.obj
 0001:000ad860       ??0CapsuleTraceSegmentReport@@QAE@ABVHeightFieldUtil@Gu@physx@@V?$PxFlags@W4Enum@PxHitFlag@physx@@G@3@ABVCapsule@23@ABVPxVec3@3@AAUPxSweepHit@3@ABVPxTransform@3@M@Z 100ae860 f i GuSweepsHF.obj
 0001:000ad8d0       ??0CapsuleV@Gu@physx@@QAE@XZ 100ae8d0 f i GuSweepsHF.obj
 0001:000ad8f0       ??0ConvexHullV@Gu@physx@@QAE@XZ 100ae8f0 f i GuSweepsHF.obj
 0001:000ad920       ??0ConvexTraceSegmentReport@@QAE@ABVHeightFieldUtil@Gu@physx@@ABUConvexHullData@23@ABVPxMeshScale@3@ABVPxTransform@3@3ABVPxVec3@3@MV?$PxFlags@W4Enum@PxHitFlag@physx@@G@3@M@Z 100ae920 f i GuSweepsHF.obj
 0001:000adc40       ??0HeightFieldTraceSegmentReport@@QAE@ABVHeightFieldUtil@Gu@physx@@V?$PxFlags@W4Enum@PxHitFlag@physx@@G@3@@Z 100aec40 f i GuSweepsHF.obj
 0001:000add00       ??0HeightFieldTraceSegmentSweepHelper@@QAE@ABVHeightFieldTraceUtil@Gu@physx@@ABVPxVec3@3@@Z 100aed00 f i GuSweepsHF.obj
 0001:000add80       ??0PsMatTransformV@aos@shdfnd@physx@@QAE@XZ 100aed80 f i GuSweepsHF.obj
 0001:000adde0       ??0PxTransform@physx@@QAE@XZ 100aede0 f i GuSweepsHF.obj
 0001:000ade10       ??1BoxTraceSegmentReport@@UAE@XZ 100aee10 f i GuSweepsHF.obj
 0001:000ade30       ??1CapsuleTraceSegmentReport@@UAE@XZ 100aee30 f i GuSweepsHF.obj
 0001:000ade50       ??1ConvexTraceSegmentReport@@UAE@XZ 100aee50 f i GuSweepsHF.obj
 0001:000ade70       ??1HeightFieldTraceSegmentReport@@UAE@XZ 100aee70 f i GuSweepsHF.obj
 0001:000ade90       ??U?$PxFlags@W4Enum@PxHitFlag@physx@@G@physx@@QBE?AV01@W4Enum@PxHitFlag@1@@Z 100aee90 f i GuSweepsHF.obj
 0001:000aded0       ??_GBoxTraceSegmentReport@@UAEPAXI@Z 100aeed0 f i GuSweepsHF.obj
 0001:000aded0       ??_EBoxTraceSegmentReport@@UAEPAXI@Z 100aeed0 f i GuSweepsHF.obj
 0001:000adf00       ??_ECapsuleTraceSegmentReport@@UAEPAXI@Z 100aef00 f i GuSweepsHF.obj
 0001:000adf00       ??_GCapsuleTraceSegmentReport@@UAEPAXI@Z 100aef00 f i GuSweepsHF.obj
 0001:000adf30       ??_GConvexTraceSegmentReport@@UAEPAXI@Z 100aef30 f i GuSweepsHF.obj
 0001:000adf30       ??_EConvexTraceSegmentReport@@UAEPAXI@Z 100aef30 f i GuSweepsHF.obj
 0001:000adf70       ??_GHeightFieldTraceSegmentReport@@UAEPAXI@Z 100aef70 f i GuSweepsHF.obj
 0001:000adf70       ??_EHeightFieldTraceSegmentReport@@UAEPAXI@Z 100aef70 f i GuSweepsHF.obj
 0001:000adfa0       ?addIndex@?$OverlapTraceSegment@VBoxTraceSegmentReport@@@HeightFieldTraceUtil@Gu@physx@@QAE_NI@Z 100aefa0 f i GuSweepsHF.obj
 0001:000ae000       ?addIndex@?$OverlapTraceSegment@VCapsuleTraceSegmentReport@@@HeightFieldTraceUtil@Gu@physx@@QAE_NI@Z 100af000 f i GuSweepsHF.obj
 0001:000ae060       ?addIndex@?$OverlapTraceSegment@VConvexTraceSegmentReport@@@HeightFieldTraceUtil@Gu@physx@@QAE_NI@Z 100af060 f i GuSweepsHF.obj
 0001:000ae0c0       ?computeRectangleDifference@?$OverlapTraceSegment@VBoxTraceSegmentReport@@@HeightFieldTraceUtil@Gu@physx@@QAEXABUOverlapRectangle@1234@0AAUOverlapLine@1234@@Z 100af0c0 f i GuSweepsHF.obj
 0001:000ae180       ?computeRectangleDifference@?$OverlapTraceSegment@VCapsuleTraceSegmentReport@@@HeightFieldTraceUtil@Gu@physx@@QAEXABUOverlapRectangle@1234@0AAUOverlapLine@1234@@Z 100af180 f i GuSweepsHF.obj
 0001:000ae240       ?computeRectangleDifference@?$OverlapTraceSegment@VConvexTraceSegmentReport@@@HeightFieldTraceUtil@Gu@physx@@QAEXABUOverlapRectangle@1234@0AAUOverlapLine@1234@@Z 100af240 f i GuSweepsHF.obj
 0001:000ae300       ?faceHit@HeightFieldTraceSegmentReport@@QAE_NABVHeightFieldUtil@Gu@physx@@ABVPxVec3@4@IMM@Z 100af300 f i GuSweepsHF.obj
 0001:000ae310       ?finalizeHit@BoxTraceSegmentReport@@QAE_NAAUPxSweepHit@physx@@ABVPxHeightFieldGeometry@3@ABVPxTransform@3@2ABVBox@Gu@3@ABVPxVec3@3@MM@Z 100af310 f i GuSweepsHF.obj
 0001:000ae4e0       ?finalizeHit@CapsuleTraceSegmentReport@@QAE_NAAUPxSweepHit@physx@@ABVPxHeightFieldGeometry@3@ABVPxTransform@3@ABVCapsule@Gu@3@3ABVPxVec3@3@@Z 100af4e0 f i GuSweepsHF.obj
 0001:000ae6c0       ?finalizeHit@ConvexTraceSegmentReport@@QAE_NAAUPxSweepHit@physx@@ABVPxHeightFieldGeometry@3@ABVPxTransform@3@ABVPxConvexMeshGeometry@3@2ABVPxVec3@3@M@Z 100af6c0 f i GuSweepsHF.obj
 0001:000ae810       ?init@?$OverlapTraceSegment@VBoxTraceSegmentReport@@@HeightFieldTraceUtil@Gu@physx@@QAE_NHHHHHPAVBoxTraceSegmentReport@@@Z 100af810 f i GuSweepsHF.obj
 0001:000ae8f0       ?init@?$OverlapTraceSegment@VCapsuleTraceSegmentReport@@@HeightFieldTraceUtil@Gu@physx@@QAE_NHHHHHPAVCapsuleTraceSegmentReport@@@Z 100af8f0 f i GuSweepsHF.obj
 0001:000ae9d0       ?init@?$OverlapTraceSegment@VConvexTraceSegmentReport@@@HeightFieldTraceUtil@Gu@physx@@QAE_NHHHHHPAVConvexTraceSegmentReport@@@Z 100af9d0 f i GuSweepsHF.obj
 0001:000aeab0       ?initialize@CapsuleV@Gu@physx@@QAEXABT__m128@@00@Z 100afab0 f i GuSweepsHF.obj
 0001:000aeb80       ?initialize@ConvexHullV@Gu@physx@@QAEXPBUConvexHullData@23@ABT__m128@@11_N@Z 100afb80 f i GuSweepsHF.obj
 0001:000aec90       ?initialized@?$OverlapTraceSegment@VBoxTraceSegmentReport@@@HeightFieldTraceUtil@Gu@physx@@QBE_NXZ 100afc90 f i GuSweepsHF.obj
 0001:000aeca0       ?initialized@?$OverlapTraceSegment@VCapsuleTraceSegmentReport@@@HeightFieldTraceUtil@Gu@physx@@QBE_NXZ 100afca0 f i GuSweepsHF.obj
 0001:000aecb0       ?initialized@?$OverlapTraceSegment@VConvexTraceSegmentReport@@@HeightFieldTraceUtil@Gu@physx@@QBE_NXZ 100afcb0 f i GuSweepsHF.obj
 0001:000aecc0       ?invalidate@OverlapRectangle@?$OverlapTraceSegment@VBoxTraceSegmentReport@@@HeightFieldTraceUtil@Gu@physx@@QAEXXZ 100afcc0 f i GuSweepsHF.obj
 0001:000aed00       ?invalidate@OverlapRectangle@?$OverlapTraceSegment@VCapsuleTraceSegmentReport@@@HeightFieldTraceUtil@Gu@physx@@QAEXXZ 100afd00 f i GuSweepsHF.obj
 0001:000aed40       ?invalidate@OverlapRectangle@?$OverlapTraceSegment@VConvexTraceSegmentReport@@@HeightFieldTraceUtil@Gu@physx@@QAEXXZ 100afd40 f i GuSweepsHF.obj
 0001:000aed80       ?onEvent@BoxTraceSegmentReport@@UAE_NIPAI@Z 100afd80 f i GuSweepsHF.obj
 0001:000af1e0       ?onEvent@CapsuleTraceSegmentReport@@UAE_NIPAI@Z 100b01e0 f i GuSweepsHF.obj
 0001:000af3a0       ?onEvent@ConvexTraceSegmentReport@@UAE_NIPAI@Z 100b03a0 f i GuSweepsHF.obj
 0001:000af510       ?prepare@?$OverlapTraceSegment@VBoxTraceSegmentReport@@@HeightFieldTraceUtil@Gu@physx@@QAEXABVPxVec3@4@00AAM1@Z 100b0510 f i GuSweepsHF.obj
 0001:000af7f0       ?prepare@?$OverlapTraceSegment@VCapsuleTraceSegmentReport@@@HeightFieldTraceUtil@Gu@physx@@QAEXABVPxVec3@4@00AAM1@Z 100b07f0 f i GuSweepsHF.obj
 0001:000afad0       ?prepare@?$OverlapTraceSegment@VConvexTraceSegmentReport@@@HeightFieldTraceUtil@Gu@physx@@QAEXABVPxVec3@4@00AAM1@Z 100b0ad0 f i GuSweepsHF.obj
 0001:000afdb0       ?reportOverlaps@?$OverlapTraceSegment@VBoxTraceSegmentReport@@@HeightFieldTraceUtil@Gu@physx@@QAE_NXZ 100b0db0 f i GuSweepsHF.obj
 0001:000afe10       ?reportOverlaps@?$OverlapTraceSegment@VCapsuleTraceSegmentReport@@@HeightFieldTraceUtil@Gu@physx@@QAE_NXZ 100b0e10 f i GuSweepsHF.obj
 0001:000afe70       ?reportOverlaps@?$OverlapTraceSegment@VConvexTraceSegmentReport@@@HeightFieldTraceUtil@Gu@physx@@QAE_NXZ 100b0e70 f i GuSweepsHF.obj
 0001:000afed0       ?step@?$OverlapTraceSegment@VBoxTraceSegmentReport@@@HeightFieldTraceUtil@Gu@physx@@QAE_NHH@Z 100b0ed0 f i GuSweepsHF.obj
 0001:000aff90       ?step@?$OverlapTraceSegment@VCapsuleTraceSegmentReport@@@HeightFieldTraceUtil@Gu@physx@@QAE_NHH@Z 100b0f90 f i GuSweepsHF.obj
 0001:000b0050       ?step@?$OverlapTraceSegment@VConvexTraceSegmentReport@@@HeightFieldTraceUtil@Gu@physx@@QAE_NHH@Z 100b1050 f i GuSweepsHF.obj
 0001:000b0110       ?testVertexIndex@?$OverlapTraceSegment@VBoxTraceSegmentReport@@@HeightFieldTraceUtil@Gu@physx@@QAE_NI@Z 100b1110 f i GuSweepsHF.obj
 0001:000b0260       ?testVertexIndex@?$OverlapTraceSegment@VCapsuleTraceSegmentReport@@@HeightFieldTraceUtil@Gu@physx@@QAE_NI@Z 100b1260 f i GuSweepsHF.obj
 0001:000b03b0       ?testVertexIndex@?$OverlapTraceSegment@VConvexTraceSegmentReport@@@HeightFieldTraceUtil@Gu@physx@@QAE_NI@Z 100b13b0 f i GuSweepsHF.obj
 0001:000b0500       ?underFaceHit@HeightFieldTraceSegmentReport@@QAE_NABVHeightFieldUtil@Gu@physx@@ABVPxVec3@4@1MMMI@Z 100b1500 f i GuSweepsHF.obj
 0001:000b0510       ?visitCells@?$OverlapTraceSegment@VBoxTraceSegmentReport@@@HeightFieldTraceUtil@Gu@physx@@QAE_NABUOverlapLine@1234@@Z 100b1510 f i GuSweepsHF.obj
 0001:000b0680       ?visitCells@?$OverlapTraceSegment@VBoxTraceSegmentReport@@@HeightFieldTraceUtil@Gu@physx@@QAE_NABUOverlapRectangle@1234@@Z 100b1680 f i GuSweepsHF.obj
 0001:000b0750       ?visitCells@?$OverlapTraceSegment@VCapsuleTraceSegmentReport@@@HeightFieldTraceUtil@Gu@physx@@QAE_NABUOverlapLine@1234@@Z 100b1750 f i GuSweepsHF.obj
 0001:000b08c0       ?visitCells@?$OverlapTraceSegment@VCapsuleTraceSegmentReport@@@HeightFieldTraceUtil@Gu@physx@@QAE_NABUOverlapRectangle@1234@@Z 100b18c0 f i GuSweepsHF.obj
 0001:000b0990       ?visitCells@?$OverlapTraceSegment@VConvexTraceSegmentReport@@@HeightFieldTraceUtil@Gu@physx@@QAE_NABUOverlapLine@1234@@Z 100b1990 f i GuSweepsHF.obj
 0001:000b0b00       ?visitCells@?$OverlapTraceSegment@VConvexTraceSegmentReport@@@HeightFieldTraceUtil@Gu@physx@@QAE_NABUOverlapRectangle@1234@@Z 100b1b00 f i GuSweepsHF.obj
 0001:000b0bd0       ?intersectOBBOBB@Gu@physx@@YA_NABVPxVec3@2@0ABVPxMat33@2@001_N@Z 100b1bd0 f   GuIntersectionBoxBox.obj
 0001:000b1be0       ?intersectCapsuleTriangle@Gu@physx@@YA_NABVPxVec3@2@000ABVCapsule@12@ABUCapsuleTriangleOverlapData@12@@Z 100b2be0 f   GuIntersectionCapsuleTriangle.obj
 0001:000b1dd0       ??$PxClamp@M@physx@@YAMMMM@Z 100b2dd0 f i GuIntersectionCapsuleTriangle.obj
 0001:000b1e30       ??9PxVec3@physx@@QBE_NABV01@@Z 100b2e30 f i GuIntersectionCapsuleTriangle.obj
 0001:000b1e90       ?computeEdgeAxis@Gu@physx@@YA?AVPxVec3@2@ABV32@000MM@Z 100b2e90 f i GuIntersectionCapsuleTriangle.obj
 0001:000b2090       ?testAxis@Gu@physx@@YAIABVPxVec3@2@00ABVCapsule@12@0@Z 100b3090 f i GuIntersectionCapsuleTriangle.obj
 0001:000b21c0       ?intersectEdgeEdge@Gu@physx@@YA_NABVPxVec3@2@0000AAMAAV32@@Z 100b31c0 f   GuIntersectionEdgeEdge.obj
 0001:000b24d0       ?rayAABBIntersect@Gu@physx@@YA_NABVPxVec3@2@000AAV32@@Z 100b34d0 f   GuIntersectionRayBox.obj
 0001:000b27f0       ?rayAABBIntersect2@Gu@physx@@YAIABVPxVec3@2@000AAV32@AAM@Z 100b37f0 f   GuIntersectionRayBox.obj
 0001:000b2b30       ?intersectRayAABB@Gu@physx@@YAHABVPxVec3@2@000AAM1@Z 100b3b30 f   GuIntersectionRayBox.obj
 0001:000b2d40       ?intersectRayAABB@Gu@physx@@YAHABVPxVec3@2@0000AAM1@Z 100b3d40 f   GuIntersectionRayBox.obj
 0001:000b3060       ?intersectRayAABB2@Gu@physx@@YA_NABVPxVec3@2@000MAAM1@Z 100b4060 f   GuIntersectionRayBox.obj
 0001:000b3510       ?intersectRayAABB2@Gu@physx@@YA_NABT__m128@@0000AAT3@1@Z 100b4510 f   GuIntersectionRayBox.obj
 0001:000b3820       ?V3Sign@aos@shdfnd@physx@@YA?AT__m128@@T4@@Z 100b4820 f i GuIntersectionRayBox.obj
 0001:000b3900       ?recip@intrinsics@physx@@YAMM@Z 100b4900 f i GuIntersectionRayBox.obj
 0001:000b3920       ?intersectRayCapsuleInternal@Gu@physx@@YAIABVPxVec3@2@000MQAM@Z 100b4920 f   GuIntersectionRayCapsule.obj
 0001:000b4440       ?intersectRaySphereBasic@Gu@physx@@YA_NABVPxVec3@2@0M0MAAMPAV32@@Z 100b5440 f   GuIntersectionRaySphere.obj
 0001:000b4580       ?intersectRaySphere@Gu@physx@@YA_NABVPxVec3@2@0M0MAAMPAV32@@Z 100b5580 f   GuIntersectionRaySphere.obj
 0001:000b4670       ?intersectSphereBox@Gu@physx@@YA_NABVSphere@12@ABVBox@12@@Z 100b5670 f   GuIntersectionSphereBox.obj
 0001:000b47f0       ?intersectTriangleBox_ReferenceCode@Gu@physx@@YAHABVPxVec3@2@0000@Z 100b57f0 f   GuIntersectionTriangleBox.obj
 0001:000b4820       ?intersectTriangleBox_Unsafe@Gu@physx@@YAHABVPxVec3@2@0000@Z 100b5820 f   GuIntersectionTriangleBox.obj
 0001:000b4900       ?intersectTriangleBox@Gu@physx@@YAHABVBoxPadded@12@ABVPxVec3@2@11@Z 100b5900 f   GuIntersectionTriangleBox.obj
 0001:000b5f60       ?intersectTriangleBoxBV4@@YAHABVPxVec3@physx@@00ABVPxMat33@2@00@Z 100b6f60 f   GuIntersectionTriangleBox.obj
 0001:000b6090       ?BAnyTrue3_R@internalWindowsSimd@aos@shdfnd@physx@@YAIT__m128@@@Z 100b7090 f i GuIntersectionTriangleBox.obj
 0001:000b60e0       ?U4LoadXYZW@aos@shdfnd@physx@@YA?AT__m128@@IIII@Z 100b70e0 f i GuIntersectionTriangleBox.obj
 0001:000b6140       ?V4AllGrtrOrEq3@aos@shdfnd@physx@@YAIT__m128@@0@Z 100b7140 f i GuIntersectionTriangleBox.obj
 0001:000b6190       ?V4AnyGrtr3@aos@shdfnd@physx@@YAIT__m128@@0@Z 100b7190 f i GuIntersectionTriangleBox.obj
 0001:000b61e0       ?V4Cross@aos@shdfnd@physx@@YA?AT__m128@@T4@0@Z 100b71e0 f i GuIntersectionTriangleBox.obj
 0001:000b62b0       ?V4Dot3@aos@shdfnd@physx@@YA?AT__m128@@T4@0@Z 100b72b0 f i GuIntersectionTriangleBox.obj
 0001:000b6370       ?V4NegMulSub@aos@shdfnd@physx@@YA?AT__m128@@T4@00@Z 100b7370 f i GuIntersectionTriangleBox.obj
 0001:000b63d0       ?V4PermYZXW@aos@shdfnd@physx@@YA?AT__m128@@T4@@Z 100b73d0 f i GuIntersectionTriangleBox.obj
 0001:000b6410       ?V4U32and@aos@shdfnd@physx@@YA?AT__m128@@T4@0@Z 100b7410 f i GuIntersectionTriangleBox.obj
 0001:000b6470       ?V4U32or@aos@shdfnd@physx@@YA?AT__m128@@T4@0@Z 100b7470 f i GuIntersectionTriangleBox.obj
 0001:000b64d0       ?V4U32xor@aos@shdfnd@physx@@YA?AT__m128@@T4@0@Z 100b74d0 f i GuIntersectionTriangleBox.obj
 0001:000b6530       ?Vec4V_From_FloatV@aos@shdfnd@physx@@YA?AT__m128@@T4@@Z 100b7530 f i GuIntersectionTriangleBox.obj
 0001:000b6560       ?Vec4V_ReinterpretFrom_VecU32V@aos@shdfnd@physx@@YA?AT__m128@@T4@@Z 100b7560 f i GuIntersectionTriangleBox.obj
 0001:000b6590       ?VecU32V_ReinterpretFrom_Vec4V@aos@shdfnd@physx@@YA?AT__m128@@T4@@Z 100b7590 f i GuIntersectionTriangleBox.obj
 0001:000b65c0       ??0SourceMeshBase@Gu@physx@@QAE@XZ 100b75c0 f   GuBV4.obj
 0001:000b65f0       ??1SourceMeshBase@Gu@physx@@QAE@XZ 100b75f0 f   GuBV4.obj
 0001:000b6620       ??0SourceMesh@Gu@physx@@QAE@XZ 100b7620 f   GuBV4.obj
 0001:000b6640       ??1SourceMesh@Gu@physx@@QAE@XZ 100b7640 f   GuBV4.obj
 0001:000b6660       ?reset@SourceMesh@Gu@physx@@QAEXXZ 100b7660 f   GuBV4.obj
 0001:000b66b0       ??4SourceMesh@Gu@physx@@QAEXAAV012@@Z 100b76b0 f   GuBV4.obj
 0001:000b6710       ?remapTopology@SourceMesh@Gu@physx@@QAEXPBI@Z 100b7710 f   GuBV4.obj
 0001:000b6a70       ?isValid@SourceMesh@Gu@physx@@QBE_NXZ 100b7a70 f   GuBV4.obj
 0001:000b6ac0       ??0BV4Tree@Gu@physx@@QAE@W4PxEMPTY@2@@Z 100b7ac0 f   GuBV4.obj
 0001:000b6b00       ?exportExtraData@BV4Tree@Gu@physx@@QAEXAAVPxSerializationContext@3@@Z 100b7b00 f   GuBV4.obj
 0001:000b6b50       ?importExtraData@BV4Tree@Gu@physx@@QAEXAAVPxDeserializationContext@3@@Z 100b7b50 f   GuBV4.obj
 0001:000b6b90       ??0BV4Tree@Gu@physx@@QAE@XZ 100b7b90 f   GuBV4.obj
 0001:000b6bd0       ??0BV4Tree@Gu@physx@@QAE@PAVSourceMesh@12@ABVPxBounds3@2@@Z 100b7bd0 f   GuBV4.obj
 0001:000b6c20       ??1BV4Tree@Gu@physx@@QAE@XZ 100b7c20 f   GuBV4.obj
 0001:000b6c40       ?load@BV4Tree@Gu@physx@@QAE_NAAVPxInputStream@3@_N@Z 100b7c40 f   GuBV4.obj
 0001:000b6ea0       ?reset@BV4Tree@Gu@physx@@QAEXXZ 100b7ea0 f   GuBV4.obj
 0001:000b6f20       ??4BV4Tree@Gu@physx@@QAEXAAV012@@Z 100b7f20 f   GuBV4.obj
 0001:000b6fc0       ?init@BV4Tree@Gu@physx@@QAE_NPAVSourceMesh@23@ABVPxBounds3@3@@Z 100b7fc0 f   GuBV4.obj
 0001:000b6ff0       ?release@BV4Tree@Gu@physx@@QAEXXZ 100b7ff0 f   GuBV4.obj
 0001:000b7040       ?refit@BV4Tree@Gu@physx@@QAEXM@Z 100b8040 f   GuBV4.obj
 0001:000b7070       ??$?_UV?$ReflectionAllocator@VIndTri16@Gu@physx@@@shdfnd@physx@@@UserAllocated@shdfnd@physx@@SAPAXIV?$ReflectionAllocator@VIndTri16@Gu@physx@@@12@PBDH@Z 100b8070 f i GuBV4.obj
 0001:000b7090       ??$?_UV?$ReflectionAllocator@VIndTri32@Gu@physx@@@shdfnd@physx@@@UserAllocated@shdfnd@physx@@SAPAXIV?$ReflectionAllocator@VIndTri32@Gu@physx@@@12@PBDH@Z 100b8090 f i GuBV4.obj
 0001:000b70b0       ??$readExtraData@U?$BVDataPackedT@VQuantizedAABB@Gu@physx@@@Gu@physx@@@PxDeserializationContext@physx@@QAEPAU?$BVDataPackedT@VQuantizedAABB@Gu@physx@@@Gu@1@I@Z 100b80b0 f i GuBV4.obj
 0001:000b70e0       ??0?$ReflectionAllocator@VIndTri16@Gu@physx@@@shdfnd@physx@@QAE@PBD@Z 100b80e0 f i GuBV4.obj
 0001:000b70f0       ??0?$ReflectionAllocator@VIndTri32@Gu@physx@@@shdfnd@physx@@QAE@PBD@Z 100b80f0 f i GuBV4.obj
 0001:000b7100       ??0IndTri16@Gu@physx@@QAE@XZ 100b8100 f i GuBV4.obj
 0001:000b7110       ??0IndTri32@Gu@physx@@QAE@XZ 100b8110 f i GuBV4.obj
 0001:000b7120       ??0LocalBounds@Gu@physx@@QAE@W4PxEMPTY@2@@Z 100b8120 f i GuBV4.obj
 0001:000b7140       ??0LocalBounds@Gu@physx@@QAE@XZ 100b8140 f i GuBV4.obj
 0001:000b7170       ??1IndTri16@Gu@physx@@QAE@XZ 100b8170 f i GuBV4.obj
 0001:000b7180       ??1IndTri32@Gu@physx@@QAE@XZ 100b8180 f i GuBV4.obj
 0001:000b7190       ??4LocalBounds@Gu@physx@@QAEAAU012@ABU012@@Z 100b8190 f i GuBV4.obj
 0001:000b71c0       ??_EIndTri16@Gu@physx@@QAEPAXI@Z 100b81c0 f i GuBV4.obj
 0001:000b7270       ??_EIndTri32@Gu@physx@@QAEPAXI@Z 100b8270 f i GuBV4.obj
 0001:000b7320       ?allocate@?$ReflectionAllocator@VIndTri16@Gu@physx@@@shdfnd@physx@@QAEPAXIPBDH@Z 100b8320 f i GuBV4.obj
 0001:000b7370       ?allocate@?$ReflectionAllocator@VIndTri32@Gu@physx@@@shdfnd@physx@@QAEPAXIPBDH@Z 100b8370 f i GuBV4.obj
 0001:000b73c0       ?getName@?$ReflectionAllocator@VIndTri16@Gu@physx@@@shdfnd@physx@@CAPBDXZ 100b83c0 f i GuBV4.obj
 0001:000b7400       ?getName@?$ReflectionAllocator@VIndTri32@Gu@physx@@@shdfnd@physx@@CAPBDXZ 100b8400 f i GuBV4.obj
 0001:000b7440       ?init@LocalBounds@Gu@physx@@QAEXABVPxBounds3@3@@Z 100b8440 f i GuBV4.obj
 0001:000b7480       ?readBigEndianVersionNumber@physx@@YA_NAAVPxInputStream@1@_NAAIAA_N@Z 100b8480 f i GuBV4.obj
 0001:000b75f0       ??0AABBTree@Gu@physx@@QAE@XZ 100b85f0 f   GuBV4Build.obj
 0001:000b7620       ??1AABBTree@Gu@physx@@QAE@XZ 100b8620 f   GuBV4Build.obj
 0001:000b7640       ?buildFromMesh@AABBTree@Gu@physx@@QAE_NAAVSourceMesh@23@I@Z 100b8640 f   GuBV4Build.obj
 0001:000b7a50       ?release@AABBTree@Gu@physx@@QAEXXZ 100b8a50 f   GuBV4Build.obj
 0001:000b7ac0       ?walk@AABBTree@Gu@physx@@QBEIP6A_NPBVAABBTreeNode@23@IPAX@Z1@Z 100b8ac0 f   GuBV4Build.obj
 0001:000b7b00       ?BuildBV4Ex@Gu@physx@@YA_NAAVBV4Tree@12@AAVSourceMesh@12@MI@Z 100b8b00 f   GuBV4Build.obj
 0001:000b8bf0       ??0BVData@@QAE@XZ          100b9bf0 f   GuBV4Build.obj
 0001:000b8c30       ??1BV4BuildParams@@QAE@XZ  100b9c30 f   GuBV4Build.obj
 0001:000b8c50       ?allocateNode@BV4BuildParams@@QAEPAUBV4Node@@XZ 100b9c50 f   GuBV4Build.obj
 0001:000b8d20       ?releaseNodes@BV4BuildParams@@QAEXXZ 100b9d20 f   GuBV4Build.obj
 0001:000ba690       ??$?2V?$ReflectionAllocator@USlab@BV4BuildParams@@@shdfnd@physx@@@UserAllocated@shdfnd@physx@@SAPAXIV?$ReflectionAllocator@USlab@BV4BuildParams@@@12@PBDH@Z 100bb690 f i GuBV4Build.obj
 0001:000ba6b0       ??$?_UV?$ReflectionAllocator@U?$BVDataPackedT@VQuantizedAABB@Gu@physx@@@Gu@physx@@@shdfnd@physx@@@UserAllocated@shdfnd@physx@@SAPAXIV?$ReflectionAllocator@U?$BVDataPackedT@VQuantizedAABB@Gu@physx@@@Gu@physx@@@12@PBDH@Z 100bb6b0 f i GuBV4Build.obj
 0001:000ba6d0       ??$?_UV?$ReflectionAllocator@VAABBTreeNode@Gu@physx@@@shdfnd@physx@@@UserAllocated@shdfnd@physx@@SAPAXIV?$ReflectionAllocator@VAABBTreeNode@Gu@physx@@@12@PBDH@Z 100bb6d0 f i GuBV4Build.obj
 0001:000ba6f0       ??$swap@PAVAABBTreeNode@Gu@physx@@@shdfnd@physx@@YAXAAPAVAABBTreeNode@Gu@1@0@Z 100bb6f0 f i GuBV4Build.obj
 0001:000ba720       ??$swap@VAABBTreeNode@Gu@physx@@@shdfnd@physx@@YAXAAVAABBTreeNode@Gu@1@0@Z 100bb720 f i GuBV4Build.obj
 0001:000ba760       ??0?$ReflectionAllocator@U?$BVDataPackedT@VQuantizedAABB@Gu@physx@@@Gu@physx@@@shdfnd@physx@@QAE@PBD@Z 100bb760 f i GuBV4Build.obj
 0001:000ba770       ??0?$ReflectionAllocator@USlab@BV4BuildParams@@@shdfnd@physx@@QAE@PBD@Z 100bb770 f i GuBV4Build.obj
 0001:000ba780       ??0?$ReflectionAllocator@VAABBTreeNode@Gu@physx@@@shdfnd@physx@@QAE@PBD@Z 100bb780 f i GuBV4Build.obj
 0001:000ba790       ??0AABBTreeNode@Gu@physx@@QAE@ABV012@@Z 100bb790 f i GuBV4Build.obj
 0001:000ba7d0       ??0AABBTreeNode@Gu@physx@@QAE@XZ 100bb7d0 f i GuBV4Build.obj
 0001:000ba810       ??0BV4BuildParams@@QAE@M@Z 100bb810 f i GuBV4Build.obj
 0001:000ba840       ??0BV4Node@@QAE@XZ         100bb840 f i GuBV4Build.obj
 0001:000ba860       ??0Slab@BV4BuildParams@@QAE@XZ 100bb860 f i GuBV4Build.obj
 0001:000ba890       ??1AABBTreeNode@Gu@physx@@QAE@XZ 100bb890 f i GuBV4Build.obj
 0001:000ba8c0       ??1BV4Node@@QAE@XZ         100bb8c0 f i GuBV4Build.obj
 0001:000ba8e0       ??1BVData@@QAE@XZ          100bb8e0 f i GuBV4Build.obj
 0001:000ba900       ??1Slab@BV4BuildParams@@QAE@XZ 100bb900 f i GuBV4Build.obj
 0001:000ba930       ??4AABBTreeNode@Gu@physx@@QAEAAV012@ABV012@@Z 100bb930 f i GuBV4Build.obj
 0001:000ba970       ??_EAABBTreeNode@Gu@physx@@QAEPAXI@Z 100bb970 f i GuBV4Build.obj
 0001:000baa20       ??_GSlab@BV4BuildParams@@QAEPAXI@Z 100bba20 f i GuBV4Build.obj
 0001:000baa70       ?allocate@?$ReflectionAllocator@U?$BVDataPackedT@VQuantizedAABB@Gu@physx@@@Gu@physx@@@shdfnd@physx@@QAEPAXIPBDH@Z 100bba70 f i GuBV4Build.obj
 0001:000baac0       ?allocate@?$ReflectionAllocator@USlab@BV4BuildParams@@@shdfnd@physx@@QAEPAXIPBDH@Z 100bbac0 f i GuBV4Build.obj
 0001:000bab10       ?allocate@?$ReflectionAllocator@VAABBTreeNode@Gu@physx@@@shdfnd@physx@@QAEPAXIPBDH@Z 100bbb10 f i GuBV4Build.obj
 0001:000bab60       ?encodePNS@?$BVDataPackedT@VQuantizedAABB@Gu@physx@@@Gu@physx@@QAEXI@Z 100bbb60 f i GuBV4Build.obj
 0001:000babc0       ?getAABB@AABBTreeNode@Gu@physx@@QBEABVPxBounds3@3@XZ 100bbbc0 f i GuBV4Build.obj
 0001:000babd0       ?getBV@AABBTree@Gu@physx@@QBEABVPxBounds3@3@XZ 100bbbd0 f i GuBV4Build.obj
 0001:000babf0       ?getChild@BV4Node@@QBEPBU1@I@Z 100bbbf0 f i GuBV4Build.obj
 0001:000bac10       ?getIndices@AABBTree@Gu@physx@@QBEPBIXZ 100bbc10 f i GuBV4Build.obj
 0001:000bac20       ?getName@?$ReflectionAllocator@U?$BVDataPackedT@VQuantizedAABB@Gu@physx@@@Gu@physx@@@shdfnd@physx@@CAPBDXZ 100bbc20 f i GuBV4Build.obj
 0001:000bac60       ?getName@?$ReflectionAllocator@USlab@BV4BuildParams@@@shdfnd@physx@@CAPBDXZ 100bbc60 f i GuBV4Build.obj
 0001:000baca0       ?getName@?$ReflectionAllocator@VAABBTreeNode@Gu@physx@@@shdfnd@physx@@CAPBDXZ 100bbca0 f i GuBV4Build.obj
 0001:000bace0       ?getNbPrimitives@AABBTreeNode@Gu@physx@@QBEIXZ 100bbce0 f i GuBV4Build.obj
 0001:000bad00       ?getNbTriangles@SourceMesh@Gu@physx@@QBEIXZ 100bbd00 f i GuBV4Build.obj
 0001:000bad20       ?getNeg@AABBTreeNode@Gu@physx@@QBEPBV123@XZ 100bbd20 f i GuBV4Build.obj
 0001:000bad60       ?getNodes@AABBTree@Gu@physx@@QBEPBVAABBTreeNode@23@XZ 100bbd60 f i GuBV4Build.obj
 0001:000bad80       ?getPos@AABBTreeNode@Gu@physx@@QBEPBV123@XZ 100bbd80 f i GuBV4Build.obj
 0001:000bada0       ?getPrimitives@AABBTreeNode@Gu@physx@@QBEPBIXZ 100bbda0 f i GuBV4Build.obj
 0001:000badc0       ?getTriangle@SourceMesh@Gu@physx@@QBEXAAUVertexPointers@23@I@Z 100bbdc0 f i GuBV4Build.obj
 0001:000bae40       ?getType@BV4Node@@QBEIXZ   100bbe40 f i GuBV4Build.obj
 0001:000bae90       ?getVertexReferences@Gu@physx@@YAXAAI00IPBVIndTri32@12@PBVIndTri16@12@@Z 100bbe90 f i GuBV4Build.obj
 0001:000baf30       ?isLeaf@AABBTreeNode@Gu@physx@@QBE_NXZ 100bbf30 f i GuBV4Build.obj
 0001:000baf60       ?isLeaf@BV4Node@@QBEII@Z   100bbf60 f i GuBV4Build.obj
 0001:000bc6e0       ?Sweep_AABB_BV4@@YAHABVBox@Gu@physx@@ABVPxVec3@3@MABVBV4Tree@23@PIAVSweepHit@23@I@Z 100bd6e0 f   GuBV4_AABBSweep.obj
 0001:000bca70       ?Sweep_AABB_BV4_CB@@YAXABVBox@Gu@physx@@ABVPxVec3@3@MABVBV4Tree@23@PIBVPxMat44@3@P6A_NPAXABVSweepHit@23@@Z4I_N@Z 100bda70 f   GuBV4_AABBSweep.obj
 0001:000bced0       ?GenericSweep_AABB_CB@@YAXABVBox@Gu@physx@@ABVPxVec3@3@MABVBV4Tree@23@P6A_NPAX111IAAM@Z3I@Z 100bded0 f   GuBV4_AABBSweep.obj
 0001:000c3d70       ??$V4SplatElement@$00@aos@shdfnd@physx@@YA?AT__m128@@T3@@Z 100c4d70 f i GuBV4_AABBSweep.obj
 0001:000c3dc0       ??$V4SplatElement@$01@aos@shdfnd@physx@@YA?AT__m128@@T3@@Z 100c4dc0 f i GuBV4_AABBSweep.obj
 0001:000c3e10       ??$V4SplatElement@$0A@@aos@shdfnd@physx@@YA?AT__m128@@T3@@Z 100c4e10 f i GuBV4_AABBSweep.obj
 0001:000c4350       ??0RayParams@@QAE@XZ       100c5350 f i GuBV4_AABBSweep.obj
 0001:000c4380       ??0RaycastHitInternal@Gu@physx@@QAE@XZ 100c5380 f i GuBV4_AABBSweep.obj
 0001:000c4390       ??0SweepHit@Gu@physx@@QAE@XZ 100c5390 f i GuBV4_AABBSweep.obj
 0001:000c43c0       ??1RayParams@@QAE@XZ       100c53c0 f i GuBV4_AABBSweep.obj
 0001:000c43f0       ??1RaycastHitInternal@Gu@physx@@QAE@XZ 100c53f0 f i GuBV4_AABBSweep.obj
 0001:000c4400       ??1SweepHit@Gu@physx@@QAE@XZ 100c5400 f i GuBV4_AABBSweep.obj
 0001:000c4410       ?V4RecipFast@aos@shdfnd@physx@@YA?AT__m128@@T4@@Z 100c5410 f i GuBV4_AABBSweep.obj
 0001:000c4440       ?computeBoxLocalImpact@Gu@physx@@YAXAAVPxVec3@2@0AAV?$PxFlags@W4Enum@PxHitFlag@physx@@G@2@ABVBox@12@ABV32@ABVPxTriangle@2@V42@_N6M@Z 100c5440 f i GuBV4_AABBSweep.obj
 0001:000c45b0       ?cross010@shdfnd@physx@@YA?AVPxVec3@2@ABV32@@Z 100c55b0 f i GuBV4_AABBSweep.obj
 0001:000c45f0       ?cross100@shdfnd@physx@@YA?AVPxVec3@2@ABV32@@Z 100c55f0 f i GuBV4_AABBSweep.obj
 0001:000c4630       ?decodePNSNoShift@BVDataSwizzledQ@Gu@physx@@QBEII@Z 100c5630 f i GuBV4_AABBSweep.obj
 0001:000c4650       ?getChildData@BVDataSwizzledQ@Gu@physx@@QBEII@Z 100c5650 f i GuBV4_AABBSweep.obj
 0001:000c4670       ?getNbPrimitives@Gu@physx@@YAIAAI@Z 100c5670 f i GuBV4_AABBSweep.obj
 0001:000c46a0       ?getPrimitive@BVDataSwizzledQ@Gu@physx@@QBEII@Z 100c56a0 f i GuBV4_AABBSweep.obj
 0001:000c46c0       ?getTris16@SourceMesh@Gu@physx@@QBEPBVIndTri16@23@XZ 100c56c0 f i GuBV4_AABBSweep.obj
 0001:000c46e0       ?getTris32@SourceMesh@Gu@physx@@QBEPBVIndTri32@23@XZ 100c56e0 f i GuBV4_AABBSweep.obj
 0001:000c4700       ?getVerts@SourceMeshBase@Gu@physx@@QBEPBVPxVec3@3@XZ 100c5700 f i GuBV4_AABBSweep.obj
 0001:000c4720       ?invertBoxMatrix@Gu@physx@@YAXAAVPxMat33@2@AAVPxVec3@2@ABVBox@12@@Z 100c5720 f i GuBV4_AABBSweep.obj
 0001:000c48e0       ?isLeaf@BVDataSwizzledQ@Gu@physx@@QBEII@Z 100c58e0 f i GuBV4_AABBSweep.obj
 0001:000c4900       ?shouldFlipNormal@Gu@physx@@YA_NABVPxVec3@2@_N1ABVPxTriangle@2@0PBVPxTransform@2@@Z 100c5900 f i GuBV4_AABBSweep.obj
 0001:000c49e0       ?testSeparationAxes@Gu@physx@@YAHABVPxTriangle@2@ABVPxVec3@2@111MAAM@Z 100c59e0 f i GuBV4_AABBSweep.obj
 0001:000c4c90       ?triBoxSweepTestBoxSpace_inlined@Gu@physx@@YAHABVPxTriangle@2@ABVPxVec3@2@11MAAMI@Z 100c5c90 f i GuBV4_AABBSweep.obj
 0001:000c4e40       ?BV4_OverlapBoxAny@@YAHABVBox@Gu@physx@@ABVBV4Tree@23@PIBVPxMat44@3@@Z 100c5e40 f   GuBV4_BoxOverlap.obj
 0001:000c5100       ?BV4_OverlapBoxAll@@YAIABVBox@Gu@physx@@ABVBV4Tree@23@PIBVPxMat44@3@PAIIAA_N@Z 100c6100 f   GuBV4_BoxOverlap.obj
 0001:000c5400       ?BV4_OverlapBoxCB@@YAXABVBox@Gu@physx@@ABVBV4Tree@23@P6A_NPAXABVPxVec3@3@33IPBI@Z2@Z 100c6400 f   GuBV4_BoxOverlap.obj
 0001:000c5850       ?BV4_OverlapCapsuleAny@@YAHABVCapsule@Gu@physx@@ABVBV4Tree@23@PIBVPxMat44@3@@Z 100c6850 f   GuBV4_BoxOverlap.obj
 0001:000c5a70       ?BV4_OverlapCapsuleAll@@YAIABVCapsule@Gu@physx@@ABVBV4Tree@23@PIBVPxMat44@3@PAIIAA_N@Z 100c6a70 f   GuBV4_BoxOverlap.obj
 0001:000c5d30       ?BV4_OverlapCapsuleCB@@YAXABVCapsule@Gu@physx@@ABVBV4Tree@23@PIBVPxMat44@3@P6A_NPAXABVPxVec3@3@44IPBI@Z3@Z 100c6d30 f   GuBV4_BoxOverlap.obj
 0001:000ca460       ??$precomputeData@UOBBTestParams@@@@YAXPIAUOBBTestParams@@PIAVPxMat33@physx@@PIBV12@@Z 100cb460 f i GuBV4_BoxOverlap.obj
 0001:000ca830       ??$setupBoxData@UOBBTestParams@@@@YAXPIAUOBBTestParams@@ABVPxVec3@physx@@PIBVPxMat33@2@@Z 100cb830 f i GuBV4_BoxOverlap.obj
 0001:000ca930       ??$setupMeshPointersAndQuantizedCoeffs@UCapsuleParamsAll@@@Gu@physx@@YAXPIAUCapsuleParamsAll@@PIBVSourceMesh@01@PIBVBV4Tree@01@@Z 100cb930 f i GuBV4_BoxOverlap.obj
 0001:000ca9d0       ??$setupMeshPointersAndQuantizedCoeffs@UCapsuleParamsAny@@@Gu@physx@@YAXPIAUCapsuleParamsAny@@PIBVSourceMesh@01@PIBVBV4Tree@01@@Z 100cb9d0 f i GuBV4_BoxOverlap.obj
 0001:000caa70       ??$setupMeshPointersAndQuantizedCoeffs@UCapsuleParamsCB@@@Gu@physx@@YAXPIAUCapsuleParamsCB@@PIBVSourceMesh@01@PIBVBV4Tree@01@@Z 100cba70 f i GuBV4_BoxOverlap.obj
 0001:000cab10       ??$setupMeshPointersAndQuantizedCoeffs@UOBBParams@@@Gu@physx@@YAXPIAUOBBParams@@PIBVSourceMesh@01@PIBVBV4Tree@01@@Z 100cbb10 f i GuBV4_BoxOverlap.obj
 0001:000cabb0       ??$setupMeshPointersAndQuantizedCoeffs@UOBBParamsAll@@@Gu@physx@@YAXPIAUOBBParamsAll@@PIBVSourceMesh@01@PIBVBV4Tree@01@@Z 100cbbb0 f i GuBV4_BoxOverlap.obj
 0001:000cac50       ??$setupMeshPointersAndQuantizedCoeffs@UOBBParamsCB@@@Gu@physx@@YAXPIAUOBBParamsCB@@PIBVSourceMesh@01@PIBVBV4Tree@01@@Z 100cbc50 f i GuBV4_BoxOverlap.obj
 0001:000cacf0       ??0CapsuleParamsAll@@QAE@XZ 100cbcf0 f i GuBV4_BoxOverlap.obj
 0001:000cad10       ??0CapsuleParamsAny@@QAE@XZ 100cbd10 f i GuBV4_BoxOverlap.obj
 0001:000cad50       ??0CapsuleParamsCB@@QAE@XZ 100cbd50 f i GuBV4_BoxOverlap.obj
 0001:000cad70       ??0CapsuleTriangleOverlapData@Gu@physx@@QAE@XZ 100cbd70 f i GuBV4_BoxOverlap.obj
 0001:000cad90       ??0OBBParams@@QAE@XZ       100cbd90 f i GuBV4_BoxOverlap.obj
 0001:000cadd0       ??0OBBParamsAll@@QAE@XZ    100cbdd0 f i GuBV4_BoxOverlap.obj
 0001:000cadf0       ??0OBBParamsCB@@QAE@XZ     100cbdf0 f i GuBV4_BoxOverlap.obj
 0001:000cae10       ??0OBBTestParams@@QAE@XZ   100cbe10 f i GuBV4_BoxOverlap.obj
 0001:000caea0       ??0PxMat44@physx@@QAE@XZ   100cbea0 f i GuBV4_BoxOverlap.obj
 0001:000caee0       ??1CapsuleParamsAll@@QAE@XZ 100cbee0 f i GuBV4_BoxOverlap.obj
 0001:000caf00       ??1CapsuleParamsAny@@QAE@XZ 100cbf00 f i GuBV4_BoxOverlap.obj
 0001:000caf30       ??1CapsuleParamsCB@@QAE@XZ 100cbf30 f i GuBV4_BoxOverlap.obj
 0001:000caf50       ??1OBBParams@@QAE@XZ       100cbf50 f i GuBV4_BoxOverlap.obj
 0001:000caf80       ??1OBBParamsAll@@QAE@XZ    100cbf80 f i GuBV4_BoxOverlap.obj
 0001:000cafa0       ??1OBBParamsCB@@QAE@XZ     100cbfa0 f i GuBV4_BoxOverlap.obj
 0001:000cafc0       ??1OBBTestParams@@QAE@XZ   100cbfc0 f i GuBV4_BoxOverlap.obj
 0001:000cb050       ?BV4_BoxBoxOverlap@@YAHT__m128@@0PIBUOBBTestParams@@@Z 100cc050 f i GuBV4_BoxOverlap.obj
 0001:000cb490       ?computeLocalBox@Gu@physx@@YAXAAVBox@12@ABV312@PIBVPxMat44@2@@Z 100cc490 f i GuBV4_BoxOverlap.obj
 0001:000cb4e0       ?computeLocalCapsule@Gu@physx@@YAXAAVCapsule@12@ABV312@PIBVPxMat44@2@@Z 100cc4e0 f i GuBV4_BoxOverlap.obj
 0001:000cb560       ?init@CapsuleTriangleOverlapData@Gu@physx@@QAEXABVCapsule@23@@Z 100cc560 f i GuBV4_BoxOverlap.obj
 0001:000cb5f0       ?inverseTransform@Gu@physx@@YA?AVPxVec3@2@PIBVPxMat44@2@ABV32@@Z 100cc5f0 f i GuBV4_BoxOverlap.obj
 0001:000cb7c0       ?invertPRMatrix@Gu@physx@@YAXPIAVPxMat44@2@PIBV32@@Z 100cc7c0 f i GuBV4_BoxOverlap.obj
 0001:000cb9b0       ?precomputeBoxData@OBBTestParams@@QAEXABVPxVec3@physx@@PIBVPxMat33@3@@Z 100cc9b0 f i GuBV4_BoxOverlap.obj
 0001:000cb9f0       ?rotateBox@Gu@physx@@YAXAAVBox@12@ABVPxMat44@2@ABV312@@Z 100cc9f0 f i GuBV4_BoxOverlap.obj
 0001:000cd330       ?BV4_CapsuleSweepSingle@@YAHABVCapsule@Gu@physx@@ABVPxVec3@3@MABVBV4Tree@23@PIAVSweepHit@23@I@Z 100ce330 f   GuBV4_CapsuleSweep.obj
 0001:000cdb10       ?BV4_CapsuleSweepCB@@YAXABVCapsule@Gu@physx@@ABVPxVec3@3@MABVBV4Tree@23@PIBVPxMat44@3@P6A_NPAXABVSweepHit@23@@Z4I_N@Z 100ceb10 f   GuBV4_CapsuleSweep.obj
 0001:000d14c0       ??$PX_UNUSED@_N@@YAXAB_N@Z 100d24c0 f i GuBV4_CapsuleSweep.obj
 0001:000d1c70       ??4Capsule@Gu@physx@@QAEAAV012@ABV012@@Z 100d2c70 f i GuBV4_CapsuleSweep.obj
 0001:000d1ca0       ??4Segment@Gu@physx@@QAEAAV012@ABV012@@Z 100d2ca0 f i GuBV4_CapsuleSweep.obj
 0001:000d1cd0       ?coarseCullingQuad@Gu@physx@@YA_NABVPxVec3@2@0MMPIBV32@@Z 100d2cd0 f i GuBV4_CapsuleSweep.obj
 0001:000d1e80       ?coarseCullingTri@Gu@physx@@YA_NABVPxVec3@2@0MMPIBV32@@Z 100d2e80 f i GuBV4_CapsuleSweep.obj
 0001:000d20b0       ?computeAlignmentValue@Gu@physx@@YAMABVPxVec3@2@0@Z 100d30b0 f i GuBV4_CapsuleSweep.obj
 0001:000d20f0       ?cullQuad@Gu@physx@@YA_NPIBVPxVec3@2@ABV32@MMM@Z 100d30f0 f i GuBV4_CapsuleSweep.obj
 0001:000d2240       ?keepTriangle@Gu@physx@@YA_NMMMMMM@Z 100d3240 f i GuBV4_CapsuleSweep.obj
 0001:000d2310       ?rejectQuad@Gu@physx@@YA_NABVPxVec3@2@0MMPIBV32@M@Z 100d3310 f i GuBV4_CapsuleSweep.obj
 0001:000d2390       ?rejectTriangle@Gu@physx@@YA_NABVPxVec3@2@0MMPIBV32@M@Z 100d3390 f i GuBV4_CapsuleSweep.obj
 0001:000d2410       ?squareDistance@Gu@physx@@YAMABVPxVec3@2@0M0@Z 100d3410 f i GuBV4_CapsuleSweep.obj
 0001:000d3b50       ?BV4_CapsuleSweepSingleAA@@YAHABVCapsule@Gu@physx@@ABVPxVec3@3@MABVBV4Tree@23@PIAVSweepHit@23@I@Z 100d4b50 f   GuBV4_CapsuleSweepAA.obj
 0001:000d7f50       ?Sweep_OBB_BV4@@YAHABVBox@Gu@physx@@ABVPxVec3@3@MABVBV4Tree@23@PIAVSweepHit@23@I@Z 100d8f50 f   GuBV4_OBBSweep.obj
 0001:000d82c0       ?Sweep_OBB_BV4_CB@@YAXABVBox@Gu@physx@@ABVPxVec3@3@MABVBV4Tree@23@PIBVPxMat44@3@P6A_NPAXABVSweepHit@23@@Z4I_N@Z 100d92c0 f   GuBV4_OBBSweep.obj
 0001:000d8750       ?GenericSweep_OBB_CB@@YAXABVBox@Gu@physx@@ABVPxVec3@3@MABVBV4Tree@23@P6A_NPAX111IAAM@Z3I@Z 100d9750 f   GuBV4_OBBSweep.obj
 0001:000d8a20       ?BV4_BoxSweepSingle@@YAHABVBox@Gu@physx@@ABVPxVec3@3@MABVBV4Tree@23@PIBVPxMat44@3@PIAVSweepHit@23@I@Z 100d9a20 f   GuBV4_OBBSweep.obj
 0001:000d8b20       ?BV4_BoxSweepCB@@YAXABVBox@Gu@physx@@ABVPxVec3@3@MABVBV4Tree@23@PIBVPxMat44@3@P6A_NPAXABVSweepHit@23@@Z4I_N@Z 100d9b20 f   GuBV4_OBBSweep.obj
 0001:000d8be0       ?BV4_GenericSweepCB@@YAXABVBox@Gu@physx@@ABVPxVec3@3@MABVBV4Tree@23@P6A_NPAX111IAAM@Z3_N@Z 100d9be0 f   GuBV4_OBBSweep.obj
 0001:000df160       ?BV4_RaycastSingle@@YAHABVPxVec3@physx@@0ABVBV4Tree@Gu@2@PIBVPxMat44@2@PIAUPxRaycastHit@2@MMIV?$PxFlags@W4Enum@PxHitFlag@physx@@G@2@@Z 100e0160 f   GuBV4_Raycast.obj
 0001:000df4a0       ?BV4_RaycastCB@@YAXABVPxVec3@physx@@0ABVBV4Tree@Gu@2@PIBVPxMat44@2@MMIP6A?AW4HitCode@42@PAX000IMMM@Z3@Z 100e04a0 f   GuBV4_Raycast.obj
 0001:000df800       ?BV4_RaycastAll@@YAIABVPxVec3@physx@@0ABVBV4Tree@Gu@2@PIBVPxMat44@2@PIAUPxRaycastHit@2@IMMIV?$PxFlags@W4Enum@PxHitFlag@physx@@G@2@@Z 100e0800 f   GuBV4_Raycast.obj
 0001:000e3b40       ??$RayTriOverlapT@URayParams@@@@YAHAAUPxRaycastHit@physx@@ABVPxVec3@1@11PIBURayParams@@@Z 100e4b40 f i GuBV4_Raycast.obj
 0001:000e3f40       ??$setupMeshPointersAndQuantizedCoeffs@URayParams@@@Gu@physx@@YAXPIAURayParams@@PIBVSourceMesh@01@PIBVBV4Tree@01@@Z 100e4f40 f i GuBV4_Raycast.obj
 0001:000e4120       ??$setupParamsFlags@URayParams@@@Gu@physx@@YAXPIAURayParams@@I@Z 100e5120 f i GuBV4_Raycast.obj
 0001:000e41e0       ??0RaycastHitInternalUV@@QAE@XZ 100e51e0 f i GuBV4_Raycast.obj
 0001:000e4200       ??1RaycastHitInternalUV@@QAE@XZ 100e5200 f i GuBV4_Raycast.obj
 0001:000e4220       ?computeLocalRay@Gu@physx@@YAXAAVPxVec3@2@0ABV32@1PIBVPxMat44@2@@Z 100e5220 f i GuBV4_Raycast.obj
 0001:000e4290       ?inverseRotate@Gu@physx@@YA?AVPxVec3@2@PIBVPxMat44@2@ABV32@@Z 100e5290 f i GuBV4_Raycast.obj
 0001:000e4700       ?BV4_OverlapSphereAny@@YAHABVSphere@Gu@physx@@ABVBV4Tree@23@PIBVPxMat44@3@@Z 100e5700 f   GuBV4_SphereOverlap.obj
 0001:000e4900       ?BV4_OverlapSphereAll@@YAIABVSphere@Gu@physx@@ABVBV4Tree@23@PIBVPxMat44@3@PAIIAA_N@Z 100e5900 f   GuBV4_SphereOverlap.obj
 0001:000e4b90       ?BV4_OverlapSphereCB@@YAXABVSphere@Gu@physx@@ABVBV4Tree@23@PIBVPxMat44@3@P6A_NPAXABVPxVec3@3@44IPBI@Z3@Z 100e5b90 f   GuBV4_SphereOverlap.obj
 0001:000e6b80       ??$setupMeshPointersAndQuantizedCoeffs@USphereParams@@@Gu@physx@@YAXPIAUSphereParams@@PIBVSourceMesh@01@PIBVBV4Tree@01@@Z 100e7b80 f i GuBV4_SphereOverlap.obj
 0001:000e6c20       ??$setupMeshPointersAndQuantizedCoeffs@USphereParamsAll@@@Gu@physx@@YAXPIAUSphereParamsAll@@PIBVSourceMesh@01@PIBVBV4Tree@01@@Z 100e7c20 f i GuBV4_SphereOverlap.obj
 0001:000e6cc0       ??$setupMeshPointersAndQuantizedCoeffs@USphereParamsCB@@@Gu@physx@@YAXPIAUSphereParamsCB@@PIBVSourceMesh@01@PIBVBV4Tree@01@@Z 100e7cc0 f i GuBV4_SphereOverlap.obj
 0001:000e6d60       ??0SphereParams@@QAE@XZ    100e7d60 f i GuBV4_SphereOverlap.obj
 0001:000e6da0       ??0SphereParamsAll@@QAE@XZ 100e7da0 f i GuBV4_SphereOverlap.obj
 0001:000e6dc0       ??0SphereParamsCB@@QAE@XZ  100e7dc0 f i GuBV4_SphereOverlap.obj
 0001:000e6de0       ??1SphereParams@@QAE@XZ    100e7de0 f i GuBV4_SphereOverlap.obj
 0001:000e6e10       ??1SphereParamsAll@@QAE@XZ 100e7e10 f i GuBV4_SphereOverlap.obj
 0001:000e6e30       ??1SphereParamsCB@@QAE@XZ  100e7e30 f i GuBV4_SphereOverlap.obj
 0001:000e6e50       ?closestPtPointTriangle2@Gu@physx@@YA?AVPxVec3@2@ABV32@00000@Z 100e7e50 f i GuBV4_SphereOverlap.obj
 0001:000e71d0       ?computeLocalSphere@Gu@physx@@YAXAAMAAVPxVec3@2@ABVSphere@12@PIBVPxMat44@2@@Z 100e81d0 f i GuBV4_SphereOverlap.obj
 0001:000e76b0       ?BV4_SphereSweepSingle@@YAHABVSphere@Gu@physx@@ABVPxVec3@3@MABVBV4Tree@23@PIBVPxMat44@3@PIAVSweepHit@23@I@Z 100e86b0 f   GuBV4_SphereSweep.obj
 0001:000e7e20       ?BV4_SphereSweepCB@@YAXABVSphere@Gu@physx@@ABVPxVec3@3@MABVBV4Tree@23@PIBVPxMat44@3@P6A_NPAXABVSweepHit@23@@Z4I_N@Z 100e8e20 f   GuBV4_SphereSweep.obj
 0001:000e8150       ?BV4_GenericSweepCB_Old@@YAXABVPxVec3@physx@@00MABVBV4Tree@Gu@2@PIBVPxMat44@2@P6A_NPAX000IAAM@Z3@Z 100e9150 f   GuBV4_SphereSweep.obj
 0001:000ee4e0       ??0Sphere@Gu@physx@@QAE@XZ 100ef4e0 f i GuBV4_SphereSweep.obj
 0001:000ee5e0       ?raycast_triangleMesh_BV4@Gu@physx@@YAIPBVTriangleMesh@12@ABVPxTriangleMeshGeometry@2@ABVPxTransform@2@ABVPxVec3@2@3MV?$PxFlags@W4Enum@PxHitFlag@physx@@G@2@IPIAUPxRaycastHit@2@@Z 100ef5e0 f   GuMidphaseBV4.obj
 0001:000eeb40       ?intersectSphereVsMesh_BV4@Gu@physx@@YA_NABVSphere@12@ABVTriangleMesh@12@ABVPxTransform@2@ABVPxMeshScale@2@PAULimitedResults@12@@Z 100efb40 f   GuMidphaseBV4.obj
 0001:000eed40       ?intersectBoxVsMesh_BV4@Gu@physx@@YA_NABVBox@12@ABVTriangleMesh@12@ABVPxTransform@2@ABVPxMeshScale@2@PAULimitedResults@12@@Z 100efd40 f   GuMidphaseBV4.obj
 0001:000eef00       ?intersectCapsuleVsMesh_BV4@Gu@physx@@YA_NABVCapsule@12@ABVTriangleMesh@12@ABVPxTransform@2@ABVPxMeshScale@2@PAULimitedResults@12@@Z 100eff00 f   GuMidphaseBV4.obj
 0001:000ef0f0       ?intersectOBB_BV4@Gu@physx@@YAXPBVTriangleMesh@12@ABVBox@12@AAU?$MeshHitCallback@UPxRaycastHit@physx@@@12@_N3@Z 100f00f0 f   GuMidphaseBV4.obj
 0001:000ef130       ?sweepCapsule_MeshGeom_BV4@Gu@physx@@YA_NPBVTriangleMesh@12@ABVPxTriangleMeshGeometry@2@ABVPxTransform@2@ABVCapsule@12@ABVPxVec3@2@MAAUPxSweepHit@2@V?$PxFlags@W4Enum@PxHitFlag@physx@@G@2@M@Z 100f0130 f   GuMidphaseBV4.obj
 0001:000ef750       ?sweepBox_MeshGeom_BV4@Gu@physx@@YA_NPBVTriangleMesh@12@ABVPxTriangleMeshGeometry@2@ABVPxTransform@2@ABVBox@12@ABVPxVec3@2@MAAUPxSweepHit@2@V?$PxFlags@W4Enum@PxHitFlag@physx@@G@2@M@Z 100f0750 f   GuMidphaseBV4.obj
 0001:000eff00       ?sweepConvex_MeshGeom_BV4@Gu@physx@@YAXPBVTriangleMesh@12@ABVBox@12@ABVPxVec3@2@MAAUSweepConvexMeshHitCallback@12@_N@Z 100f0f00 f   GuMidphaseBV4.obj
 0001:000f1510       ??0BV4RaycastCBParams@@QAE@PAUPxRaycastHit@physx@@IPBVPxMeshScale@2@PBVPxTransform@2@PBVMatrix34@Cm@2@IABVPxVec3@2@_NM@Z 100f2510 f i GuMidphaseBV4.obj
 0001:000f1580       ??0Matrix34Padded@Gu@physx@@QAE@ABVMatrix34@Cm@2@@Z 100f2580 f i GuMidphaseBV4.obj
 0001:000f15a0       ??0PxRaycastHit@physx@@QAE@XZ 100f25a0 f i GuMidphaseBV4.obj
 0001:000f15d0       ??1Matrix34Padded@Gu@physx@@QAE@XZ 100f25d0 f i GuMidphaseBV4.obj
 0001:000f15e0       ??1SweepBoxMeshHitCallback@Gu@physx@@UAE@XZ 100f25e0 f i GuMidphaseBV4.obj
 0001:000f1610       ??1SweepCapsuleMeshHitCallback@Gu@physx@@UAE@XZ 100f2610 f i GuMidphaseBV4.obj
 0001:000f1630       ??1SweepShapeMeshHitCallback@Gu@physx@@UAE@XZ 100f2630 f i GuMidphaseBV4.obj
 0001:000f1650       ??4PxRaycastHit@physx@@QAEAAU01@ABU01@@Z 100f2650 f i GuMidphaseBV4.obj
 0001:000f16d0       ??_GSweepBoxMeshHitCallback@Gu@physx@@UAEPAXI@Z 100f26d0 f i GuMidphaseBV4.obj
 0001:000f16d0       ??_ESweepBoxMeshHitCallback@Gu@physx@@UAEPAXI@Z 100f26d0 f i GuMidphaseBV4.obj
 0001:000f1710       ?add@LimitedResults@Gu@physx@@QAE_NI@Z 100f2710 f i GuMidphaseBV4.obj
 0001:000f1780       ?computeSweepData@physx@@YAMABVPxTriangleMeshGeometry@1@AAVPxVec3@1@11M@Z 100f2780 f i GuMidphaseBV4.obj
 0001:000f18f0       ?getBV4Tree@BV4TriangleMesh@Gu@physx@@QBEABVBV4Tree@23@XZ 100f28f0 f i GuMidphaseBV4.obj
 0001:000f1910       ?getGeomEpsilon@TriangleMesh@Gu@physx@@QBEMXZ 100f2910 f i GuMidphaseBV4.obj
 0001:000f1930       ?getInverse@physx@@YAXAAVPxMat33@1@AAVPxVec3@1@ABV21@ABV31@@Z 100f2930 f i GuMidphaseBV4.obj
 0001:000f1980       ?setupSweepHitForMTD@Gu@physx@@YAXAAUPxSweepHit@2@_NABVPxVec3@2@@Z 100f2980 f i GuMidphaseBV4.obj
 0001:000f1a10       ?transform@PxMeshScale@physx@@QBE?AVPxVec3@2@ABV32@@Z 100f2a10 f i GuMidphaseBV4.obj
 0001:000f1a60       ?getTriangle@PxMeshQuery@physx@@SAXABVPxTriangleMeshGeometry@2@ABVPxTransform@2@IAAVPxTriangle@2@PAI3@Z 100f2a60 f   GuMeshQuery.obj
 0001:000f1b30       ?getTriangle@PxMeshQuery@physx@@SAXABVPxHeightFieldGeometry@2@ABVPxTransform@2@IAAVPxTriangle@2@PAI3@Z 100f2b30 f   GuMeshQuery.obj
 0001:000f1b70       ?findOverlapTriangleMesh@PxMeshQuery@physx@@SAIABVPxGeometry@2@ABVPxTransform@2@ABVPxTriangleMeshGeometry@2@1PAIIIAA_N@Z 100f2b70 f   GuMeshQuery.obj
 0001:000f1d40       ?findOverlapHeightField@PxMeshQuery@physx@@SAIABVPxGeometry@2@ABVPxTransform@2@ABVPxHeightFieldGeometry@2@1PAIIIAA_N@Z 100f2d40 f   GuMeshQuery.obj
 0001:000f1fc0       ?sweep@PxMeshQuery@physx@@SA_NABVPxVec3@2@MABVPxGeometry@2@ABVPxTransform@2@IPBVPxTriangle@2@AAUPxSweepHit@2@V?$PxFlags@W4Enum@PxHitFlag@physx@@G@2@PBIM_N@Z 100f2fc0 f   GuMeshQuery.obj
 0001:000f2660       ??0LimitedResults@Gu@physx@@QAE@PAIII@Z 100f3660 f i GuMeshQuery.obj
 0001:000f26a0       ??0PxBoxGeometry@physx@@QAE@XZ 100f36a0 f i GuMeshQuery.obj
 0001:000f26e0       ??0PxProfileScoped@physx@@QAE@PAVPxProfilerCallback@1@PBD_N_K@Z 100f36e0 f i GuMeshQuery.obj
 0001:000f2760       ??1PxProfileScoped@physx@@QAE@XZ 100f3760 f i GuMeshQuery.obj
 0001:000f27b0       ?intersectBoxVsMesh@Midphase@Gu@physx@@YA_NABVBox@23@ABVTriangleMesh@23@ABVPxTransform@3@ABVPxMeshScale@3@PAULimitedResults@23@@Z 100f37b0 f i GuMeshQuery.obj
 0001:000f27f0       ?intersectCapsuleVsMesh@Midphase@Gu@physx@@YA_NABVCapsule@23@ABVTriangleMesh@23@ABVPxTransform@3@ABVPxMeshScale@3@PAULimitedResults@23@@Z 100f37f0 f i GuMeshQuery.obj
 0001:000f2830       ?intersectSphereVsMesh@Midphase@Gu@physx@@YA_NABVSphere@23@ABVTriangleMesh@23@ABVPxTransform@3@ABVPxMeshScale@3@PAULimitedResults@23@@Z 100f3830 f i GuMeshQuery.obj
 0001:000f2870       ?reset@LimitedResults@Gu@physx@@QAEXXZ 100f3870 f i GuMeshQuery.obj
 0001:000f2980       ?raycast_triangleMesh_RTREE@Gu@physx@@YAIPBVTriangleMesh@12@ABVPxTriangleMeshGeometry@2@ABVPxTransform@2@ABVPxVec3@2@3MV?$PxFlags@W4Enum@PxHitFlag@physx@@G@2@IPIAUPxRaycastHit@2@@Z 100f3980 f   GuMidphaseRTree.obj
 0001:000f2c20       ?intersectSphereVsMesh_RTREE@Gu@physx@@YA_NABVSphere@12@ABVTriangleMesh@12@ABVPxTransform@2@ABVPxMeshScale@2@PAULimitedResults@12@@Z 100f3c20 f   GuMidphaseRTree.obj
 0001:000f2c50       ?intersectBoxVsMesh_RTREE@Gu@physx@@YA_NABVBox@12@ABVTriangleMesh@12@ABVPxTransform@2@ABVPxMeshScale@2@PAULimitedResults@12@@Z 100f3c50 f   GuMidphaseRTree.obj
 0001:000f2c80       ?intersectCapsuleVsMesh_RTREE@Gu@physx@@YA_NABVCapsule@12@ABVTriangleMesh@12@ABVPxTransform@2@ABVPxMeshScale@2@PAULimitedResults@12@@Z 100f3c80 f   GuMidphaseRTree.obj
 0001:000f2cb0       ?intersectOBB_RTREE@Gu@physx@@YAXPBVTriangleMesh@12@ABVBox@12@AAU?$MeshHitCallback@UPxRaycastHit@physx@@@12@_N3@Z 100f3cb0 f   GuMidphaseRTree.obj
 0001:000f2ce0       ?sweepCapsule_MeshGeom_RTREE@Gu@physx@@YA_NPBVTriangleMesh@12@ABVPxTriangleMeshGeometry@2@ABVPxTransform@2@ABVCapsule@12@ABVPxVec3@2@MAAUPxSweepHit@2@V?$PxFlags@W4Enum@PxHitFlag@physx@@G@2@M@Z 100f3ce0 f   GuMidphaseRTree.obj
 0001:000f2fc0       ?sweepBox_MeshGeom_RTREE@Gu@physx@@YA_NPBVTriangleMesh@12@ABVPxTriangleMeshGeometry@2@ABVPxTransform@2@ABVBox@12@ABVPxVec3@2@MAAUPxSweepHit@2@V?$PxFlags@W4Enum@PxHitFlag@physx@@G@2@M@Z 100f3fc0 f   GuMidphaseRTree.obj
 0001:000f3580       ?sweepConvex_MeshGeom_RTREE@Gu@physx@@YAXPBVTriangleMesh@12@ABVBox@12@ABVPxVec3@2@MAAUSweepConvexMeshHitCallback@12@_N@Z 100f4580 f   GuMidphaseRTree.obj
 0001:000f3630       ?collideOBB@MeshRayCollider@@SAXABVBox@Gu@physx@@_NPBVRTreeTriangleMesh@34@AAU?$MeshHitCallback@UPxRaycastHit@physx@@@34@1@Z 100f4630 f   GuMidphaseRTree.obj
 0001:000f74d0       ??$collide@$00$00@MeshRayCollider@@SAXABVPxVec3@physx@@0M_NPBVRTreeTriangleMesh@Gu@2@AAU?$MeshHitCallback@UPxRaycastHit@physx@@@42@PBV12@@Z 100f84d0 f i GuMidphaseRTree.obj
 0001:000f76b0       ??$collide@$00$0A@@MeshRayCollider@@SAXABVPxVec3@physx@@0M_NPBVRTreeTriangleMesh@Gu@2@AAU?$MeshHitCallback@UPxRaycastHit@physx@@@42@PBV12@@Z 100f86b0 f i GuMidphaseRTree.obj
 0001:000f7890       ??$collide@$0A@$00@MeshRayCollider@@SAXABVPxVec3@physx@@0M_NPBVRTreeTriangleMesh@Gu@2@AAU?$MeshHitCallback@UPxRaycastHit@physx@@@42@PBV12@@Z 100f8890 f i GuMidphaseRTree.obj
 0001:000f7a60       ??$collide@$0A@$0A@@MeshRayCollider@@SAXABVPxVec3@physx@@0M_NPBVRTreeTriangleMesh@Gu@2@AAU?$MeshHitCallback@UPxRaycastHit@physx@@@42@PBV12@@Z 100f8a60 f i GuMidphaseRTree.obj
 0001:000f7c30       ??0?$RayRTreeCallback@$00$00@@QAE@MAAU?$MeshHitCallback@UPxRaycastHit@physx@@@Gu@physx@@HPBXPBVPxVec3@3@ABV43@3M_N2@Z 100f8c30 f i GuMidphaseRTree.obj
 0001:000f7df0       ??0?$RayRTreeCallback@$00$0A@@@QAE@MAAU?$MeshHitCallback@UPxRaycastHit@physx@@@Gu@physx@@HPBXPBVPxVec3@3@ABV43@3M_N2@Z 100f8df0 f i GuMidphaseRTree.obj
 0001:000f7fb0       ??0?$RayRTreeCallback@$0A@$00@@QAE@MAAU?$MeshHitCallback@UPxRaycastHit@physx@@@Gu@physx@@HPBXPBVPxVec3@3@ABV43@3M_N2@Z 100f8fb0 f i GuMidphaseRTree.obj
 0001:000f8160       ??0?$RayRTreeCallback@$0A@$0A@@@QAE@MAAU?$MeshHitCallback@UPxRaycastHit@physx@@@Gu@physx@@HPBXPBVPxVec3@3@ABV43@3M_N2@Z 100f9160 f i GuMidphaseRTree.obj
 0001:000f8310       ??0Callback@RTree@Gu@physx@@QAE@XZ 100f9310 f i GuMidphaseRTree.obj
 0001:000f8330       ??0CallbackRaycast@RTree@Gu@physx@@QAE@XZ 100f9330 f i GuMidphaseRTree.obj
 0001:000f8350       ??0PxLocationHit@physx@@QAE@ABU01@@Z 100f9350 f i GuMidphaseRTree.obj
 0001:000f83c0       ??0PxRaycastHit@physx@@QAE@ABU01@@Z 100f93c0 f i GuMidphaseRTree.obj
 0001:000f8410       ??0RayMeshColliderCallback@@QAE@W4Enum@CallbackMode@Gu@physx@@PAUPxRaycastHit@4@IPBVPxMeshScale@4@PBVPxTransform@4@PBVMatrix34@Cm@4@IABVPxVec3@4@_NM@Z 100f9410 f i GuMidphaseRTree.obj
 0001:000f84a0       ??0SimpleRayTriOverlap@@QAE@ABVPxVec3@physx@@0_NM@Z 100f94a0 f i GuMidphaseRTree.obj
 0001:000f84f0       ??1?$RayRTreeCallback@$00$00@@UAE@XZ 100f94f0 f i GuMidphaseRTree.obj
 0001:000f85d0       ??1?$RayRTreeCallback@$00$0A@@@UAE@XZ 100f95d0 f i GuMidphaseRTree.obj
 0001:000f86b0       ??1?$RayRTreeCallback@$0A@$00@@UAE@XZ 100f96b0 f i GuMidphaseRTree.obj
 0001:000f8790       ??1?$RayRTreeCallback@$0A@$0A@@@UAE@XZ 100f9790 f i GuMidphaseRTree.obj
 0001:000f8870       ??1Callback@RTree@Gu@physx@@UAE@XZ 100f9870 f i GuMidphaseRTree.obj
 0001:000f8890       ??1CallbackRaycast@RTree@Gu@physx@@UAE@XZ 100f9890 f i GuMidphaseRTree.obj
 0001:000f88b0       ??1RayMeshColliderCallback@@UAE@XZ 100f98b0 f i GuMidphaseRTree.obj
 0001:000f88c3       ??_E?$RayRTreeCallback@$00$00@@W3AEPAXI@Z 100f98c3 f i GuMidphaseRTree.obj
 0001:000f88cb       ??_E?$RayRTreeCallback@$00$0A@@@W3AEPAXI@Z 100f98cb f i GuMidphaseRTree.obj
 0001:000f88d3       ??_E?$RayRTreeCallback@$0A@$00@@W3AEPAXI@Z 100f98d3 f i GuMidphaseRTree.obj
 0001:000f88db       ??_E?$RayRTreeCallback@$0A@$0A@@@W3AEPAXI@Z 100f98db f i GuMidphaseRTree.obj
 0001:000f88f0       ??_E?$RayRTreeCallback@$00$00@@UAEPAXI@Z 100f98f0 f i GuMidphaseRTree.obj
 0001:000f88f0       ??_G?$RayRTreeCallback@$00$00@@UAEPAXI@Z 100f98f0 f i GuMidphaseRTree.obj
 0001:000f8930       ??_G?$RayRTreeCallback@$00$0A@@@UAEPAXI@Z 100f9930 f i GuMidphaseRTree.obj
 0001:000f8930       ??_E?$RayRTreeCallback@$00$0A@@@UAEPAXI@Z 100f9930 f i GuMidphaseRTree.obj
 0001:000f8970       ??_E?$RayRTreeCallback@$0A@$00@@UAEPAXI@Z 100f9970 f i GuMidphaseRTree.obj
 0001:000f8970       ??_G?$RayRTreeCallback@$0A@$00@@UAEPAXI@Z 100f9970 f i GuMidphaseRTree.obj
 0001:000f89b0       ??_G?$RayRTreeCallback@$0A@$0A@@@UAEPAXI@Z 100f99b0 f i GuMidphaseRTree.obj
 0001:000f89b0       ??_E?$RayRTreeCallback@$0A@$0A@@@UAEPAXI@Z 100f99b0 f i GuMidphaseRTree.obj
 0001:000f89f0       ??_GCallback@RTree@Gu@physx@@UAEPAXI@Z 100f99f0 f i GuMidphaseRTree.obj
 0001:000f89f0       ??_ECallback@RTree@Gu@physx@@UAEPAXI@Z 100f99f0 f i GuMidphaseRTree.obj
 0001:000f8a20       ??_GCallbackRaycast@RTree@Gu@physx@@UAEPAXI@Z 100f9a20 f i GuMidphaseRTree.obj
 0001:000f8a20       ??_ECallbackRaycast@RTree@Gu@physx@@UAEPAXI@Z 100f9a20 f i GuMidphaseRTree.obj
 0001:000f8a50       ??_ERayMeshColliderCallback@@UAEPAXI@Z 100f9a50 f i GuMidphaseRTree.obj
 0001:000f8a50       ??_GRayMeshColliderCallback@@UAEPAXI@Z 100f9a50 f i GuMidphaseRTree.obj
 0001:000f8a80       ?GetNbTriangles@LeafTriangles@Gu@physx@@QBEIXZ 100f9a80 f i GuMidphaseRTree.obj
 0001:000f8aa0       ?GetTriangleIndex@LeafTriangles@Gu@physx@@QBEIXZ 100f9aa0 f i GuMidphaseRTree.obj
 0001:000f8ac0       ?LeafGetNbTriangles@Gu@physx@@YAII@Z 100f9ac0 f i GuMidphaseRTree.obj
 0001:000f8ad0       ?LeafGetTriangleIndex@Gu@physx@@YAII@Z 100f9ad0 f i GuMidphaseRTree.obj
 0001:000f8ae0       ?getRTree@RTreeTriangleMesh@Gu@physx@@QBEABURTree@23@XZ 100f9ae0 f i GuMidphaseRTree.obj
 0001:000f8b00       ?getVertIndices@?$RayRTreeCallback@$00$00@@QAEXIAAI00@Z 100f9b00 f i GuMidphaseRTree.obj
 0001:000f8bb0       ?getVertIndices@?$RayRTreeCallback@$00$0A@@@QAEXIAAI00@Z 100f9bb0 f i GuMidphaseRTree.obj
 0001:000f8c60       ?getVertIndices@?$RayRTreeCallback@$0A@$00@@QAEXIAAI00@Z 100f9c60 f i GuMidphaseRTree.obj
 0001:000f8d10       ?getVertIndices@?$RayRTreeCallback@$0A@$0A@@@QAEXIAAI00@Z 100f9d10 f i GuMidphaseRTree.obj
 0001:000f8dc0       ?inAnyMode@?$MeshHitCallback@UPxRaycastHit@physx@@@Gu@physx@@QBE_NXZ 100f9dc0 f i GuMidphaseRTree.obj
 0001:000f8df0       ?inClosestMode@?$MeshHitCallback@UPxRaycastHit@physx@@@Gu@physx@@QBE_NXZ 100f9df0 f i GuMidphaseRTree.obj
 0001:000f8e20       ?largestAxis@shdfnd@physx@@YAIABVPxVec3@2@AAI1@Z 100f9e20 f i GuMidphaseRTree.obj
 0001:000f8ec0       ?overlap@SimpleRayTriOverlap@@QBEHABVPxVec3@physx@@00AAUPxRaycastHit@3@@Z 100f9ec0 f i GuMidphaseRTree.obj
 0001:000f8f50       ?processHit@RayMeshColliderCallback@@UAE_NABUPxRaycastHit@physx@@ABVPxVec3@3@11AAMPBI@Z 100f9f50 f i GuMidphaseRTree.obj
 0001:000f91e0       ?processResults@?$RayRTreeCallback@$00$00@@UAE_NIPAI@Z 100fa1e0 f i GuMidphaseRTree.obj
 0001:000f9210       ?processResults@?$RayRTreeCallback@$00$00@@UAE_NIPAIAAM@Z 100fa210 f i GuMidphaseRTree.obj
 0001:000f9730       ?processResults@?$RayRTreeCallback@$00$0A@@@UAE_NIPAI@Z 100fa730 f i GuMidphaseRTree.obj
 0001:000f9760       ?processResults@?$RayRTreeCallback@$00$0A@@@UAE_NIPAIAAM@Z 100fa760 f i GuMidphaseRTree.obj
 0001:000f9c80       ?processResults@?$RayRTreeCallback@$0A@$00@@UAE_NIPAI@Z 100fac80 f i GuMidphaseRTree.obj
 0001:000f9cb0       ?processResults@?$RayRTreeCallback@$0A@$00@@UAE_NIPAIAAM@Z 100facb0 f i GuMidphaseRTree.obj
 0001:000fa1d0       ?processResults@?$RayRTreeCallback@$0A@$0A@@@UAE_NIPAI@Z 100fb1d0 f i GuMidphaseRTree.obj
 0001:000fa200       ?processResults@?$RayRTreeCallback@$0A@$0A@@@UAE_NIPAIAAM@Z 100fb200 f i GuMidphaseRTree.obj
 0001:000fa720       ?profile@Callback@RTree@Gu@physx@@UAEXXZ 100fb720 f i GuMidphaseRTree.obj
 0001:000fa730       ?checkOverlapAABB_triangleGeom@Gu@physx@@YA_NABVPxGeometry@2@ABVPxTransform@2@ABVPxBounds3@2@@Z 100fb730 f   GuOverlapTestsMesh.obj
 0001:000fa880       ?GeomOverlapCallback_SphereMesh@@YA_NABVPxGeometry@physx@@ABVPxTransform@2@01PAUTriggerCache@Gu@2@@Z 100fb880 f   GuOverlapTestsMesh.obj
 0001:000fa970       ?GeomOverlapCallback_CapsuleMesh@@YA_NABVPxGeometry@physx@@ABVPxTransform@2@01PAUTriggerCache@Gu@2@@Z 100fb970 f   GuOverlapTestsMesh.obj
 0001:000faa60       ?GeomOverlapCallback_BoxMesh@@YA_NABVPxGeometry@physx@@ABVPxTransform@2@01PAUTriggerCache@Gu@2@@Z 100fba60 f   GuOverlapTestsMesh.obj
 0001:000fab60       ?GeomOverlapCallback_ConvexMesh@@YA_NABVPxGeometry@physx@@ABVPxTransform@2@01PAUTriggerCache@Gu@2@@Z 100fbb60 f   GuOverlapTestsMesh.obj
 0001:000fadd0       ??$gjk@U?$RelativeConvex@VTriangleV@Gu@physx@@@Gu@physx@@U?$LocalConvex@VConvexHullV@Gu@physx@@@23@@Gu@physx@@YA?AW4GjkStatus@01@ABU?$RelativeConvex@VTriangleV@Gu@physx@@@01@ABU?$LocalConvex@VConvexHullV@Gu@physx@@@01@ABT__m128@@2AAT5@333@Z 100fbdd0 f i GuOverlapTestsMesh.obj
 0001:000fb790       ??0ConvexVsMeshOverlapCallback@@QAE@ABVConvexMesh@Gu@physx@@ABVPxMeshScale@3@ABVFastVertex2ShapeScaling@Cm@3@ABVPxTransform@3@3_NABVBox@23@@Z 100fc790 f i GuOverlapTestsMesh.obj
 0001:000fbac0       ??1ConvexVsMeshOverlapCallback@@UAE@XZ 100fcac0 f i GuOverlapTestsMesh.obj
 0001:000fbaf0       ??_EConvexVsMeshOverlapCallback@@UAEPAXI@Z 100fcaf0 f i GuOverlapTestsMesh.obj
 0001:000fbaf0       ??_GConvexVsMeshOverlapCallback@@UAEPAXI@Z 100fcaf0 f i GuOverlapTestsMesh.obj
 0001:000fbb30       ?BAnyTrue3@aos@shdfnd@physx@@YA?AT__m128@@T4@@Z 100fcb30 f i GuOverlapTestsMesh.obj
 0001:000fbbb0       ?processHit@ConvexVsMeshOverlapCallback@@UAE_NABUPxRaycastHit@physx@@ABVPxVec3@3@11AAMPBI@Z 100fcbb0 f i GuOverlapTestsMesh.obj
 0001:000fbf20       ??0RTree@Gu@physx@@QAE@W4PxEMPTY@2@@Z 100fcf20 f   GuRTree.obj
 0001:000fbf70       ?exportExtraData@RTree@Gu@physx@@QAEXAAVPxSerializationContext@3@@Z 100fcf70 f   GuRTree.obj
 0001:000fbfb0       ?importExtraData@RTree@Gu@physx@@QAEXAAVPxDeserializationContext@3@@Z 100fcfb0 f   GuRTree.obj
 0001:000fbfe0       ?load@RTree@Gu@physx@@QAE_NAAVPxInputStream@3@I_N@Z 100fcfe0 f   GuRTree.obj
 0001:000fc2d0       ?refitAllStaticTree@RTree@Gu@physx@@QAEXAAUCallbackRefit@123@PAVPxBounds3@3@@Z 100fd2d0 f   GuRTree.obj
 0001:000fc7b0       ?validate@RTree@Gu@physx@@QAEXPAUCallbackRefit@123@@Z 100fd7b0 f   GuRTree.obj
 0001:000fc820       ?computeBottomLevelCount@RTree@Gu@physx@@QBEII@Z 100fd820 f   GuRTree.obj
 0001:000fc990       ?validateRecursive@RTree@Gu@physx@@IAEXIURTreeNodeQ@23@PAURTreePage@23@PAUCallbackRefit@123@@Z 100fd990 f   GuRTree.obj
 0001:000fd060       ??$PX_UNUSED@URTreeNodeQ@Gu@physx@@@@YAXABURTreeNodeQ@Gu@physx@@@Z 100fe060 f i GuRTree.obj
 0001:000fd070       ??$readExtraData@URTreePage@Gu@physx@@@PxDeserializationContext@physx@@QAEPAURTreePage@Gu@1@I@Z 100fe070 f i GuRTree.obj
 0001:000fd0a0       ?allocate@?$AlignedAllocator@$0IA@VNonTrackingAllocator@shdfnd@physx@@@shdfnd@physx@@QAEPAXIPBDH@Z 100fe0a0 f i GuRTree.obj
 0001:000fd100       ?computeBounds@RTreePage@Gu@physx@@QAEXAAURTreeNodeQ@23@@Z 100fe100 f i GuRTree.obj
 0001:000fd2d0       ?getNode@RTreePage@Gu@physx@@QBEXIAAURTreeNodeQ@23@@Z 100fe2d0 f i GuRTree.obj
 0001:000fd390       ?isEmpty@RTreePage@Gu@physx@@QBE_NI@Z 100fe390 f i GuRTree.obj
 0001:000fd3d0       ?isLeaf@RTreeNodeQ@Gu@physx@@QBEIXZ 100fe3d0 f i GuRTree.obj
 0001:000fd3f0       ?isLeaf@RTreePage@Gu@physx@@QBEII@Z 100fe3f0 f i GuRTree.obj
 0001:000fd410       ?nodeCount@RTreePage@Gu@physx@@QBEIXZ 100fe410 f i GuRTree.obj
 0001:000fd460       ?traverseAABB@RTree@Gu@physx@@QBEXABVPxVec3@3@0IPAIPAUCallback@123@@Z 100fe460 f   GuRTreeQueries.obj
 0001:000fdb10       ?traverseOBB@RTree@Gu@physx@@QBEXABVBox@23@IPAIPAUCallback@123@@Z 100feb10 f   GuRTreeQueries.obj
 0001:000ff600       ??$PX_UNUSED@PAI@@YAXABQAI@Z 10100600 f i GuRTreeQueries.obj
 0001:000ff610       ??$traverseRay@$00@RTree@Gu@physx@@QBEXABVPxVec3@2@0IPAIPAUCallbackRaycast@012@PBV32@M@Z 10100610 f i GuRTreeQueries.obj
 0001:00100210       ??$traverseRay@$0A@@RTree@Gu@physx@@QBEXABVPxVec3@2@0IPAIPAUCallbackRaycast@012@PBV32@M@Z 10101210 f i GuRTreeQueries.obj
 0001:00100e10       ?U4Load@aos@shdfnd@physx@@YA?AT__m128@@I@Z 10101e10 f i GuRTreeQueries.obj
 0001:00100e50       ?U4StoreA@aos@shdfnd@physx@@YAXT__m128@@PAI@Z 10101e50 f i GuRTreeQueries.obj
 0001:00100ed0       ?V4Andc@aos@shdfnd@physx@@YA?AT__m128@@T4@0@Z 10101ed0 f i GuRTreeQueries.obj
 0001:00100f30       ?V4IsGrtrV32u@aos@shdfnd@physx@@YA?AT__m128@@T4@0@Z 10101f30 f i GuRTreeQueries.obj
 0001:00100f70       ?V4U32Andc@aos@shdfnd@physx@@YA?AT__m128@@T4@0@Z 10101f70 f i GuRTreeQueries.obj
 0001:00100fd0       ?V4U32StoreAligned@aos@shdfnd@physx@@YAXT__m128@@PAT4@@Z 10101fd0 f i GuRTreeQueries.obj
 0001:00101000       ?Vec4V_From_PxVec3_WUndefined@aos@shdfnd@physx@@YA?AT__m128@@ABVPxVec3@3@@Z 10102000 f i GuRTreeQueries.obj
 0001:00101050       ?VecU32V_From_BoolV@aos@shdfnd@physx@@YA?AT__m128@@ABT4@@Z 10102050 f i GuRTreeQueries.obj
 0001:001010f0       ??0SweepShapeMeshHitCallback@Gu@physx@@QAE@W4Enum@CallbackMode@12@ABV?$PxFlags@W4Enum@PxHitFlag@physx@@G@2@_NM@Z 101020f0 f   GuSweepsMesh.obj
 0001:00101150       ??0SweepCapsuleMeshHitCallback@Gu@physx@@QAE@AAUPxSweepHit@2@ABVMatrix34@Cm@2@M_NABVCapsule@12@ABVPxVec3@2@ABV?$PxFlags@W4Enum@PxHitFlag@physx@@G@2@2M@Z 10102150 f   GuSweepsMesh.obj
 0001:00101210       ?processHit@SweepCapsuleMeshHitCallback@Gu@physx@@UAE_NABUPxRaycastHit@3@ABVPxVec3@3@11AAMPBI@Z 10102210 f   GuSweepsMesh.obj
 0001:00101590       ?finalizeHit@SweepCapsuleMeshHitCallback@Gu@physx@@QBE_NAAUPxSweepHit@3@ABVCapsule@23@ABVPxTriangleMeshGeometry@3@ABVPxTransform@3@_N@Z 10102590 f   GuSweepsMesh.obj
 0001:00101710       ??0SweepBoxMeshHitCallback@Gu@physx@@QAE@W4Enum@CallbackMode@12@ABVMatrix34Padded@12@M_NABVBox@12@ABVPxVec3@2@44ABV?$PxFlags@W4Enum@PxHitFlag@physx@@G@2@M2M@Z 10102710 f   GuSweepsMesh.obj
 0001:00101900       ?processHit@SweepBoxMeshHitCallback@Gu@physx@@UAE_NABUPxRaycastHit@3@ABVPxVec3@3@11AAMPBI@Z 10102900 f   GuSweepsMesh.obj
 0001:001020a0       ?finalizeHit@SweepBoxMeshHitCallback@Gu@physx@@QBE_NAAUPxSweepHit@3@ABVPxTriangleMeshGeometry@3@ABVPxTransform@3@2ABVPxVec3@3@_N4@Z 101030a0 f   GuSweepsMesh.obj
 0001:00102350       ??0SweepConvexMeshHitCallback@Gu@physx@@QAE@ABUConvexHullData@12@ABVPxMeshScale@2@ABVFastVertex2ShapeScaling@Cm@2@ABVPxTransform@2@3ABVPxVec3@2@MV?$PxFlags@W4Enum@PxHitFlag@physx@@G@2@_NM6M@Z 10103350 f   GuSweepsMesh.obj
 0001:001026c0       ?processHit@SweepConvexMeshHitCallback@Gu@physx@@UAE_NABUPxRaycastHit@3@ABVPxVec3@3@11AAMPBI@Z 101036c0 f   GuSweepsMesh.obj
 0001:001028a0       ?finalizeHit@SweepConvexMeshHitCallback@Gu@physx@@QAE_NAAUPxSweepHit@3@ABVPxTriangleMeshGeometry@3@ABVPxTransform@3@ABVPxConvexMeshGeometry@3@2ABVPxVec3@3@M_N555@Z 101038a0 f   GuSweepsMesh.obj
 0001:00102f50       ?sweepCapsule_MeshGeom@@YA_NABVPxGeometry@physx@@ABVPxTransform@2@ABVPxCapsuleGeometry@2@1ABVCapsule@Gu@2@ABVPxVec3@2@MAAUPxSweepHit@2@V?$PxFlags@W4Enum@PxHitFlag@physx@@G@2@M@Z 10103f50 f   GuSweepsMesh.obj
 0001:00103140       ?sweepBox_MeshGeom@@YA_NABVPxGeometry@physx@@ABVPxTransform@2@ABVPxBoxGeometry@2@1ABVBox@Gu@2@ABVPxVec3@2@MAAUPxSweepHit@2@V?$PxFlags@W4Enum@PxHitFlag@physx@@G@2@M@Z 10104140 f   GuSweepsMesh.obj
 0001:00103200       ?sweepConvex_MeshGeom@@YA_NABVPxGeometry@physx@@ABVPxTransform@2@ABVPxConvexMeshGeometry@2@1ABVPxVec3@2@MAAUPxSweepHit@2@V?$PxFlags@W4Enum@PxHitFlag@physx@@G@2@M@Z 10104200 f   GuSweepsMesh.obj
 0001:001035d0       ??1SweepConvexMeshHitCallback@Gu@physx@@UAE@XZ 101045d0 f i GuSweepsMesh.obj
 0001:00103610       ??4PxTriangle@physx@@QAEXABV01@@Z 10104610 f i GuSweepsMesh.obj
 0001:00103670       ??_5?$PxFlags@W4Enum@PxHitFlag@physx@@G@physx@@QAEAAV01@ABV01@@Z 10104670 f i GuSweepsMesh.obj
 0001:001036a0       ??_ESweepCapsuleMeshHitCallback@Gu@physx@@UAEPAXI@Z 101046a0 f i GuSweepsMesh.obj
 0001:001036a0       ??_GSweepCapsuleMeshHitCallback@Gu@physx@@UAEPAXI@Z 101046a0 f i GuSweepsMesh.obj
 0001:001036d0       ??_GSweepConvexMeshHitCallback@Gu@physx@@UAEPAXI@Z 101046d0 f i GuSweepsMesh.obj
 0001:001036d0       ??_ESweepConvexMeshHitCallback@Gu@physx@@UAEPAXI@Z 101046d0 f i GuSweepsMesh.obj
 0001:00103710       ??_GSweepShapeMeshHitCallback@Gu@physx@@UAEPAXI@Z 10104710 f i GuSweepsMesh.obj
 0001:00103710       ??_ESweepShapeMeshHitCallback@Gu@physx@@UAEPAXI@Z 10104710 f i GuSweepsMesh.obj
 0001:00103740       ?V4ScaleAdd@aos@shdfnd@physx@@YA?AT__m128@@T4@00@Z 10104740 f i GuSweepsMesh.obj
 0001:001037e0       ?getShape2VertexSkew@FastVertex2ShapeScaling@Cm@physx@@QBEABVPxMat33@3@XZ 101047e0 f i GuSweepsMesh.obj
 0001:00103800       ?sweepBoxVsMesh@Midphase@Gu@physx@@YA_NPBVTriangleMesh@23@ABVPxTriangleMeshGeometry@3@ABVPxTransform@3@ABVBox@23@ABVPxVec3@3@MAAUPxSweepHit@3@V?$PxFlags@W4Enum@PxHitFlag@physx@@G@3@M@Z 10104800 f i GuSweepsMesh.obj
 0001:00103870       ?sweepCapsuleVsMesh@Midphase@Gu@physx@@YA_NPBVTriangleMesh@23@ABVPxTriangleMeshGeometry@3@ABVPxTransform@3@ABVCapsule@23@ABVPxVec3@3@MAAUPxSweepHit@3@V?$PxFlags@W4Enum@PxHitFlag@physx@@G@3@M@Z 10104870 f i GuSweepsMesh.obj
 0001:001038e0       ?sweepConvexVsMesh@Midphase@Gu@physx@@YAXPBVTriangleMesh@23@ABVBox@23@ABVPxVec3@3@MAAUSweepConvexMeshHitCallback@23@_N@Z 101048e0 f i GuSweepsMesh.obj
 0001:001039c0       ?exportExtraData@TriangleMesh@Gu@physx@@UAEXAAVPxSerializationContext@3@@Z 101049c0 f   GuTriangleMesh.obj
 0001:00103b40       ?importExtraData@TriangleMesh@Gu@physx@@QAEXAAVPxDeserializationContext@3@@Z 10104b40 f   GuTriangleMesh.obj
 0001:00103c50       ?release@TriangleMesh@Gu@physx@@UAEXXZ 10104c50 f   GuTriangleMesh.obj
 0001:00103c70       ?onRefCountZero@TriangleMesh@Gu@physx@@UAEXXZ 10104c70 f   GuTriangleMesh.obj
 0001:00103d00       ??0TriangleMesh@Gu@physx@@QAE@AAVGuMeshFactory@2@AAVTriangleMeshData@12@@Z 10104d00 f   GuTriangleMesh.obj
 0001:00103e80       ??1TriangleMesh@Gu@physx@@UAE@XZ 10104e80 f   GuTriangleMesh.obj
 0001:00104050       ?getVerticesForModification@TriangleMesh@Gu@physx@@UAEPAVPxVec3@3@XZ 10105050 f   GuTriangleMesh.obj
 0001:00104080       ?refitBVH@TriangleMesh@Gu@physx@@UAE?AVPxBounds3@3@XZ 10105080 f   GuTriangleMesh.obj
 0001:001040e0       ??$deletePxBase@VTriangleMesh@Gu@physx@@@Cm@physx@@YAXPAVTriangleMesh@Gu@1@@Z 101050e0 f i GuTriangleMesh.obj
 0001:00104150       ??$readExtraData@G$0BA@@PxDeserializationContext@physx@@QAEPAGI@Z 10105150 f i GuTriangleMesh.obj
 0001:00104180       ??$readExtraData@G@PxDeserializationContext@physx@@QAEPAGI@Z 10105180 f i GuTriangleMesh.obj
 0001:001041b0       ??$readExtraData@I$0BA@@PxDeserializationContext@physx@@QAEPAII@Z 101051b0 f i GuTriangleMesh.obj
 0001:001041e0       ??$readExtraData@I@PxDeserializationContext@physx@@QAEPAII@Z 101051e0 f i GuTriangleMesh.obj
 0001:00104210       ??$readExtraData@VPxVec3@physx@@$0BA@@PxDeserializationContext@physx@@QAEPAVPxVec3@1@I@Z 10105210 f i GuTriangleMesh.obj
 0001:00104240       ??$readExtraData@VPxVec3@physx@@@PxDeserializationContext@physx@@QAEPAVPxVec3@1@I@Z 10105240 f i GuTriangleMesh.obj
 0001:00104270       ??0?$PxFlags@W4Enum@PxTriangleMeshFlag@physx@@E@physx@@QAE@E@Z 10105270 f i GuTriangleMesh.obj
 0001:00104290       ??0PxTriangleMesh@physx@@IAE@GV?$PxFlags@W4Enum@PxBaseFlag@physx@@G@1@@Z 10105290 f i GuTriangleMesh.obj
 0001:001042d0       ??1PxTriangleMesh@physx@@MAE@XZ 101052d0 f i GuTriangleMesh.obj
 0001:001042ec       ??_ETriangleMesh@Gu@physx@@W7AEPAXI@Z 101052ec f i GuTriangleMesh.obj
 0001:00104300       ??_EPxTriangleMesh@physx@@MAEPAXI@Z 10105300 f i GuTriangleMesh.obj
 0001:00104300       ??_GPxTriangleMesh@physx@@MAEPAXI@Z 10105300 f i GuTriangleMesh.obj
 0001:00104330       ??_GTriangleMesh@Gu@physx@@UAEPAXI@Z 10105330 f i GuTriangleMesh.obj
 0001:00104330       ??_ETriangleMesh@Gu@physx@@UAEPAXI@Z 10105330 f i GuTriangleMesh.obj
 0001:00104380       ?acquireReference@TriangleMesh@Gu@physx@@UAEXXZ 10105380 f i GuTriangleMesh.obj
 0001:001043a0       ?getLocalBounds@TriangleMesh@Gu@physx@@UBE?AVPxBounds3@3@XZ 101053a0 f i GuTriangleMesh.obj
 0001:00104410       ?getNbTriangles@TriangleMesh@Gu@physx@@UBEIXZ 10105410 f i GuTriangleMesh.obj
 0001:00104430       ?getNbVertices@TriangleMesh@Gu@physx@@UBEIXZ 10105430 f i GuTriangleMesh.obj
 0001:00104450       ?getReferenceCount@TriangleMesh@Gu@physx@@UBEIXZ 10105450 f i GuTriangleMesh.obj
 0001:00104470       ?getTriangleMaterialIndex@TriangleMesh@Gu@physx@@UBEGI@Z 10105470 f i GuTriangleMesh.obj
 0001:001044b0       ?getTriangleMeshFlags@TriangleMesh@Gu@physx@@UBE?AV?$PxFlags@W4Enum@PxTriangleMeshFlag@physx@@E@3@XZ 101054b0 f i GuTriangleMesh.obj
 0001:001044d0       ?getTriangles@TriangleMesh@Gu@physx@@UBEPBXXZ 101054d0 f i GuTriangleMesh.obj
 0001:001044f0       ?getTrianglesRemap@TriangleMesh@Gu@physx@@UBEPBIXZ 101054f0 f i GuTriangleMesh.obj
 0001:00104510       ?getVertices@TriangleMesh@Gu@physx@@UBEPBVPxVec3@3@XZ 10105510 f i GuTriangleMesh.obj
 0001:00104530       ?hasPerTriangleMaterials@TriangleMesh@Gu@physx@@QBE_NXZ 10105530 f i GuTriangleMesh.obj
 0001:00104560       ?isKindOf@PxTriangleMesh@physx@@MBE_NPBD@Z 10105560 f i GuTriangleMesh.obj
 0001:001045b0       ?requiresObjects@TriangleMesh@Gu@physx@@UAEXAAVPxProcessPxBaseCallback@3@@Z 101055b0 f i GuTriangleMesh.obj
 0001:00104650       ?exportExtraData@BV4TriangleMesh@Gu@physx@@UAEXAAVPxSerializationContext@3@@Z 10105650 f   GuTriangleMeshBV4.obj
 0001:00104680       ?importExtraData@BV4TriangleMesh@Gu@physx@@QAEXAAVPxDeserializationContext@3@@Z 10105680 f   GuTriangleMeshBV4.obj
 0001:00104710       ?createObject@BV4TriangleMesh@Gu@physx@@SAPAVTriangleMesh@23@AAPAEAAVPxDeserializationContext@3@@Z 10105710 f   GuTriangleMeshBV4.obj
 0001:00104780       ??0BV4TriangleMesh@Gu@physx@@QAE@AAVGuMeshFactory@2@AAVTriangleMeshData@12@@Z 10105780 f   GuTriangleMeshBV4.obj
 0001:00104840       ??0BV4TriangleMesh@Gu@physx@@QAE@V?$PxFlags@W4Enum@PxBaseFlag@physx@@G@2@@Z 10105840 f i GuTriangleMeshBV4.obj
 0001:001048a0       ??0PxTriangleMesh@physx@@IAE@V?$PxFlags@W4Enum@PxBaseFlag@physx@@G@1@@Z 101058a0 f i GuTriangleMeshBV4.obj
 0001:001048d0       ??0SourceMesh@Gu@physx@@QAE@W4PxEMPTY@2@@Z 101058d0 f i GuTriangleMeshBV4.obj
 0001:001048f0       ??0TriangleMesh@Gu@physx@@QAE@V?$PxFlags@W4Enum@PxBaseFlag@physx@@G@2@@Z 101058f0 f i GuTriangleMeshBV4.obj
 0001:00104940       ??1BV4TriangleMesh@Gu@physx@@UAE@XZ 10105940 f i GuTriangleMeshBV4.obj
 0001:0010497c       ??_EBV4TriangleMesh@Gu@physx@@W7AEPAXI@Z 1010597c f i GuTriangleMeshBV4.obj
 0001:00104990       ??_GBV4TriangleMesh@Gu@physx@@UAEPAXI@Z 10105990 f i GuTriangleMeshBV4.obj
 0001:00104990       ??_EBV4TriangleMesh@Gu@physx@@UAEPAXI@Z 10105990 f i GuTriangleMeshBV4.obj
 0001:001049e0       ?getConcreteTypeName@BV4TriangleMesh@Gu@physx@@UBEPBDXZ 101059e0 f i GuTriangleMeshBV4.obj
 0001:001049f0       ?getMidphaseID@BV4TriangleMesh@Gu@physx@@UBE?AW4Enum@PxMeshMidPhase@3@XZ 101059f0 f i GuTriangleMeshBV4.obj
 0001:00104a90       ?exportExtraData@RTreeTriangleMesh@Gu@physx@@UAEXAAVPxSerializationContext@3@@Z 10105a90 f   GuTriangleMeshRTree.obj
 0001:00104ac0       ?importExtraData@RTreeTriangleMesh@Gu@physx@@QAEXAAVPxDeserializationContext@3@@Z 10105ac0 f   GuTriangleMeshRTree.obj
 0001:00104af0       ?createObject@RTreeTriangleMesh@Gu@physx@@SAPAVTriangleMesh@23@AAPAEAAVPxDeserializationContext@3@@Z 10105af0 f   GuTriangleMeshRTree.obj
 0001:00104b60       ??0RTreeTriangleMesh@Gu@physx@@QAE@AAVGuMeshFactory@2@AAVTriangleMeshData@12@@Z 10105b60 f   GuTriangleMeshRTree.obj
 0001:00104c00       ?getVerticesForModification@RTreeTriangleMesh@Gu@physx@@UAEPAVPxVec3@3@XZ 10105c00 f   GuTriangleMeshRTree.obj
 0001:00104c20       ?refitBVH@RTreeTriangleMesh@Gu@physx@@UAE?AVPxBounds3@3@XZ 10105c20 f   GuTriangleMeshRTree.obj
 0001:00104d50       ??0?$RefitCallback@G@physx@@QAE@PBVPxVec3@1@PBG@Z 10105d50 f i GuTriangleMeshRTree.obj
 0001:00104d90       ??0?$RefitCallback@I@physx@@QAE@PBVPxVec3@1@PBI@Z 10105d90 f i GuTriangleMeshRTree.obj
 0001:00104dd0       ??0CallbackRefit@RTree@Gu@physx@@QAE@XZ 10105dd0 f i GuTriangleMeshRTree.obj
 0001:00104df0       ??0RTreeTriangleMesh@Gu@physx@@QAE@V?$PxFlags@W4Enum@PxBaseFlag@physx@@G@2@@Z 10105df0 f i GuTriangleMeshRTree.obj
 0001:00104e40       ??1?$RefitCallback@G@physx@@UAE@XZ 10105e40 f i GuTriangleMeshRTree.obj
 0001:00104e60       ??1?$RefitCallback@I@physx@@UAE@XZ 10105e60 f i GuTriangleMeshRTree.obj
 0001:00104e80       ??1CallbackRefit@RTree@Gu@physx@@UAE@XZ 10105e80 f i GuTriangleMeshRTree.obj
 0001:00104ea0       ??1RTreeTriangleMesh@Gu@physx@@UAE@XZ 10105ea0 f i GuTriangleMeshRTree.obj
 0001:00104ee0       ??4RTree@Gu@physx@@QAEAAU012@ABU012@@Z 10105ee0 f i GuTriangleMeshRTree.obj
 0001:00104f86       ??_ERTreeTriangleMesh@Gu@physx@@W7AEPAXI@Z 10105f86 f i GuTriangleMeshRTree.obj
 0001:00104f90       ??_G?$RefitCallback@G@physx@@UAEPAXI@Z 10105f90 f i GuTriangleMeshRTree.obj
 0001:00104f90       ??_E?$RefitCallback@G@physx@@UAEPAXI@Z 10105f90 f i GuTriangleMeshRTree.obj
 0001:00104fc0       ??_E?$RefitCallback@I@physx@@UAEPAXI@Z 10105fc0 f i GuTriangleMeshRTree.obj
 0001:00104fc0       ??_G?$RefitCallback@I@physx@@UAEPAXI@Z 10105fc0 f i GuTriangleMeshRTree.obj
 0001:00104ff0       ??_GCallbackRefit@RTree@Gu@physx@@UAEPAXI@Z 10105ff0 f i GuTriangleMeshRTree.obj
 0001:00104ff0       ??_ECallbackRefit@RTree@Gu@physx@@UAEPAXI@Z 10105ff0 f i GuTriangleMeshRTree.obj
 0001:00105020       ??_GRTreeTriangleMesh@Gu@physx@@UAEPAXI@Z 10106020 f i GuTriangleMeshRTree.obj
 0001:00105020       ??_ERTreeTriangleMesh@Gu@physx@@UAEPAXI@Z 10106020 f i GuTriangleMeshRTree.obj
 0001:00105070       ?getConcreteTypeName@RTreeTriangleMesh@Gu@physx@@UBEPBDXZ 10106070 f i GuTriangleMeshRTree.obj
 0001:00105080       ?getMidphaseID@RTreeTriangleMesh@Gu@physx@@UBE?AW4Enum@PxMeshMidPhase@3@XZ 10106080 f i GuTriangleMeshRTree.obj
 0001:00105090       ?recomputeBounds@?$RefitCallback@G@physx@@UAEXIAAT__m128@@0@Z 10106090 f i GuTriangleMeshRTree.obj
 0001:001053e0       ?recomputeBounds@?$RefitCallback@I@physx@@UAEXIAAT__m128@@0@Z 101063e0 f i GuTriangleMeshRTree.obj
 0001:00105710       ??0BV32Tree@Gu@physx@@QAE@W4PxEMPTY@2@@Z 10106710 f   GuBV32.obj
 0001:00105740       ?exportExtraData@BV32Tree@Gu@physx@@QAEXAAVPxSerializationContext@3@@Z 10106740 f   GuBV32.obj
 0001:00105780       ?importExtraData@BV32Tree@Gu@physx@@QAEXAAVPxDeserializationContext@3@@Z 10106780 f   GuBV32.obj
 0001:001057b0       ??0BV32Tree@Gu@physx@@QAE@XZ 101067b0 f   GuBV32.obj
 0001:001057e0       ??0BV32Tree@Gu@physx@@QAE@PAVSourceMesh@12@ABVPxBounds3@2@@Z 101067e0 f   GuBV32.obj
 0001:00105820       ??1BV32Tree@Gu@physx@@QAE@XZ 10106820 f   GuBV32.obj
 0001:00105840       ?load@BV32Tree@Gu@physx@@QAE_NAAVPxInputStream@3@_N@Z 10106840 f   GuBV32.obj
 0001:00105b00       ?calculateLeafNode@BV32Tree@Gu@physx@@QAEXAAUBV32Data@23@@Z 10106b00 f   GuBV32.obj
 0001:00105bd0       ?createSOAformatNode@BV32Tree@Gu@physx@@QAEXAAUBV32DataPacked@23@ABUBV32Data@23@IAAI2@Z 10106bd0 f   GuBV32.obj
 0001:00105df0       ?reset@BV32Tree@Gu@physx@@QAEXXZ 10106df0 f   GuBV32.obj
 0001:00105e40       ??4BV32Tree@Gu@physx@@QAEXAAV012@@Z 10106e40 f   GuBV32.obj
 0001:00105eb0       ?init@BV32Tree@Gu@physx@@QAE_NPAVSourceMesh@23@ABVPxBounds3@3@@Z 10106eb0 f   GuBV32.obj
 0001:00105ee0       ?release@BV32Tree@Gu@physx@@QAEXXZ 10106ee0 f   GuBV32.obj
 0001:00105f60       ??$readExtraData@UBV32DataPacked@Gu@physx@@@PxDeserializationContext@physx@@QAEPAUBV32DataPacked@Gu@1@I@Z 10106f60 f i GuBV32.obj
 0001:00105f90       ?getChildOffset@BV32Data@Gu@physx@@QBEIXZ 10106f90 f i GuBV32.obj
 0001:00105ff0       ?getNbChildren@BV32Data@Gu@physx@@QBEIXZ 10106ff0 f i GuBV32.obj
 0001:00106050       ?isLeaf@BV32Data@Gu@physx@@QBEIXZ 10107050 f i GuBV32.obj
 0001:00106070       ?BuildBV32Ex@Gu@physx@@YA_NAAVBV32Tree@12@AAVSourceMesh@12@MI@Z 10107070 f   GuBV32Build.obj
 0001:001071f0       ??$?2V?$ReflectionAllocator@UBV32Node@@@shdfnd@physx@@@UserAllocated@shdfnd@physx@@SAPAXIV?$ReflectionAllocator@UBV32Node@@@12@PBDH@Z 101081f0 f i GuBV32Build.obj
 0001:00107210       ??$?_UV?$ReflectionAllocator@UBV32Data@Gu@physx@@@shdfnd@physx@@@UserAllocated@shdfnd@physx@@SAPAXIV?$ReflectionAllocator@UBV32Data@Gu@physx@@@12@PBDH@Z 10108210 f i GuBV32Build.obj
 0001:00107230       ??0?$ReflectionAllocator@UBV32Data@Gu@physx@@@shdfnd@physx@@QAE@PBD@Z 10108230 f i GuBV32Build.obj
 0001:00107240       ??0?$ReflectionAllocator@UBV32Node@@@shdfnd@physx@@QAE@PBD@Z 10108240 f i GuBV32Build.obj
 0001:00107250       ??0BV32Data@Gu@physx@@QAE@XZ 10108250 f i GuBV32Build.obj
 0001:00107290       ??0BV32Node@@QAE@XZ        10108290 f i GuBV32Build.obj
 0001:001072c0       ?allocate@?$ReflectionAllocator@UBV32Data@Gu@physx@@@shdfnd@physx@@QAEPAXIPBDH@Z 101082c0 f i GuBV32Build.obj
 0001:00107310       ?allocate@?$ReflectionAllocator@UBV32Node@@@shdfnd@physx@@QAEPAXIPBDH@Z 10108310 f i GuBV32Build.obj
 0001:00107360       ?getChild@BV32Node@@QBEPBU1@I@Z 10108360 f i GuBV32Build.obj
 0001:00107380       ?getName@?$ReflectionAllocator@UBV32Data@Gu@physx@@@shdfnd@physx@@CAPBDXZ 10108380 f i GuBV32Build.obj
 0001:001073c0       ?getName@?$ReflectionAllocator@UBV32Node@@@shdfnd@physx@@CAPBDXZ 101083c0 f i GuBV32Build.obj
 0001:00107400       ?isLeaf@BV32Node@@QBEII@Z  10108400 f i GuBV32Build.obj
 0001:00107420       ?setEmpty@BV32Data@Gu@physx@@QAEXXZ 10108420 f i GuBV32Build.obj
 0001:001074a0       ?pcmContactBoxBox@Gu@physx@@YA_NABVGeometryUnion@12@0ABVPxTransform@2@1ABUNarrowPhaseParams@12@AAUCache@12@AAVContactBuffer@12@PAVRenderOutput@Cm@2@@Z 101084a0 f   GuPCMContactBoxBox.obj
 0001:0010c140       ?BTTFT@aos@shdfnd@physx@@YA?AT__m128@@XZ 1010d140 f i GuPCMContactBoxBox.obj
 0001:0010c180       ?CalculatePCMBoxMargin@Gu@physx@@YA?AT__m128@@ABT3@MM@Z 1010d180 f i GuPCMContactBoxBox.obj
 0001:0010c220       ?PxAcos@physx@@YAMM@Z      1010d220 f i GuPCMContactBoxBox.obj
 0001:0010c260       ?V3ExtractMax@aos@shdfnd@physx@@YA?AT__m128@@T4@@Z 1010d260 f i GuPCMContactBoxBox.obj
 0001:0010c340       ?V3RecipFast@aos@shdfnd@physx@@YA?AT__m128@@T4@@Z 1010d340 f i GuPCMContactBoxBox.obj
 0001:0010c400       ?V3SetZ@aos@shdfnd@physx@@YA?AT__m128@@T4@0@Z 1010d400 f i GuPCMContactBoxBox.obj
 0001:0010c4e0       ?Vec3V_From_FloatV@aos@shdfnd@physx@@YA?AT__m128@@T4@@Z 1010d4e0 f i GuPCMContactBoxBox.obj
 0001:0010c530       ?contains@Gu@physx@@YA_NPAT__m128@@IABT3@11@Z 1010d530 f i GuPCMContactBoxBox.obj
 0001:0010ca20       ?getCol0@PsMatTransformV@aos@shdfnd@physx@@QBE?AT__m128@@XZ 1010da20 f i GuPCMContactBoxBox.obj
 0001:0010ca40       ?getCol1@PsMatTransformV@aos@shdfnd@physx@@QBE?AT__m128@@XZ 1010da40 f i GuPCMContactBoxBox.obj
 0001:0010ca60       ?getCol2@PsMatTransformV@aos@shdfnd@physx@@QBE?AT__m128@@XZ 1010da60 f i GuPCMContactBoxBox.obj
 0001:0010ca80       ?getManifold@Cache@Gu@physx@@QAEAAVPersistentContactManifold@23@XZ 1010da80 f i GuPCMContactBoxBox.obj
 0001:0010cb50       ?getNumContacts@PersistentContactManifold@Gu@physx@@QBEIXZ 1010db50 f i GuPCMContactBoxBox.obj
 0001:0010cb70       ?getWorldNormal@PersistentContactManifold@Gu@physx@@QAE?AT__m128@@ABVPsTransformV@aos@shdfnd@3@@Z 1010db70 f i GuPCMContactBoxBox.obj
 0001:0010ccc0       ?invalidate_BoxConvex@PersistentContactManifold@Gu@physx@@QAEIABVPsTransformV@aos@shdfnd@3@ABT__m128@@1111@Z 1010dcc0 f i GuPCMContactBoxBox.obj
 0001:0010d020       ?isManifold@Cache@Gu@physx@@QBEEXZ 1010e020 f i GuPCMContactBoxBox.obj
 0001:0010d040       ?isMultiManifold@Cache@Gu@physx@@QBEEXZ 1010e040 f i GuPCMContactBoxBox.obj
 0001:0010d060       ?loadTransformA@aos@shdfnd@physx@@YA?AVPsTransformV@123@ABVPxTransform@3@@Z 1010e060 f i GuPCMContactBoxBox.obj
 0001:0010d0d0       ?maxTransformPositionDelta@PersistentContactManifold@Gu@physx@@QAE?AT__m128@@ABT4@@Z 1010e0d0 f i GuPCMContactBoxBox.obj
 0001:0010d150       ?refreshContactPoints@PersistentContactManifold@Gu@physx@@QAEXABVPsMatTransformV@aos@shdfnd@3@ABT__m128@@1@Z 1010e150 f i GuPCMContactBoxBox.obj
 0001:0010d330       ?removeContactPoint@PersistentContactManifold@Gu@physx@@QAEXI@Z 1010e330 f i GuPCMContactBoxBox.obj
 0001:0010d380       ?rotateInv@PsMatTransformV@aos@shdfnd@physx@@QBE?AT__m128@@ABT5@@Z 1010e380 f i GuPCMContactBoxBox.obj
 0001:0010d3d0       ?setRelativeTransform@PersistentContactManifold@Gu@physx@@QAEXABVPsTransformV@aos@shdfnd@3@T__m128@@1@Z 1010e3d0 f i GuPCMContactBoxBox.obj
 0001:0010d430       ?transformInv@PsMatTransformV@aos@shdfnd@physx@@QBE?AT__m128@@ABT5@@Z 1010e430 f i GuPCMContactBoxBox.obj
 0001:0010d490       ?transformInv@PsMatTransformV@aos@shdfnd@physx@@QBE?AV1234@ABV1234@@Z 1010e490 f i GuPCMContactBoxBox.obj
 0001:0010d530       _acosf                     1010e530 f i GuPCMContactBoxBox.obj
 0001:0010d560       ?pcmContactBoxConvex@Gu@physx@@YA_NABVGeometryUnion@12@0ABVPxTransform@2@1ABUNarrowPhaseParams@12@AAUCache@12@AAVContactBuffer@12@PAVRenderOutput@Cm@2@@Z 1010e560 f   GuPCMContactBoxConvex.obj
 0001:0010e0f0       ??$getConvex@VConvexHullNoScaleV@Gu@physx@@@GjkConvexBase@Gu@physx@@QBEABVConvexHullNoScaleV@12@XZ 1010f0f0 f i GuPCMContactBoxConvex.obj
 0001:0010e110       ??$gjkPenetration@U?$RelativeConvex@VBoxV@Gu@physx@@@Gu@physx@@U?$LocalConvex@VConvexHullNoScaleV@Gu@physx@@@23@@Gu@physx@@YA?AW4GjkStatus@01@ABU?$RelativeConvex@VBoxV@Gu@physx@@@01@ABU?$LocalConvex@VConvexHullNoScaleV@Gu@physx@@@01@ABT__m128@@2_NPIAE4AAEAAUGjkOutput@01@@Z 1010f110 f i GuPCMContactBoxConvex.obj
 0001:0010ebe0       ??0?$LocalConvex@VConvexHullNoScaleV@Gu@physx@@@Gu@physx@@QAE@ABVConvexHullNoScaleV@12@@Z 1010fbe0 f i GuPCMContactBoxConvex.obj
 0001:0010ec10       ??1?$LocalConvex@VConvexHullNoScaleV@Gu@physx@@@Gu@physx@@UAE@XZ 1010fc10 f i GuPCMContactBoxConvex.obj
 0001:0010ec30       ??_E?$LocalConvex@VConvexHullNoScaleV@Gu@physx@@@Gu@physx@@UAEPAXI@Z 1010fc30 f i GuPCMContactBoxConvex.obj
 0001:0010ec30       ??_G?$LocalConvex@VConvexHullNoScaleV@Gu@physx@@@Gu@physx@@UAEPAXI@Z 1010fc30 f i GuPCMContactBoxConvex.obj
 0001:0010ec60       ?CalculatePCMConvexMargin@Gu@physx@@YA?AT__m128@@PBUConvexHullData@12@ABT3@MM@Z 1010fc60 f i GuPCMContactBoxConvex.obj
 0001:0010ed40       ?getCenter@?$LocalConvex@VConvexHullNoScaleV@Gu@physx@@@Gu@physx@@UBE?AT__m128@@XZ 1010fd40 f i GuPCMContactBoxConvex.obj
 0001:0010ed70       ?getLocalNormal@PersistentContactManifold@Gu@physx@@QAE?AT__m128@@XZ 1010fd70 f i GuPCMContactBoxConvex.obj
 0001:0010ee20       ?getMarginF@ConvexV@Gu@physx@@QBEMXZ 1010fe20 f i GuPCMContactBoxConvex.obj
 0001:0010ee40       ?getSweepMargin@?$LocalConvex@VConvexHullNoScaleV@Gu@physx@@@Gu@physx@@UBE?AT__m128@@XZ 1010fe40 f i GuPCMContactBoxConvex.obj
 0001:0010ee70       ?support@?$LocalConvex@VConvexHullNoScaleV@Gu@physx@@@Gu@physx@@UBE?AT__m128@@ABT4@@Z 1010fe70 f i GuPCMContactBoxConvex.obj
 0001:0010eea0       ?support@?$LocalConvex@VConvexHullNoScaleV@Gu@physx@@@Gu@physx@@UBE?AT__m128@@ABT4@AAH@Z 1010fea0 f i GuPCMContactBoxConvex.obj
 0001:0010eed0       ?supportLocal@ConvexHullNoScaleV@Gu@physx@@QBE?AT__m128@@ABT4@AAH@Z 1010fed0 f i GuPCMContactBoxConvex.obj
 0001:0010ef40       ?supportPoint@?$LocalConvex@VConvexHullNoScaleV@Gu@physx@@@Gu@physx@@UBE?AT__m128@@H@Z 1010ff40 f i GuPCMContactBoxConvex.obj
 0001:0010ef70       ?supportPoint@ConvexHullNoScaleV@Gu@physx@@QBE?AT__m128@@H@Z 1010ff70 f i GuPCMContactBoxConvex.obj
 0001:0010efc0       ?pcmContactCapsuleBox@Gu@physx@@YA_NABVGeometryUnion@12@0ABVPxTransform@2@1ABUNarrowPhaseParams@12@AAUCache@12@AAVContactBuffer@12@PAVRenderOutput@Cm@2@@Z 1010ffc0 f   GuPCMContactCapsuleBox.obj
 0001:0010fb10       ?invalidate_SphereCapsule@PersistentContactManifold@Gu@physx@@QAEIABVPsTransformV@aos@shdfnd@3@ABT__m128@@@Z 10110b10 f i GuPCMContactCapsuleBox.obj
 0001:0010fc80       ?setRelativeTransform@PersistentContactManifold@Gu@physx@@QAEXABVPsTransformV@aos@shdfnd@3@@Z 10110c80 f i GuPCMContactCapsuleBox.obj
 0001:0010fca0       ?transformInv@PsTransformV@aos@shdfnd@physx@@QBE?AT__m128@@ABT5@@Z 10110ca0 f i GuPCMContactCapsuleBox.obj
 0001:0010fd40       ?pcmContactCapsuleCapsule@Gu@physx@@YA_NABVGeometryUnion@12@0ABVPxTransform@2@1ABUNarrowPhaseParams@12@AAUCache@12@AAVContactBuffer@12@PAVRenderOutput@Cm@2@@Z 10110d40 f   GuPCMContactCapsuleCapsule.obj
 0001:001114c0       ?BFTTT@aos@shdfnd@physx@@YA?AT__m128@@XZ 101124c0 f i GuPCMContactCapsuleCapsule.obj
 0001:00111500       ?QuatGetBasisVector0@aos@shdfnd@physx@@YA?AT__m128@@T4@@Z 10112500 f i GuPCMContactCapsuleCapsule.obj
 0001:001116e0       ?V3SetX@aos@shdfnd@physx@@YA?AT__m128@@T4@0@Z 101126e0 f i GuPCMContactCapsuleCapsule.obj
 0001:001117c0       ?V3StoreA@aos@shdfnd@physx@@YAXT__m128@@AAVPxVec3@3@@Z 101127c0 f i GuPCMContactCapsuleCapsule.obj
 0001:00111880       ?pcmContactCapsuleConvex@Gu@physx@@YA_NABVGeometryUnion@12@0ABVPxTransform@2@1ABUNarrowPhaseParams@12@AAUCache@12@AAVContactBuffer@12@PAVRenderOutput@Cm@2@@Z 10112880 f   GuPCMContactCapsuleConvex.obj
 0001:00112520       ??$gjkPenetration@U?$LocalConvex@VCapsuleV@Gu@physx@@@Gu@physx@@U?$LocalConvex@VConvexHullNoScaleV@Gu@physx@@@23@@Gu@physx@@YA?AW4GjkStatus@01@ABU?$LocalConvex@VCapsuleV@Gu@physx@@@01@ABU?$LocalConvex@VConvexHullNoScaleV@Gu@physx@@@01@ABT__m128@@2_NPIAE4AAEAAUGjkOutput@01@@Z 10113520 f i GuPCMContactCapsuleConvex.obj
 0001:00112ff0       ?CalculateCapsuleMinMargin@Gu@physx@@YA?AT__m128@@ABT3@@Z 10113ff0 f i GuPCMContactCapsuleConvex.obj
 0001:00113050       ?pcmContactCapsuleHeightField@Gu@physx@@YA_NABVGeometryUnion@12@0ABVPxTransform@2@1ABUNarrowPhaseParams@12@AAUCache@12@AAVContactBuffer@12@PAVRenderOutput@Cm@2@@Z 10114050 f   GuPCMContactCapsuleHeightField.obj
 0001:001134c0       ??$processTriangleCache@$0BA@@PCMCapsuleVsHeightfieldContactGenerationCallback@physx@@QAEXAAU?$TriangleCache@$0BA@@Gu@1@@Z 101144c0 f i GuPCMContactCapsuleHeightField.obj
 0001:001134e0       ??$processTriangleCache@$0BA@VPCMCapsuleVsMeshContactGeneration@Gu@physx@@@PCMMeshContactGeneration@Gu@physx@@QAE_NAAU?$TriangleCache@$0BA@@12@@Z 101144e0 f i GuPCMContactCapsuleHeightField.obj
 0001:00113580       ??0?$PCMHeightfieldContactGenerationCallback@UPCMCapsuleVsHeightfieldContactGenerationCallback@physx@@@Gu@physx@@QAE@ABVHeightFieldUtil@12@ABVPxTransform@2@@Z 10114580 f i GuPCMContactCapsuleHeightField.obj
 0001:00113610       ??0?$TriangleCache@$0BA@@Gu@physx@@QAE@XZ 10114610 f i GuPCMContactCapsuleHeightField.obj
 0001:00113640       ??0PCMCapsuleVsHeightfieldContactGenerationCallback@physx@@QAE@ABVCapsuleV@Gu@1@ABT__m128@@1ABVPsTransformV@aos@shdfnd@1@2ABVPxTransform@1@AAVMultiplePersistentContactManifold@31@AAVContactBuffer@31@PAV?$InlineArray@I$0EEA@VNamedAllocator@shdfnd@physx@@@71@AAVHeightFieldUtil@31@@Z 10114640 f i GuPCMContactCapsuleHeightField.obj
 0001:001136a0       ??0PCMCapsuleVsMeshContactGeneration@Gu@physx@@QAE@ABVCapsuleV@12@ABT__m128@@1ABVPsTransformV@aos@shdfnd@2@2AAVMultiplePersistentContactManifold@12@AAVContactBuffer@12@PAV?$InlineArray@I$0EEA@VNamedAllocator@shdfnd@physx@@@72@PAVRenderOutput@Cm@2@@Z 101146a0 f i GuPCMContactCapsuleHeightField.obj
 0001:00113750       ??0PCMContactPatch@Gu@physx@@QAE@XZ 10114750 f i GuPCMContactCapsuleHeightField.obj
 0001:001137b0       ??0PCMMeshContactGeneration@Gu@physx@@QAE@ABT__m128@@0ABVPsTransformV@aos@shdfnd@2@1AAVMultiplePersistentContactManifold@12@AAVContactBuffer@12@PAV?$InlineArray@I$0EEA@VNamedAllocator@shdfnd@physx@@@62@PAVRenderOutput@Cm@2@@Z 101147b0 f i GuPCMContactCapsuleHeightField.obj
 0001:00113970       ??1?$PCMHeightfieldContactGenerationCallback@UPCMCapsuleVsHeightfieldContactGenerationCallback@physx@@@Gu@physx@@UAE@XZ 10114970 f i GuPCMContactCapsuleHeightField.obj
 0001:00113990       ??1PCMCapsuleVsHeightfieldContactGenerationCallback@physx@@UAE@XZ 10114990 f i GuPCMContactCapsuleHeightField.obj
 0001:001139b0       ??_E?$PCMHeightfieldContactGenerationCallback@UPCMCapsuleVsHeightfieldContactGenerationCallback@physx@@@Gu@physx@@UAEPAXI@Z 101149b0 f i GuPCMContactCapsuleHeightField.obj
 0001:001139b0       ??_G?$PCMHeightfieldContactGenerationCallback@UPCMCapsuleVsHeightfieldContactGenerationCallback@physx@@@Gu@physx@@UAEPAXI@Z 101149b0 f i GuPCMContactCapsuleHeightField.obj
 0001:001139e0       ??_EPCMCapsuleVsHeightfieldContactGenerationCallback@physx@@UAEPAXI@Z 101149e0 f i GuPCMContactCapsuleHeightField.obj
 0001:001139e0       ??_GPCMCapsuleVsHeightfieldContactGenerationCallback@physx@@UAEPAXI@Z 101149e0 f i GuPCMContactCapsuleHeightField.obj
 0001:00113a20       ?addTriangle@?$TriangleCache@$0BA@@Gu@physx@@QAEXPBVPxVec3@3@PBIIE@Z 10114a20 f i GuPCMContactCapsuleHeightField.obj
 0001:00113b60       ?getMultipleManifold@Cache@Gu@physx@@QAEAAVMultiplePersistentContactManifold@23@XZ 10114b60 f i GuPCMContactCapsuleHeightField.obj
 0001:00113c30       ?onEvent@?$PCMHeightfieldContactGenerationCallback@UPCMCapsuleVsHeightfieldContactGenerationCallback@physx@@@Gu@physx@@UAE_NIPAI@Z 10114c30 f i GuPCMContactCapsuleHeightField.obj
 0001:00114010       ?prioritizeContactPatches@PCMMeshContactGeneration@Gu@physx@@QAEXXZ 10115010 f i GuPCMContactCapsuleHeightField.obj
 0001:00114150       ?processContacts@PCMMeshContactGeneration@Gu@physx@@QAEXE_N@Z 10115150 f i GuPCMContactCapsuleHeightField.obj
 0001:00114290       ?pcmContactCapsuleMesh@Gu@physx@@YA_NABVGeometryUnion@12@0ABVPxTransform@2@1ABUNarrowPhaseParams@12@AAUCache@12@AAVContactBuffer@12@PAVRenderOutput@Cm@2@@Z 10115290 f   GuPCMContactCapsuleMesh.obj
 0001:001147c0       ??$processTriangleCache@$0BA@@PCMCapsuleVsMeshContactGenerationCallback@physx@@QAEXAAU?$TriangleCache@$0BA@@Gu@1@@Z 101157c0 f i GuPCMContactCapsuleMesh.obj
 0001:001147e0       ??0?$PCMMeshContactGenerationCallback@UPCMCapsuleVsMeshContactGenerationCallback@physx@@@Gu@physx@@QAE@ABVFastVertex2ShapeScaling@Cm@2@PBE_N@Z 101157e0 f i GuPCMContactCapsuleMesh.obj
 0001:00114830       ??0PCMCapsuleVsMeshContactGenerationCallback@physx@@QAE@ABVCapsuleV@Gu@1@ABT__m128@@1ABVPsTransformV@aos@shdfnd@1@2AAVMultiplePersistentContactManifold@31@AAVContactBuffer@31@PBEABVFastVertex2ShapeScaling@Cm@1@_NPAV?$InlineArray@I$0EEA@VNamedAllocator@shdfnd@physx@@@71@PAVRenderOutput@Cm@1@@Z 10115830 f i GuPCMContactCapsuleMesh.obj
 0001:00114890       ??1?$PCMMeshContactGenerationCallback@UPCMCapsuleVsMeshContactGenerationCallback@physx@@@Gu@physx@@UAE@XZ 10115890 f i GuPCMContactCapsuleMesh.obj
 0001:001148b0       ??1PCMCapsuleVsMeshContactGenerationCallback@physx@@UAE@XZ 101158b0 f i GuPCMContactCapsuleMesh.obj
 0001:001148d0       ??_E?$PCMMeshContactGenerationCallback@UPCMCapsuleVsMeshContactGenerationCallback@physx@@@Gu@physx@@UAEPAXI@Z 101158d0 f i GuPCMContactCapsuleMesh.obj
 0001:001148d0       ??_G?$PCMMeshContactGenerationCallback@UPCMCapsuleVsMeshContactGenerationCallback@physx@@@Gu@physx@@UAEPAXI@Z 101158d0 f i GuPCMContactCapsuleMesh.obj
 0001:00114910       ??_EPCMCapsuleVsMeshContactGenerationCallback@physx@@UAEPAXI@Z 10115910 f i GuPCMContactCapsuleMesh.obj
 0001:00114910       ??_GPCMCapsuleVsMeshContactGenerationCallback@physx@@UAEPAXI@Z 10115910 f i GuPCMContactCapsuleMesh.obj
 0001:00114950       ?doTest@PCMCapsuleVsMeshContactGenerationCallback@physx@@QAE_NABVPxVec3@2@00@Z 10115950 f i GuPCMContactCapsuleMesh.obj
 0001:00114960       ?flushCache@?$PCMMeshContactGenerationCallback@UPCMCapsuleVsMeshContactGenerationCallback@physx@@@Gu@physx@@QAEXXZ 10115960 f i GuPCMContactCapsuleMesh.obj
 0001:001149a0       ?isEmpty@?$TriangleCache@$0BA@@Gu@physx@@QBE_NXZ 101159a0 f i GuPCMContactCapsuleMesh.obj
 0001:001149d0       ?isFull@?$TriangleCache@$0BA@@Gu@physx@@QBE_NXZ 101159d0 f i GuPCMContactCapsuleMesh.obj
 0001:00114a00       ?processHit@?$PCMMeshContactGenerationCallback@UPCMCapsuleVsMeshContactGenerationCallback@physx@@@Gu@physx@@UAE_NABUPxRaycastHit@3@ABVPxVec3@3@11AAMPBI@Z 10115a00 f i GuPCMContactCapsuleMesh.obj
 0001:00114ba0       ?reset@?$TriangleCache@$0BA@@Gu@physx@@QAEXXZ 10115ba0 f i GuPCMContactCapsuleMesh.obj
 0001:00114bc0       ?generateLastContacts@PCMConvexVsMeshContactGeneration@Gu@physx@@QAEXXZ 10115bc0 f   GuPCMContactConvexCommon.obj
 0001:00115020       ?addContactsToPatch@PCMConvexVsMeshContactGeneration@Gu@physx@@QAEXABT__m128@@I@Z 10116020 f   GuPCMContactConvexCommon.obj
 0001:00115360       ?processTriangle@PCMConvexVsMeshContactGeneration@Gu@physx@@QAE_NPBVPxVec3@3@IEPBI@Z 10116360 f   GuPCMContactConvexCommon.obj
 0001:001157f0       ?processTriangle@PCMConvexVsMeshContactGeneration@Gu@physx@@SA_NABUPolygonalData@23@PAVSupportLocal@23@PBVPxVec3@3@IEABT__m128@@_NABVPsTransformV@aos@shdfnd@3@ABVPsMatTransformV@9shdfnd@3@PAVMeshPersistentContact@23@AAI@Z 101167f0 f   GuPCMContactConvexCommon.obj
 0001:00115a90       ?processTriangle@PCMSphereVsMeshContactGeneration@Gu@physx@@QAE_NPBVPxVec3@3@IEPBI@Z 10116a90 f   GuPCMContactConvexCommon.obj
 0001:00115fb0       ?generateLastContacts@PCMSphereVsMeshContactGeneration@Gu@physx@@QAEXXZ 10116fb0 f   GuPCMContactConvexCommon.obj
 0001:00116210       ?addToPatch@PCMSphereVsMeshContactGeneration@Gu@physx@@QAEXABT__m128@@0T4@I@Z 10117210 f   GuPCMContactConvexCommon.obj
 0001:001165d0       ?generateEEContacts@PCMCapsuleVsMeshContactGeneration@Gu@physx@@QAEXABT__m128@@000I000PAVMeshPersistentContact@23@AAI@Z 101175d0 f   GuPCMContactConvexCommon.obj
 0001:00116670       ?generateEE@PCMCapsuleVsMeshContactGeneration@Gu@physx@@QAEXABT__m128@@000I00PAVMeshPersistentContact@23@AAI@Z 10117670 f   GuPCMContactConvexCommon.obj
 0001:00116b30       ?generateContacts@PCMCapsuleVsMeshContactGeneration@Gu@physx@@SA_NABT__m128@@0000I000PAVMeshPersistentContact@23@AAI@Z 10117b30 f   GuPCMContactConvexCommon.obj
 0001:001173c0       ?generateEEContactsMTD@PCMCapsuleVsMeshContactGeneration@Gu@physx@@SAXABT__m128@@000I000PAVMeshPersistentContact@23@AAI@Z 101183c0 f   GuPCMContactConvexCommon.obj
 0001:00117450       ?generateEEMTD@PCMCapsuleVsMeshContactGeneration@Gu@physx@@SAXABT__m128@@000I00PAVMeshPersistentContact@23@AAI@Z 10118450 f   GuPCMContactConvexCommon.obj
 0001:00117880       ?processTriangle@PCMCapsuleVsMeshContactGeneration@Gu@physx@@QAE_NPBVPxVec3@3@IEPBI@Z 10118880 f   GuPCMContactConvexCommon.obj
 0001:00118060       ?processTriangle@PCMCapsuleVsMeshContactGeneration@Gu@physx@@SA_NABVTriangleV@23@IABVCapsuleV@23@ABT__m128@@EPAVMeshPersistentContact@23@AAI@Z 10119060 f   GuPCMContactConvexCommon.obj
 0001:00118fe0       ?pcmDistanceSegmentTriangleSquared@Gu@physx@@YA?AT__m128@@ABT3@0000AAT3@11@Z 10119fe0 f   GuPCMContactConvexCommon.obj
 0001:0011a0b0       ??$PX_UNUSED@PBI@@YAXABQBI@Z 1011b0b0 f i GuPCMContactConvexCommon.obj
 0001:0011a0c0       ??$median3@USortedTriangle@Gu@physx@@$$CBU?$Less@USortedTriangle@Gu@physx@@@shdfnd@3@@internal@shdfnd@physx@@YAXPAUSortedTriangle@Gu@2@HHABU?$Less@USortedTriangle@Gu@physx@@@12@@Z 1011b0c0 f i GuPCMContactConvexCommon.obj
 0001:0011a1c0       ??$partition@USortedTriangle@Gu@physx@@$$CBU?$Less@USortedTriangle@Gu@physx@@@shdfnd@3@@internal@shdfnd@physx@@YAHPAUSortedTriangle@Gu@2@HHABU?$Less@USortedTriangle@Gu@physx@@@12@@Z 1011b1c0 f i GuPCMContactConvexCommon.obj
 0001:0011a330       ??$smallSort@USortedTriangle@Gu@physx@@$$CBU?$Less@USortedTriangle@Gu@physx@@@shdfnd@3@@internal@shdfnd@physx@@YAXPAUSortedTriangle@Gu@2@HHABU?$Less@USortedTriangle@Gu@physx@@@12@@Z 1011b330 f i GuPCMContactConvexCommon.obj
 0001:0011a3d0       ??$sort@USortedTriangle@Gu@physx@@U?$Less@USortedTriangle@Gu@physx@@@shdfnd@3@@shdfnd@physx@@YAXPAUSortedTriangle@Gu@1@IABU?$Less@USortedTriangle@Gu@physx@@@01@@Z 1011b3d0 f i GuPCMContactConvexCommon.obj
 0001:0011a410       ??$sort@USortedTriangle@Gu@physx@@U?$Less@USortedTriangle@Gu@physx@@@shdfnd@3@VNamedAllocator@53@@shdfnd@physx@@YAXPAUSortedTriangle@Gu@1@IABU?$Less@USortedTriangle@Gu@physx@@@01@ABVNamedAllocator@01@I@Z 1011b410 f i GuPCMContactConvexCommon.obj
 0001:0011a650       ??$swap@USortedTriangle@Gu@physx@@@shdfnd@physx@@YAXAAUSortedTriangle@Gu@1@0@Z 1011b650 f i GuPCMContactConvexCommon.obj
 0001:0011a6a0       ??0?$Stack@VNamedAllocator@shdfnd@physx@@@internal@shdfnd@physx@@QAE@PAHIABVNamedAllocator@23@@Z 1011b6a0 f i GuPCMContactConvexCommon.obj
 0001:0011a6e0       ??0?$SupportLocalImpl@VTriangleV@Gu@physx@@@Gu@physx@@QAE@ABVTriangleV@12@ABVPsTransformV@aos@shdfnd@2@ABUMat33V@562@2_N@Z 1011b6e0 f i GuPCMContactConvexCommon.obj
 0001:0011a720       ??0TriangleV@Gu@physx@@QAE@PBVPxVec3@2@@Z 1011b720 f i GuPCMContactConvexCommon.obj
 0001:0011a8a0       ??1?$Stack@VNamedAllocator@shdfnd@physx@@@internal@shdfnd@physx@@QAE@XZ 1011b8a0 f i GuPCMContactConvexCommon.obj
 0001:0011a8d0       ??1?$SupportLocalImpl@VTriangleV@Gu@physx@@@Gu@physx@@UAE@XZ 1011b8d0 f i GuPCMContactConvexCommon.obj
 0001:0011a8f0       ??A?$Array@USortedTriangle@Gu@physx@@V?$InlineAllocator@$0IAA@VNamedAllocator@shdfnd@physx@@@shdfnd@3@@shdfnd@physx@@QAEAAUSortedTriangle@Gu@2@I@Z 1011b8f0 f i GuPCMContactConvexCommon.obj
 0001:0011a960       ??MSortedTriangle@Gu@physx@@QBE_NABU012@@Z 1011b960 f i GuPCMContactConvexCommon.obj
 0001:0011a9a0       ??R?$Less@USortedTriangle@Gu@physx@@@shdfnd@physx@@QBE_NABUSortedTriangle@Gu@2@0@Z 1011b9a0 f i GuPCMContactConvexCommon.obj
 0001:0011a9c0       ??_G?$SupportLocalImpl@VTriangleV@Gu@physx@@@Gu@physx@@UAEPAXI@Z 1011b9c0 f i GuPCMContactConvexCommon.obj
 0001:0011a9c0       ??_E?$SupportLocalImpl@VTriangleV@Gu@physx@@@Gu@physx@@UAEPAXI@Z 1011b9c0 f i GuPCMContactConvexCommon.obj
 0001:0011a9f0       ?V4PermXZXZ@aos@shdfnd@physx@@YA?AT__m128@@T4@@Z 1011b9f0 f i GuPCMContactConvexCommon.obj
 0001:0011aa30       ?V4PermYWYW@aos@shdfnd@physx@@YA?AT__m128@@T4@@Z 1011ba30 f i GuPCMContactConvexCommon.obj
 0001:0011aa70       ?V4PermYXWZ@aos@shdfnd@physx@@YA?AT__m128@@T4@@Z 1011ba70 f i GuPCMContactConvexCommon.obj
 0001:0011aab0       ?addManifoldPointToPatch@PCMMeshContactGeneration@Gu@physx@@QAEXABT__m128@@0I@Z 1011bab0 f i GuPCMContactConvexCommon.obj
 0001:0011ad90       ?allocate@?$Array@USortedTriangle@Gu@physx@@V?$InlineAllocator@$0IAA@VNamedAllocator@shdfnd@physx@@@shdfnd@3@@shdfnd@physx@@IAEPAUSortedTriangle@Gu@3@I@Z 1011bd90 f i GuPCMContactConvexCommon.obj
 0001:0011ae00       ?allocate@?$InlineAllocator@$0IAA@VNamedAllocator@shdfnd@physx@@@shdfnd@physx@@QAEPAXIPBDH@Z 1011be00 f i GuPCMContactConvexCommon.obj
 0001:0011ae50       ?begin@?$Array@USortedTriangle@Gu@physx@@V?$InlineAllocator@$0IAA@VNamedAllocator@shdfnd@physx@@@shdfnd@3@@shdfnd@physx@@QAEPAUSortedTriangle@Gu@3@XZ 1011be50 f i GuPCMContactConvexCommon.obj
 0001:0011ae70       ?capacity@?$Array@USortedTriangle@Gu@physx@@V?$InlineAllocator@$0IAA@VNamedAllocator@shdfnd@physx@@@shdfnd@3@@shdfnd@physx@@QBEIXZ 1011be70 f i GuPCMContactConvexCommon.obj
 0001:0011ae90       ?capacityIncrement@?$Array@USortedTriangle@Gu@physx@@V?$InlineAllocator@$0IAA@VNamedAllocator@shdfnd@physx@@@shdfnd@3@@shdfnd@physx@@IBEIXZ 1011be90 f i GuPCMContactConvexCommon.obj
 0001:0011aed0       ?copy@?$Array@USortedTriangle@Gu@physx@@V?$InlineAllocator@$0IAA@VNamedAllocator@shdfnd@physx@@@shdfnd@3@@shdfnd@physx@@KAXPAUSortedTriangle@Gu@3@0PBU453@@Z 1011bed0 f i GuPCMContactConvexCommon.obj
 0001:0011af30       ?deallocate@?$Array@USortedTriangle@Gu@physx@@V?$InlineAllocator@$0IAA@VNamedAllocator@shdfnd@physx@@@shdfnd@3@@shdfnd@physx@@IAEXPAX@Z 1011bf30 f i GuPCMContactConvexCommon.obj
 0001:0011af50       ?deallocate@?$InlineAllocator@$0IAA@VNamedAllocator@shdfnd@physx@@@shdfnd@physx@@QAEXPAX@Z 1011bf50 f i GuPCMContactConvexCommon.obj
 0001:0011af80       ?destroy@?$Array@USortedTriangle@Gu@physx@@V?$InlineAllocator@$0IAA@VNamedAllocator@shdfnd@physx@@@shdfnd@3@@shdfnd@physx@@KAXPAUSortedTriangle@Gu@3@0@Z 1011bf80 f i GuPCMContactConvexCommon.obj
 0001:0011afa0       ?doSupport@?$SupportLocalImpl@VTriangleV@Gu@physx@@@Gu@physx@@UBE?AT__m128@@ABT4@@Z 1011bfa0 f i GuPCMContactConvexCommon.obj
 0001:0011afd0       ?doSupport@?$SupportLocalImpl@VTriangleV@Gu@physx@@@Gu@physx@@UBEXABT__m128@@AAT4@1@Z 1011bfd0 f i GuPCMContactConvexCommon.obj
 0001:0011b000       ?empty@?$Stack@VNamedAllocator@shdfnd@physx@@@internal@shdfnd@physx@@QAE_NXZ 1011c000 f i GuPCMContactConvexCommon.obj
 0001:0011b030       ?get@?$CacheMap@UCachedEdge@Gu@physx@@$0IA@@Gu@physx@@QBEPBUCachedEdge@23@ABU423@@Z 1011c030 f i GuPCMContactConvexCommon.obj
 0001:0011b0b0       ?grow@?$Stack@VNamedAllocator@shdfnd@physx@@@internal@shdfnd@physx@@QAEXXZ 1011c0b0 f i GuPCMContactConvexCommon.obj
 0001:0011b140       ?growAndPushBack@?$Array@USortedTriangle@Gu@physx@@V?$InlineAllocator@$0IAA@VNamedAllocator@shdfnd@physx@@@shdfnd@3@@shdfnd@physx@@IAEAAUSortedTriangle@Gu@3@ABU453@@Z 1011c140 f i GuPCMContactConvexCommon.obj
 0001:0011b2a0       ?isInUserMemory@?$Array@USortedTriangle@Gu@physx@@V?$InlineAllocator@$0IAA@VNamedAllocator@shdfnd@physx@@@shdfnd@3@@shdfnd@physx@@QBEIXZ 1011c2a0 f i GuPCMContactConvexCommon.obj
 0001:0011b2c0       ?isValidTriangleBarycentricCoord2@Gu@physx@@YA?AT__m128@@ABT3@@Z 1011c2c0 f i GuPCMContactConvexCommon.obj
 0001:0011b4a0       ?pcmDistanceSegmentSegmentSquared4@Gu@physx@@YA?AT__m128@@ABT3@000000000AAT3@1@Z 1011c4a0 f i GuPCMContactConvexCommon.obj
 0001:0011c120       ?pop@?$Stack@VNamedAllocator@shdfnd@physx@@@internal@shdfnd@physx@@QAEXAAH0@Z 1011d120 f i GuPCMContactConvexCommon.obj
 0001:0011c1c0       ?populateVerts@?$SupportLocalImpl@VTriangleV@Gu@physx@@@Gu@physx@@UBEXPBEIPBVPxVec3@3@PAT__m128@@@Z 1011d1c0 f i GuPCMContactConvexCommon.obj
 0001:0011c1f0       ?populateVerts@TriangleV@Gu@physx@@QBEXPBEIPBVPxVec3@3@PAT__m128@@@Z 1011d1f0 f i GuPCMContactConvexCommon.obj
 0001:0011c260       ?push@?$Stack@VNamedAllocator@shdfnd@physx@@@internal@shdfnd@physx@@QAEXHH@Z 1011d260 f i GuPCMContactConvexCommon.obj
 0001:0011c2d0       ?pushBack@?$Array@USortedTriangle@Gu@physx@@V?$InlineAllocator@$0IAA@VNamedAllocator@shdfnd@physx@@@shdfnd@3@@shdfnd@physx@@QAEAAUSortedTriangle@Gu@3@ABU453@@Z 1011d2d0 f i GuPCMContactConvexCommon.obj
 0001:0011c370       ?size@?$Array@USortedTriangle@Gu@physx@@V?$InlineAllocator@$0IAA@VNamedAllocator@shdfnd@physx@@@shdfnd@3@@shdfnd@physx@@QBEIXZ 1011d370 f i GuPCMContactConvexCommon.obj
 0001:0011c390       ?supportLocal@TriangleV@Gu@physx@@QBEXABT__m128@@AAT4@1@Z 1011d390 f i GuPCMContactConvexCommon.obj
 0001:0011c4c0       ?pcmContactConvexConvex@Gu@physx@@YA_NABVGeometryUnion@12@0ABVPxTransform@2@1ABUNarrowPhaseParams@12@AAUCache@12@AAVContactBuffer@12@PAVRenderOutput@Cm@2@@Z 1011d4c0 f   GuPCMContactConvexConvex.obj
 0001:0011d360       ??$gjkPenetration@U?$RelativeConvex@VConvexHullNoScaleV@Gu@physx@@@Gu@physx@@U?$LocalConvex@VConvexHullNoScaleV@Gu@physx@@@23@@Gu@physx@@YA?AW4GjkStatus@01@ABU?$RelativeConvex@VConvexHullNoScaleV@Gu@physx@@@01@ABU?$LocalConvex@VConvexHullNoScaleV@Gu@physx@@@01@ABT__m128@@2_NPIAE4AAEAAUGjkOutput@01@@Z 1011e360 f i GuPCMContactConvexConvex.obj
 0001:0011de30       ??$gjkPenetration@U?$RelativeConvex@VConvexHullNoScaleV@Gu@physx@@@Gu@physx@@U?$LocalConvex@VConvexHullV@Gu@physx@@@23@@Gu@physx@@YA?AW4GjkStatus@01@ABU?$RelativeConvex@VConvexHullNoScaleV@Gu@physx@@@01@ABU?$LocalConvex@VConvexHullV@Gu@physx@@@01@ABT__m128@@2_NPIAE4AAEAAUGjkOutput@01@@Z 1011ee30 f i GuPCMContactConvexConvex.obj
 0001:0011e900       ??$gjkPenetration@U?$RelativeConvex@VConvexHullV@Gu@physx@@@Gu@physx@@U?$LocalConvex@VConvexHullNoScaleV@Gu@physx@@@23@@Gu@physx@@YA?AW4GjkStatus@01@ABU?$RelativeConvex@VConvexHullV@Gu@physx@@@01@ABU?$LocalConvex@VConvexHullNoScaleV@Gu@physx@@@01@ABT__m128@@2_NPIAE4AAEAAUGjkOutput@01@@Z 1011f900 f i GuPCMContactConvexConvex.obj
 0001:0011f3d0       ??0?$RelativeConvex@VConvexHullNoScaleV@Gu@physx@@@Gu@physx@@QAE@ABVConvexHullNoScaleV@12@ABVPsMatTransformV@aos@shdfnd@2@@Z 101203d0 f i GuPCMContactConvexConvex.obj
 0001:0011f430       ??1?$RelativeConvex@VConvexHullNoScaleV@Gu@physx@@@Gu@physx@@UAE@XZ 10120430 f i GuPCMContactConvexConvex.obj
 0001:0011f450       ??_G?$RelativeConvex@VConvexHullNoScaleV@Gu@physx@@@Gu@physx@@UAEPAXI@Z 10120450 f i GuPCMContactConvexConvex.obj
 0001:0011f450       ??_E?$RelativeConvex@VConvexHullNoScaleV@Gu@physx@@@Gu@physx@@UAEPAXI@Z 10120450 f i GuPCMContactConvexConvex.obj
 0001:0011f480       ?getCenter@?$RelativeConvex@VConvexHullNoScaleV@Gu@physx@@@Gu@physx@@UBE?AT__m128@@XZ 10120480 f i GuPCMContactConvexConvex.obj
 0001:0011f4d0       ?getSweepMargin@?$RelativeConvex@VConvexHullNoScaleV@Gu@physx@@@Gu@physx@@UBE?AT__m128@@XZ 101204d0 f i GuPCMContactConvexConvex.obj
 0001:0011f500       ?support@?$RelativeConvex@VConvexHullNoScaleV@Gu@physx@@@Gu@physx@@UBE?AT__m128@@ABT4@@Z 10120500 f i GuPCMContactConvexConvex.obj
 0001:0011f540       ?support@?$RelativeConvex@VConvexHullNoScaleV@Gu@physx@@@Gu@physx@@UBE?AT__m128@@ABT4@AAH@Z 10120540 f i GuPCMContactConvexConvex.obj
 0001:0011f580       ?supportPoint@?$RelativeConvex@VConvexHullNoScaleV@Gu@physx@@@Gu@physx@@UBE?AT__m128@@H@Z 10120580 f i GuPCMContactConvexConvex.obj
 0001:0011f5d0       ?supportRelative@ConvexHullNoScaleV@Gu@physx@@QBE?AT__m128@@ABT4@ABVPsMatTransformV@aos@shdfnd@3@1@Z 101205d0 f i GuPCMContactConvexConvex.obj
 0001:0011f630       ?supportRelative@ConvexHullNoScaleV@Gu@physx@@QBE?AT__m128@@ABT4@ABVPsMatTransformV@aos@shdfnd@3@1AAH@Z 10120630 f i GuPCMContactConvexConvex.obj
 0001:0011f690       ?pcmContactBoxHeightField@Gu@physx@@YA_NABVGeometryUnion@12@0ABVPxTransform@2@1ABUNarrowPhaseParams@12@AAUCache@12@AAVContactBuffer@12@PAVRenderOutput@Cm@2@@Z 10120690 f   GuPCMContactConvexHeightField.obj
 0001:0011f8d0       ?pcmContactConvexHeightField@Gu@physx@@YA_NABVGeometryUnion@12@0ABVPxTransform@2@1ABUNarrowPhaseParams@12@AAUCache@12@AAVContactBuffer@12@PAVRenderOutput@Cm@2@@Z 101208d0 f   GuPCMContactConvexHeightField.obj
 0001:0011fbd0       ?PCMContactConvexHeightfield@Gu@physx@@YA_NABUPolygonalData@12@PAVSupportLocal@12@ABT__m128@@ABVPxBounds3@2@ABVPxHeightFieldGeometry@2@ABVPxTransform@2@5MAAVContactBuffer@12@ABVFastVertex2ShapeScaling@Cm@2@_NAAVMultiplePersistentContactManifold@12@PAVRenderOutput@Cm@2@@Z 10120bd0 f   GuPCMContactConvexHeightField.obj
 0001:0011ffe0       ??$processTriangleCache@$0BA@@PCMConvexVsHeightfieldContactGenerationCallback@physx@@QAEXAAU?$TriangleCache@$0BA@@Gu@1@@Z 10120fe0 f i GuPCMContactConvexHeightField.obj
 0001:00120000       ??$processTriangleCache@$0BA@VPCMConvexVsMeshContactGeneration@Gu@physx@@@PCMMeshContactGeneration@Gu@physx@@QAE_NAAU?$TriangleCache@$0BA@@12@@Z 10121000 f i GuPCMContactConvexHeightField.obj
 0001:001200a0       ??0?$PCMHeightfieldContactGenerationCallback@UPCMConvexVsHeightfieldContactGenerationCallback@physx@@@Gu@physx@@QAE@ABVHeightFieldUtil@12@ABVPxTransform@2@@Z 101210a0 f i GuPCMContactConvexHeightField.obj
 0001:00120130       ??0PCMConvexVsHeightfieldContactGenerationCallback@physx@@QAE@ABT__m128@@0ABUPolygonalData@Gu@1@PAVSupportLocal@41@ABVFastVertex2ShapeScaling@Cm@1@_NABVPsTransformV@aos@shdfnd@1@5ABVPxTransform@1@AAVMultiplePersistentContactManifold@41@AAVContactBuffer@41@AAVHeightFieldUtil@41@PAV?$InlineArray@I$0EEA@VNamedAllocator@shdfnd@physx@@@shdfnd@1@4PAVRenderOutput@71@@Z 10121130 f i GuPCMContactConvexHeightField.obj
 0001:001201a0       ??0PCMConvexVsMeshContactGeneration@Gu@physx@@QAE@ABT__m128@@0ABVPsTransformV@aos@shdfnd@2@1AAVMultiplePersistentContactManifold@12@AAVContactBuffer@12@ABUPolygonalData@12@PAVSupportLocal@12@PAV?$InlineArray@I$0EEA@VNamedAllocator@shdfnd@physx@@@62@ABVFastVertex2ShapeScaling@Cm@2@_N8PAVRenderOutput@Cm@2@@Z 101211a0 f i GuPCMContactConvexHeightField.obj
 0001:00120280       ??1?$PCMHeightfieldContactGenerationCallback@UPCMConvexVsHeightfieldContactGenerationCallback@physx@@@Gu@physx@@UAE@XZ 10121280 f i GuPCMContactConvexHeightField.obj
 0001:001202a0       ??1PCMConvexVsHeightfieldContactGenerationCallback@physx@@UAE@XZ 101212a0 f i GuPCMContactConvexHeightField.obj
 0001:001202c0       ??_E?$PCMHeightfieldContactGenerationCallback@UPCMConvexVsHeightfieldContactGenerationCallback@physx@@@Gu@physx@@UAEPAXI@Z 101212c0 f i GuPCMContactConvexHeightField.obj
 0001:001202c0       ??_G?$PCMHeightfieldContactGenerationCallback@UPCMConvexVsHeightfieldContactGenerationCallback@physx@@@Gu@physx@@UAEPAXI@Z 101212c0 f i GuPCMContactConvexHeightField.obj
 0001:001202f0       ??_GPCMConvexVsHeightfieldContactGenerationCallback@physx@@UAEPAXI@Z 101212f0 f i GuPCMContactConvexHeightField.obj
 0001:001202f0       ??_EPCMConvexVsHeightfieldContactGenerationCallback@physx@@UAEPAXI@Z 101212f0 f i GuPCMContactConvexHeightField.obj
 0001:00120330       ?onEvent@?$PCMHeightfieldContactGenerationCallback@UPCMConvexVsHeightfieldContactGenerationCallback@physx@@@Gu@physx@@UAE_NIPAI@Z 10121330 f i GuPCMContactConvexHeightField.obj
 0001:00120710       ?pcmContactBoxMesh@Gu@physx@@YA_NABVGeometryUnion@12@0ABVPxTransform@2@1ABUNarrowPhaseParams@12@AAUCache@12@AAVContactBuffer@12@PAVRenderOutput@Cm@2@@Z 10121710 f   GuPCMContactConvexMesh.obj
 0001:00120930       ?pcmContactConvexMesh@Gu@physx@@YA_NABVGeometryUnion@12@0ABVPxTransform@2@1ABUNarrowPhaseParams@12@AAUCache@12@AAVContactBuffer@12@PAVRenderOutput@Cm@2@@Z 10121930 f   GuPCMContactConvexMesh.obj
 0001:00120c30       ?PCMContactConvexMesh@Gu@physx@@YA_NABUPolygonalData@12@PAVSupportLocal@12@ABT__m128@@ABVPxBounds3@2@ABUPxTriangleMeshGeometryLL@2@ABVPxTransform@2@5MAAVContactBuffer@12@ABVFastVertex2ShapeScaling@Cm@2@7_N8AAVMultiplePersistentContactManifold@12@PAVRenderOutput@Cm@2@@Z 10121c30 f   GuPCMContactConvexMesh.obj
 0001:00121050       ??$processTriangleCache@$0BA@@PCMConvexVsMeshContactGenerationCallback@physx@@QAEXAAU?$TriangleCache@$0BA@@Gu@1@@Z 10122050 f i GuPCMContactConvexMesh.obj
 0001:00121070       ??0?$PCMMeshContactGenerationCallback@UPCMConvexVsMeshContactGenerationCallback@physx@@@Gu@physx@@QAE@ABVFastVertex2ShapeScaling@Cm@2@PBE_N@Z 10122070 f i GuPCMContactConvexMesh.obj
 0001:001210c0       ??0PCMConvexVsMeshContactGenerationCallback@physx@@QAE@ABT__m128@@0ABVPsTransformV@aos@shdfnd@1@1AAVMultiplePersistentContactManifold@Gu@1@AAVContactBuffer@71@ABUPolygonalData@71@PAVSupportLocal@71@PAV?$InlineArray@I$0EEA@VNamedAllocator@shdfnd@physx@@@51@ABVFastVertex2ShapeScaling@Cm@1@_N7PBE88ABVBoxPadded@71@PAVRenderOutput@Cm@1@@Z 101220c0 f i GuPCMContactConvexMesh.obj
 0001:00121140       ??1?$PCMMeshContactGenerationCallback@UPCMConvexVsMeshContactGenerationCallback@physx@@@Gu@physx@@UAE@XZ 10122140 f i GuPCMContactConvexMesh.obj
 0001:00121160       ??1PCMConvexVsMeshContactGenerationCallback@physx@@UAE@XZ 10122160 f i GuPCMContactConvexMesh.obj
 0001:00121180       ??_G?$PCMMeshContactGenerationCallback@UPCMConvexVsMeshContactGenerationCallback@physx@@@Gu@physx@@UAEPAXI@Z 10122180 f i GuPCMContactConvexMesh.obj
 0001:00121180       ??_E?$PCMMeshContactGenerationCallback@UPCMConvexVsMeshContactGenerationCallback@physx@@@Gu@physx@@UAEPAXI@Z 10122180 f i GuPCMContactConvexMesh.obj
 0001:001211c0       ??_EPCMConvexVsMeshContactGenerationCallback@physx@@UAEPAXI@Z 101221c0 f i GuPCMContactConvexMesh.obj
 0001:001211c0       ??_GPCMConvexVsMeshContactGenerationCallback@physx@@UAEPAXI@Z 101221c0 f i GuPCMContactConvexMesh.obj
 0001:00121200       ?doTest@PCMConvexVsMeshContactGenerationCallback@physx@@QAEHABVPxVec3@2@00@Z 10122200 f i GuPCMContactConvexMesh.obj
 0001:00121230       ?flushCache@?$PCMMeshContactGenerationCallback@UPCMConvexVsMeshContactGenerationCallback@physx@@@Gu@physx@@QAEXXZ 10122230 f i GuPCMContactConvexMesh.obj
 0001:00121270       ?processHit@?$PCMMeshContactGenerationCallback@UPCMConvexVsMeshContactGenerationCallback@physx@@@Gu@physx@@UAE_NABUPxRaycastHit@3@ABVPxVec3@3@11AAMPBI@Z 10122270 f i GuPCMContactConvexMesh.obj
 0001:00121410       ?generateFullContactManifold@Gu@physx@@YA_NAAUPolygonalData@12@0PAVSupportLocal@12@1PAVPersistentContact@12@AAIABT__m128@@444MM_NPAVRenderOutput@Cm@2@M@Z 10122410 f   GuPCMContactGenBoxConvex.obj
 0001:00121c10       ?addGJKEPAContacts@Gu@physx@@YA_NPBUGjkConvex@12@0ABVPsMatTransformV@aos@shdfnd@2@W4GjkStatus@12@PAVPersistentContact@12@T__m128@@4AAUGjkOutput@12@AAVPersistentContactManifold@12@@Z 10122c10 f   GuPCMContactGenBoxConvex.obj
 0001:00121e50       ?computeMTD@Gu@physx@@YA_NAAUPolygonalData@12@0PAVSupportLocal@12@1AAT__m128@@2@Z 10122e50 f   GuPCMContactGenBoxConvex.obj
 0001:00122080       ?buildPartialHull@Gu@physx@@YAXABUPolygonalData@12@PAVSupportLocal@12@AAVSeparatingAxes@12@ABT__m128@@3@Z 10123080 f   GuPCMContactGenBoxConvex.obj
 0001:00123350       ?generatedContacts@Gu@physx@@YAXAAUPolygonalData@12@0ABUHullPolygonData@12@1PAVSupportLocal@12@2ABVPsMatTransformV@aos@shdfnd@2@PAVPersistentContact@12@AAIABT__m128@@PAVRenderOutput@Cm@2@@Z 10124350 f   GuPCMContactGenBoxConvex.obj
 0001:00124300       ??$PX_UNUSED@UPolygonalData@Gu@physx@@@@YAXABUPolygonalData@Gu@physx@@@Z 10125300 f i GuPCMContactGenBoxConvex.obj
 0001:00124310       ??4PxPlane@physx@@QAEAAV01@ABV01@@Z 10125310 f i GuPCMContactGenBoxConvex.obj
 0001:00124340       ?getPolygonIndex@Gu@physx@@YAHABUPolygonalData@12@PAVSupportLocal@12@ABT__m128@@@Z 10125340 f i GuPCMContactGenBoxConvex.obj
 0001:001247d0       ?getWitnessPolygonIndex@Gu@physx@@YAIABUPolygonalData@12@PAVSupportLocal@12@ABT__m128@@2M@Z 101257d0 f i GuPCMContactGenBoxConvex.obj
 0001:00124b80       ?signed2DTriArea@Gu@physx@@YA?AT__m128@@ABT3@00@Z 10125b80 f i GuPCMContactGenBoxConvex.obj
 0001:00124c80       ?generateFullContactManifold@Gu@physx@@YA_NABVCapsuleV@12@AAUPolygonalData@12@PAVSupportLocal@12@ABVPsMatTransformV@aos@shdfnd@2@PAVPersistentContact@12@AAIABT__m128@@AAT__m128@@6M_NM@Z 10125c80 f   GuPCMContactGenSphereCapsule.obj
 0001:00124e90       ?generateCapsuleBoxFullContactManifold@Gu@physx@@YA_NABVCapsuleV@12@AAUPolygonalData@12@PAVSupportLocal@12@ABVPsMatTransformV@aos@shdfnd@2@PAVPersistentContact@12@AAIABT__m128@@AAT__m128@@6M_NMPAVRenderOutput@Cm@2@@Z 10125e90 f   GuPCMContactGenSphereCapsule.obj
 0001:00125040       ?computeMTD@Gu@physx@@YA_NABVCapsuleV@12@AAUPolygonalData@12@PAVSupportLocal@12@AAT__m128@@3@Z 10126040 f   GuPCMContactGenSphereCapsule.obj
 0001:001250d0       ?generateSphereFullContactManifold@Gu@physx@@YA_NABVCapsuleV@12@AAUPolygonalData@12@PAVSupportLocal@12@PAVPersistentContact@12@AAIABT__m128@@AAT7@_N@Z 101260d0 f   GuPCMContactGenSphereCapsule.obj
 0001:001257d0       ?generatedCapsuleBoxFaceContacts@Gu@physx@@YAXABVCapsuleV@12@AAUPolygonalData@12@ABUHullPolygonData@12@PAVSupportLocal@12@ABVPsMatTransformV@aos@shdfnd@2@PAVPersistentContact@12@AAIABT__m128@@7@Z 101267d0 f   GuPCMContactGenSphereCapsule.obj
 0001:00126590       ?generatedContactsEEContacts@Gu@physx@@YAXABVCapsuleV@12@AAUPolygonalData@12@ABUHullPolygonData@12@PAVSupportLocal@12@ABVPsMatTransformV@aos@shdfnd@2@PAVPersistentContact@12@AAIABT__m128@@7@Z 10127590 f   GuPCMContactGenSphereCapsule.obj
 0001:001266a0       ?BAndNot@aos@shdfnd@physx@@YA?AT__m128@@T4@0@Z 101276a0 f i GuPCMContactGenSphereCapsule.obj
 0001:001266e0       ?intersectSegmentPolyhedron@Gu@physx@@YA_NABT__m128@@0ABUPolygonalData@12@AAT3@2@Z 101276e0 f i GuPCMContactGenSphereCapsule.obj
 0001:001269e0       ?testPolyDataAxis@Gu@physx@@YA_NABVCapsuleV@12@ABUPolygonalData@12@PAVSupportLocal@12@ABT__m128@@AAT6@4@Z 101279e0 f i GuPCMContactGenSphereCapsule.obj
 0001:00126da0       ?pcmContactPlaneBox@Gu@physx@@YA_NABVGeometryUnion@12@0ABVPxTransform@2@1ABUNarrowPhaseParams@12@AAUCache@12@AAVContactBuffer@12@PAVRenderOutput@Cm@2@@Z 10127da0 f   GuPCMContactPlaneBox.obj
 0001:00127d10       ?invalidate_PrimitivesPlane@PersistentContactManifold@Gu@physx@@QAEIABVPsTransformV@aos@shdfnd@3@ABT__m128@@1@Z 10128d10 f i GuPCMContactPlaneBox.obj
 0001:00127e10       ?pcmContactPlaneCapsule@Gu@physx@@YA_NABVGeometryUnion@12@0ABVPxTransform@2@1ABUNarrowPhaseParams@12@AAUCache@12@AAVContactBuffer@12@PAVRenderOutput@Cm@2@@Z 10128e10 f   GuPCMContactPlaneCapsule.obj
 0001:001283e0       ?pcmContactPlaneConvex@Gu@physx@@YA_NABVGeometryUnion@12@0ABVPxTransform@2@1ABUNarrowPhaseParams@12@AAUCache@12@AAVContactBuffer@12@PAVRenderOutput@Cm@2@@Z 101293e0 f   GuPCMContactPlaneConvex.obj
 0001:00128970       ?ConstructVertex2ShapeMatrix@Gu@physx@@YA?AUMat33V@aos@shdfnd@2@ABT__m128@@0@Z 10129970 f i GuPCMContactPlaneConvex.obj
 0001:00128a70       ?pcmContactSphereBox@Gu@physx@@YA_NABVGeometryUnion@12@0ABVPxTransform@2@1ABUNarrowPhaseParams@12@AAUCache@12@AAVContactBuffer@12@PAVRenderOutput@Cm@2@@Z 10129a70 f   GuPCMContactSphereBox.obj
 0001:001292c0       ?BAllTrue3@aos@shdfnd@physx@@YA?AT__m128@@T4@@Z 1012a2c0 f i GuPCMContactSphereBox.obj
 0001:00129340       ?V3Clamp@aos@shdfnd@physx@@YA?AT__m128@@T4@00@Z 1012a340 f i GuPCMContactSphereBox.obj
 0001:00129470       ?pcmContactSphereCapsule@Gu@physx@@YA_NABVGeometryUnion@12@0ABVPxTransform@2@1ABUNarrowPhaseParams@12@AAUCache@12@AAVContactBuffer@12@PAVRenderOutput@Cm@2@@Z 1012a470 f   GuPCMContactSphereCapsule.obj
 0001:001298e0       ?PxcDistancePointSegmentSquared@Gu@physx@@YA?AT__m128@@ABT3@00AAT3@@Z 1012a8e0 f i GuPCMContactSphereCapsule.obj
 0001:00129a80       ?pcmContactSphereConvex@Gu@physx@@YA_NABVGeometryUnion@12@0ABVPxTransform@2@1ABUNarrowPhaseParams@12@AAUCache@12@AAVContactBuffer@12@PAVRenderOutput@Cm@2@@Z 1012aa80 f   GuPCMContactSphereConvex.obj
 0001:0012a850       ?getContactPoint@PersistentContactManifold@Gu@physx@@QAEAAVPersistentContact@23@I@Z 1012b850 f i GuPCMContactSphereConvex.obj
 0001:0012a8b0       ?pcmContactSphereHeightField@Gu@physx@@YA_NABVGeometryUnion@12@0ABVPxTransform@2@1ABUNarrowPhaseParams@12@AAUCache@12@AAVContactBuffer@12@PAVRenderOutput@Cm@2@@Z 1012b8b0 f   GuPCMContactSphereHeightField.obj
 0001:0012ad60       ??$processTriangleCache@$0BA@@PCMSphereVsHeightfieldContactGenerationCallback@physx@@QAEXAAU?$TriangleCache@$0BA@@Gu@1@@Z 1012bd60 f i GuPCMContactSphereHeightField.obj
 0001:0012ad80       ??$processTriangleCache@$0BA@VPCMSphereVsMeshContactGeneration@Gu@physx@@@PCMMeshContactGeneration@Gu@physx@@QAE_NAAU?$TriangleCache@$0BA@@12@@Z 1012bd80 f i GuPCMContactSphereHeightField.obj
 0001:0012ae20       ??0?$Array@USortedTriangle@Gu@physx@@V?$InlineAllocator@$0IAA@VNamedAllocator@shdfnd@physx@@@shdfnd@3@@shdfnd@physx@@QAE@ABV?$InlineAllocator@$0IAA@VNamedAllocator@shdfnd@physx@@@12@@Z 1012be20 f i GuPCMContactSphereHeightField.obj
 0001:0012ae70       ??0?$InlineAllocator@$0IAA@VNamedAllocator@shdfnd@physx@@@shdfnd@physx@@QAE@ABV012@@Z 1012be70 f i GuPCMContactSphereHeightField.obj
 0001:0012aea0       ??0?$InlineAllocator@$0IAA@VNamedAllocator@shdfnd@physx@@@shdfnd@physx@@QAE@ABVNamedAllocator@12@@Z 1012bea0 f i GuPCMContactSphereHeightField.obj
 0001:0012aed0       ??0?$InlineArray@USortedTriangle@Gu@physx@@$0EA@VNamedAllocator@shdfnd@3@@shdfnd@physx@@QAE@ABVNamedAllocator@12@@Z 1012bed0 f i GuPCMContactSphereHeightField.obj
 0001:0012af30       ??0?$PCMHeightfieldContactGenerationCallback@UPCMSphereVsHeightfieldContactGenerationCallback@physx@@@Gu@physx@@QAE@ABVHeightFieldUtil@12@ABVPxTransform@2@@Z 1012bf30 f i GuPCMContactSphereHeightField.obj
 0001:0012afc0       ??0PCMSphereVsHeightfieldContactGenerationCallback@physx@@QAE@ABT__m128@@000ABVPsTransformV@aos@shdfnd@1@1ABVPxTransform@1@AAVMultiplePersistentContactManifold@Gu@1@AAVContactBuffer@81@PAV?$InlineArray@I$0EEA@VNamedAllocator@shdfnd@physx@@@51@AAVHeightFieldUtil@81@@Z 1012bfc0 f i GuPCMContactSphereHeightField.obj
 0001:0012b020       ??0PCMSphereVsMeshContactGeneration@Gu@physx@@QAE@ABT__m128@@000ABVPsTransformV@aos@shdfnd@2@1AAVMultiplePersistentContactManifold@12@AAVContactBuffer@12@PAV?$InlineArray@I$0EEA@VNamedAllocator@shdfnd@physx@@@62@PAVRenderOutput@Cm@2@@Z 1012c020 f i GuPCMContactSphereHeightField.obj
 0001:0012b0f0       ??1?$Array@USortedTriangle@Gu@physx@@V?$InlineAllocator@$0IAA@VNamedAllocator@shdfnd@physx@@@shdfnd@3@@shdfnd@physx@@QAE@XZ 1012c0f0 f i GuPCMContactSphereHeightField.obj
 0001:0012b160       ??1?$InlineAllocator@$0IAA@VNamedAllocator@shdfnd@physx@@@shdfnd@physx@@QAE@XZ 1012c160 f i GuPCMContactSphereHeightField.obj
 0001:0012b180       ??1?$InlineArray@USortedTriangle@Gu@physx@@$0EA@VNamedAllocator@shdfnd@3@@shdfnd@physx@@QAE@XZ 1012c180 f i GuPCMContactSphereHeightField.obj
 0001:0012b1a0       ??1?$PCMHeightfieldContactGenerationCallback@UPCMSphereVsHeightfieldContactGenerationCallback@physx@@@Gu@physx@@UAE@XZ 1012c1a0 f i GuPCMContactSphereHeightField.obj
 0001:0012b1c0       ??1PCMSphereVsHeightfieldContactGenerationCallback@physx@@UAE@XZ 1012c1c0 f i GuPCMContactSphereHeightField.obj
 0001:0012b1e0       ??1PCMSphereVsMeshContactGeneration@Gu@physx@@QAE@XZ 1012c1e0 f i GuPCMContactSphereHeightField.obj
 0001:0012b200       ??_G?$PCMHeightfieldContactGenerationCallback@UPCMSphereVsHeightfieldContactGenerationCallback@physx@@@Gu@physx@@UAEPAXI@Z 1012c200 f i GuPCMContactSphereHeightField.obj
 0001:0012b200       ??_E?$PCMHeightfieldContactGenerationCallback@UPCMSphereVsHeightfieldContactGenerationCallback@physx@@@Gu@physx@@UAEPAXI@Z 1012c200 f i GuPCMContactSphereHeightField.obj
 0001:0012b230       ??_EPCMSphereVsHeightfieldContactGenerationCallback@physx@@UAEPAXI@Z 1012c230 f i GuPCMContactSphereHeightField.obj
 0001:0012b230       ??_GPCMSphereVsHeightfieldContactGenerationCallback@physx@@UAEPAXI@Z 1012c230 f i GuPCMContactSphereHeightField.obj
 0001:0012b270       ?onEvent@?$PCMHeightfieldContactGenerationCallback@UPCMSphereVsHeightfieldContactGenerationCallback@physx@@@Gu@physx@@UAE_NIPAI@Z 1012c270 f i GuPCMContactSphereHeightField.obj
 0001:0012b650       ?pcmContactSphereMesh@Gu@physx@@YA_NABVGeometryUnion@12@0ABVPxTransform@2@1ABUNarrowPhaseParams@12@AAUCache@12@AAVContactBuffer@12@PAVRenderOutput@Cm@2@@Z 1012c650 f   GuPCMContactSphereMesh.obj
 0001:0012bb70       ??$processTriangleCache@$0BA@@PCMSphereVsMeshContactGenerationCallback@physx@@QAEXAAU?$TriangleCache@$0BA@@Gu@1@@Z 1012cb70 f i GuPCMContactSphereMesh.obj
 0001:0012bb90       ??0?$PCMMeshContactGenerationCallback@UPCMSphereVsMeshContactGenerationCallback@physx@@@Gu@physx@@QAE@ABVFastVertex2ShapeScaling@Cm@2@PBE_N@Z 1012cb90 f i GuPCMContactSphereMesh.obj
 0001:0012bbe0       ??0PCMSphereVsMeshContactGenerationCallback@physx@@QAE@ABT__m128@@000ABVPsTransformV@aos@shdfnd@1@1AAVMultiplePersistentContactManifold@Gu@1@AAVContactBuffer@71@PBEABVFastVertex2ShapeScaling@Cm@1@_NPAV?$InlineArray@I$0EEA@VNamedAllocator@shdfnd@physx@@@51@PAVRenderOutput@Cm@1@@Z 1012cbe0 f i GuPCMContactSphereMesh.obj
 0001:0012bc50       ??1?$PCMMeshContactGenerationCallback@UPCMSphereVsMeshContactGenerationCallback@physx@@@Gu@physx@@UAE@XZ 1012cc50 f i GuPCMContactSphereMesh.obj
 0001:0012bc70       ??1PCMSphereVsMeshContactGenerationCallback@physx@@UAE@XZ 1012cc70 f i GuPCMContactSphereMesh.obj
 0001:0012bca0       ??_E?$PCMMeshContactGenerationCallback@UPCMSphereVsMeshContactGenerationCallback@physx@@@Gu@physx@@UAEPAXI@Z 1012cca0 f i GuPCMContactSphereMesh.obj
 0001:0012bca0       ??_G?$PCMMeshContactGenerationCallback@UPCMSphereVsMeshContactGenerationCallback@physx@@@Gu@physx@@UAEPAXI@Z 1012cca0 f i GuPCMContactSphereMesh.obj
 0001:0012bce0       ??_GPCMSphereVsMeshContactGenerationCallback@physx@@UAEPAXI@Z 1012cce0 f i GuPCMContactSphereMesh.obj
 0001:0012bce0       ??_EPCMSphereVsMeshContactGenerationCallback@physx@@UAEPAXI@Z 1012cce0 f i GuPCMContactSphereMesh.obj
 0001:0012bd20       ?doTest@PCMSphereVsMeshContactGenerationCallback@physx@@QAE_NABVPxVec3@2@00@Z 1012cd20 f i GuPCMContactSphereMesh.obj
 0001:0012bd30       ?flushCache@?$PCMMeshContactGenerationCallback@UPCMSphereVsMeshContactGenerationCallback@physx@@@Gu@physx@@QAEXXZ 1012cd30 f i GuPCMContactSphereMesh.obj
 0001:0012bd70       ?processHit@?$PCMMeshContactGenerationCallback@UPCMSphereVsMeshContactGenerationCallback@physx@@@Gu@physx@@UAE_NABUPxRaycastHit@3@ABVPxVec3@3@11AAMPBI@Z 1012cd70 f i GuPCMContactSphereMesh.obj
 0001:0012bf10       ?pcmContactSpherePlane@Gu@physx@@YA_NABVGeometryUnion@12@0ABVPxTransform@2@1ABUNarrowPhaseParams@12@AAUCache@12@AAVContactBuffer@12@PAVRenderOutput@Cm@2@@Z 1012cf10 f   GuPCMContactSpherePlane.obj
 0001:0012c160       ?pcmContactSphereSphere@Gu@physx@@YA_NABVGeometryUnion@12@0ABVPxTransform@2@1ABUNarrowPhaseParams@12@AAUCache@12@AAVContactBuffer@12@PAVRenderOutput@Cm@2@@Z 1012d160 f   GuPCMContactSphereSphere.obj
 0001:0012c510       ??0PCMPolygonalBox@Gu@physx@@QAE@ABVPxVec3@2@@Z 1012d510 f   GuPCMShapeConvex.obj
 0001:0012ccf0       ?getPolygonalData@PCMPolygonalBox@Gu@physx@@QBEXPIAUPolygonalData@23@@Z 1012dcf0 f   GuPCMShapeConvex.obj
 0001:0012cdd0       ?getPCMConvexData@Gu@physx@@YAXABVConvexHullV@12@_NAAUPolygonalData@12@@Z 1012ddd0 f   GuPCMShapeConvex.obj
 0001:0012ce60       ?getPCMConvexData@Gu@physx@@YA_NABVGeometryUnion@12@AAVFastVertex2ShapeScaling@Cm@2@AAVPxBounds3@2@AAUPolygonalData@12@@Z 1012de60 f   GuPCMShapeConvex.obj
 0001:0012d190       ?getVerticesByEdges16@ConvexHullData@Gu@physx@@QBEPBGXZ 1012e190 f i GuPCMShapeConvex.obj
 0001:0012d210       ?generateTriangleFullContactManifold@PCMConvexVsMeshContactGeneration@Gu@physx@@QAE_NAAVTriangleV@23@IPBIEABUPolygonalData@23@PAV?$SupportLocalImpl@VTriangleV@Gu@physx@@@23@PAVSupportLocal@23@PAVMeshPersistentContact@23@AAIABT__m128@@AAT9@@Z 1012e210 f   GuPCMTriangleContactGen.obj
 0001:0012d6a0       ?generatePolyDataContactManifold@PCMConvexVsMeshContactGeneration@Gu@physx@@QAE_NAAVTriangleV@23@IIEPAVMeshPersistentContact@23@AAIABT__m128@@AAT6@@Z 1012e6a0 f   GuPCMTriangleContactGen.obj
 0001:0012d790       ?generateTriangleFullContactManifold@PCMConvexVsMeshContactGeneration@Gu@physx@@SA_NAAVTriangleV@23@IEABUPolygonalData@23@PAV?$SupportLocalImpl@VTriangleV@Gu@physx@@@23@PAVSupportLocal@23@PAVMeshPersistentContact@23@AAIABT__m128@@AAT9@PAVRenderOutput@Cm@3@@Z 1012e790 f   GuPCMTriangleContactGen.obj
 0001:00130610       ??$PX_UNUSED@E@@YAXABE@Z   10131610 f i GuPCMTriangleContactGen.obj
 0001:00130620       ??$PX_UNUSED@PAV?$SupportLocalImpl@VTriangleV@Gu@physx@@@Gu@physx@@@@YAXABQAV?$SupportLocalImpl@VTriangleV@Gu@physx@@@Gu@physx@@@Z 10131620 f i GuPCMTriangleContactGen.obj
 0001:00130630       ?FRsqrtFast@aos@shdfnd@physx@@YA?AT__m128@@T4@@Z 10131630 f i GuPCMTriangleContactGen.obj
 0001:001306b0       ?V3AllGrtr@aos@shdfnd@physx@@YAIT__m128@@0@Z 101316b0 f i GuPCMTriangleContactGen.obj
 0001:00130780       ?V3LengthSq@aos@shdfnd@physx@@YA?AT__m128@@T4@@Z 10131780 f i GuPCMTriangleContactGen.obj
 0001:00130800       ?findRotationMatrixFromZAxis@Gu@physx@@YA?AUMat33V@aos@shdfnd@2@ABT__m128@@@Z 10131800 f   GuPersistentContactManifold.obj
 0001:00131020       ?replaceManifoldPoint@PersistentContactManifold@Gu@physx@@QAE_NABT__m128@@000@Z 10132020 f   GuPersistentContactManifold.obj
 0001:001311a0       ?addManifoldPoint@PersistentContactManifold@Gu@physx@@QAEIABT__m128@@000@Z 101321a0 f   GuPersistentContactManifold.obj
 0001:00131280       ?addManifoldPoint2@PersistentContactManifold@Gu@physx@@QAEIABT__m128@@000@Z 10132280 f   GuPersistentContactManifold.obj
 0001:00131390       ?addBatchManifoldContactsCluster@PersistentContactManifold@Gu@physx@@QAEXPBVPersistentContact@23@I@Z 10132390 f   GuPersistentContactManifold.obj
 0001:00131440       ?addBatchManifoldContacts2@PersistentContactManifold@Gu@physx@@QAEXPBVPersistentContact@23@I@Z 10132440 f   GuPersistentContactManifold.obj
 0001:001314f0       ?addBatchManifoldContacts@PersistentContactManifold@Gu@physx@@QAEXPBVPersistentContact@23@IM@Z 101324f0 f   GuPersistentContactManifold.obj
 0001:001315b0       ?reduceBatchContactsCluster@PersistentContactManifold@Gu@physx@@QAEXPBVPersistentContact@23@I@Z 101325b0 f   GuPersistentContactManifold.obj
 0001:00131db0       ?reduceBatchContacts2@PersistentContactManifold@Gu@physx@@QAEXPBVPersistentContact@23@I@Z 10132db0 f   GuPersistentContactManifold.obj
 0001:00132180       ?reduceBatchContacts@PersistentContactManifold@Gu@physx@@QAEXPBVPersistentContact@23@IM@Z 10133180 f   GuPersistentContactManifold.obj
 0001:00132aa0       ?reduceContactsForPCM@PersistentContactManifold@Gu@physx@@QAEIABT__m128@@00@Z 10133aa0 f   GuPersistentContactManifold.obj
 0001:001330b0       ?reduceContactSegment@PersistentContactManifold@Gu@physx@@QAEIABT__m128@@00@Z 101340b0 f   GuPersistentContactManifold.obj
 0001:00133240       ?addManifoldContactsToContactBuffer@PersistentContactManifold@Gu@physx@@QAEXAAVContactBuffer@23@ABT__m128@@ABVPsMatTransformV@aos@shdfnd@3@@Z 10134240 f   GuPersistentContactManifold.obj
 0001:00133480       ?addManifoldContactsToContactBuffer@PersistentContactManifold@Gu@physx@@QAEXAAVContactBuffer@23@ABT__m128@@ABVPsTransformV@aos@shdfnd@3@1@Z 10134480 f   GuPersistentContactManifold.obj
 0001:001336b0       ?addManifoldContactsToContactBuffer@PersistentContactManifold@Gu@physx@@QAEXAAVContactBuffer@23@ABT__m128@@1ABVPsTransformV@aos@shdfnd@3@11@Z 101346b0 f   GuPersistentContactManifold.obj
 0001:00133840       ?recordWarmStart@PersistentContactManifold@Gu@physx@@QAEXPAE0AAE@Z 10134840 f   GuPersistentContactManifold.obj
 0001:001338b0       ?setWarmStart@PersistentContactManifold@Gu@physx@@QAEXPBE0E@Z 101348b0 f   GuPersistentContactManifold.obj
 0001:00133920       ?drawManifold@PersistentContactManifold@Gu@physx@@QAEXAAVRenderOutput@Cm@3@ABVPsTransformV@aos@shdfnd@3@1@Z 10134920 f   GuPersistentContactManifold.obj
 0001:001339c0       ?drawManifold@PersistentContactManifold@Gu@physx@@QAEXAAVRenderOutput@Cm@3@ABVPsTransformV@aos@shdfnd@3@1ABT__m128@@@Z 101349c0 f   GuPersistentContactManifold.obj
 0001:00133a60       ?drawManifold@PersistentContactManifold@Gu@physx@@QAEXABVPersistentContact@23@AAVRenderOutput@Cm@3@ABVPsTransformV@aos@shdfnd@3@2@Z 10134a60 f   GuPersistentContactManifold.obj
 0001:00133aa0       ?drawPoint@PersistentContactManifold@Gu@physx@@SAXAAVRenderOutput@Cm@3@ABT__m128@@MI@Z 10134aa0 f   GuPersistentContactManifold.obj
 0001:00133c40       ?drawLine@PersistentContactManifold@Gu@physx@@SAXAAVRenderOutput@Cm@3@ABT__m128@@1I@Z 10134c40 f   GuPersistentContactManifold.obj
 0001:00133ce0       ?drawTriangle@PersistentContactManifold@Gu@physx@@SAXAAVRenderOutput@Cm@3@ABT__m128@@11I@Z 10134ce0 f   GuPersistentContactManifold.obj
 0001:00133db0       ?drawPolygon@PersistentContactManifold@Gu@physx@@SAXAAVRenderOutput@Cm@3@ABVPsTransformV@aos@shdfnd@3@PAT__m128@@II@Z 10134db0 f   GuPersistentContactManifold.obj
 0001:00133e60       ?drawPolygon@PersistentContactManifold@Gu@physx@@SAXAAVRenderOutput@Cm@3@ABVPsMatTransformV@aos@shdfnd@3@PAT__m128@@II@Z 10134e60 f   GuPersistentContactManifold.obj
 0001:00133f10       ?reduceBatchContactsConvex@SinglePersistentContactManifold@Gu@physx@@QAE?AT__m128@@PBVMeshPersistentContact@23@IAAUPCMContactPatch@23@@Z 10134f10 f   GuPersistentContactManifold.obj
 0001:00134840       ?reduceBatchContactsSphere@SinglePersistentContactManifold@Gu@physx@@QAE?AT__m128@@PBVMeshPersistentContact@23@IAAUPCMContactPatch@23@@Z 10135840 f   GuPersistentContactManifold.obj
 0001:00134970       ?reduceBatchContactsCapsule@SinglePersistentContactManifold@Gu@physx@@QAE?AT__m128@@PBVMeshPersistentContact@23@IAAUPCMContactPatch@23@@Z 10135970 f   GuPersistentContactManifold.obj
 0001:00134d60       ?addBatchManifoldContactsConvex@SinglePersistentContactManifold@Gu@physx@@QAE?AT__m128@@PBVMeshPersistentContact@23@IAAUPCMContactPatch@23@ABT4@@Z 10135d60 f   GuPersistentContactManifold.obj
 0001:00134e60       ?addBatchManifoldContactsSphere@SinglePersistentContactManifold@Gu@physx@@QAE?AT__m128@@PBVMeshPersistentContact@23@IAAUPCMContactPatch@23@ABT4@@Z 10135e60 f   GuPersistentContactManifold.obj
 0001:00134ed0       ?addBatchManifoldContactsCapsule@SinglePersistentContactManifold@Gu@physx@@QAE?AT__m128@@PBVMeshPersistentContact@23@IAAUPCMContactPatch@23@ABT4@@Z 10135ed0 f   GuPersistentContactManifold.obj
 0001:00134fd0       ?reduceContacts@SinglePersistentContactManifold@Gu@physx@@SAIPAVMeshPersistentContact@23@I@Z 10135fd0 f   GuPersistentContactManifold.obj
 0001:00135830       ?refreshContactPoints@SinglePersistentContactManifold@Gu@physx@@QAE?AT__m128@@ABVPsMatTransformV@aos@shdfnd@3@ABT4@1@Z 10136830 f   GuPersistentContactManifold.obj
 0001:00135a60       ?drawManifold@SinglePersistentContactManifold@Gu@physx@@QAEXAAVRenderOutput@Cm@3@ABVPsTransformV@aos@shdfnd@3@1@Z 10136a60 f   GuPersistentContactManifold.obj
 0001:00135b00       ?addManifoldContactPoints@MultiplePersistentContactManifold@Gu@physx@@QAEXPAVMeshPersistentContact@23@IPAPAUPCMContactPatch@23@IABT__m128@@2E@Z 10136b00 f   GuPersistentContactManifold.obj
 0001:001360b0       ?addManifoldContactsToContactBuffer@MultiplePersistentContactManifold@Gu@physx@@QAE_NAAVContactBuffer@23@ABVPsTransformV@aos@shdfnd@3@@Z 101370b0 f   GuPersistentContactManifold.obj
 0001:00136310       ?addManifoldContactsToContactBuffer@MultiplePersistentContactManifold@Gu@physx@@QAE_NAAVContactBuffer@23@ABVPsTransformV@aos@shdfnd@3@1ABT__m128@@@Z 10137310 f   GuPersistentContactManifold.obj
 0001:001365b0       ?drawManifold@MultiplePersistentContactManifold@Gu@physx@@QAEXAAVRenderOutput@Cm@3@ABVPsTransformV@aos@shdfnd@3@1@Z 101375b0 f   GuPersistentContactManifold.obj
 0001:00136610       ?fromBuffer@MultiplePersistentContactManifold@Gu@physx@@QAEXPIAE@Z 10137610 f   GuPersistentContactManifold.obj
 0001:001368f0       ?drawLine@MultiplePersistentContactManifold@Gu@physx@@SAXAAVRenderOutput@Cm@3@ABT__m128@@1I@Z 101378f0 f   GuPersistentContactManifold.obj
 0001:00136990       ?drawLine@MultiplePersistentContactManifold@Gu@physx@@SAXAAVRenderOutput@Cm@3@VPxVec3@3@1I@Z 10137990 f   GuPersistentContactManifold.obj
 0001:001369f0       ?drawPoint@MultiplePersistentContactManifold@Gu@physx@@SAXAAVRenderOutput@Cm@3@ABT__m128@@MI@Z 101379f0 f   GuPersistentContactManifold.obj
 0001:00136b90       ?drawPolygon@MultiplePersistentContactManifold@Gu@physx@@SAXAAVRenderOutput@Cm@3@ABVPsTransformV@aos@shdfnd@3@PAT__m128@@II@Z 10137b90 f   GuPersistentContactManifold.obj
 0001:00136c40       ?addManifoldPoint@Gu@physx@@YAXPAVPersistentContact@12@AAVPersistentContactManifold@12@AAUGjkOutput@12@ABVPsMatTransformV@aos@shdfnd@2@T__m128@@@Z 10137c40 f   GuPersistentContactManifold.obj
 0001:001385a0       ?BTFTT@aos@shdfnd@physx@@YA?AT__m128@@XZ 101395a0 f i GuPersistentContactManifold.obj
 0001:001385e0       ?V3SetY@aos@shdfnd@physx@@YA?AT__m128@@T4@0@Z 101395e0 f i GuPersistentContactManifold.obj
 0001:001386c0       ?getContactPoint@SinglePersistentContactManifold@Gu@physx@@QAEAAVMeshPersistentContact@23@I@Z 101396c0 f i GuPersistentContactManifold.obj
 0001:00138720       ?getLocalNormal@SinglePersistentContactManifold@Gu@physx@@QAE?AT__m128@@XZ 10139720 f i GuPersistentContactManifold.obj
 0001:001387d0       ?getNumContacts@SinglePersistentContactManifold@Gu@physx@@QBEIXZ 101397d0 f i GuPersistentContactManifold.obj
 0001:001387f0       ?getWorldNormal@SinglePersistentContactManifold@Gu@physx@@QAE?AT__m128@@ABVPsTransformV@aos@shdfnd@3@@Z 101397f0 f i GuPersistentContactManifold.obj
 0001:001388b0       ?removeContactPoint@SinglePersistentContactManifold@Gu@physx@@QAEXI@Z 101398b0 f i GuPersistentContactManifold.obj
 0001:00138950       ?sweepBoxBox@Gu@physx@@YA_NABVBox@12@0ABVPxVec3@2@MV?$PxFlags@W4Enum@PxHitFlag@physx@@G@2@AAUPxSweepHit@2@@Z 10139950 f   GuSweepBoxBox.obj
 0001:00139190       ?sweepBoxSphere@Gu@physx@@YA_NABVBox@12@MABVPxVec3@2@1MAAMAAV42@V?$PxFlags@W4Enum@PxHitFlag@physx@@G@2@@Z 1013a190 f   GuSweepBoxSphere.obj
 0001:001396c0       ?sweepBoxTriangle@Gu@physx@@YA_NABVPxTriangle@2@ABVPxBounds3@2@ABVPxVec3@2@2AAV52@3AAM_N@Z 1013a6c0 f   GuSweepBoxTriangle_FeatureBased.obj
 0001:0013a910       ??0PxTriangle@physx@@QAE@ABV01@@Z 1013b910 f i GuSweepBoxTriangle_FeatureBased.obj
 0001:0013b3c0       ?triBoxSweepTestBoxSpace@Gu@physx@@YAHABVPxTriangle@2@ABVPxVec3@2@11MAAM_N@Z 1013c3c0 f   GuSweepBoxTriangle_SAT.obj
 0001:0013b400       ?sweepCapsuleBox@Gu@physx@@YA_NABVCapsule@12@ABVPxTransform@2@ABVPxVec3@2@2MAAV52@AAM3V?$PxFlags@W4Enum@PxHitFlag@physx@@G@2@@Z 1013c400 f   GuSweepCapsuleBox.obj
 0001:0013bf20       ??0?$ScopedPointer@VPxTriangle@physx@@VTempAllocator@shdfnd@2@@shdfnd@physx@@QAE@XZ 1013cf20 f i GuSweepCapsuleBox.obj
 0001:0013bf40       ??1?$ScopedPointer@VPxTriangle@physx@@VTempAllocator@shdfnd@2@@shdfnd@physx@@QAE@XZ 1013cf40 f i GuSweepCapsuleBox.obj
 0001:0013bf70       ??B?$ScopedPointer@VPxTriangle@physx@@VTempAllocator@shdfnd@2@@shdfnd@physx@@QBEPAVPxTriangle@2@XZ 1013cf70 f i GuSweepCapsuleBox.obj
 0001:0013bfd0       ?sweepCapsuleCapsule@Gu@physx@@YA_NABVCapsule@12@0ABVPxVec3@2@MAAMAAV42@3IAAG@Z 1013cfd0 f   GuSweepCapsuleCapsule.obj
 0001:0013ccf0       ??B?$PxFlags@W4Enum@PxHitFlag@physx@@G@physx@@QBEGXZ 1013dcf0 f i GuSweepCapsuleCapsule.obj
 0001:0013cd60       ?sweepCapsuleTriangles_Precise@Gu@physx@@YA_NIPIBVPxTriangle@2@ABVCapsule@12@ABVPxVec3@2@MPIBIAAUPxSweepHit@2@AAV52@V?$PxFlags@W4Enum@PxHitFlag@physx@@G@2@_NPBVBoxPadded@12@@Z 1013dd60 f   GuSweepCapsuleTriangle.obj
 0001:0013e220       ?computeSphereTriangleImpactData@Gu@physx@@YA_NAAUPxSweepHit@2@AAVPxVec3@2@IMABV42@22PIBVPxTriangle@2@_N4@Z 1013f220 f i GuSweepCapsuleTriangle.obj
 0001:0013e310       ?getInitIndex@Gu@physx@@YAIPIBII@Z 1013f310 f i GuSweepCapsuleTriangle.obj
 0001:0013e3d0       ?sweepSphereCapsule@Gu@physx@@YA_NABVSphere@12@ABVCapsule@12@ABVPxVec3@2@MAAMAAV52@4V?$PxFlags@W4Enum@PxHitFlag@physx@@G@2@@Z 1013f3d0 f   GuSweepSphereCapsule.obj
 0001:0013e6c0       ?sweepSphereSphere@Gu@physx@@YA_NABVPxVec3@2@M0M0AAMAAV32@@Z 1013f6c0 f   GuSweepSphereSphere.obj
 0001:0013ea50       ?sweepSphereVSTri@Gu@physx@@YA_NPIBVPxVec3@2@ABV32@1M1AAMAA_N_N@Z 1013fa50 f   GuSweepSphereTriangle.obj
 0001:0013ef20       ?sweepSphereVSQuad@Gu@physx@@YA_NPIBVPxVec3@2@ABV32@1M1AAM@Z 1013ff20 f   GuSweepSphereTriangle.obj
 0001:0013f580       ?sweepSphereTriangles@Gu@physx@@YA_NIPIBVPxTriangle@2@ABVPxVec3@2@M1MPIBIAAUPxSweepHit@2@AAV42@_N555@Z 10140580 f   GuSweepSphereTriangle.obj
 0001:0013fc50       ?computeSphereTriImpactData@Gu@physx@@YAXAAVPxVec3@2@0ABV32@1MABVPxTriangle@2@@Z 10140c50 f   GuSweepTriangleUtils.obj
 0001:0013fd20       ?computeBoxTriImpactData@Gu@physx@@YAXAAVPxVec3@2@0ABV32@1ABVPxTriangle@2@M@Z 10140d20 f   GuSweepTriangleUtils.obj
 0001:0013ff60       ?computeEdgeEdgeNormal@Gu@physx@@YAXAAVPxVec3@2@ABV32@1111M@Z 10140f60 f   GuSweepTriangleUtils.obj
 0001:00140520       ??$gjk@U?$LocalConvex@VTriangleV@Gu@physx@@@Gu@physx@@U?$LocalConvex@VBoxV@Gu@physx@@@23@@Gu@physx@@YA?AW4GjkStatus@01@ABU?$LocalConvex@VTriangleV@Gu@physx@@@01@ABU?$LocalConvex@VBoxV@Gu@physx@@@01@ABT__m128@@2AAT5@333@Z 10141520 f i GuSweepTriangleUtils.obj
 0001:00140edc       __imp_load_?PxGetAssertHandler@physx@@YAAAVPxAssertHandler@1@XZ 10141edc f   PhysXFoundation_32:PhysXFoundation_32.dll
 0001:00140ee6       ?PxGetAssertHandler@physx@@YAAAVPxAssertHandler@1@XZ 10141ee6 f   PhysXFoundation_32:PhysXFoundation_32.dll
 0001:00140eec       __tailMerge_physxfoundation_32_dll 10141eec     PhysXFoundation_32:PhysXFoundation_32.dll
 0001:00140efd       __imp_load__PxGetFoundation 10141efd f   PhysXFoundation_32:PhysXFoundation_32.dll
 0001:00140f07       _PxGetFoundation           10141f07 f   PhysXFoundation_32:PhysXFoundation_32.dll
 0001:00140f0d       __imp_load_?getAllocator@shdfnd@physx@@YAAAVPxAllocatorCallback@2@XZ 10141f0d f   PhysXFoundation_32:PhysXFoundation_32.dll
 0001:00140f17       ?getAllocator@shdfnd@physx@@YAAAVPxAllocatorCallback@2@XZ 10141f17 f   PhysXFoundation_32:PhysXFoundation_32.dll
 0001:00140f1d       __imp_load_?getInstance@Foundation@shdfnd@physx@@SAAAV123@XZ 10141f1d f   PhysXFoundation_32:PhysXFoundation_32.dll
 0001:00140f27       ?getInstance@Foundation@shdfnd@physx@@SAAAV123@XZ 10141f27 f   PhysXFoundation_32:PhysXFoundation_32.dll
 0001:00140f2d       __imp_load_?error@Foundation@shdfnd@physx@@QAAXW4Enum@PxErrorCode@3@PBDH1ZZ 10141f2d f   PhysXFoundation_32:PhysXFoundation_32.dll
 0001:00140f37       ?error@Foundation@shdfnd@physx@@QAAXW4Enum@PxErrorCode@3@PBDH1ZZ 10141f37 f   PhysXFoundation_32:PhysXFoundation_32.dll
 0001:00140f3d       __imp_load_??0NamedAllocator@shdfnd@physx@@QAE@PBD@Z 10141f3d f   PhysXFoundation_32:PhysXFoundation_32.dll
 0001:00140f47       ??0NamedAllocator@shdfnd@physx@@QAE@PBD@Z 10141f47 f   PhysXFoundation_32:PhysXFoundation_32.dll
 0001:00140f4d       __imp_load_??1NamedAllocator@shdfnd@physx@@QAE@XZ 10141f4d f   PhysXFoundation_32:PhysXFoundation_32.dll
 0001:00140f57       ??1NamedAllocator@shdfnd@physx@@QAE@XZ 10141f57 f   PhysXFoundation_32:PhysXFoundation_32.dll
 0001:00140f5d       __imp_load_?allocate@NamedAllocator@shdfnd@physx@@QAEPAXIPBDH@Z 10141f5d f   PhysXFoundation_32:PhysXFoundation_32.dll
 0001:00140f67       ?allocate@NamedAllocator@shdfnd@physx@@QAEPAXIPBDH@Z 10141f67 f   PhysXFoundation_32:PhysXFoundation_32.dll
 0001:00140f6d       __imp_load_?deallocate@NamedAllocator@shdfnd@physx@@QAEXPAX@Z 10141f6d f   PhysXFoundation_32:PhysXFoundation_32.dll
 0001:00140f77       ?deallocate@NamedAllocator@shdfnd@physx@@QAEXPAX@Z 10141f77 f   PhysXFoundation_32:PhysXFoundation_32.dll
 0001:00140f7d       __imp_load_?vsnprintf@shdfnd@physx@@YAHPADIPBD0@Z 10141f7d f   PhysXFoundation_32:PhysXFoundation_32.dll
 0001:00140f87       ?vsnprintf@shdfnd@physx@@YAHPADIPBD0@Z 10141f87 f   PhysXFoundation_32:PhysXFoundation_32.dll
 0001:00140f8d       __imp_load_??0NamedAllocator@shdfnd@physx@@QAE@ABV012@@Z 10141f8d f   PhysXFoundation_32:PhysXFoundation_32.dll
 0001:00140f97       ??0NamedAllocator@shdfnd@physx@@QAE@ABV012@@Z 10141f97 f   PhysXFoundation_32:PhysXFoundation_32.dll
 0001:00140f9d       __imp_load_??0MutexImpl@shdfnd@physx@@QAE@XZ 10141f9d f   PhysXFoundation_32:PhysXFoundation_32.dll
 0001:00140fa7       ??0MutexImpl@shdfnd@physx@@QAE@XZ 10141fa7 f   PhysXFoundation_32:PhysXFoundation_32.dll
 0001:00140fad       __imp_load_??1MutexImpl@shdfnd@physx@@QAE@XZ 10141fad f   PhysXFoundation_32:PhysXFoundation_32.dll
 0001:00140fb7       ??1MutexImpl@shdfnd@physx@@QAE@XZ 10141fb7 f   PhysXFoundation_32:PhysXFoundation_32.dll
 0001:00140fbd       __imp_load_?lock@MutexImpl@shdfnd@physx@@QAEXXZ 10141fbd f   PhysXFoundation_32:PhysXFoundation_32.dll
 0001:00140fc7       ?lock@MutexImpl@shdfnd@physx@@QAEXXZ 10141fc7 f   PhysXFoundation_32:PhysXFoundation_32.dll
 0001:00140fcd       __imp_load_?unlock@MutexImpl@shdfnd@physx@@QAEXXZ 10141fcd f   PhysXFoundation_32:PhysXFoundation_32.dll
 0001:00140fd7       ?unlock@MutexImpl@shdfnd@physx@@QAEXXZ 10141fd7 f   PhysXFoundation_32:PhysXFoundation_32.dll
 0001:00140fdd       __imp_load_?getSize@MutexImpl@shdfnd@physx@@SAIXZ 10141fdd f   PhysXFoundation_32:PhysXFoundation_32.dll
 0001:00140fe7       ?getSize@MutexImpl@shdfnd@physx@@SAIXZ 10141fe7 f   PhysXFoundation_32:PhysXFoundation_32.dll
 0001:00140fed       __imp_load_?atomicDecrement@shdfnd@physx@@YAHPCH@Z 10141fed f   PhysXFoundation_32:PhysXFoundation_32.dll
 0001:00140ff7       ?atomicDecrement@shdfnd@physx@@YAHPCH@Z 10141ff7 f   PhysXFoundation_32:PhysXFoundation_32.dll
 0001:00140fff       __imp_load_?PxTransformFromSegment@physx@@YA?AVPxTransform@1@ABVPxVec3@1@0PAM@Z 10141fff f   PhysXFoundation_32:PhysXFoundation_32.dll
 0001:00141009       ?PxTransformFromSegment@physx@@YA?AVPxTransform@1@ABVPxVec3@1@0PAM@Z 10142009 f   PhysXFoundation_32:PhysXFoundation_32.dll
 0001:0014100f       __imp_load_?optimizeBoundingBox@shdfnd@physx@@YA?AVPxVec3@2@AAVPxMat33@2@@Z 1014200f f   PhysXFoundation_32:PhysXFoundation_32.dll
 0001:00141019       ?optimizeBoundingBox@shdfnd@physx@@YA?AVPxVec3@2@AAVPxMat33@2@@Z 10142019 f   PhysXFoundation_32:PhysXFoundation_32.dll
 0001:0014101f       __imp_load_?allocate@TempAllocator@shdfnd@physx@@QAEPAXIPBDH@Z 1014201f f   PhysXFoundation_32:PhysXFoundation_32.dll
 0001:00141029       ?allocate@TempAllocator@shdfnd@physx@@QAEPAXIPBDH@Z 10142029 f   PhysXFoundation_32:PhysXFoundation_32.dll
 0001:0014102f       __imp_load_?deallocate@TempAllocator@shdfnd@physx@@QAEXPAX@Z 1014202f f   PhysXFoundation_32:PhysXFoundation_32.dll
 0001:00141039       ?deallocate@TempAllocator@shdfnd@physx@@QAEXPAX@Z 10142039 f   PhysXFoundation_32:PhysXFoundation_32.dll
 0001:0014103f       __imp_load_?atomicIncrement@shdfnd@physx@@YAHPCH@Z 1014203f f   PhysXFoundation_32:PhysXFoundation_32.dll
 0001:00141049       ?atomicIncrement@shdfnd@physx@@YAHPCH@Z 10142049 f   PhysXFoundation_32:PhysXFoundation_32.dll
 0001:0014104f       __imp_load__PxGetProfilerCallback 1014204f f   PhysXFoundation_32:PhysXFoundation_32.dll
 0001:00141059       _PxGetProfilerCallback     10142059 f   PhysXFoundation_32:PhysXFoundation_32.dll
 0001:0014105f       _FreeLibrary@4             1014205f f   kernel32:KERNEL32.dll
 0001:00141065       _GetProcAddress@8          10142065 f   kernel32:KERNEL32.dll
 0001:0014106b       _LoadLibraryA@4            1014206b f   kernel32:KERNEL32.dll
 0001:00141071       ??$PFromRva@PAP6GHXZ@@YGPAP6GHXZK@Z 10142071 f i Delayimp:delayhlp.obj
 0001:00141083       ??$PFromRva@PAPAUHINSTANCE__@@@@YGPAPAUHINSTANCE__@@K@Z 10142083 f i Delayimp:delayhlp.obj
 0001:00141095       ??$PFromRva@PAU_IMAGE_IMPORT_BY_NAME@@@@YGPAU_IMAGE_IMPORT_BY_NAME@@K@Z 10142095 f i Delayimp:delayhlp.obj
 0001:001410a7       ??$PFromRva@PAU_IMAGE_THUNK_DATA32@@@@YGPAU_IMAGE_THUNK_DATA32@@K@Z 101420a7 f i Delayimp:delayhlp.obj
 0001:001410b9       ??$PFromRva@PBD@@YGPBDK@Z  101420b9 f i Delayimp:delayhlp.obj
 0001:001410cb       ??$PFromRva@PBUImgDelayDescr@@@@YGPBUImgDelayDescr@@K@Z 101420cb f i Delayimp:delayhlp.obj
 0001:001410dd       ??$PFromRva@PBU_IMAGE_THUNK_DATA32@@@@YGPBU_IMAGE_THUNK_DATA32@@K@Z 101420dd f i Delayimp:delayhlp.obj
 0001:001410ef       ?CountOfImports@@YGIPBU_IMAGE_THUNK_DATA32@@@Z 101420ef f i Delayimp:delayhlp.obj
 0001:0014110a       ?DloadAcquireSectionWriteAccess@@YGXXZ 1014210a f i Delayimp:delayhlp.obj
 0001:0014113d       ?DloadGetSRWLockFunctionPointers@@YGEXZ 1014213d f i Delayimp:delayhlp.obj
 0001:001411b0       ?DloadLock@@YGXXZ          101421b0 f i Delayimp:delayhlp.obj
 0001:001411ef       ?DloadMakePermanentImageCommit@@YGXPAXK@Z 101421ef f i Delayimp:delayhlp.obj
 0001:0014125e       ?DloadObtainSection@@YGPAXPAK0@Z 1014225e f i Delayimp:delayhlp.obj
 0001:001412d9       ?DloadProtectSection@@YGXKPAK@Z 101422d9 f i Delayimp:delayhlp.obj
 0001:00141347       ?DloadReleaseSectionWriteAccess@@YGXXZ 10142347 f i Delayimp:delayhlp.obj
 0001:0014137d       ?DloadUnlock@@YGXXZ        1014237d f i Delayimp:delayhlp.obj
 0001:001413be       ?IndexFromPImgThunkData@@YGIPBU_IMAGE_THUNK_DATA32@@0@Z 101423be f i Delayimp:delayhlp.obj
 0001:0014151e       _HRESULT_FROM_WIN32@4      1014251e f i Delayimp:delayhlp.obj
 0001:00141536       _ReadAcquire@4             10142536 f i Delayimp:delayhlp.obj
 0001:00141544       _ReadPointerAcquire@4      10142544 f i Delayimp:delayhlp.obj
 0001:00141552       _WritePointerRelease@8     10142552 f i Delayimp:delayhlp.obj
 0001:00141563       _WriteRelease@8            10142563 f i Delayimp:delayhlp.obj
 0001:00141574       __InlineInterlockedCompareExchangePointer@12 10142574 f i Delayimp:delayhlp.obj
 0001:0014158a       ___FUnloadDelayLoadedDLL2@4 1014258a f   Delayimp:delayhlp.obj
 0001:0014160e       ___HrLoadAllImportsForDll@4 1014260e f   Delayimp:delayhlp.obj
 0001:0014166f       ___delayLoadHelper2@8      1014266f f   Delayimp:delayhlp.obj
 0001:001418e0       ??3@YAXPAXI@Z              101428e0 f   LIBCMTD:delete_scalar_size.obj
 0001:00141900       __CRT_RTC_INIT             10142900 f   LIBCMTD:init.obj
 0001:00141910       __CRT_RTC_INITW            10142910 f   LIBCMTD:init.obj
 0001:00141920       __RTC_InitBase             10142920 f   LIBCMTD:init.obj
 0001:00141950       __RTC_Shutdown             10142950 f   LIBCMTD:init.obj
 0001:00141970       __allshl                   10142970 f   LIBCMTD:llshl.obj
 0001:00141990       __aullshr                  10142990 f   LIBCMTD:ullshr.obj
 0001:001419b0       __ftoui3                   101429b0 f   LIBCMTD:ftol3.obj
 0001:00141a00       __ftoul3                   10142a00 f   LIBCMTD:ftol3.obj
 0001:00141a80       __ftol3                    10142a80 f   LIBCMTD:ftol3.obj
 0001:00141af0       __dtoui3                   10142af0 f   LIBCMTD:ftol3.obj
 0001:00141b70       __dtoul3                   10142b70 f   LIBCMTD:ftol3.obj
 0001:00141c20       __dtol3                    10142c20 f   LIBCMTD:ftol3.obj
 0001:00141cd0       __ultod3                   10142cd0 f   LIBCMTD:ftol3.obj
 0001:00141d30       __ltod3                    10142d30 f   LIBCMTD:ftol3.obj
 0001:00141d80       ??1type_info@@UAE@XZ       10142d80 f   LIBCMTD:std_type_info_static.obj
 0001:00141da0       ??_Etype_info@@UAEPAXI@Z   10142da0 f i LIBCMTD:std_type_info_static.obj
 0001:00141da0       ??_Gtype_info@@UAEPAXI@Z   10142da0 f i LIBCMTD:std_type_info_static.obj
 0001:00141dd0       ?__scrt_initialize_type_info@@YAXXZ 10142dd0 f   LIBCMTD:tncleanup.obj
 0001:00141de0       ?__scrt_uninitialize_type_info@@YAXXZ 10142de0 f   LIBCMTD:tncleanup.obj
 0001:00141e00       ??_V@YAXPAXI@Z             10142e00 f   LIBCMTD:delete_array_size.obj
 0001:00141e20       __chkstk                   10142e20 f   LIBCMTD:chkstk.obj
 0001:00141e20       __alloca_probe             10142e20 f   LIBCMTD:chkstk.obj
 0001:00141e50       ??3@YAXPAX@Z               10142e50 f   LIBCMTD:delete_scalar.obj
 0001:00141e70       ??_V@YAXPAX@Z              10142e70 f   LIBCMTD:delete_array.obj
 0001:00141e90       __ftol2_sse_excpt          10142e90 f   LIBCMTD:ftol2.obj
 0001:00141ea0       __ftol2_sse                10142ea0 f   LIBCMTD:ftol2.obj
 0001:00141eb0       __ftoi2                    10142eb0 f   LIBCMTD:ftol2.obj
 0001:00141f30       __ftoui2                   10142f30 f   LIBCMTD:ftol2.obj
 0001:00141fe0       __ftol2                    10142fe0 f   LIBCMTD:ftol2.obj
 0001:00142090       __ftoul2                   10143090 f   LIBCMTD:ftol2.obj
 0001:00142150       __alloca_probe_16          10143150 f   LIBCMTD:alloca16.obj
 0001:00142166       __alloca_probe_8           10143166     LIBCMTD:alloca16.obj
 0001:00142650       __CRT_INIT@12              10143650 f   LIBCMTD:dll_dllmain.obj
 0001:00142670       __DllMainCRTStartup@12     10143670 f   LIBCMTD:dll_dllmain.obj
 0001:001426a0       @_guard_check_icall_nop@4  101436a0 f i LIBCMTD:guard_support.obj
 0001:001426b0       _ReadNoFence               101436b0 f i LIBCMTD:guard_support.obj
 0001:001426d0       _ReadPointerNoFence        101436d0 f i LIBCMTD:guard_support.obj
 0001:001426f0       ___castguard_check_failure_debugbreak 101436f0 f i LIBCMTD:guard_support.obj
 0001:00142710       ___castguard_check_failure_fastfail 10143710 f i LIBCMTD:guard_support.obj
 0001:00142730       ___castguard_check_failure_nop 10143730 f i LIBCMTD:guard_support.obj
 0001:00142740       ___castguard_check_failure_os_handled 10143740 f i LIBCMTD:guard_support.obj
 0001:001427c0       ___castguard_slow_path_check_debugbreak 101437c0 f i LIBCMTD:guard_support.obj
 0001:001427f0       ___castguard_slow_path_check_fastfail 101437f0 f i LIBCMTD:guard_support.obj
 0001:00142830       ___castguard_slow_path_check_nop 10143830 f i LIBCMTD:guard_support.obj
 0001:00142840       ___castguard_slow_path_check_os_handled 10143840 f i LIBCMTD:guard_support.obj
 0001:001428e0       __guard_icall_checks_enforced 101438e0 f i LIBCMTD:guard_support.obj
 0001:00142910       ?_RTC_GetErrorFunc@@YAP6AHHPBDH00ZZPBX@Z 10143910 f   LIBCMTD:userapi.obj
 0001:00142920       ?_RTC_GetErrorFuncW@@YAP6AHHPB_WH00ZZPBX@Z 10143920 f   LIBCMTD:userapi.obj
 0001:00142930       __RTC_GetErrDesc           10143930 f   LIBCMTD:userapi.obj
 0001:00142950       __RTC_NumErrors            10143950 f   LIBCMTD:userapi.obj
 0001:00142960       __RTC_SetErrorFunc         10143960 f   LIBCMTD:userapi.obj
 0001:00142980       __RTC_SetErrorFuncW        10143980 f   LIBCMTD:userapi.obj
 0001:001429a0       __RTC_SetErrorType         101439a0 f   LIBCMTD:userapi.obj
 0001:001429d0       ___isa_available_init      101439d0 f   LIBCMTD:cpu_disp.obj
 0001:00142d80       ___security_init_cookie    10143d80 f   LIBCMTD:gs_support.obj
 0001:00142e00       _DllMain@12                10143e00 f   LIBCMTD:dll_dllmain_stub.obj
 0001:00142e10       ___local_stdio_printf_options 10143e10 f i LIBCMTD:default_local_stdio_options.obj
 0001:00142e20       ___local_stdio_scanf_options 10143e20 f i LIBCMTD:default_local_stdio_options.obj
 0001:00142e30       ___scrt_initialize_default_local_stdio_options 10143e30 f   LIBCMTD:default_local_stdio_options.obj
 0001:00142e70       ?configure_argv@__scrt_narrow_argv_policy@@SAHXZ 10143e70 f i LIBCMTD:utility.obj
 0001:00142f20       ?initialize_environment@__scrt_narrow_environment_policy@@SAHXZ 10143f20 f i LIBCMTD:utility.obj
 0001:00142fa0       _NtCurrentTeb              10143fa0 f i LIBCMTD:utility.obj
 0001:00142fb0       ___scrt_acquire_startup_lock 10143fb0 f   LIBCMTD:utility.obj
 0001:00143000       ___scrt_dllmain_after_initialize_c 10144000 f   LIBCMTD:utility.obj
 0001:00143030       ___scrt_dllmain_before_initialize_c 10144030 f   LIBCMTD:utility.obj
 0001:00143050       ___scrt_dllmain_crt_thread_attach 10144050 f   LIBCMTD:utility.obj
 0001:00143080       ___scrt_dllmain_crt_thread_detach 10144080 f   LIBCMTD:utility.obj
 0001:001430a0       ___scrt_dllmain_exception_filter 101440a0 f   LIBCMTD:utility.obj
 0001:001430f0       ___scrt_dllmain_uninitialize_c 101440f0 f   LIBCMTD:utility.obj
 0001:00143120       ___scrt_dllmain_uninitialize_critical 10144120 f   LIBCMTD:utility.obj
 0001:00143140       ___scrt_initialize_crt     10144140 f   LIBCMTD:utility.obj
 0001:00143190       ___scrt_initialize_onexit_tables 10144190 f   LIBCMTD:utility.obj
 0001:00143270       ___scrt_is_nonwritable_in_current_image 10144270 f   LIBCMTD:utility.obj
 0001:001433a0       ___scrt_release_startup_lock 101443a0 f   LIBCMTD:utility.obj
 0001:001433d0       ___scrt_uninitialize_crt   101443d0 f   LIBCMTD:utility.obj
 0001:00143410       __onexit                   10144410 f   LIBCMTD:utility.obj
 0001:00143480       _at_quick_exit             10144480 f   LIBCMTD:utility.obj
 0001:001434c0       _atexit                    101444c0 f   LIBCMTD:utility.obj
 0001:001434f0       ___scrt_get_dyn_tls_init_callback 101444f0 f   LIBCMTD:dyn_tls_init.obj
 0001:00143500       ___scrt_fastfail           10144500 f   LIBCMTD:utility_desktop.obj
 0001:00143640       ___scrt_get_show_window_mode 10144640 f   LIBCMTD:utility_desktop.obj
 0001:00143680       ___scrt_initialize_mta     10144680 f   LIBCMTD:utility_desktop.obj
 0001:00143690       ___scrt_initialize_winrt   10144690 f   LIBCMTD:utility_desktop.obj
 0001:001436a0       ___scrt_is_managed_app     101446a0 f   LIBCMTD:utility_desktop.obj
 0001:00143730       ___scrt_set_unhandled_exception_filter 10144730 f   LIBCMTD:utility_desktop.obj
 0001:00143740       ___scrt_exe_initialize_mta 10144740 f   LIBCMTD:utility_desktop.obj
 0001:00143740       ___scrt_stub_for_initialize_mta 10144740 f   LIBCMTD:utility_desktop.obj
 0001:00143750       ___scrt_unhandled_exception_filter@4 10144750 f   LIBCMTD:utility_desktop.obj
 0001:001437d0       __crt_debugger_hook        101447d0 f   LIBCMTD:utility_desktop.obj
 0001:001437e0       __RTC_Initialize           101447e0 f   LIBCMTD:initsect.obj
 0001:00143810       __RTC_Terminate            10144810 f   LIBCMTD:initsect.obj
 0001:001438d0       ?_RTC_AllocaFailure@@YAXPAXPAU_RTC_ALLOCA_NODE@@H@Z 101448d0 f   LIBCMTD:error.obj
 0001:001439c0       ?_RTC_Failure@@YAXPAXH@Z   101449c0 f   LIBCMTD:error.obj
 0001:00143a10       ?_RTC_StackFailure@@YAXPAXPBD@Z 10144a10 f   LIBCMTD:error.obj
 0001:00143dd0       __RTC_UninitUse            10144dd0 f   LIBCMTD:error.obj
 0001:00143e80       __vsprintf_s_l             10144e80 f i LIBCMTD:error.obj
 0001:00143eb0       _sprintf_s                 10144eb0 f i LIBCMTD:error.obj
 0001:00143ed0       @__security_check_cookie@4 10144ed0 f   LIBCMTD:secchk.obj
 0001:00143ee0       __get_startup_argv_mode    10144ee0 f   LIBCMTD:argv_mode.obj
 0001:00143ef0       ___scrt_is_ucrt_dll_in_use 10144ef0 f   LIBCMTD:ucrt_detection.obj
 0001:001443a0       ?_RTC_GetSrcLine@@YAHPAEPA_WKPAH1K@Z 101453a0 f   LIBCMTD:pdblkup.obj
 0001:00144720       __except_handler4_noexcept 10145720 f   LIBCMTD:chandler4_noexcept.obj
 0001:00144780       ___raise_securityfailure   10145780 f   LIBCMTD:gs_report.obj
 0001:001447b0       ___report_gsfailure        101457b0 f   LIBCMTD:gs_report.obj
 0001:001448c0       ___report_rangecheckfailure 101458c0 f   LIBCMTD:gs_report.obj
 0001:001448d0       ___report_securityfailure  101458d0 f   LIBCMTD:gs_report.obj
 0001:001449b0       ___report_securityfailureEx 101459b0 f   LIBCMTD:gs_report.obj
 0001:00144ae0       ??$__crt_interlocked_exchange_pointer@$$A6AXXZP6AXXZ@@YAP6AXXZPDS6AXXZQ6AXXZ@Z 10145ae0 f i libvcruntimed:purevirt.obj
 0001:00144af0       ??$__crt_interlocked_read_pointer@$$A6AXXZ@@YAP6AXXZPDS6AXXZ@Z 10145af0 f i libvcruntimed:purevirt.obj
 0001:00144b10       ?__crt_interlocked_read_32@@YAHPDH@Z 10145b10 f i libvcruntimed:purevirt.obj
 0001:00144b30       __get_purecall_handler     10145b30 f   libvcruntimed:purevirt.obj
 0001:00144b50       __purecall                 10145b50 f   libvcruntimed:purevirt.obj
 0001:00144b80       __set_purecall_handler     10145b80 f   libvcruntimed:purevirt.obj
 0001:00144bc0       ??$?RD@__crt_internal_free_policy@@QBEXQBD@Z 10145bc0 f i libvcruntimed:std_type_info.obj
 0001:00144be0       ??$?RX@__crt_internal_free_policy@@QBEXQBX@Z 10145be0 f i libvcruntimed:std_type_info.obj
 0001:00144c00       ??$__crt_interlocked_compare_exchange_pointer@$$CBDPAD$$T@@YAPBDPDSBDQAD$$T@Z 10145c00 f i libvcruntimed:std_type_info.obj
 0001:00144c20       ??$__crt_interlocked_read_pointer@$$CBD@@YAPBDPDSBD@Z 10145c20 f i libvcruntimed:std_type_info.obj
 0001:00144c40       ??0?$__crt_unique_heap_ptr@DU__crt_internal_free_policy@@@@QAE@QAD@Z 10145c40 f i libvcruntimed:std_type_info.obj
 0001:00144c60       ??0?$__crt_unique_heap_ptr@XU__crt_internal_free_policy@@@@QAE@QAX@Z 10145c60 f i libvcruntimed:std_type_info.obj
 0001:00144c80       ??1?$__crt_unique_heap_ptr@DU__crt_internal_free_policy@@@@QAE@XZ 10145c80 f i libvcruntimed:std_type_info.obj
 0001:00144ca0       ??1?$__crt_unique_heap_ptr@XU__crt_internal_free_policy@@@@QAE@XZ 10145ca0 f i libvcruntimed:std_type_info.obj
 0001:00144cc0       ??B?$__crt_unique_heap_ptr@DU__crt_internal_free_policy@@@@QBE_NXZ 10145cc0 f i libvcruntimed:std_type_info.obj
 0001:00144ce0       ??B?$__crt_unique_heap_ptr@XU__crt_internal_free_policy@@@@QBE_NXZ 10145ce0 f i libvcruntimed:std_type_info.obj
 0001:00144d70       ?detach@?$__crt_unique_heap_ptr@XU__crt_internal_free_policy@@@@QAEPAXXZ 10145d70 f i libvcruntimed:std_type_info.obj
 0001:00144da0       ?get@?$__crt_unique_heap_ptr@DU__crt_internal_free_policy@@@@QBEPADXZ 10145da0 f i libvcruntimed:std_type_info.obj
 0001:00144db0       ?get@?$__crt_unique_heap_ptr@XU__crt_internal_free_policy@@@@QBEPAXXZ 10145db0 f i libvcruntimed:std_type_info.obj
 0001:00144dc0       ?is_valid@?$__crt_unique_heap_ptr@DU__crt_internal_free_policy@@@@QBE_NXZ 10145dc0 f i libvcruntimed:std_type_info.obj
 0001:00144df0       ?is_valid@?$__crt_unique_heap_ptr@XU__crt_internal_free_policy@@@@QBE_NXZ 10145df0 f i libvcruntimed:std_type_info.obj
 0001:00144e20       ?release@?$__crt_unique_heap_ptr@DU__crt_internal_free_policy@@@@QAEXXZ 10145e20 f i libvcruntimed:std_type_info.obj
 0001:00144e50       ?release@?$__crt_unique_heap_ptr@XU__crt_internal_free_policy@@@@QAEXXZ 10145e50 f i libvcruntimed:std_type_info.obj
 0001:00144e80       ___std_type_info_compare   10145e80 f   libvcruntimed:std_type_info.obj
 0001:00144eb0       ___std_type_info_destroy_list 10145eb0 f   libvcruntimed:std_type_info.obj
 0001:00144ef0       ___std_type_info_hash      10145ef0 f   libvcruntimed:std_type_info.obj
 0001:00144f50       ___std_type_info_name      10145f50 f   libvcruntimed:std_type_info.obj
 0001:00145130       _memcpy                    10146130 f   libvcruntimed:memcpy.obj
 0001:001456b0       _memset                    101466b0 f   libvcruntimed:memset.obj
 0001:00145810       _strstr                    10146810 f   libvcruntimed:strstr.obj
 0001:00145ae0       __except_handler4          10146ae0 f   libvcruntimed:chandler4.obj
 0001:00145cd0       ___vcrt_initialize         10146cd0 f   libvcruntimed:initialization.obj
 0001:00145d10       ___vcrt_thread_attach      10146d10 f   libvcruntimed:initialization.obj
 0001:00145d30       ___vcrt_thread_detach      10146d30 f   libvcruntimed:initialization.obj
 0001:00145d50       ___vcrt_uninitialize       10146d50 f   libvcruntimed:initialization.obj
 0001:00145d70       ___vcrt_uninitialize_critical 10146d70 f   libvcruntimed:initialization.obj
 0001:00145d90       ___DestructExceptionObject 10146d90 f   libvcruntimed:ehhelpers.obj
 0001:00145eb0       ?_CallMemberFunction0@@YGXQAX0@Z 10146eb0 f i libvcruntimed:ehhelpers.obj
 0001:00145f50       ?raw_name@type_info@@QBEPBDXZ 10146f50 f i libvcruntimed:ehhelpers.obj
 0001:00145f70       __IsExceptionObjectToBeDestroyed 10146f70 f   libvcruntimed:ehhelpers.obj
 0001:00145fb0       __SetWinRTOutOfMemoryExceptionCallback 10146fb0 f   libvcruntimed:ehhelpers.obj
 0001:00145fc0       ___AdjustPointer           10146fc0 f   libvcruntimed:ehhelpers.obj
 0001:00146010       ___FrameUnwindFilter       10147010 f   libvcruntimed:ehhelpers.obj
 0001:001460a0       ___GetPlatformExceptionInfo 101470a0 f   libvcruntimed:ehhelpers.obj
 0001:00146120       ___current_exception       10147120 f   libvcruntimed:ehhelpers.obj
 0001:00146130       ___current_exception_context 10147130 f   libvcruntimed:ehhelpers.obj
 0001:00146140       ___processing_throw        10147140 f   libvcruntimed:ehhelpers.obj
 0001:00146150       ___std_terminate           10147150 f   libvcruntimed:ehhelpers.obj
 0001:00146160       __is_exception_typeof      10147160 f   libvcruntimed:ehhelpers.obj
 0001:00146240       ___vcrt_GetModuleFileNameW 10147240 f   libvcruntimed:winapi_thunks.obj
 0001:00146260       ___vcrt_GetModuleHandleW   10147260 f   libvcruntimed:winapi_thunks.obj
 0001:00146270       ___vcrt_LoadLibraryExW     10147270 f   libvcruntimed:winapi_thunks.obj
 0001:00146290       ??$?0$00@DName@@QAE@PBDU?$StringLifeSelector@$00@@@Z 10147290 f i libvcruntimed:undname.obj
 0001:001462e0       ??$?0$00@pcharNode@@QAE@PBDHU?$StringLifeSelector@$00@@@Z 101472e0 f i libvcruntimed:undname.obj
 0001:00146320       ??$?0$01@DName@@QAE@PBDU?$StringLifeSelector@$01@@@Z 10147320 f i libvcruntimed:undname.obj
 0001:00146370       ??$?0$01@pcharNode@@QAE@PBDHU?$StringLifeSelector@$01@@@Z 10147370 f i libvcruntimed:undname.obj
 0001:001463f0       ??$?0$0A@@DName@@QAE@PBDU?$StringLifeSelector@$0A@@@@Z 101473f0 f i libvcruntimed:undname.obj
 0001:00146440       ??$?0$0A@@pcharNode@@QAE@PBDHU?$StringLifeSelector@$0A@@@@Z 10147440 f i libvcruntimed:undname.obj
 0001:001464c0       ??$?0_K$0A@@?$optional@_K@std@@QAE@$$QA_K@Z 101474c0 f i libvcruntimed:undname.obj
 0001:00146500       ??$?0_K@?$_Optional_construct_base@_K@std@@QAE@Uin_place_t@1@$$QA_K@Z 10147500 f i libvcruntimed:undname.obj
 0001:00146530       ??$?0_K@?$_Optional_destruct_base@_K$00@std@@QAE@Uin_place_t@1@$$QA_K@Z 10147530 f i libvcruntimed:undname.obj
 0001:00146560       ??$append@VDNameNode@@@DName@@AAEXPBVDNameNode@@@Z 10147560 f i libvcruntimed:undname.obj
 0001:001465f0       ??$append@VDNameStatusNode@@@DName@@AAEXPBVDNameStatusNode@@@Z 101475f0 f i libvcruntimed:undname.obj
 0001:00146680       ??$append@VcharNode@@@DName@@AAEXPBVcharNode@@@Z 10147680 f i libvcruntimed:undname.obj
 0001:00146710       ??$append@VpDNameNode@@@DName@@AAEXPBVpDNameNode@@@Z 10147710 f i libvcruntimed:undname.obj
 0001:001467a0       ??$append@VpcharNode@@@DName@@AAEXPBVpcharNode@@@Z 101477a0 f i libvcruntimed:undname.obj
 0001:00146830       ??$doPchar@$00@DName@@AAEXPBDH@Z 10147830 f i libvcruntimed:undname.obj
 0001:00146940       ??$doPchar@$01@DName@@AAEXPBDH@Z 10147940 f i libvcruntimed:undname.obj
 0001:00146a50       ??$doPchar@$0A@@DName@@AAEXPBDH@Z 10147a50 f i libvcruntimed:undname.obj
 0001:00146b60       ??$forward@_K@std@@YA$$QA_KAA_K@Z 10147b60 f i libvcruntimed:undname.obj
 0001:00146b70       ??$size@D$04@std@@YAIAAY04$$CBD@Z 10147b70 f i libvcruntimed:undname.obj
 0001:00146b80       ??$size@D$0EB@@std@@YAIAAY0EB@$$CBD@Z 10147b80 f i libvcruntimed:undname.obj
 0001:00146b90       ??0?$_Optional_construct_base@_K@std@@QAE@XZ 10147b90 f i libvcruntimed:undname.obj
 0001:00146bb0       ??0?$_Optional_destruct_base@_K$00@std@@QAE@XZ 10147bb0 f i libvcruntimed:undname.obj
 0001:00146bd0       ??0?$optional@_K@std@@QAE@XZ 10147bd0 f i libvcruntimed:undname.obj
 0001:00146bf0       ??0Block@_HeapManager@@QAE@XZ 10147bf0 f i libvcruntimed:undname.obj
 0001:00146c10       ??0DName@@QAE@AAPBDD@Z     10147c10 f   libvcruntimed:undname.obj
 0001:00146d80       ??0DName@@QAE@ABUStringLiteral@@@Z 10147d80 f   libvcruntimed:undname.obj
 0001:00146dd0       ??0DName@@QAE@ABV0@@Z      10147dd0 f i libvcruntimed:undname.obj
 0001:00146e00       ??0DName@@QAE@D@Z          10147e00 f   libvcruntimed:undname.obj
 0001:00146e30       ??0DName@@QAE@PAV0@@Z      10147e30 f   libvcruntimed:undname.obj
 0001:00146ee0       ??0DName@@QAE@W4DNameStatus@@@Z 10147ee0 f   libvcruntimed:undname.obj
 0001:00146f80       ??0DName@@QAE@XZ           10147f80 f i libvcruntimed:undname.obj
 0001:00146fb0       ??0DName@@QAE@_J@Z         10147fb0 f   libvcruntimed:undname.obj
 0001:001470a0       ??0DName@@QAE@_K@Z         101480a0 f   libvcruntimed:undname.obj
 0001:00147150       ??0DNameNode@@IAE@XZ       10148150 f i libvcruntimed:undname.obj
 0001:00147170       ??0Replicator@@QAE@XZ      10148170 f i libvcruntimed:undname.obj
 0001:001471b0       ??0UnDecorator@@QAE@PBDP6APADJ@ZK@Z 101481b0 f i libvcruntimed:undname.obj
 0001:00147230       ??0_Nontrivial_dummy_type@std@@QAE@XZ 10148230 f i libvcruntimed:undname.obj
 0001:00147240       ??0charNode@@QAE@D@Z       10148240 f i libvcruntimed:undname.obj
 0001:00147270       ??0pDNameNode@@QAE@PAVDName@@@Z 10148270 f   libvcruntimed:undname.obj
 0001:001472d0       ??0pairNode@@QAE@PBVDNameNode@@0@Z 101482d0 f i libvcruntimed:undname.obj
 0001:00147330       ??2@YAPAXIAAV_HeapManager@@H@Z 10148330 f   libvcruntimed:undname.obj
 0001:00147370       ??4DName@@QAEAAV0@ABUStringLiteral@@@Z 10148370 f   libvcruntimed:undname.obj
 0001:001473b0       ??4DName@@QAEAAV0@ABV0@@Z  101483b0 f   libvcruntimed:undname.obj
 0001:001473e0       ??4DName@@QAEAAV0@D@Z      101483e0 f i libvcruntimed:undname.obj
 0001:00147410       ??4DName@@QAEAAV0@PAV0@@Z  10148410 f   libvcruntimed:undname.obj
 0001:001474b0       ??4DName@@QAEAAV0@W4DNameStatus@@@Z 101484b0 f   libvcruntimed:undname.obj
 0001:00147530       ??AReplicator@@QBE?AVDName@@H@Z 10148530 f   libvcruntimed:undname.obj
 0001:001475a0       ??B?$optional@_K@std@@QBE_NXZ 101485a0 f i libvcruntimed:undname.obj
 0001:001475c0       ??D?$optional@_K@std@@QGAEAA_KXZ 101485c0 f i libvcruntimed:undname.obj
 0001:00147630       ??H@YA?AVDName@@ABUStringLiteral@@ABV0@@Z 10148630 f i libvcruntimed:undname.obj
 0001:00147660       ??H@YA?AVDName@@DABV0@@Z   10148660 f i libvcruntimed:undname.obj
 0001:00147690       ??H@YA?AVDName@@W4DNameStatus@@ABV0@@Z 10148690 f i libvcruntimed:undname.obj
 0001:001476c0       ??HDName@@QBE?AV0@ABUStringLiteral@@@Z 101486c0 f   libvcruntimed:undname.obj
 0001:00147700       ??HDName@@QBE?AV0@ABV0@@Z  10148700 f   libvcruntimed:undname.obj
 0001:00147740       ??HDName@@QBE?AV0@D@Z      10148740 f   libvcruntimed:undname.obj
 0001:00147780       ??HDName@@QBE?AV0@PAV0@@Z  10148780 f   libvcruntimed:undname.obj
 0001:001477c0       ??HDName@@QBE?AV0@W4DNameStatus@@@Z 101487c0 f   libvcruntimed:undname.obj
 0001:00147800       ??HStringLiteral@@QBE?AU0@H@Z 10148800 f i libvcruntimed:undname.obj
 0001:00147830       ??YDName@@QAEAAV0@ABUStringLiteral@@@Z 10148830 f   libvcruntimed:undname.obj
 0001:001478d0       ??YDName@@QAEAAV0@ABV0@@Z  101488d0 f   libvcruntimed:undname.obj
 0001:00147970       ??YDName@@QAEAAV0@D@Z      10148970 f   libvcruntimed:undname.obj
 0001:001479f0       ??YDName@@QAEAAV0@PAV0@@Z  101489f0 f   libvcruntimed:undname.obj
 0001:00147aa0       ??YDName@@QAEAAV0@W4DNameStatus@@@Z 10148aa0 f   libvcruntimed:undname.obj
 0001:00147b00       ??YReplicator@@QAEAAV0@ABVDName@@@Z 10148b00 f   libvcruntimed:undname.obj
 0001:00147b90       ??_5DName@@QAEAAV0@ABV0@@Z 10148b90 f   libvcruntimed:undname.obj
 0001:00147bf0       ??__K_l@@YA?AUStringLiteral@@PBDI@Z 10148bf0 f i libvcruntimed:undname.obj
 0001:00147c10       ?Constructor@_HeapManager@@QAEXP6APAXI@ZP6AXPAX@Z@Z 10148c10 f i libvcruntimed:undname.obj
 0001:00147c50       ?Destructor@_HeapManager@@QAEXXZ 10148c50 f i libvcruntimed:undname.obj
 0001:00147cc0       ?UScore@UnDecorator@@SA?AUStringLiteral@@W4Tokens@@@Z 10148cc0 f   libvcruntimed:undname.obj
 0001:00147d10       ?composeDeclaration@UnDecorator@@CA?AVDName@@ABV2@@Z 10148d10 f i libvcruntimed:undname.obj
 0001:00149c80       ?dbGetString@DName@@QBEPADXZ 1014ac80 f   libvcruntimed:undname.obj
 0001:00149ca0       ?doAccessSpecifiers@UnDecorator@@SAHXZ 1014aca0 f i libvcruntimed:undname.obj
 0001:00149cd0       ?doAllocationLanguage@UnDecorator@@SAHXZ 1014acd0 f i libvcruntimed:undname.obj
 0001:00149d00       ?doAllocationModel@UnDecorator@@SAHXZ 1014ad00 f i libvcruntimed:undname.obj
 0001:00149d30       ?doEcsu@UnDecorator@@SAHXZ 1014ad30 f i libvcruntimed:undname.obj
 0001:00149d60       ?doEllipsis@UnDecorator@@SAHXZ 1014ad60 f i libvcruntimed:undname.obj
 0001:00149d90       ?doFunctionReturns@UnDecorator@@SAHXZ 1014ad90 f i libvcruntimed:undname.obj
 0001:00149dc0       ?doMSKeywords@UnDecorator@@SAHXZ 1014adc0 f i libvcruntimed:undname.obj
 0001:00149df0       ?doMemberTypes@UnDecorator@@SAHXZ 1014adf0 f i libvcruntimed:undname.obj
 0001:00149e20       ?doNameOnly@UnDecorator@@SAHXZ 1014ae20 f i libvcruntimed:undname.obj
 0001:00149e30       ?doNoIdentCharCheck@UnDecorator@@SAHXZ 1014ae30 f i libvcruntimed:undname.obj
 0001:00149e40       ?doPchar@DName@@AAEXD@Z    1014ae40 f   libvcruntimed:undname.obj
 0001:00149eb0       ?doPtr64@UnDecorator@@SAHXZ 1014aeb0 f i libvcruntimed:undname.obj
 0001:00149ee0       ?doRestrictionSpec@UnDecorator@@SAHXZ 1014aee0 f i libvcruntimed:undname.obj
 0001:00149f10       ?doThisTypes@UnDecorator@@SAHXZ 1014af10 f i libvcruntimed:undname.obj
 0001:00149f40       ?doThrowTypes@UnDecorator@@SAHXZ 1014af40 f i libvcruntimed:undname.obj
 0001:00149f70       ?doTypeOnly@UnDecorator@@SAHXZ 1014af70 f i libvcruntimed:undname.obj
 0001:00149f80       ?doUnderScore@UnDecorator@@SAHXZ 1014af80 f i libvcruntimed:undname.obj
 0001:00149fc0       ?getAddressOf@UnDecorator@@CA?AVDName@@XZ 1014afc0 f   libvcruntimed:undname.obj
 0001:0014a040       ?getArgumentList@UnDecorator@@CA?AVDName@@XZ 1014b040 f   libvcruntimed:undname.obj
 0001:0014a190       ?getArgumentTypes@UnDecorator@@CA?AVDName@@XZ 1014b190 f   libvcruntimed:undname.obj
 0001:0014a3a0       ?getArrayAccess@UnDecorator@@CA?AVDName@@XZ 1014b3a0 f   libvcruntimed:undname.obj
 0001:0014a440       ?getArrayObject@UnDecorator@@CA?AVDName@@XZ 1014b440 f   libvcruntimed:undname.obj
 0001:0014a520       ?getArrayType@UnDecorator@@CA?AVDName@@ABV2@@Z 1014b520 f i libvcruntimed:undname.obj
 0001:0014a7c0       ?getBasedType@UnDecorator@@CA?AVDName@@XZ 1014b7c0 f   libvcruntimed:undname.obj
 0001:0014a8b0       ?getBasicDataType@UnDecorator@@CA?AVDName@@ABV2@@Z 1014b8b0 f   libvcruntimed:undname.obj
 0001:0014b220       ?getCHPEName@UnDecorator@@QAEPADPADH@Z 1014c220 f i libvcruntimed:undname.obj
 0001:0014b380       ?getCallIndex@UnDecorator@@CA?AVDName@@XZ 1014c380 f i libvcruntimed:undname.obj
 0001:0014b3a0       ?getCallingConvention@UnDecorator@@CA?AVDName@@XZ 1014c3a0 f   libvcruntimed:undname.obj
 0001:0014b5e0       ?getDataIndirectType@UnDecorator@@CA?AVDName@@ABV2@W4IndirectionKind@@0H@Z 1014c5e0 f   libvcruntimed:undname.obj
 0001:0014bf00       ?getDataIndirectType@UnDecorator@@CA?AVDName@@XZ 1014cf00 f i libvcruntimed:undname.obj
 0001:0014bf40       ?getDataType@UnDecorator@@CA?AVDName@@PAV2@@Z 1014cf40 f   libvcruntimed:undname.obj
 0001:0014c080       ?getDecoratedName@UnDecorator@@CA?AVDName@@XZ 1014d080 f   libvcruntimed:undname.obj
 0001:0014c4c0       ?getDimension@UnDecorator@@CA?AVDName@@_N@Z 1014d4c0 f   libvcruntimed:undname.obj
 0001:0014c720       ?getDispatchTarget@UnDecorator@@CA?AVDName@@XZ 1014d720 f   libvcruntimed:undname.obj
 0001:0014c7c0       ?getDisplacement@UnDecorator@@CA?AVDName@@XZ 1014d7c0 f i libvcruntimed:undname.obj
 0001:0014c7e0       ?getECSUDataType@UnDecorator@@CA?AVDName@@XZ 1014d7e0 f   libvcruntimed:undname.obj
 0001:0014ca40       ?getECSUName@UnDecorator@@CA?AVDName@@XZ 1014da40 f i libvcruntimed:undname.obj
 0001:0014ca60       ?getEnumType@UnDecorator@@CA?AVDName@@XZ 1014da60 f i libvcruntimed:undname.obj
 0001:0014cc20       ?getExtendedDataIndirectType@UnDecorator@@CA?AVDName@@AAW4IndirectionKind@@AA_NH@Z 1014dc20 f   libvcruntimed:undname.obj
 0001:0014ce70       ?getExternalDataType@UnDecorator@@CA?AVDName@@ABV2@@Z 1014de70 f i libvcruntimed:undname.obj
 0001:0014cf10       ?getFloatingPoint@UnDecorator@@CA?AVDName@@H@Z 1014df10 f   libvcruntimed:undname.obj
 0001:0014d0d0       ?getFunctionIndirectType@UnDecorator@@CA?AVDName@@ABV2@@Z 1014e0d0 f   libvcruntimed:undname.obj
 0001:0014d5b0       ?getGuardNumber@UnDecorator@@CA?AVDName@@XZ 1014e5b0 f i libvcruntimed:undname.obj
 0001:0014d5d0       ?getLastChar@DName@@QBEDXZ 1014e5d0 f i libvcruntimed:undname.obj
 0001:0014d610       ?getLastChar@DNameStatusNode@@UBEDXZ 1014e610 f i libvcruntimed:undname.obj
 0001:0014d640       ?getLastChar@charNode@@UBEDXZ 1014e640 f i libvcruntimed:undname.obj
 0001:0014d660       ?getLastChar@pDNameNode@@UBEDXZ 1014e660 f i libvcruntimed:undname.obj
 0001:0014d690       ?getLastChar@pairNode@@UBEDXZ 1014e690 f i libvcruntimed:undname.obj
 0001:0014d700       ?getLastChar@pcharNode@@UBEDXZ 1014e700 f i libvcruntimed:undname.obj
 0001:0014d740       ?getLexicalFrame@UnDecorator@@CA?AVDName@@XZ 1014e740 f i libvcruntimed:undname.obj
 0001:0014d780       ?getMemberAccess@UnDecorator@@CA?AVDName@@XZ 1014e780 f   libvcruntimed:undname.obj
 0001:0014d810       ?getMemoryWithBuffer@_HeapManager@@QAEPAXI@Z 1014e810 f   libvcruntimed:undname.obj
 0001:0014d900       ?getMemoryWithoutBuffer@_HeapManager@@QAEPAXI@Z 1014e900 f   libvcruntimed:undname.obj
 0001:0014d940       ?getNoexcept@UnDecorator@@CA?AVDName@@XZ 1014e940 f   libvcruntimed:undname.obj
 0001:0014d9c0       ?getNumberOfDimensions@UnDecorator@@CAHXZ 1014e9c0 f   libvcruntimed:undname.obj
 0001:0014dac0       ?getOperatorName@UnDecorator@@CA?AVDName@@_NPA_N@Z 1014eac0 f i libvcruntimed:undname.obj
 0001:0014e5c0       ?getPointerToMember@UnDecorator@@CA?AVDName@@XZ 1014f5c0 f   libvcruntimed:undname.obj
 0001:0014e6b0       ?getPointerType@UnDecorator@@CA?AVDName@@ABV2@0@Z 1014f6b0 f i libvcruntimed:undname.obj
 0001:0014e6d0       ?getPointerTypeArray@UnDecorator@@CA?AVDName@@ABV2@0@Z 1014f6d0 f i libvcruntimed:undname.obj
 0001:0014e6f0       ?getPrimaryDataType@UnDecorator@@CA?AVDName@@ABV2@@Z 1014f6f0 f   libvcruntimed:undname.obj
 0001:0014eb80       ?getPtrRefDataType@UnDecorator@@CA?AVDName@@ABV2@H@Z 1014fb80 f   libvcruntimed:undname.obj
 0001:0014ee30       ?getPtrRefType@UnDecorator@@CA?AVDName@@ABV2@0W4IndirectionKind@@@Z 1014fe30 f   libvcruntimed:undname.obj
 0001:0014efb0       ?getReferenceType@UnDecorator@@CA?AVDName@@ABV2@0W4IndirectionKind@@@Z 1014ffb0 f i libvcruntimed:undname.obj
 0001:0014efd0       ?getRestrictionSpec@UnDecorator@@CA?AVDName@@XZ 1014ffd0 f   libvcruntimed:undname.obj
 0001:0014f190       ?getReturnType@UnDecorator@@CA?AVDName@@PAV2@@Z 10150190 f   libvcruntimed:undname.obj
 0001:0014f1e0       ?getScope@UnDecorator@@CA?AVDName@@XZ 101501e0 f   libvcruntimed:undname.obj
 0001:0014f770       ?getScopedName@UnDecorator@@CA?AVDName@@XZ 10150770 f   libvcruntimed:undname.obj
 0001:0014f8c0       ?getSignedDimension@UnDecorator@@CA?AVDName@@XZ 101508c0 f   libvcruntimed:undname.obj
 0001:0014f940       ?getStorageConvention@UnDecorator@@CA?AVDName@@XZ 10150940 f i libvcruntimed:undname.obj
 0001:0014f960       ?getString@DName@@QBEPADPAD0@Z 10150960 f i libvcruntimed:undname.obj
 0001:0014f9c0       ?getString@DName@@QBEPADPADH@Z 101509c0 f i libvcruntimed:undname.obj
 0001:0014fa50       ?getString@DNameStatusNode@@UBEPADPAD0@Z 10150a50 f i libvcruntimed:undname.obj
 0001:0014fa90       ?getString@charNode@@UBEPADPAD0@Z 10150a90 f i libvcruntimed:undname.obj
 0001:0014fac0       ?getString@pDNameNode@@UBEPADPAD0@Z 10150ac0 f i libvcruntimed:undname.obj
 0001:0014fb00       ?getString@pairNode@@UBEPADPAD0@Z 10150b00 f i libvcruntimed:undname.obj
 0001:0014fb90       ?getString@pcharNode@@UBEPADPAD0@Z 10150b90 f i libvcruntimed:undname.obj
 0001:0014fbc0       ?getStringEncoding@UnDecorator@@CA?AVDName@@W4PrefixKind@@H@Z 10150bc0 f   libvcruntimed:undname.obj
 0001:0014fcd0       ?getStringHelper@@YAPADPADPBD1H@Z 10150cd0 f i libvcruntimed:undname.obj
 0001:0014fd10       ?getStringObject@UnDecorator@@CA?AVDName@@XZ 10150d10 f   libvcruntimed:undname.obj
 0001:0014fdc0       ?getSymbolName@UnDecorator@@CA?AVDName@@XZ 10150dc0 f i libvcruntimed:undname.obj
 0001:0014fe50       ?getTemplateArgumentList@UnDecorator@@CA?AVDName@@XZ 10150e50 f   libvcruntimed:undname.obj
 0001:00150140       ?getTemplateName@UnDecorator@@CA?AVDName@@_N@Z 10151140 f   libvcruntimed:undname.obj
 0001:00150300       ?getTemplateNonTypeArgument@UnDecorator@@CA?AVDName@@XZ 10151300 f   libvcruntimed:undname.obj
 0001:00150900       ?getTemplateTypeArgument@UnDecorator@@CA?AVDName@@XZ 10151900 f   libvcruntimed:undname.obj
 0001:00150aa0       ?getThisType@UnDecorator@@CA?AVDName@@XZ 10151aa0 f i libvcruntimed:undname.obj
 0001:00150ae0       ?getThrowTypes@UnDecorator@@CA?AVDName@@XZ 10151ae0 f   libvcruntimed:undname.obj
 0001:00150b20       ?getTypeEncoding@UnDecorator@@CAHXZ 10151b20 f i libvcruntimed:undname.obj
 0001:001515e0       ?getUndecoratedName@UnDecorator@@QAEPADPADH@Z 101525e0 f i libvcruntimed:undname.obj
 0001:00151740       ?getUnionObject@UnDecorator@@CA?AVDName@@XZ 10152740 f   libvcruntimed:undname.obj
 0001:00151810       ?getVCallThunkType@UnDecorator@@CA?AVDName@@XZ 10152810 f i libvcruntimed:undname.obj
 0001:00151890       ?getValue@UnDecorator@@CA?AV?$optional@_K@std@@XZ 10152890 f   libvcruntimed:undname.obj
 0001:00151950       ?getValueObject@UnDecorator@@CA?AVDName@@XZ 10152950 f   libvcruntimed:undname.obj
 0001:00151b30       ?getVbTableType@UnDecorator@@CA?AVDName@@ABV2@@Z 10152b30 f i libvcruntimed:undname.obj
 0001:00151b50       ?getVdispMapType@UnDecorator@@CA?AVDName@@ABV2@@Z 10152b50 f i libvcruntimed:undname.obj
 0001:00151be0       ?getVfTableType@UnDecorator@@CA?AVDName@@ABV2@@Z 10152be0 f i libvcruntimed:undname.obj
 0001:00151de0       ?getZName@UnDecorator@@CA?AVDName@@_N0@Z 10152de0 f   libvcruntimed:undname.obj
 0001:00152120       ?haveTemplateParameters@UnDecorator@@SAHXZ 10153120 f i libvcruntimed:undname.obj
 0001:00152130       ?isArray@DName@@QBEHXZ     10153130 f i libvcruntimed:undname.obj
 0001:00152150       ?isComArray@DName@@QBEHXZ  10153150 f i libvcruntimed:undname.obj
 0001:00152170       ?isEmpty@DName@@QBEHXZ     10153170 f i libvcruntimed:undname.obj
 0001:001521a0       ?isFull@Replicator@@QBEHXZ 101531a0 f i libvcruntimed:undname.obj
 0001:001521d0       ?isNoTE@DName@@QBEHXZ      101531d0 f i libvcruntimed:undname.obj
 0001:001521f0       ?isPinPtr@DName@@QBEHXZ    101531f0 f i libvcruntimed:undname.obj
 0001:00152210       ?isPtrRef@DName@@QBEHXZ    10153210 f i libvcruntimed:undname.obj
 0001:00152230       ?isUDC@DName@@QBEHXZ       10153230 f i libvcruntimed:undname.obj
 0001:00152270       ?isUDTThunk@DName@@QBEHXZ  10153270 f i libvcruntimed:undname.obj
 0001:001522b0       ?isVCallThunk@DName@@QBEHXZ 101532b0 f i libvcruntimed:undname.obj
 0001:001522d0       ?isValid@DName@@QBEHXZ     101532d0 f i libvcruntimed:undname.obj
 0001:00152310       ?length@DName@@QBEHXZ      10153310 f i libvcruntimed:undname.obj
 0001:00152350       ?length@DNameStatusNode@@UBEHXZ 10153350 f i libvcruntimed:undname.obj
 0001:00152370       ?length@charNode@@UBEHXZ   10153370 f i libvcruntimed:undname.obj
 0001:00152380       ?length@pDNameNode@@UBEHXZ 10153380 f i libvcruntimed:undname.obj
 0001:001523b0       ?length@pairNode@@UBEHXZ   101533b0 f i libvcruntimed:undname.obj
 0001:00152420       ?length@pcharNode@@UBEHXZ  10153420 f i libvcruntimed:undname.obj
 0001:00152440       ?make@DNameStatusNode@@SAPBV1@W4DNameStatus@@@Z 10153440 f i libvcruntimed:undname.obj
 0001:00152470       ?parseDecoratedName@UnDecorator@@CA?AVDName@@XZ 10153470 f   libvcruntimed:undname.obj
 0001:00152600       ?raw_length@DNameStatusNode@@UBEHXZ 10153600 f i libvcruntimed:undname.obj
 0001:00152620       ?raw_length@charNode@@UBEHXZ 10153620 f i libvcruntimed:undname.obj
 0001:00152640       ?raw_length@pDNameNode@@UBEHXZ 10153640 f i libvcruntimed:undname.obj
 0001:00152650       ?raw_length@pairNode@@UBEHXZ 10153650 f i libvcruntimed:undname.obj
 0001:00152670       ?raw_length@pcharNode@@UBEHXZ 10153670 f i libvcruntimed:undname.obj
 0001:00152690       ?setIsArray@DName@@QAEXXZ  10153690 f i libvcruntimed:undname.obj
 0001:001526b0       ?setIsComArray@DName@@QAEXXZ 101536b0 f i libvcruntimed:undname.obj
 0001:001526d0       ?setIsNoTE@DName@@QAEXXZ   101536d0 f i libvcruntimed:undname.obj
 0001:001526f0       ?setIsPinPtr@DName@@QAEXXZ 101536f0 f i libvcruntimed:undname.obj
 0001:00152710       ?setIsUDC@DName@@QAEXXZ    10153710 f i libvcruntimed:undname.obj
 0001:00152740       ?setIsVCallThunk@DName@@QAEXXZ 10153740 f i libvcruntimed:undname.obj
 0001:00152760       ?setPtrRef@DName@@QAEAAV1@XZ 10153760 f i libvcruntimed:undname.obj
 0001:00152780       ?status@DName@@QBE?AW4DNameStatus@@XZ 10153780 f i libvcruntimed:undname.obj
 0001:00152880       ___unDName                 10153880 f   libvcruntimed:undname.obj
 0001:001528b0       ___unDNameEx               101538b0 f   libvcruntimed:undname.obj
 0001:00152980       _unDNameGenerateCHPE       10153980 f   libvcruntimed:undname.obj
 0001:001529e0       _strchr                    101539e0 f   libvcruntimed:strchr.obj
 0001:00152a4e       ___from_strstr_to_strchr   10153a4e     libvcruntimed:strchr.obj
 0001:00152b10       __local_unwind4            10153b10 f   libvcruntimed:exsup4.obj
 0001:00152c00       __seh_longjmp_unwind4@4    10153c00 f   libvcruntimed:exsup4.obj
 0001:00152c30       @_EH4_CallFilterFunc@8     10153c30 f   libvcruntimed:exsup4.obj
 0001:00152c50       @_EH4_TransferToHandler@8  10153c50 f   libvcruntimed:exsup4.obj
 0001:00152c70       @_EH4_GlobalUnwind2@8      10153c70 f   libvcruntimed:exsup4.obj
 0001:00152c90       @_EH4_LocalUnwind@16       10153c90 f   libvcruntimed:exsup4.obj
 0001:00152cc0       ___except_validate_context_record 10153cc0 f   libvcruntimed:jbcxrval.obj
 0001:00152d10       ___except_validate_jump_buffer 10153d10 f   libvcruntimed:jbcxrval.obj
 0001:00152d30       ___except_validate_jump_buffer_common 10153d30 f i libvcruntimed:jbcxrval.obj
 0001:00152d90       ??$?RU__vcrt_ptd@@@__crt_internal_free_policy@@QBEXQBU__vcrt_ptd@@@Z 10153d90 f i libvcruntimed:per_thread_data.obj
 0001:00152db0       ??0?$__crt_unique_heap_ptr@U__vcrt_ptd@@U__crt_internal_free_policy@@@@QAE@QAU__vcrt_ptd@@@Z 10153db0 f i libvcruntimed:per_thread_data.obj
 0001:00152df0       ??1?$__crt_unique_heap_ptr@U__vcrt_ptd@@U__crt_internal_free_policy@@@@QAE@XZ 10153df0 f i libvcruntimed:per_thread_data.obj
 0001:00152e30       ??B?$__crt_unique_heap_ptr@U__vcrt_ptd@@U__crt_internal_free_policy@@@@QBE_NXZ 10153e30 f i libvcruntimed:per_thread_data.obj
 0001:00152e50       ?detach@?$__crt_unique_heap_ptr@U__vcrt_ptd@@U__crt_internal_free_policy@@@@QAEPAU__vcrt_ptd@@XZ 10153e50 f i libvcruntimed:per_thread_data.obj
 0001:00152e80       ?get@?$__crt_unique_heap_ptr@U__vcrt_ptd@@U__crt_internal_free_policy@@@@QBEPAU__vcrt_ptd@@XZ 10153e80 f i libvcruntimed:per_thread_data.obj
 0001:00152e90       ?is_valid@?$__crt_unique_heap_ptr@U__vcrt_ptd@@U__crt_internal_free_policy@@@@QBE_NXZ 10153e90 f i libvcruntimed:per_thread_data.obj
 0001:00152ec0       ?release@?$__crt_unique_heap_ptr@U__vcrt_ptd@@U__crt_internal_free_policy@@@@QAEXXZ 10153ec0 f i libvcruntimed:per_thread_data.obj
 0001:00152f20       ___vcrt_freefls@4          10153f20 f   libvcruntimed:per_thread_data.obj
 0001:00152f50       ___vcrt_freeptd            10153f50 f   libvcruntimed:per_thread_data.obj
 0001:00152fb0       ___vcrt_getptd             10153fb0 f   libvcruntimed:per_thread_data.obj
 0001:00152fd0       ___vcrt_getptd_noexit      10153fd0 f   libvcruntimed:per_thread_data.obj
 0001:00153130       ___vcrt_getptd_noinit      10154130 f   libvcruntimed:per_thread_data.obj
 0001:00153190       ___vcrt_initialize_ptd     10154190 f   libvcruntimed:per_thread_data.obj
 0001:001531e0       ___vcrt_uninitialize_ptd   101541e0 f   libvcruntimed:per_thread_data.obj
 0001:00153210       ___vcrt_initialize_locks   10154210 f   libvcruntimed:locks.obj
 0001:00153270       ___vcrt_lock               10154270 f   libvcruntimed:locks.obj
 0001:00153290       ___vcrt_uninitialize_locks 10154290 f   libvcruntimed:locks.obj
 0001:001532e0       ___vcrt_unlock             101542e0 f   libvcruntimed:locks.obj
 0001:00153300       ??$?0AAViterator@TryBlockMap@__FrameHandler3@@AAV012@$0A@@?$pair@Viterator@TryBlockMap@__FrameHandler3@@V123@@std@@QAE@AAViterator@TryBlockMap@__FrameHandler3@@0@Z 10154300 f i libvcruntimed:trnsctrl.obj
 0001:00153350       ??$forward@AAViterator@TryBlockMap@__FrameHandler3@@@std@@YAAAViterator@TryBlockMap@__FrameHandler3@@AAV123@@Z 10154350 f i libvcruntimed:trnsctrl.obj
 0001:00153360       ??0iterator@TryBlockMap@__FrameHandler3@@QAE@AAV12@I@Z 10154360 f i libvcruntimed:trnsctrl.obj
 0001:00153390       ?GetRangeOfTrysToCheck@__FrameHandler3@@SA?AU?$pair@Viterator@TryBlockMap@__FrameHandler3@@V123@@std@@AAVTryBlockMap@1@HPAXPBU_s_FuncInfo@@H@Z 10154390 f   libvcruntimed:trnsctrl.obj
 0001:00153470       ?_CallCatchBlock2@@YAPAXPAUEHRegistrationNode@@PBU_s_FuncInfo@@PAXHK@Z 10154470 f   libvcruntimed:trnsctrl.obj
 0001:001534e0       ?_CallSETranslator@@YAHPAUEHExceptionRecord@@PAUEHRegistrationNode@@PAX2PBU_s_FuncInfo@@H1@Z 101544e0 f   libvcruntimed:trnsctrl.obj
 0001:001535f0       ?_JumpToContinuation@@YGXPAXPAUEHRegistrationNode@@@Z 101545f0 f   libvcruntimed:trnsctrl.obj
 0001:00153630       ?_UnwindNestedFrames@@YGXPAUEHRegistrationNode@@PAUEHExceptionRecord@@@Z 10154630 f   libvcruntimed:trnsctrl.obj
 0001:00153690       __CatchGuardHandler        10154690 f   libvcruntimed:trnsctrl.obj
 0001:001536e0       __CreateFrameInfo          101546e0 f   libvcruntimed:trnsctrl.obj
 0001:00153710       __FindAndUnlinkFrame       10154710 f   libvcruntimed:trnsctrl.obj
 0001:00153780       __TranslatorGuardHandler   10154780 f   libvcruntimed:trnsctrl.obj
 0001:00153830       ___CxxFrameHandler         10154830 f   libvcruntimed:trnsctrl.obj
 0001:00153870       ___CxxFrameHandler2        10154870 f   libvcruntimed:trnsctrl.obj
 0001:001538b0       ___CxxFrameHandler3        101548b0 f   libvcruntimed:trnsctrl.obj
 0001:001538f0       ___CxxLongjmpUnwind@4      101548f0 f   libvcruntimed:trnsctrl.obj
 0001:00153930       __global_unwind2           10154930 f   libvcruntimed:exsup.obj
 0001:001539b0       __local_unwind2            101549b0 f   libvcruntimed:exsup.obj
 0001:00153a50       __abnormal_termination     10154a50 f   libvcruntimed:exsup.obj
 0001:00153a80       __NLG_Notify1              10154a80 f   libvcruntimed:exsup.obj
 0001:00153a90       __NLG_Notify               10154a90 f   libvcruntimed:exsup.obj
 0001:00153aa7       __NLG_Dispatch             10154aa7     libvcruntimed:exsup.obj
 0001:00153aa7       __NLG_Dispatch2            10154aa7     libvcruntimed:exsup.obj
 0001:00153ab0       __NLG_Call                 10154ab0 f   libvcruntimed:exsup.obj
 0001:00153ab2       __NLG_Return2              10154ab2     libvcruntimed:exsup.obj
 0001:00153ac0       ??$__crt_interlocked_exchange_pointer@UHINSTANCE__@@PAU1@@@YAPAUHINSTANCE__@@PDSAU0@QAU0@@Z 10154ac0 f i libvcruntimed:winapi_downlevel.obj
 0001:00153ad0       ??$__crt_interlocked_exchange_pointer@UHINSTANCE__@@PAX@@YAPAUHINSTANCE__@@PDSAU0@QAX@Z 10154ad0 f i libvcruntimed:winapi_downlevel.obj
 0001:00153ae0       ??$__crt_interlocked_exchange_pointer@XPAX@@YAPAXPDSAXQAX@Z 10154ae0 f i libvcruntimed:winapi_downlevel.obj
 0001:00153af0       ??$__crt_interlocked_read_pointer@UHINSTANCE__@@@@YAPAUHINSTANCE__@@PDSAU0@@Z 10154af0 f i libvcruntimed:winapi_downlevel.obj
 0001:00153b10       ??$__crt_interlocked_read_pointer@X@@YAPAXPDSAX@Z 10154b10 f i libvcruntimed:winapi_downlevel.obj
 0001:00153ee0       ___vcrt_FlsAlloc           10154ee0 f   libvcruntimed:winapi_downlevel.obj
 0001:00153f20       ___vcrt_FlsFree            10154f20 f   libvcruntimed:winapi_downlevel.obj
 0001:00153f60       ___vcrt_FlsGetValue        10154f60 f   libvcruntimed:winapi_downlevel.obj
 0001:00153fa0       ___vcrt_FlsSetValue        10154fa0 f   libvcruntimed:winapi_downlevel.obj
 0001:00153ff0       ___vcrt_InitializeCriticalSectionEx 10154ff0 f   libvcruntimed:winapi_downlevel.obj
 0001:00154b90       ??$TypeMatchHelper@V__FrameHandler3@@@@YAHPBU_s_HandlerType@@PBU_s_CatchableType@@PBU_s_ThrowInfo@@@Z 10155b90 f i libvcruntimed:frame.obj
 0001:00154c70       ??$__InternalCxxFrameHandler@V__FrameHandler3@@@@YA?AW4_EXCEPTION_DISPOSITION@@PAUEHExceptionRecord@@PAUEHRegistrationNode@@PAU_CONTEXT@@PAXPBU_s_FuncInfo@@H1E@Z 10155c70 f i libvcruntimed:frame.obj
 0001:00154e30       ??0HandlerMap@__FrameHandler3@@QAE@PBU_s_TryBlockMapEntry@@II@Z 10155e30 f i libvcruntimed:frame.obj
 0001:00154e60       ??0TryBlockMap@__FrameHandler3@@QAE@PBU_s_FuncInfo@@I@Z 10155e60 f i libvcruntimed:frame.obj
 0001:00154e90       ??0bad_exception@std@@QAE@ABV01@@Z 10155e90 f i libvcruntimed:frame.obj
 0001:00154ec0       ??0bad_exception@std@@QAE@XZ 10155ec0 f i libvcruntimed:frame.obj
 0001:00154ef0       ??0exception@std@@QAE@ABV01@@Z 10155ef0 f i libvcruntimed:frame.obj
 0001:00154f30       ??0exception@std@@QAE@QBDH@Z 10155f30 f i libvcruntimed:frame.obj
 0001:00154f60       ??0iterator@HandlerMap@__FrameHandler3@@QAE@AAV12@I@Z 10155f60 f i libvcruntimed:frame.obj
 0001:00154f90       ??1bad_exception@std@@UAE@XZ 10155f90 f i libvcruntimed:frame.obj
 0001:00154fb0       ??1exception@std@@UAE@XZ   10155fb0 f i libvcruntimed:frame.obj
 0001:00154fe0       ??8iterator@HandlerMap@__FrameHandler3@@QBE_NABV012@@Z 10155fe0 f i libvcruntimed:frame.obj
 0001:00155010       ??8type_info@@QBE_NABV0@@Z 10156010 f i libvcruntimed:frame.obj
 0001:00155050       ??9iterator@HandlerMap@__FrameHandler3@@QBE_NABV012@@Z 10156050 f i libvcruntimed:frame.obj
 0001:00155090       ??Diterator@HandlerMap@__FrameHandler3@@QAE?BU_s_HandlerType@@XZ 10156090 f i libvcruntimed:frame.obj
 0001:001550d0       ??Diterator@TryBlockMap@__FrameHandler3@@QAE?BU_s_TryBlockMapEntry@@XZ 101560d0 f i libvcruntimed:frame.obj
 0001:00155120       ??Eiterator@HandlerMap@__FrameHandler3@@QAEAAV012@XZ 10156120 f i libvcruntimed:frame.obj
 0001:00155140       ??Eiterator@TryBlockMap@__FrameHandler3@@QAEAAV012@XZ 10156140 f i libvcruntimed:frame.obj
 0001:00155160       ??Miterator@TryBlockMap@__FrameHandler3@@QBE_NABV012@@Z 10156160 f i libvcruntimed:frame.obj
 0001:00155190       ??_Gbad_exception@std@@UAEPAXI@Z 10156190 f i libvcruntimed:frame.obj
 0001:00155190       ??_Ebad_exception@std@@UAEPAXI@Z 10156190 f i libvcruntimed:frame.obj
 0001:001551c0       ??_Eexception@std@@UAEPAXI@Z 101561c0 f i libvcruntimed:frame.obj
 0001:001551c0       ??_Gexception@std@@UAEPAXI@Z 101561c0 f i libvcruntimed:frame.obj
 0001:001551f0       ?BuildCatchObject@__FrameHandler3@@SAXPAUEHExceptionRecord@@PAXPBU_s_HandlerType@@PBU_s_CatchableType@@@Z 101561f0 f   libvcruntimed:frame.obj
 0001:00155210       ?BuildCatchObjectHelper@__FrameHandler3@@SAHPAUEHExceptionRecord@@PAXPBU_s_HandlerType@@PBU_s_CatchableType@@@Z 10156210 f   libvcruntimed:frame.obj
