 PhysXCooking_32

 Timestamp is 624d4111 (Wed Apr  6 09:28:17 2022)

 Preferred load address is 10000000

 Start         Length     Name                   Class
 0001:00000000 00001320H .text$di                CODE
 0001:00001320 000b7e80H .text$mn                CODE
 0001:000b91a0 00000193H .text$x                 CODE
 0002:00000000 00000160H .idata$5                DATA
 0002:00000160 00000008H .00cfg                  DATA
 0002:00000168 00000004H .CRT$XCA                DATA
 0002:0000016c 000000f8H .CRT$XCU                DATA
 0002:00000264 00000004H .CRT$XCZ                DATA
 0002:00000268 00000004H .CRT$XIA                DATA
 0002:0000026c 0000000cH .CRT$XIC                DATA
 0002:00000278 00000004H .CRT$XIZ                DATA
 0002:0000027c 00000004H .CRT$XPA                DATA
 0002:00000280 00000008H .CRT$XPX                DATA
 0002:00000288 00000004H .CRT$XPXA               DATA
 0002:0000028c 00000004H .CRT$XPZ                DATA
 0002:00000290 00000004H .CRT$XTA                DATA
 0002:00000294 0000000cH .CRT$XTZ                DATA
 0002:00000298 00000000H .gfids$y                DATA
 0002:000002a0 000263a0H .rdata                  DATA
 0002:00026640 00000004H .rdata$CastGuardVftablesA DATA
 0002:00026644 00000004H .rdata$CastGuardVftablesC DATA
 0002:00026648 000002a0H .rdata$r                DATA
 0002:000268e8 00000040H .rdata$sxdata           DATA
 0002:00026928 00000024H .rdata$voltmd           DATA
 0002:0002694c 00000468H .rdata$zzzdbg           DATA
 0002:00026db4 00000004H .rtc$IAA                DATA
 0002:00026db8 00000050H .rtc$IMZ                DATA
 0002:00026e08 00000004H .rtc$IZZ                DATA
 0002:00026e0c 00000004H .rtc$TAA                DATA
 0002:00026e10 00000050H .rtc$TMZ                DATA
 0002:00026e60 00000008H .rtc$TZZ                DATA
 0002:00026e68 00000c6cH .xdata$x                DATA
 0002:00027ad4 00000040H .didat$2                DATA
 0002:00027b14 00000020H .didat$3                DATA
 0002:00027b34 000000e8H .didat$4                DATA
 0002:00027c1c 00000ad8H .didat$6                DATA
 0002:000286f4 000000ecH .didat$7                DATA
 0002:000287e0 00001c68H .edata                  DATA
 0002:0002a448 00000014H .idata$2                DATA
 0002:0002a45c 00000014H .idata$3                DATA
 0002:0002a470 00000160H .idata$4                DATA
 0002:0002a5d0 00000668H .idata$6                DATA
 0003:00000000 00000910H .data                   DATA
 0003:00000910 00000294H .data$r                 DATA
 0003:00000ba4 000000b4H .data$rs                DATA
 0003:00000c58 000000e8H .didat$5                DATA
 0003:00000d40 000018d4H .bss                    DATA
 0004:00000000 000000a0H .rsrc$01                DATA
 0004:000000a0 000004b0H .rsrc$02                DATA

  Address         Publics by Value              Rva+Base       Lib:Object

 0000:00000000       ___hybrid_code_map         00000000     <absolute>
 0000:00000000       __except_list              00000000     <absolute>
 0000:00000000       ___arm64x_native_entrypoint 00000000     <absolute>
 0000:00000000       ___guard_fids_table        00000000     <absolute>
 0000:00000000       ___guard_iat_table         00000000     <absolute>
 0000:00000000       ___x64_code_ranges_to_entry_points 00000000     <absolute>
 0000:00000000       ___arm64x_redirection_metadata_count 00000000     <absolute>
 0000:00000000       ___guard_eh_cont_count     00000000     <absolute>
 0000:00000000       ___x64_code_ranges_to_entry_points_count 00000000     <absolute>
 0000:00000000       ___guard_fids_count        00000000     <absolute>
 0000:00000000       ___guard_iat_count         00000000     <absolute>
 0000:00000000       ___arm64x_extra_rfe_table  00000000     <absolute>
 0000:00000000       ___guard_longjmp_count     00000000     <absolute>
 0000:00000000       ___guard_eh_cont_table     00000000     <absolute>
 0000:00000000       ___arm64x_extra_rfe_table_size 00000000     <absolute>
 0000:00000000       ___AbsoluteZero            00000000     <absolute>
 0000:00000000       ___hybrid_code_map_count   00000000     <absolute>
 0000:00000000       ___guard_longjmp_table     00000000     <absolute>
 0000:00000000       ___enclave_config          00000000     <absolute>
 0000:00000000       ___hybrid_auxiliary_iat_copy 00000000     <absolute>
 0000:00000000       ___hybrid_auxiliary_iat    00000000     <absolute>
 0000:00000000       ___dynamic_value_reloc_table 00000000     <absolute>
 0000:00000000       ___arm64x_redirection_metadata 00000000     <absolute>
 0000:00000000       ___guard_check_icall_a64n_fptr 00000000     <absolute>
 0000:00000010       ___safe_se_handler_count   00000010     <absolute>
 0000:00000100       ___guard_flags             00000100     <absolute>
 0000:00000000       ___ImageBase               10000000     <linker-defined>
 0001:00001320       ?ComputeNbBoundaryEdges@AdjTriangle@physx@@QBEIXZ 10002320 f   Adjacencies.obj
 0001:000013b0       ?ComputeNbNeighbors@AdjTriangle@physx@@QBEIXZ 100023b0 f   Adjacencies.obj
 0001:00001440       ?HasNeighbor@AdjTriangle@physx@@QBE_NIPAI@Z 10002440 f   Adjacencies.obj
 0001:00001530       ?Flip@AdjTriangle@physx@@QAEXXZ 10002530 f   Adjacencies.obj
 0001:00001560       ??0Adjacencies@physx@@QAE@XZ 10002560 f   Adjacencies.obj
 0001:00001590       ??1Adjacencies@physx@@QAE@XZ 10002590 f   Adjacencies.obj
 0001:000015d0       ?Load@Adjacencies@physx@@QAE_NAAVPxInputStream@2@@Z 100025d0 f   Adjacencies.obj
 0001:000016d0       ?ComputeNbBoundaryEdges@Adjacencies@physx@@QBEIXZ 100026d0 f   Adjacencies.obj
 0001:00001730       ?GetBoundaryVertices@Adjacencies@physx@@QBE_NIPA_NPBU?$TriangleT@I@Gu@2@@Z 10002730 f   Adjacencies.obj
 0001:00001940       ?MakeLastRef@Adjacencies@physx@@QAE_NAAVAdjTriangle@2@IPAU?$TriangleT@I@Gu@2@@Z 10002940 f   Adjacencies.obj
 0001:00001bc0       ?AssignNewEdgeCode@Adjacencies@physx@@AAEXIE@Z 10002bc0 f   Adjacencies.obj
 0001:00001c40       ??0AdjacenciesBuilder@physx@@QAE@XZ 10002c40 f   Adjacencies.obj
 0001:00001c60       ??1AdjacenciesBuilder@physx@@QAE@XZ 10002c60 f   Adjacencies.obj
 0001:00001c80       ?Init@AdjacenciesBuilder@physx@@QAE_NABUADJACENCIESCREATE@2@@Z 10002c80 f   Adjacencies.obj
 0001:00002940       ??$?_UI@@YAPAXIV?$ReflectionAllocator@I@shdfnd@physx@@PBDH@Z 10003940 f i Adjacencies.obj
 0001:00002960       ??$?_UV?$ReflectionAllocator@VAdjEdge@@@shdfnd@physx@@@UserAllocated@shdfnd@physx@@SAPAXIV?$ReflectionAllocator@VAdjEdge@@@12@PBDH@Z 10003960 f i Adjacencies.obj
 0001:00002980       ??$?_UV?$ReflectionAllocator@VAdjTriangle@physx@@@shdfnd@physx@@@UserAllocated@shdfnd@physx@@SAPAXIV?$ReflectionAllocator@VAdjTriangle@physx@@@12@PBDH@Z 10003980 f i Adjacencies.obj
 0001:000029a0       ??$swap@I@shdfnd@physx@@YAXAAI0@Z 100039a0 f i Adjacencies.obj
 0001:000029d0       ??0?$ReflectionAllocator@I@shdfnd@physx@@QAE@PBD@Z 100039d0 f i Adjacencies.obj
 0001:000029e0       ??0?$ReflectionAllocator@VAdjEdge@@@shdfnd@physx@@QAE@PBD@Z 100039e0 f i Adjacencies.obj
 0001:000029f0       ??0?$ReflectionAllocator@VAdjTriangle@physx@@@shdfnd@physx@@QAE@PBD@Z 100039f0 f i Adjacencies.obj
 0001:00002a00       ??0?$TriangleT@I@Gu@physx@@QAE@XZ 10003a00 f i Adjacencies.obj
 0001:00002a10       ??0AdjEdge@@QAE@XZ         10003a10 f i Adjacencies.obj
 0001:00002a20       ??0AdjTriangle@physx@@QAE@XZ 10003a20 f i Adjacencies.obj
 0001:00002a30       ??0Allocator@shdfnd@physx@@QAE@PBD@Z 10003a30 f i Adjacencies.obj
 0001:00002a40       ??0EDGELISTCREATE@Gu@physx@@QAE@XZ 10003a40 f i Adjacencies.obj
 0001:00002aa0       ??0NonTrackingAllocator@shdfnd@physx@@QAE@PBD@Z 10003aa0 f i Adjacencies.obj
 0001:00002ab0       ??0PxFoundation@physx@@QAE@ABV01@@Z 10003ab0 f i Adjacencies.obj
 0001:00002ad0       ??0PxFoundation@physx@@QAE@XZ 10003ad0 f i Adjacencies.obj
 0001:00002af0       ??1AdjEdge@@QAE@XZ         10003af0 f i Adjacencies.obj
 0001:00002b00       ??1AdjTriangle@physx@@QAE@XZ 10003b00 f i Adjacencies.obj
 0001:00002b10       ??1PxFoundation@physx@@MAE@XZ 10003b10 f i Adjacencies.obj
 0001:00002b30       ??3UserAllocated@shdfnd@physx@@SAXPAX@Z 10003b30 f i Adjacencies.obj
 0001:00002b50       ??4Allocator@shdfnd@physx@@QAEAAV012@$$QAV012@@Z 10003b50 f i Adjacencies.obj
 0001:00002b60       ??4Allocator@shdfnd@physx@@QAEAAV012@ABV012@@Z 10003b60 f i Adjacencies.obj
 0001:00002b70       ??4MutexImpl@shdfnd@physx@@QAEAAV012@ABV012@@Z 10003b70 f i Adjacencies.obj
 0001:00002b80       ??4PxFoundation@physx@@QAEAAV01@ABV01@@Z 10003b80 f i Adjacencies.obj
 0001:00002b90       ??_EAdjEdge@@QAEPAXI@Z     10003b90 f i Adjacencies.obj
 0001:00002c40       ??_EAdjTriangle@physx@@QAEPAXI@Z 10003c40 f i Adjacencies.obj
 0001:00002cf0       ??_EPxFoundation@physx@@MAEPAXI@Z 10003cf0 f i Adjacencies.obj
 0001:00002d70       ??_FAllocator@shdfnd@physx@@QAEXXZ 10003d70 f i Adjacencies.obj
 0001:00002d90       ??_FNamedAllocator@shdfnd@physx@@QAEXXZ 10003d90 f i Adjacencies.obj
 0001:00002db0       ??_GPxFoundation@physx@@MAEPAXI@Z 10003db0 f i Adjacencies.obj
 0001:00002de0       ??_H@YGXPAXIIP6EPAX0@Z@Z   10003de0 f i Adjacencies.obj
 0001:00002e30       ??_I@YGXPAXIIP6EX0@Z@Z     10003e30 f i Adjacencies.obj
 0001:00002e90       ??_VUserAllocated@shdfnd@physx@@SAXPAX@Z 10003e90 f i Adjacencies.obj
 0001:00002eb0       ?GetNbHits@RadixSort@Cm@physx@@QBEIXZ 10003eb0 f i Adjacencies.obj
 0001:00002ed0       ?GetNbTotalCalls@RadixSort@Cm@physx@@QBEIXZ 10003ed0 f i Adjacencies.obj
 0001:00002ef0       ?GetRanks@RadixSort@Cm@physx@@QBEPBIXZ 10003ef0 f i Adjacencies.obj
 0001:00002f10       ?GetRecyclable@RadixSort@Cm@physx@@QBEPAIXZ 10003f10 f i Adjacencies.obj
 0001:00002f30       ?HasActiveEdge01@AdjTriangle@physx@@QBEHXZ 10003f30 f i Adjacencies.obj
 0001:00002f50       ?HasActiveEdge01@EdgeTriangleAC@Gu@physx@@SAHABUEdgeTriangleData@23@@Z 10003f50 f i Adjacencies.obj
 0001:00002f70       ?HasActiveEdge12@AdjTriangle@physx@@QBEHXZ 10003f70 f i Adjacencies.obj
 0001:00002f90       ?HasActiveEdge12@EdgeTriangleAC@Gu@physx@@SAHABUEdgeTriangleData@23@@Z 10003f90 f i Adjacencies.obj
 0001:00002fb0       ?HasActiveEdge20@AdjTriangle@physx@@QBEHXZ 10003fb0 f i Adjacencies.obj
 0001:00002fd0       ?HasActiveEdge20@EdgeTriangleAC@Gu@physx@@SAHABUEdgeTriangleData@23@@Z 10003fd0 f i Adjacencies.obj
 0001:00002ff0       ?PxMemZero@physx@@YAPAXPAXI@Z 10003ff0 f i Adjacencies.obj
 0001:00003010       ?__empty_global_delete@@YAXPAX@Z 10004010 f i Adjacencies.obj
 0001:00003020       ?__empty_global_delete@@YAXPAXI@Z 10004020 f i Adjacencies.obj
 0001:00003030       ?allocate@?$ReflectionAllocator@I@shdfnd@physx@@QAEPAXIPBDH@Z 10004030 f i Adjacencies.obj
 0001:00003080       ?allocate@?$ReflectionAllocator@VAdjEdge@@@shdfnd@physx@@QAEPAXIPBDH@Z 10004080 f i Adjacencies.obj
 0001:000030d0       ?allocate@?$ReflectionAllocator@VAdjTriangle@physx@@@shdfnd@physx@@QAEPAXIPBDH@Z 100040d0 f i Adjacencies.obj
 0001:00003120       ?deallocate@NonTrackingAllocator@shdfnd@physx@@QAEXPAX@Z 10004120 f i Adjacencies.obj
 0001:00003150       ?findEdge@?$TriangleT@I@Gu@physx@@QBEEII@Z 10004150 f i Adjacencies.obj
 0001:00003270       ?getAllocator@Foundation@shdfnd@physx@@QAEAAVPxAllocatorCallback@3@XZ 10004270 f i Adjacencies.obj
 0001:00003290       ?getAllocatorCallback@Foundation@shdfnd@physx@@UAEAAVPxAllocatorCallback@3@XZ 10004290 f i Adjacencies.obj
 0001:000032b0       ?getEdgeTriangle@EdgeList@Gu@physx@@QBEABUEdgeTriangleData@23@I@Z 100042b0 f i Adjacencies.obj
 0001:000032d0       ?getErrorCallback@Foundation@shdfnd@physx@@UAEAAVPxErrorCallback@3@XZ 100042d0 f i Adjacencies.obj
 0001:000032f0       ?getErrorLevel@Foundation@shdfnd@physx@@UBE?AW4Enum@PxErrorCode@3@XZ 100042f0 f i Adjacencies.obj
 0001:00003310       ?getFoundation@shdfnd@physx@@YAAAVFoundation@12@XZ 10004310 f i Adjacencies.obj
 0001:00003320       ?getInternalErrorCallback@Foundation@shdfnd@physx@@QAEAAVPxErrorCallback@3@XZ 10004320 f i Adjacencies.obj
 0001:00003340       ?getName@?$ReflectionAllocator@I@shdfnd@physx@@CAPBDXZ 10004340 f i Adjacencies.obj
 0001:00003380       ?getName@?$ReflectionAllocator@VAdjEdge@@@shdfnd@physx@@CAPBDXZ 10004380 f i Adjacencies.obj
 0001:000033c0       ?getName@?$ReflectionAllocator@VAdjTriangle@physx@@@shdfnd@physx@@CAPBDXZ 100043c0 f i Adjacencies.obj
 0001:00003400       ?getNamedAllocMap@Foundation@shdfnd@physx@@QAEAAV?$HashMap@PBVNamedAllocator@shdfnd@physx@@PBDU?$Hash@PBVNamedAllocator@shdfnd@physx@@@23@VNonTrackingAllocator@23@@23@XZ 10004400 f i Adjacencies.obj
 0001:00003420       ?getNamedAllocMutex@Foundation@shdfnd@physx@@QAEAAV?$MutexT@VAllocator@shdfnd@physx@@@23@XZ 10004420 f i Adjacencies.obj
 0001:00003440       ?getReportAllocationNames@Foundation@shdfnd@physx@@UBE_NXZ 10004440 f i Adjacencies.obj
 0001:00003460       ?getTempAllocFreeTable@Foundation@shdfnd@physx@@QAEAAV?$Array@PATTempAllocatorChunk@shdfnd@physx@@VAllocator@23@@23@XZ 10004460 f i Adjacencies.obj
 0001:00003480       ?getTempAllocMutex@Foundation@shdfnd@physx@@QAEAAV?$MutexT@VAllocator@shdfnd@physx@@@23@XZ 10004480 f i Adjacencies.obj
 0001:000034a0       ?invalidateRanks@RadixSort@Cm@physx@@QAEXXZ 100044a0 f i Adjacencies.obj
 0001:000034c0       ?memZero@intrinsics@physx@@YAPAXPAXI@Z 100044c0 f i Adjacencies.obj
 0001:000034e0       ?name@type_info@@QBEPBDXZ  100044e0 f i Adjacencies.obj
 0001:00003500       ?setErrorLevel@Foundation@shdfnd@physx@@UAEXW4Enum@PxErrorCode@3@@Z 10004500 f i Adjacencies.obj
 0001:00003520       ?setReportAllocationNames@Foundation@shdfnd@physx@@UAEX_N@Z 10004520 f i Adjacencies.obj
 0001:00003540       _PxCreateCooking           10004540 f   Cooking.obj
 0001:000035f0       ?release@Cooking@physx@@UAEXXZ 100045f0 f   Cooking.obj
 0001:00003630       ?setParams@Cooking@physx@@UAEXABUPxCookingParams@2@@Z 10004630 f   Cooking.obj
 0001:00003650       ?getParams@Cooking@physx@@UBEABUPxCookingParams@2@XZ 10004650 f   Cooking.obj
 0001:00003670       ?platformMismatch@Cooking@physx@@UBE_NXZ 10004670 f   Cooking.obj
 0001:000036b0       ?cookTriangleMesh@Cooking@physx@@UBE_NABVPxTriangleMeshDesc@2@AAVPxOutputStream@2@PAW4Enum@PxTriangleMeshCookingResult@2@@Z 100046b0 f   Cooking.obj
 0001:00003770       ?createTriangleMesh@Cooking@physx@@UBEPAVPxTriangleMesh@2@ABVPxTriangleMeshDesc@2@AAVPxPhysicsInsertionCallback@2@PAW4Enum@PxTriangleMeshCookingResult@2@@Z 10004770 f   Cooking.obj
 0001:00003830       ?validateTriangleMesh@Cooking@physx@@UBE_NABVPxTriangleMeshDesc@2@@Z 10004830 f   Cooking.obj
 0001:000038d0       ?cookConvexMesh@Cooking@physx@@UBE_NABVPxConvexMeshDesc@2@AAVPxOutputStream@2@PAW4Enum@PxConvexMeshCookingResult@2@@Z 100048d0 f   Cooking.obj
 0001:00003b00       ?createConvexMesh@Cooking@physx@@UBEPAVPxConvexMesh@2@ABVPxConvexMeshDesc@2@AAVPxPhysicsInsertionCallback@2@PAW4Enum@PxConvexMeshCookingResult@2@@Z 10004b00 f   Cooking.obj
 0001:00003d60       ?validateConvexMesh@Cooking@physx@@UBE_NABVPxConvexMeshDesc@2@@Z 10004d60 f   Cooking.obj
 0001:00003db0       ?computeHullPolygons@Cooking@physx@@UBE_NABVPxSimpleTriangleMesh@2@AAVPxAllocatorCallback@2@AAIAAPAVPxVec3@2@2AAPAI2AAPAUPxHullPolygon@2@@Z 10004db0 f   Cooking.obj
 0001:00003f70       ?cookHeightField@Cooking@physx@@UBE_NABVPxHeightFieldDesc@2@AAVPxOutputStream@2@@Z 10004f70 f   Cooking.obj
 0001:00004090       ?createHeightField@Cooking@physx@@UBEPAVPxHeightField@2@ABVPxHeightFieldDesc@2@AAVPxPhysicsInsertionCallback@2@@Z 10005090 f   Cooking.obj
 0001:00004270       ?cookBVHStructure@Cooking@physx@@UBE_NABVPxBVHStructureDesc@2@AAVPxOutputStream@2@@Z 10005270 f   Cooking.obj
 0001:00004330       ?createBVHStructure@Cooking@physx@@UBEPAVPxBVHStructure@2@ABVPxBVHStructureDesc@2@AAVPxPhysicsInsertionCallback@2@@Z 10005330 f   Cooking.obj
 0001:00004400       ?cookConvexMeshInternal@Cooking@physx@@ABE_NABVPxConvexMeshDesc@2@AAVConvexMeshBuilder@2@PAVConvexHullLib@2@PAW4Enum@PxConvexMeshCookingResult@2@@Z 10005400 f   Cooking.obj
 0001:00004630       ?cookTriangleMesh@Cooking@physx@@ABE_NAAVTriangleMeshBuilder@2@ABVPxTriangleMeshDesc@2@AAVPxOutputStream@2@PAW4Enum@PxTriangleMeshCookingResult@2@@Z 10005630 f   Cooking.obj
 0001:000046c0       ?createTriangleMesh@Cooking@physx@@ABEPAVPxTriangleMesh@2@AAVTriangleMeshBuilder@2@ABVPxTriangleMeshDesc@2@AAVPxPhysicsInsertionCallback@2@PAW4Enum@PxTriangleMeshCookingResult@2@@Z 100056c0 f   Cooking.obj
 0001:00004820       ??$?2V?$ReflectionAllocator@VCooking@physx@@@shdfnd@physx@@@UserAllocated@shdfnd@physx@@SAPAXIV?$ReflectionAllocator@VCooking@physx@@@12@PBDH@Z 10005820 f i Cooking.obj
 0001:00004840       ??$?2V?$ReflectionAllocator@VQuickHullConvexHullLib@physx@@@shdfnd@physx@@@UserAllocated@shdfnd@physx@@SAPAXIV?$ReflectionAllocator@VQuickHullConvexHullLib@physx@@@12@PBDH@Z 10005840 f i Cooking.obj
 0001:00004860       ??$PX_UNUSED@VPxFoundation@physx@@@@YAXABVPxFoundation@physx@@@Z 10005860 f i Cooking.obj
 0001:00004870       ??$PX_UNUSED@W4PxIDENTITY@physx@@@@YAXABW4PxIDENTITY@physx@@@Z 10005870 f i Cooking.obj
 0001:00004880       ??$PxMax@I@physx@@YAIII@Z  10005880 f i Cooking.obj
 0001:000048b0       ??$PxMin@G@physx@@YAGGG@Z  100058b0 f i Cooking.obj
 0001:000048e0       ??0?$PxBitAndDataT@G$0IAAA@@physx@@QAE@XZ 100058e0 f i Cooking.obj
 0001:00004900       ??0?$PxFlags@W4Enum@PxBaseFlag@physx@@G@physx@@QAE@ABV01@@Z 10005900 f i Cooking.obj
 0001:00004920       ??0?$PxFlags@W4Enum@PxConvexFlag@physx@@G@physx@@QAE@ABV01@@Z 10005920 f i Cooking.obj
 0001:00004940       ??0?$PxFlags@W4Enum@PxConvexFlag@physx@@G@physx@@QAE@W4Enum@PxConvexFlag@1@@Z 10005940 f i Cooking.obj
 0001:00004960       ??0?$PxFlags@W4Enum@PxConvexFlag@physx@@G@physx@@QAE@XZ 10005960 f i Cooking.obj
 0001:00004980       ??0?$PxFlags@W4Enum@PxHeightFieldFlag@physx@@G@physx@@QAE@ABV01@@Z 10005980 f i Cooking.obj
 0001:000049a0       ??0?$PxFlags@W4Enum@PxHeightFieldFlag@physx@@G@physx@@QAE@W4PxEMPTY@1@@Z 100059a0 f i Cooking.obj
 0001:000049b0       ??0?$PxFlags@W4Enum@PxHeightFieldFlag@physx@@G@physx@@QAE@XZ 100059b0 f i Cooking.obj
 0001:000049d0       ??0?$PxFlags@W4Enum@PxMeshFlag@physx@@G@physx@@QAE@ABV01@@Z 100059d0 f i Cooking.obj
 0001:000049f0       ??0?$PxFlags@W4Enum@PxMeshPreprocessingFlag@physx@@I@physx@@QAE@ABV01@@Z 100059f0 f i Cooking.obj
 0001:00004a10       ??0?$ReflectionAllocator@VCooking@physx@@@shdfnd@physx@@QAE@PBD@Z 10005a10 f i Cooking.obj
 0001:00004a20       ??0?$ReflectionAllocator@VHeightField@Gu@physx@@@shdfnd@physx@@QAE@PBD@Z 10005a20 f i Cooking.obj
 0001:00004a30       ??0?$ReflectionAllocator@VQuickHullConvexHullLib@physx@@@shdfnd@physx@@QAE@PBD@Z 10005a30 f i Cooking.obj
 0001:00004a40       ??0CenterExtents@Gu@physx@@QAE@ABV012@@Z 10005a40 f i Cooking.obj
 0001:00004a70       ??0CenterExtents@Gu@physx@@QAE@XZ 10005a70 f i Cooking.obj
 0001:00004aa0       ??0ConvexHullData@Gu@physx@@QAE@XZ 10005aa0 f i Cooking.obj
 0001:00004ad0       ??0ConvexHullInitData@Gu@physx@@QAE@XZ 10005ad0 f i Cooking.obj
 0001:00004b00       ??0Cooking@physx@@QAE@ABUPxCookingParams@1@@Z 10005b00 f i Cooking.obj
 0001:00004b30       ??0DebugText@Cm@physx@@QAE@$$QAU012@@Z 10005b30 f i Cooking.obj
 0001:00004b80       ??0DebugText@Cm@physx@@QAE@ABU012@@Z 10005b80 f i Cooking.obj
 0001:00004bd0       ??0HeightFieldData@Gu@physx@@QAE@$$QAU012@@Z 10005bd0 f i Cooking.obj
 0001:00004c60       ??0HeightFieldData@Gu@physx@@QAE@ABU012@@Z 10005c60 f i Cooking.obj
 0001:00004cf0       ??0HeightFieldData@Gu@physx@@QAE@W4PxEMPTY@2@@Z 10005cf0 f i Cooking.obj
 0001:00004d20       ??0HeightFieldData@Gu@physx@@QAE@XZ 10005d20 f i Cooking.obj
 0001:00004d50       ??0PxConvexMeshDesc@physx@@QAE@ABV01@@Z 10005d50 f i Cooking.obj
 0001:00004de0       ??0PxCooking@physx@@QAE@XZ 10005de0 f i Cooking.obj
 0001:00004e00       ??0PxCookingParams@physx@@QAE@ABU01@@Z 10005e00 f i Cooking.obj
 0001:00004eb0       ??0PxDebugLine@physx@@QAE@ABU01@@Z 10005eb0 f i Cooking.obj
 0001:00004f00       ??0PxMat33@physx@@QAE@XZ   10005f00 f i Cooking.obj
 0001:00004f30       ??0PxMat44@physx@@QAE@ABV01@@Z 10005f30 f i Cooking.obj
 0001:00004f90       ??0PxMat44@physx@@QAE@W4PxIDENTITY@1@@Z 10005f90 f i Cooking.obj
 0001:00005080       ??0PxVec3@physx@@QAE@ABV01@@Z 10006080 f i Cooking.obj
 0001:000050c0       ??0PxVec3@physx@@QAE@M@Z   100060c0 f i Cooking.obj
 0001:00005100       ??0PxVec3@physx@@QAE@MMM@Z 10006100 f i Cooking.obj
 0001:00005140       ??0PxVec3@physx@@QAE@XZ    10006140 f i Cooking.obj
 0001:00005150       ??0PxVec4@physx@@QAE@ABV01@@Z 10006150 f i Cooking.obj
 0001:00005190       ??0PxVec4@physx@@QAE@MMMM@Z 10006190 f i Cooking.obj
 0001:000051e0       ??0RenderOutput@Cm@physx@@QAE@AAVRenderBuffer@12@@Z 100061e0 f i Cooking.obj
 0001:00005250       ??0RenderOutput@Cm@physx@@QAE@ABV012@@Z 10006250 f i Cooking.obj
 0001:000052d0       ??1CenterExtents@Gu@physx@@QAE@XZ 100062d0 f i Cooking.obj
 0001:000052e0       ??1ConvexHullData@Gu@physx@@QAE@XZ 100062e0 f i Cooking.obj
 0001:00005300       ??1ConvexHullInitData@Gu@physx@@QAE@XZ 10006300 f i Cooking.obj
 0001:00005320       ??1Cooking@physx@@UAE@XZ   10006320 f i Cooking.obj
 0001:00005340       ??1HeightFieldData@Gu@physx@@QAE@XZ 10006340 f i Cooking.obj
 0001:00005360       ??1PxBase@physx@@MAE@XZ    10006360 f i Cooking.obj
 0001:00005380       ??1PxConvexMesh@physx@@MAE@XZ 10006380 f i Cooking.obj
 0001:000053a0       ??1PxCooking@physx@@MAE@XZ 100063a0 f i Cooking.obj
 0001:000053c0       ??1PxHeightField@physx@@MAE@XZ 100063c0 f i Cooking.obj
 0001:000053e0       ??2@YAPAXIPAX@Z            100063e0 f i Cooking.obj
 0001:000053f0       ??2UserAllocated@shdfnd@physx@@SAPAXIPAX@Z 100063f0 f i Cooking.obj
 0001:00005400       ??4?$PxFlags@W4Enum@PxHeightFieldFlag@physx@@G@physx@@QAEAAV01@ABV01@@Z 10006400 f i Cooking.obj
 0001:00005420       ??4?$PxFlags@W4Enum@PxMeshPreprocessingFlag@physx@@I@physx@@QAEAAV01@ABV01@@Z 10006420 f i Cooking.obj
 0001:00005440       ??4CenterExtents@Gu@physx@@QAEAAV012@ABV012@@Z 10006440 f i Cooking.obj
 0001:00005470       ??4DebugText@Cm@physx@@QAEAAU012@$$QAU012@@Z 10006470 f i Cooking.obj
 0001:000054f0       ??4DebugText@Cm@physx@@QAEAAU012@ABU012@@Z 100064f0 f i Cooking.obj
 0001:00005570       ??4FPUGuard@shdfnd@physx@@QAEAAV012@ABV012@@Z 10006570 f i Cooking.obj
 0001:000055a0       ??4HeightFieldData@Gu@physx@@QAEAAU012@$$QAU012@@Z 100065a0 f i Cooking.obj
 0001:00005630       ??4HeightFieldData@Gu@physx@@QAEAAU012@ABU012@@Z 10006630 f i Cooking.obj
 0001:000056c0       ??4PxCookingParams@physx@@QAEAAU01@ABU01@@Z 100066c0 f i Cooking.obj
 0001:00005770       ??4PxVec3@physx@@QAEAAV01@ABV01@@Z 10006770 f i Cooking.obj
 0001:000057b0       ??9?$PxFlags@W4Enum@PxHeightFieldFlag@physx@@G@physx@@QBE_NABV01@@Z 100067b0 f i Cooking.obj
 0001:000057f0       ??B?$PxBitAndDataT@E$0IA@@physx@@QBEEXZ 100067f0 f i Cooking.obj
 0001:00005810       ??B?$PxBitAndDataT@G$0IAAA@@physx@@QBEGXZ 10006810 f i Cooking.obj
 0001:00005830       ??B?$PxFlags@W4Enum@PxBaseFlag@physx@@G@physx@@QBE_NXZ 10006830 f i Cooking.obj
 0001:00005860       ??B?$PxFlags@W4Enum@PxConvexFlag@physx@@G@physx@@QBE_NXZ 10006860 f i Cooking.obj
 0001:00005890       ??B?$PxFlags@W4Enum@PxMeshFlag@physx@@G@physx@@QBE_NXZ 10006890 f i Cooking.obj
 0001:000058c0       ??B?$PxFlags@W4Enum@PxMeshPreprocessingFlag@physx@@I@physx@@QBE_NXZ 100068c0 f i Cooking.obj
 0001:000058f0       ??I?$PxFlags@W4Enum@PxBaseFlag@physx@@G@physx@@QBE?AV01@W4Enum@PxBaseFlag@1@@Z 100068f0 f i Cooking.obj
 0001:00005930       ??I?$PxFlags@W4Enum@PxConvexFlag@physx@@G@physx@@QBE?AV01@W4Enum@PxConvexFlag@1@@Z 10006930 f i Cooking.obj
 0001:00005970       ??I?$PxFlags@W4Enum@PxHeightFieldFlag@physx@@G@physx@@QBE?AV01@W4Enum@PxHeightFieldFlag@1@@Z 10006970 f i Cooking.obj
 0001:000059b0       ??I?$PxFlags@W4Enum@PxMeshFlag@physx@@G@physx@@QBE?AV01@W4Enum@PxMeshFlag@1@@Z 100069b0 f i Cooking.obj
 0001:000059f0       ??I?$PxFlags@W4Enum@PxMeshPreprocessingFlag@physx@@I@physx@@QBE?AV01@W4Enum@PxMeshPreprocessingFlag@1@@Z 100069f0 f i Cooking.obj
 0001:00005a30       ??S?$PxFlags@W4Enum@PxConvexFlag@physx@@G@physx@@QBE?AV01@XZ 10006a30 f i Cooking.obj
 0001:00005a70       ??Sphysx@@YA?AV?$PxFlags@W4Enum@PxConvexFlag@physx@@G@0@W4Enum@PxConvexFlag@0@@Z 10006a70 f i Cooking.obj
 0001:00005aa0       ??_4?$PxFlags@W4Enum@PxConvexFlag@physx@@G@physx@@QAEAAV01@ABV01@@Z 10006aa0 f i Cooking.obj
 0001:00005ad0       ??_EPxConvexMesh@physx@@MAEPAXI@Z 10006ad0 f i Cooking.obj
 0001:00005b50       ??_EPxHeightField@physx@@MAEPAXI@Z 10006b50 f i Cooking.obj
 0001:00005bd0       ??_GCooking@physx@@UAEPAXI@Z 10006bd0 f i Cooking.obj
 0001:00005bd0       ??_ECooking@physx@@UAEPAXI@Z 10006bd0 f i Cooking.obj
 0001:00005c20       ??_GPxBase@physx@@MAEPAXI@Z 10006c20 f i Cooking.obj
 0001:00005c20       ??_EPxBase@physx@@MAEPAXI@Z 10006c20 f i Cooking.obj
 0001:00005c50       ??_GPxCooking@physx@@MAEPAXI@Z 10006c50 f i Cooking.obj
 0001:00005c50       ??_EPxCooking@physx@@MAEPAXI@Z 10006c50 f i Cooking.obj
 0001:00005c80       ?FLoad@aos@shdfnd@physx@@YA?AT__m128@@M@Z 10006c80 f i Cooking.obj
 0001:00005cc0       ?PxMemCopy@physx@@YAPAXPAXPBXI@Z 10006cc0 f i Cooking.obj
 0001:00005ce0       ?V3Load@aos@shdfnd@physx@@YA?AT__m128@@M@Z 10006ce0 f i Cooking.obj
 0001:00005d30       ?V4Load@aos@shdfnd@physx@@YA?AT__m128@@M@Z 10006d30 f i Cooking.obj
 0001:00005d70       ?allocate@?$Array@UPxDebugLine@physx@@VNamedAllocator@shdfnd@2@@shdfnd@physx@@IAEPAUPxDebugLine@3@I@Z 10006d70 f i Cooking.obj
 0001:00005de0       ?allocate@?$ReflectionAllocator@VCooking@physx@@@shdfnd@physx@@QAEPAXIPBDH@Z 10006de0 f i Cooking.obj
 0001:00005e30       ?allocate@?$ReflectionAllocator@VHeightField@Gu@physx@@@shdfnd@physx@@QAEPAXIPBDH@Z 10006e30 f i Cooking.obj
 0001:00005e80       ?allocate@?$ReflectionAllocator@VQuickHullConvexHullLib@physx@@@shdfnd@physx@@QAEPAXIPBDH@Z 10006e80 f i Cooking.obj
 0001:00005ed0       ?capacity@?$Array@UPxDebugLine@physx@@VNamedAllocator@shdfnd@2@@shdfnd@physx@@QBEIXZ 10006ed0 f i Cooking.obj
 0001:00005ef0       ?copy@?$Array@UPxDebugLine@physx@@VNamedAllocator@shdfnd@2@@shdfnd@physx@@KAXPAUPxDebugLine@3@0PBU43@@Z 10006ef0 f i Cooking.obj
 0001:00005f40       ?deallocate@?$Array@UPxDebugLine@physx@@VNamedAllocator@shdfnd@2@@shdfnd@physx@@IAEXPAX@Z 10006f40 f i Cooking.obj
 0001:00005f60       ?destroy@?$Array@UPxDebugLine@physx@@VNamedAllocator@shdfnd@2@@shdfnd@physx@@KAXPAUPxDebugLine@3@0@Z 10006f60 f i Cooking.obj
 0001:00005f80       ?end@?$Array@UPxDebugLine@physx@@VNamedAllocator@shdfnd@2@@shdfnd@physx@@QAEPAUPxDebugLine@3@XZ 10006f80 f i Cooking.obj
 0001:00005fa0       ?forceSize_Unsafe@?$Array@UPxDebugLine@physx@@VNamedAllocator@shdfnd@2@@shdfnd@physx@@QAEXI@Z 10006fa0 f i Cooking.obj
 0001:00006000       ?fsel@intrinsics@physx@@YAMMMM@Z 10007000 f i Cooking.obj
 0001:00006030       ?gatherStrided@Cooking@physx@@SAXPBXPAXIII@Z 10007030 f i Cooking.obj
 0001:00006090       ?getConcreteTypeName@PxConvexMesh@physx@@UBEPBDXZ 10007090 f i Cooking.obj
 0001:000060a0       ?getConcreteTypeName@PxHeightField@physx@@UBEPBDXZ 100070a0 f i Cooking.obj
 0001:000060b0       ?getConvexEdgeThreshold@HeightField@Gu@physx@@UBEMXZ 100070b0 f i Cooking.obj
 0001:000060d0       ?getFlags@HeightField@Gu@physx@@UBE?AV?$PxFlags@W4Enum@PxHeightFieldFlag@physx@@G@3@XZ 100070d0 f i Cooking.obj
 0001:000060f0       ?getFormat@HeightField@Gu@physx@@UBE?AW4Enum@PxHeightFieldFormat@3@XZ 100070f0 f i Cooking.obj
 0001:00006110       ?getHeight@HeightField@Gu@physx@@QBEMI@Z 10007110 f i Cooking.obj
 0001:00006140       ?getHeight@HeightField@Gu@physx@@UBEMMM@Z 10007140 f i Cooking.obj
 0001:00006170       ?getHeightInternal2@HeightField@Gu@physx@@QBEMIMM@Z 10007170 f i Cooking.obj
 0001:00006340       ?getHeightInternal@HeightField@Gu@physx@@QBEMMM@Z 10007340 f i Cooking.obj
 0001:000063a0       ?getHullVertices@ConvexHullData@Gu@physx@@QBEPBVPxVec3@3@XZ 100073a0 f i Cooking.obj
 0001:000063d0       ?getIndexBuffer@ConvexMesh@Gu@physx@@UBEPBEXZ 100073d0 f i Cooking.obj
 0001:000063f0       ?getMaterialIndex0@HeightField@Gu@physx@@QBEGI@Z 100073f0 f i Cooking.obj
 0001:00006420       ?getMaterialIndex1@HeightField@Gu@physx@@QBEGI@Z 10007420 f i Cooking.obj
 0001:00006450       ?getMeshData@TriangleMeshBuilder@physx@@QAEAAVTriangleMeshData@Gu@2@XZ 10007450 f i Cooking.obj
 0001:00006470       ?getName@?$ReflectionAllocator@VCooking@physx@@@shdfnd@physx@@CAPBDXZ 10007470 f i Cooking.obj
 0001:000064b0       ?getName@?$ReflectionAllocator@VHeightField@Gu@physx@@@shdfnd@physx@@CAPBDXZ 100074b0 f i Cooking.obj
 0001:000064f0       ?getName@?$ReflectionAllocator@VQuickHullConvexHullLib@physx@@@shdfnd@physx@@CAPBDXZ 100074f0 f i Cooking.obj
 0001:00006530       ?getNbColumns@HeightField@Gu@physx@@UBEIXZ 10007530 f i Cooking.obj
 0001:00006550       ?getNbColumnsFast@HeightField@Gu@physx@@QBEIXZ 10007550 f i Cooking.obj
 0001:00006570       ?getNbPolygons@ConvexMesh@Gu@physx@@UBEIXZ 10007570 f i Cooking.obj
 0001:00006590       ?getNbRows@HeightField@Gu@physx@@UBEIXZ 10007590 f i Cooking.obj
 0001:000065b0       ?getNbVertices@ConvexMesh@Gu@physx@@UBEIXZ 100075b0 f i Cooking.obj
 0001:000065d0       ?getPaddedBounds@HeightFieldData@Gu@physx@@QBEABVCenterExtentsPadded@23@XZ 100075d0 f i Cooking.obj
 0001:000065e0       ?getSample@HeightField@Gu@physx@@QBEABUPxHeightFieldSample@3@I@Z 100075e0 f i Cooking.obj
 0001:00006650       ?getSample@HeightField@Gu@physx@@UBEABUPxHeightFieldSample@3@II@Z 10007650 f i Cooking.obj
 0001:00006680       ?getSampleStride@HeightField@Gu@physx@@UBEIXZ 10007680 f i Cooking.obj
 0001:00006690       ?getTimestamp@HeightField@Gu@physx@@UBEIXZ 10007690 f i Cooking.obj
 0001:000066b0       ?getTriangleMaterial@HeightField@Gu@physx@@QBEGI@Z 100076b0 f i Cooking.obj
 0001:00006700       ?getTriangleMaterialIndex@HeightField@Gu@physx@@UBEGI@Z 10007700 f i Cooking.obj
 0001:00006720       ?getTriangleNormal@HeightField@Gu@physx@@UBE?AVPxVec3@3@I@Z 10007720 f i Cooking.obj
 0001:00006740       ?getTriangleNormalInternal@HeightField@Gu@physx@@QBE?AVPxVec3@3@I@Z 10007740 f i Cooking.obj
 0001:00006930       ?getTriangleVertexIndices@HeightField@Gu@physx@@QBEXIAAI00@Z 10007930 f i Cooking.obj
 0001:00006a20       ?getType@PxMidphaseDesc@physx@@QBE?AW4Enum@PxMeshMidPhase@2@XZ 10007a20 f i Cooking.obj
 0001:00006a40       ?getVertexData8@ConvexHullData@Gu@physx@@QBEPBEXZ 10007a40 f i Cooking.obj
 0001:00006ad0       ?getVertices@ConvexMesh@Gu@physx@@UBEPBVPxVec3@3@XZ 10007ad0 f i Cooking.obj
 0001:00006af0       ?grow@?$Array@UPxDebugLine@physx@@VNamedAllocator@shdfnd@2@@shdfnd@physx@@IAEXI@Z 10007af0 f i Cooking.obj
 0001:00006b50       ?isBitSet@?$PxBitAndDataT@E$0IA@@physx@@QBEEXZ 10007b50 f i Cooking.obj
 0001:00006b70       ?isBitSet@?$PxBitAndDataT@G$0IAAA@@physx@@QBEGXZ 10007b70 f i Cooking.obj
 0001:00006b90       ?isFirstTriangle@HeightField@Gu@physx@@QBE_NI@Z 10007b90 f i Cooking.obj
 0001:00006bc0       ?isInUserMemory@?$Array@UPxDebugLine@physx@@VNamedAllocator@shdfnd@2@@shdfnd@physx@@QBEIXZ 10007bc0 f i Cooking.obj
 0001:00006be0       ?isKindOf@PxBase@physx@@MBE_NPBD@Z 10007be0 f i Cooking.obj
 0001:00006c20       ?isKindOf@PxConvexMesh@physx@@MBE_NPBD@Z 10007c20 f i Cooking.obj
 0001:00006c70       ?isKindOf@PxHeightField@physx@@MBE_NPBD@Z 10007c70 f i Cooking.obj
 0001:00006cc0       ?isReleasable@PxBase@physx@@UBE_NXZ 10007cc0 f i Cooking.obj
 0001:00006cf0       ?isValid@PxBVHStructureDesc@physx@@QBE_NXZ 10007cf0 f i Cooking.obj
 0001:00006d30       ?isValid@PxConvexMeshDesc@physx@@QBE_NXZ 10007d30 f i Cooking.obj
 0001:00006ed0       ?isValid@PxHeightFieldDesc@physx@@QBE_NXZ 10007ed0 f i Cooking.obj
 0001:00006f50       ?isValid@PxSimpleTriangleMesh@physx@@QBE_NXZ 10007f50 f i Cooking.obj
 0001:00007000       ?isValid@PxTriangleMeshDesc@physx@@QBE_NXZ 10008000 f i Cooking.obj
 0001:00007060       ?isValidVertex@HeightField@Gu@physx@@QBE_NI@Z 10008060 f i Cooking.obj
 0001:000070a0       ?isZerothVertexShared@HeightField@Gu@physx@@QBE_NI@Z 100080a0 f i Cooking.obj
 0001:000070e0       ?littleEndian@shdfnd@physx@@YADXZ 100080e0 f i Cooking.obj
 0001:00007100       ?markSerializedMem@Cm@physx@@YAXPAXI@Z 10008100 f i Cooking.obj
 0001:00007130       ?memCopy@intrinsics@physx@@YAPAXPAXPBXI@Z 10008130 f i Cooking.obj
 0001:00007150       ?outputSegment@RenderOutput@Cm@physx@@QAEXABVPxVec3@3@0@Z 10008150 f i Cooking.obj
 0001:000071a0       ?preExportDataReset@ConvexMesh@Gu@physx@@QAEXXZ 100081a0 f i Cooking.obj
 0001:000071c0       ?preExportDataReset@HeightField@Gu@physx@@QAEXXZ 100081c0 f i Cooking.obj
 0001:000071e0       ?preExportDataReset@RefCountable@Cm@physx@@QAEXXZ 100081e0 f i Cooking.obj
 0001:00007200       ?recreate@?$Array@UPxDebugLine@physx@@VNamedAllocator@shdfnd@2@@shdfnd@physx@@IAEXI@Z 10008200 f i Cooking.obj
 0001:000072d0       ?reserve@?$Array@UPxDebugLine@physx@@VNamedAllocator@shdfnd@2@@shdfnd@physx@@QAEXI@Z 100082d0 f i Cooking.obj
 0001:00007300       ?reserveSegments@RenderOutput@Cm@physx@@QAEPAUPxDebugLine@3@I@Z 10008300 f i Cooking.obj
 0001:00007330       ?size@?$Array@UPxDebugLine@physx@@VNamedAllocator@shdfnd@2@@shdfnd@physx@@QBEIXZ 10008330 f i Cooking.obj
 0001:00007350       ?tessFlag@PxHeightFieldSample@physx@@QBEEXZ 10008350 f i Cooking.obj
 0001:00007390       ??0ReducedVertexCloud@physx@@QAE@PBVPxVec3@1@I@Z 10008390 f   CookingUtils.obj
 0001:000073d0       ??1ReducedVertexCloud@physx@@QAE@XZ 100083d0 f   CookingUtils.obj
 0001:000073f0       ?Clean@ReducedVertexCloud@physx@@QAEAAV12@XZ 100083f0 f   CookingUtils.obj
 0001:00007450       ?Reduce@ReducedVertexCloud@physx@@QAE_NPAUREDUCEDCLOUD@2@@Z 10008450 f   CookingUtils.obj
 0001:00007770       ??$?_UM@@YAPAXIV?$ReflectionAllocator@M@shdfnd@physx@@PBDH@Z 10008770 f i CookingUtils.obj
 0001:00007790       ??0?$ReflectionAllocator@M@shdfnd@physx@@QAE@PBD@Z 10008790 f i CookingUtils.obj
 0001:000077a0       ?allocate@?$ReflectionAllocator@M@shdfnd@physx@@QAEPAXIPBDH@Z 100087a0 f i CookingUtils.obj
 0001:000077f0       ?getName@?$ReflectionAllocator@M@shdfnd@physx@@CAPBDXZ 100087f0 f i CookingUtils.obj
 0001:00007830       ??0EdgeList@Gu@physx@@QAE@XZ 10008830 f   EdgeList.obj
 0001:00007870       ??1EdgeList@Gu@physx@@QAE@XZ 10008870 f   EdgeList.obj
 0001:00007910       ?load@EdgeList@Gu@physx@@QAE_NAAVPxInputStream@3@@Z 10008910 f   EdgeList.obj
 0001:00007ad0       ??0EdgeListBuilder@Gu@physx@@QAE@XZ 10008ad0 f   EdgeList.obj
 0001:00007af0       ??1EdgeListBuilder@Gu@physx@@QAE@XZ 10008af0 f   EdgeList.obj
 0001:00007b10       ?init@EdgeListBuilder@Gu@physx@@QAE_NABUEDGELISTCREATE@23@@Z 10008b10 f   EdgeList.obj
 0001:00007c90       ?createFacesToEdges@EdgeListBuilder@Gu@physx@@AAE_NIPBIPBG@Z 10008c90 f   EdgeList.obj
 0001:00008170       ?createEdgesToFaces@EdgeListBuilder@Gu@physx@@AAE_NIPBIPBG@Z 10009170 f   EdgeList.obj
 0001:00008570       ?computeActiveEdges@EdgeListBuilder@Gu@physx@@AAE_NIPBIPBGPBVPxVec3@3@M@Z 10009570 f   EdgeList.obj
 0001:00009800       ??$?_UUEdgeData@Gu@physx@@@@YAPAXIV?$ReflectionAllocator@UEdgeData@Gu@physx@@@shdfnd@physx@@PBDH@Z 1000a800 f i EdgeList.obj
 0001:00009820       ??$?_UUEdgeTriangleData@Gu@physx@@@@YAPAXIV?$ReflectionAllocator@UEdgeTriangleData@Gu@physx@@@shdfnd@physx@@PBDH@Z 1000a820 f i EdgeList.obj
 0001:00009840       ??0?$ReflectionAllocator@UEdgeData@Gu@physx@@@shdfnd@physx@@QAE@PBD@Z 1000a840 f i EdgeList.obj
 0001:00009850       ??0?$ReflectionAllocator@UEdgeTriangleData@Gu@physx@@@shdfnd@physx@@QAE@PBD@Z 1000a850 f i EdgeList.obj
 0001:00009860       ??0PxPlane@physx@@QAE@ABVPxVec3@1@00@Z 1000a860 f i EdgeList.obj
 0001:000098e0       ??0PxTriangle@physx@@QAE@ABVPxVec3@1@00@Z 1000a8e0 f i EdgeList.obj
 0001:00009940       ??1PxTriangle@physx@@QAE@XZ 1000a940 f i EdgeList.obj
 0001:00009950       ??DPxVec3@physx@@QBE?AV01@M@Z 1000a950 f i EdgeList.obj
 0001:000099a0       ??GPxVec3@physx@@QBE?AV01@ABV01@@Z 1000a9a0 f i EdgeList.obj
 0001:00009a00       ??_0PxVec3@physx@@QAEAAV01@M@Z 1000aa00 f i EdgeList.obj
 0001:00009a60       ?PxAtan2@physx@@YAMMM@Z    1000aa60 f i EdgeList.obj
 0001:00009a90       ?PxRecipSqrt@physx@@YAMM@Z 1000aa90 f i EdgeList.obj
 0001:00009ab0       ?PxSqrt@physx@@YAMM@Z      1000aab0 f i EdgeList.obj
 0001:00009ad0       ?allocate@?$ReflectionAllocator@UEdgeData@Gu@physx@@@shdfnd@physx@@QAEPAXIPBDH@Z 1000aad0 f i EdgeList.obj
 0001:00009b20       ?allocate@?$ReflectionAllocator@UEdgeTriangleData@Gu@physx@@@shdfnd@physx@@QAEPAXIPBDH@Z 1000ab20 f i EdgeList.obj
 0001:00009b70       ?angle@shdfnd@physx@@YAMABVPxVec3@2@0@Z 1000ab70 f i EdgeList.obj
 0001:00009bd0       ?cross@PxVec3@physx@@QBE?AV12@ABV12@@Z 1000abd0 f i EdgeList.obj
 0001:00009c70       ?distance@PxPlane@physx@@QBEMABVPxVec3@2@@Z 1000ac70 f i EdgeList.obj
 0001:00009cb0       ?dot@PxVec3@physx@@QBEMABV12@@Z 1000acb0 f i EdgeList.obj
 0001:00009d00       ?getEdgeToTriangles@EdgeList@Gu@physx@@QBEPBUEdgeDescData@23@XZ 1000ad00 f i EdgeList.obj
 0001:00009d20       ?getEdges@EdgeList@Gu@physx@@QBEPBUEdgeData@23@XZ 1000ad20 f i EdgeList.obj
 0001:00009d40       ?getFacesByEdges@EdgeList@Gu@physx@@QBEPBIXZ 1000ad40 f i EdgeList.obj
 0001:00009d60       ?getName@?$ReflectionAllocator@UEdgeData@Gu@physx@@@shdfnd@physx@@CAPBDXZ 1000ad60 f i EdgeList.obj
 0001:00009da0       ?getName@?$ReflectionAllocator@UEdgeTriangleData@Gu@physx@@@shdfnd@physx@@CAPBDXZ 1000ada0 f i EdgeList.obj
 0001:00009de0       ?getNbEdges@EdgeList@Gu@physx@@QBEIXZ 1000ade0 f i EdgeList.obj
 0001:00009df0       ?getNormalized@PxVec3@physx@@QBE?AV12@XZ 1000adf0 f i EdgeList.obj
 0001:00009e80       ?magnitude@PxVec3@physx@@QBEMXZ 1000ae80 f i EdgeList.obj
 0001:00009ea0       ?magnitudeSquared@PxVec3@physx@@QBEMXZ 1000aea0 f i EdgeList.obj
 0001:00009ef0       ?normal@PxTriangle@physx@@QBEXAAVPxVec3@2@@Z 1000aef0 f i EdgeList.obj
 0001:00009f60       ?normalize@PxVec3@physx@@QAEMXZ 1000af60 f i EdgeList.obj
 0001:00009fa0       ?recipSqrt@intrinsics@physx@@YAMM@Z 1000afa0 f i EdgeList.obj
 0001:00009fe0       ?sqrt@intrinsics@physx@@YAMM@Z 1000afe0 f i EdgeList.obj
 0001:0000a000       _atan2f                    1000b000 f i EdgeList.obj
 0001:0000a030       _fabsf                     1000b030 f i EdgeList.obj
 0001:0000a060       _sqrtf                     1000b060 f i EdgeList.obj
 0001:0000a090       ??0MeshCleaner@physx@@QAE@IPBVPxVec3@1@IPBIM@Z 1000b090 f   MeshCleaner.obj
 0001:0000a8c0       ??1MeshCleaner@physx@@QAE@XZ 1000b8c0 f   MeshCleaner.obj
 0001:0000aaf0       ??9Indices@@QBE_NABU0@@Z   1000baf0 f i MeshCleaner.obj
 0001:0000ab70       ??9PxVec3@physx@@QBE_NABV01@@Z 1000bb70 f i MeshCleaner.obj
 0001:0000abd0       ?PxFloor@physx@@YAMM@Z     1000bbd0 f i MeshCleaner.obj
 0001:0000abf0       ?nextPowerOfTwo@shdfnd@physx@@YAII@Z 1000bbf0 f i MeshCleaner.obj
 0001:0000ac40       _floorf                    1000bc40 f i MeshCleaner.obj
 0001:0000ac70       ?createQuantizer@physx@@YAPAVQuantizer@1@XZ 1000bc70 f   Quantizer.obj
 0001:0000acd0       ?kmeans_cluster3d@@YAIPBVPxVec3@physx@@IIPAV12@PAIMM@Z 1000bcd0 f   Quantizer.obj
 0001:0000ad10       ??$?2V?$ReflectionAllocator@VQuantizerImpl@@@shdfnd@physx@@@UserAllocated@shdfnd@physx@@SAPAXIV?$ReflectionAllocator@VQuantizerImpl@@@12@PBDH@Z 1000bd10 f i Quantizer.obj
 0001:0000ad30       ??$PX_UNUSED@W4PxZERO@physx@@@@YAXABW4PxZERO@physx@@@Z 1000bd30 f i Quantizer.obj
 0001:0000ad40       ??$PxMax@M@physx@@YAMMM@Z  1000bd40 f i Quantizer.obj
 0001:0000ad70       ??$PxMin@M@physx@@YAMMM@Z  1000bd70 f i Quantizer.obj
 0001:0000ada0       ??$kmeans_cluster@VPxVec3@physx@@M@@YAIPBVPxVec3@physx@@IIPAV01@PAIMM@Z 1000bda0 f i Quantizer.obj
 0001:0000b260       ??0?$Array@VPxVec3@physx@@VNamedAllocator@shdfnd@2@@shdfnd@physx@@QAE@ABVNamedAllocator@12@@Z 1000c260 f i Quantizer.obj
 0001:0000b2a0       ??0?$ReflectionAllocator@VQuantizerImpl@@@shdfnd@physx@@QAE@PBD@Z 1000c2a0 f i Quantizer.obj
 0001:0000b2b0       ??0PxBounds3@physx@@QAE@XZ 1000c2b0 f i Quantizer.obj
 0001:0000b2e0       ??0PxVec3@physx@@QAE@W4PxZERO@1@@Z 1000c2e0 f i Quantizer.obj
 0001:0000b320       ??0Quantizer@physx@@QAE@XZ 1000c320 f i Quantizer.obj
 0001:0000b340       ??0QuantizerImpl@@QAE@XZ   1000c340 f i Quantizer.obj
 0001:0000b420       ??1?$Array@VPxVec3@physx@@VNamedAllocator@shdfnd@2@@shdfnd@physx@@QAE@XZ 1000c420 f i Quantizer.obj
 0001:0000b480       ??1Quantizer@physx@@MAE@XZ 1000c480 f i Quantizer.obj
 0001:0000b4a0       ??1QuantizerImpl@@EAE@XZ   1000c4a0 f i Quantizer.obj
 0001:0000b4e0       ??A?$Array@VPxVec3@physx@@VNamedAllocator@shdfnd@2@@shdfnd@physx@@QAEAAVPxVec3@2@I@Z 1000c4e0 f i Quantizer.obj
 0001:0000b540       ??APxVec3@physx@@QAEAAMI@Z 1000c540 f i Quantizer.obj
 0001:0000b570       ??HPxVec3@physx@@QBE?AV01@ABV01@@Z 1000c570 f i Quantizer.obj
 0001:0000b5d0       ??XPxVec3@physx@@QAEAAV01@M@Z 1000c5d0 f i Quantizer.obj
 0001:0000b620       ??YPxVec3@physx@@QAEAAV01@ABV01@@Z 1000c620 f i Quantizer.obj
 0001:0000b680       ??_EQuantizer@physx@@MAEPAXI@Z 1000c680 f i Quantizer.obj
 0001:0000b680       ??_GQuantizer@physx@@MAEPAXI@Z 1000c680 f i Quantizer.obj
 0001:0000b6b0       ??_EQuantizerImpl@@EAEPAXI@Z 1000c6b0 f i Quantizer.obj
 0001:0000b6b0       ??_GQuantizerImpl@@EAEPAXI@Z 1000c6b0 f i Quantizer.obj
 0001:0000b700       ?PxAbs@physx@@YAMM@Z       1000c700 f i Quantizer.obj
 0001:0000b720       ?PxIsFinite@physx@@YA_NM@Z 1000c720 f i Quantizer.obj
 0001:0000b740       ?abs@intrinsics@physx@@YAMM@Z 1000c740 f i Quantizer.obj
 0001:0000b760       ?allocate@?$Array@VPxVec3@physx@@VNamedAllocator@shdfnd@2@@shdfnd@physx@@IAEPAVPxVec3@3@I@Z 1000c760 f i Quantizer.obj
 0001:0000b7d0       ?allocate@?$ReflectionAllocator@VQuantizerImpl@@@shdfnd@physx@@QAEPAXIPBDH@Z 1000c7d0 f i Quantizer.obj
 0001:0000b820       ?capacity@?$Array@VPxVec3@physx@@VNamedAllocator@shdfnd@2@@shdfnd@physx@@QBEIXZ 1000c820 f i Quantizer.obj
 0001:0000b840       ?capacityIncrement@?$Array@VPxVec3@physx@@VNamedAllocator@shdfnd@2@@shdfnd@physx@@IBEIXZ 1000c840 f i Quantizer.obj
 0001:0000b880       ?clear@?$Array@VPxVec3@physx@@VNamedAllocator@shdfnd@2@@shdfnd@physx@@QAEXXZ 1000c880 f i Quantizer.obj
 0001:0000b8b0       ?copy@?$Array@VPxVec3@physx@@VNamedAllocator@shdfnd@2@@shdfnd@physx@@KAXPAVPxVec3@3@0PBV43@@Z 1000c8b0 f i Quantizer.obj
 0001:0000b900       ?deallocate@?$Array@VPxVec3@physx@@VNamedAllocator@shdfnd@2@@shdfnd@physx@@IAEXPAX@Z 1000c900 f i Quantizer.obj
 0001:0000b920       ?destroy@?$Array@VPxVec3@physx@@VNamedAllocator@shdfnd@2@@shdfnd@physx@@KAXPAVPxVec3@3@0@Z 1000c920 f i Quantizer.obj
 0001:0000b940       ?getCenter@PxBounds3@physx@@QBE?AVPxVec3@2@XZ 1000c940 f i Quantizer.obj
 0001:0000b9b0       ?getDenormalizeCenter@QuantizerImpl@@UBEABVPxVec3@physx@@XZ 1000c9b0 f i Quantizer.obj
 0001:0000b9d0       ?getDenormalizeScale@QuantizerImpl@@UBEABVPxVec3@physx@@XZ 1000c9d0 f i Quantizer.obj
 0001:0000b9f0       ?getDimensions@PxBounds3@physx@@QBE?AVPxVec3@2@XZ 1000c9f0 f i Quantizer.obj
 0001:0000ba40       ?getName@?$ReflectionAllocator@VQuantizerImpl@@@shdfnd@physx@@CAPBDXZ 1000ca40 f i Quantizer.obj
 0001:0000ba80       ?growAndPushBack@?$Array@VPxVec3@physx@@VNamedAllocator@shdfnd@2@@shdfnd@physx@@IAEAAVPxVec3@3@ABV43@@Z 1000ca80 f i Quantizer.obj
 0001:0000bba0       ?include@PxBounds3@physx@@QAEXABVPxVec3@2@@Z 1000cba0 f i Quantizer.obj
 0001:0000bc10       ?isFinite@PxBounds3@physx@@QBE_NXZ 1000cc10 f i Quantizer.obj
 0001:0000bc60       ?isFinite@PxVec3@physx@@QBE_NXZ 1000cc60 f i Quantizer.obj
 0001:0000bce0       ?isFinite@intrinsics@physx@@YA_NM@Z 1000cce0 f i Quantizer.obj
 0001:0000bd20       ?isInUserMemory@?$Array@VPxVec3@physx@@VNamedAllocator@shdfnd@2@@shdfnd@physx@@QBEIXZ 1000cd20 f i Quantizer.obj
 0001:0000bd40       ?isValid@PxBounds3@physx@@QBE_NXZ 1000cd40 f i Quantizer.obj
 0001:0000be30       ?kmeansQuantize3D@QuantizerImpl@@UAEPBVPxVec3@physx@@IPBV23@I_NIAAI@Z 1000ce30 f i Quantizer.obj
 0001:0000c020       ?maximum@PxVec3@physx@@QBE?AV12@ABV12@@Z 1000d020 f i Quantizer.obj
 0001:0000c0b0       ?minimum@PxVec3@physx@@QBE?AV12@ABV12@@Z 1000d0b0 f i Quantizer.obj
 0001:0000c140       ?multiply@PxVec3@physx@@QBE?AV12@ABV12@@Z 1000d140 f i Quantizer.obj
 0001:0000c1a0       ?normalizeInput@QuantizerImpl@@AAEXIPBVPxVec3@physx@@I@Z 1000d1a0 f i Quantizer.obj
 0001:0000c390       ?pushBack@?$Array@VPxVec3@physx@@VNamedAllocator@shdfnd@2@@shdfnd@physx@@QAEAAVPxVec3@3@ABV43@@Z 1000d390 f i Quantizer.obj
 0001:0000c410       ?release@QuantizerImpl@@UAEXXZ 1000d410 f i Quantizer.obj
 0001:0000c450       ?selectMax@intrinsics@physx@@YAMMM@Z 1000d450 f i Quantizer.obj
 0001:0000c480       ?selectMin@intrinsics@physx@@YAMMM@Z 1000d480 f i Quantizer.obj
 0001:0000c4b0       ?setEmpty@PxBounds3@physx@@QAEXXZ 1000d4b0 f i Quantizer.obj
 0001:0000c500       ??0BVHStructureBuilder@physx@@QAE@XZ 1000d500 f   BVHStructureBuilder.obj
 0001:0000c540       ??1BVHStructureBuilder@physx@@QAE@XZ 1000d540 f   BVHStructureBuilder.obj
 0001:0000c5c0       ?loadFromDesc@BVHStructureBuilder@physx@@QAE_NABVPxBVHStructureDesc@2@@Z 1000d5c0 f   BVHStructureBuilder.obj
 0001:0000c7f0       ?save@BVHStructureBuilder@physx@@QBE_NAAVPxOutputStream@2@_N@Z 1000d7f0 f   BVHStructureBuilder.obj
 0001:0000c980       ?moveData@BVHStructureBuilder@physx@@QAEXAAUBVHStructureData@Gu@2@@Z 1000d980 f   BVHStructureBuilder.obj
 0001:0000ca00       ?flatten@@YAXABVNodeAllocator@Gu@physx@@PAUBVHNode@23@@Z 1000da00 f   BVHStructureBuilder.obj
 0001:0000cc50       ??$?4VNamedAllocator@shdfnd@physx@@@?$Array@USlab@NodeAllocator@Gu@physx@@VNamedAllocator@shdfnd@4@@shdfnd@physx@@QAEAAV012@ABV012@@Z 1000dc50 f i BVHStructureBuilder.obj
 0001:0000ccc0       ??$PX_UNUSED@_N@@YAXAB_N@Z 1000dcc0 f i BVHStructureBuilder.obj
 0001:0000ccd0       ??$copy@VNamedAllocator@shdfnd@physx@@@?$Array@USlab@NodeAllocator@Gu@physx@@VNamedAllocator@shdfnd@4@@shdfnd@physx@@IAEXABV012@@Z 1000dcd0 f i BVHStructureBuilder.obj
 0001:0000cd60       ??0?$Array@USlab@NodeAllocator@Gu@physx@@VNamedAllocator@shdfnd@4@@shdfnd@physx@@QAE@ABV012@ABVNamedAllocator@12@@Z 1000dd60 f i BVHStructureBuilder.obj
 0001:0000cd90       ??0AABBTreeBuildNode@Gu@physx@@QAE@ABV012@@Z 1000dd90 f i BVHStructureBuilder.obj
 0001:0000cdd0       ??0AABBTreeBuildNode@Gu@physx@@QAE@XZ 1000ddd0 f i BVHStructureBuilder.obj
 0001:0000cdf0       ??0AABBTreeBuildParams@Gu@physx@@QAE@IIPBVPxBounds3@2@@Z 1000ddf0 f i BVHStructureBuilder.obj
 0001:0000ce30       ??0BuildStats@Gu@physx@@QAE@XZ 1000de30 f i BVHStructureBuilder.obj
 0001:0000ce60       ??0NodeAllocator@Gu@physx@@QAE@ABV012@@Z 1000de60 f i BVHStructureBuilder.obj
 0001:0000cec0       ??0PxBounds3@physx@@QAE@ABV01@@Z 1000dec0 f i BVHStructureBuilder.obj
 0001:0000cef0       ??0PxVec4@physx@@QAE@XZ    1000def0 f i BVHStructureBuilder.obj
 0001:0000cf00       ??1AABBTreeBuildNode@Gu@physx@@QAE@XZ 1000df00 f i BVHStructureBuilder.obj
 0001:0000cf10       ??1AABBTreeBuildParams@Gu@physx@@QAE@XZ 1000df10 f i BVHStructureBuilder.obj
 0001:0000cf30       ??4?$Array@USlab@NodeAllocator@Gu@physx@@VNamedAllocator@shdfnd@4@@shdfnd@physx@@QAEAAV012@ABV012@@Z 1000df30 f i BVHStructureBuilder.obj
 0001:0000cf50       ??4AABBTreeBuildNode@Gu@physx@@QAEAAV012@ABV012@@Z 1000df50 f i BVHStructureBuilder.obj
 0001:0000cf90       ??4AABBTreeBuildParams@Gu@physx@@QAEAAV012@ABV012@@Z 1000df90 f i BVHStructureBuilder.obj
 0001:0000cfc0       ??4BuildStats@Gu@physx@@QAEAAU012@$$QAU012@@Z 1000dfc0 f i BVHStructureBuilder.obj
 0001:0000cff0       ??4BuildStats@Gu@physx@@QAEAAU012@ABU012@@Z 1000dff0 f i BVHStructureBuilder.obj
 0001:0000d010       ??4NodeAllocator@Gu@physx@@QAEAAV012@ABV012@@Z 1000e010 f i BVHStructureBuilder.obj
 0001:0000d060       ??4PxBounds3@physx@@QAEAAV01@ABV01@@Z 1000e060 f i BVHStructureBuilder.obj
 0001:0000d090       ??A?$Array@USlab@NodeAllocator@Gu@physx@@VNamedAllocator@shdfnd@4@@shdfnd@physx@@QBEABUSlab@NodeAllocator@Gu@2@I@Z 1000e090 f i BVHStructureBuilder.obj
 0001:0000d0f0       ??_FAABBTreeBuildParams@Gu@physx@@QAEXXZ 1000e0f0 f i BVHStructureBuilder.obj
 0001:0000d110       ?V4Add@aos@shdfnd@physx@@YA?AT__m128@@T4@0@Z 1000e110 f i BVHStructureBuilder.obj
 0001:0000d150       ?V4LoadU@aos@shdfnd@physx@@YA?AT__m128@@QBM@Z 1000e150 f i BVHStructureBuilder.obj
 0001:0000d180       ?V4Scale@aos@shdfnd@physx@@YA?AT__m128@@T4@0@Z 1000e180 f i BVHStructureBuilder.obj
 0001:0000d1c0       ?V4StoreA@aos@shdfnd@physx@@YAXT__m128@@PAM@Z 1000e1c0 f i BVHStructureBuilder.obj
 0001:0000d240       ?V4StoreU@aos@shdfnd@physx@@YAXT__m128@@PAM@Z 1000e240 f i BVHStructureBuilder.obj
 0001:0000d270       ?V4Sub@aos@shdfnd@physx@@YA?AT__m128@@T4@0@Z 1000e270 f i BVHStructureBuilder.obj
 0001:0000d2b0       ?__global_array_delete@@YAXPAX@Z 1000e2b0 f i BVHStructureBuilder.obj
 0001:0000d2d0       ?__global_array_delete@@YAXPAXI@Z 1000e2d0 f i BVHStructureBuilder.obj
 0001:0000d2f0       ?__global_delete@@YAXPAX@Z 1000e2f0 f i BVHStructureBuilder.obj
 0001:0000d310       ?__global_delete@@YAXPAXI@Z 1000e310 f i BVHStructureBuilder.obj
 0001:0000d330       ?allocate@?$Array@USlab@NodeAllocator@Gu@physx@@VNamedAllocator@shdfnd@4@@shdfnd@physx@@IAEPAUSlab@NodeAllocator@Gu@3@I@Z 1000e330 f i BVHStructureBuilder.obj
 0001:0000d3a0       ?begin@?$Array@USlab@NodeAllocator@Gu@physx@@VNamedAllocator@shdfnd@4@@shdfnd@physx@@QBEPBUSlab@NodeAllocator@Gu@3@XZ 1000e3a0 f i BVHStructureBuilder.obj
 0001:0000d3b0       ?capacity@?$Array@USlab@NodeAllocator@Gu@physx@@VNamedAllocator@shdfnd@4@@shdfnd@physx@@QBEIXZ 1000e3b0 f i BVHStructureBuilder.obj
 0001:0000d3d0       ?clear@?$Array@USlab@NodeAllocator@Gu@physx@@VNamedAllocator@shdfnd@4@@shdfnd@physx@@QAEXXZ 1000e3d0 f i BVHStructureBuilder.obj
 0001:0000d400       ?copy@?$Array@USlab@NodeAllocator@Gu@physx@@VNamedAllocator@shdfnd@4@@shdfnd@physx@@KAXPAUSlab@NodeAllocator@Gu@3@0PBU4563@@Z 1000e400 f i BVHStructureBuilder.obj
 0001:0000d460       ?deallocate@?$Array@USlab@NodeAllocator@Gu@physx@@VNamedAllocator@shdfnd@4@@shdfnd@physx@@IAEXPAX@Z 1000e460 f i BVHStructureBuilder.obj
 0001:0000d480       ?destroy@?$Array@USlab@NodeAllocator@Gu@physx@@VNamedAllocator@shdfnd@4@@shdfnd@physx@@KAXPAUSlab@NodeAllocator@Gu@3@0@Z 1000e480 f i BVHStructureBuilder.obj
 0001:0000d4a0       ?empty@?$Array@USlab@NodeAllocator@Gu@physx@@VNamedAllocator@shdfnd@4@@shdfnd@physx@@QBE_NXZ 1000e4a0 f i BVHStructureBuilder.obj
 0001:0000d4d0       ?getAABB@AABBTreeBuildNode@Gu@physx@@QBEABVPxBounds3@3@XZ 1000e4d0 f i BVHStructureBuilder.obj
 0001:0000d4e0       ?getCount@BuildStats@Gu@physx@@QBEIXZ 1000e4e0 f i BVHStructureBuilder.obj
 0001:0000d4f0       ?getNbPrimitives@AABBTreeBuildNode@Gu@physx@@QBEIXZ 1000e4f0 f i BVHStructureBuilder.obj
 0001:0000d510       ?getNbRuntimePrimitives@AABBTreeBuildNode@Gu@physx@@QBEIXZ 1000e510 f i BVHStructureBuilder.obj
 0001:0000d530       ?getNeg@AABBTreeBuildNode@Gu@physx@@QBEPBV123@XZ 1000e530 f i BVHStructureBuilder.obj
 0001:0000d570       ?getPos@AABBTreeBuildNode@Gu@physx@@QBEPBV123@XZ 1000e570 f i BVHStructureBuilder.obj
 0001:0000d590       ?getPrimitives@AABBTreeBuildNode@Gu@physx@@QAEPAIPAI@Z 1000e590 f i BVHStructureBuilder.obj
 0001:0000d5b0       ?getPrimitives@AABBTreeBuildNode@Gu@physx@@QBEPBIPBI@Z 1000e5b0 f i BVHStructureBuilder.obj
 0001:0000d5d0       ?grow@?$Array@USlab@NodeAllocator@Gu@physx@@VNamedAllocator@shdfnd@4@@shdfnd@physx@@IAEXI@Z 1000e5d0 f i BVHStructureBuilder.obj
 0001:0000d630       ?increaseCount@BuildStats@Gu@physx@@QAEXI@Z 1000e630 f i BVHStructureBuilder.obj
 0001:0000d650       ?inflateBounds@@YAXAAVPxBounds3@physx@@ABV12@@Z 1000e650 f i BVHStructureBuilder.obj
 0001:0000d780       ?isAligned16@aos@shdfnd@physx@@YA_NPAX@Z 1000e780 f i BVHStructureBuilder.obj
 0001:0000d7b0       ?isInUserMemory@?$Array@USlab@NodeAllocator@Gu@physx@@VNamedAllocator@shdfnd@4@@shdfnd@physx@@QBEIXZ 1000e7b0 f i BVHStructureBuilder.obj
 0001:0000d7d0       ?isLeaf@AABBTreeBuildNode@Gu@physx@@QBE_NXZ 1000e7d0 f i BVHStructureBuilder.obj
 0001:0000d800       ?recreate@?$Array@USlab@NodeAllocator@Gu@physx@@VNamedAllocator@shdfnd@4@@shdfnd@physx@@IAEXI@Z 1000e800 f i BVHStructureBuilder.obj
 0001:0000d8d0       ?reserve@?$Array@USlab@NodeAllocator@Gu@physx@@VNamedAllocator@shdfnd@4@@shdfnd@physx@@QAEXI@Z 1000e8d0 f i BVHStructureBuilder.obj
 0001:0000d900       ?reset@AABBTreeBuildParams@Gu@physx@@QAEXXZ 1000e900 f i BVHStructureBuilder.obj
 0001:0000d950       ?reset@BuildStats@Gu@physx@@QAEXXZ 1000e950 f i BVHStructureBuilder.obj
 0001:0000d970       ?setCount@BuildStats@Gu@physx@@QAEXI@Z 1000e970 f i BVHStructureBuilder.obj
 0001:0000d990       ?setNbRunTimePrimitives@AABBTreeBuildNode@Gu@physx@@QAEXI@Z 1000e990 f i BVHStructureBuilder.obj
 0001:0000d9b0       ?size@?$Array@USlab@NodeAllocator@Gu@physx@@VNamedAllocator@shdfnd@4@@shdfnd@physx@@QBEIXZ 1000e9b0 f i BVHStructureBuilder.obj
 0001:0000d9d0       ?saveHeightField@physx@@YA_NABVHeightField@Gu@1@AAVPxOutputStream@1@_N@Z 1000e9d0 f   HeightFieldCooking.obj
 0001:0000dcb0       ??APxVec3@physx@@QBEABMI@Z 1000ecb0 f i HeightFieldCooking.obj
 0001:0000dce0       ??B?$PxFlags@W4Enum@PxHeightFieldFlag@physx@@G@physx@@QBEGXZ 1000ece0 f i HeightFieldCooking.obj
 0001:0000dd00       ?getData@HeightField@Gu@physx@@QBEABUHeightFieldData@23@XZ 1000ed00 f i HeightFieldCooking.obj
 0001:0000dd20       ?getMax@CenterExtents@Gu@physx@@QBEMI@Z 1000ed20 f i HeightFieldCooking.obj
 0001:0000dd60       ?getMin@CenterExtents@Gu@physx@@QBEMI@Z 1000ed60 f i HeightFieldCooking.obj
 0001:0000dda0       ?buildFromTriangles@RTreeCooker@physx@@SAXAAURTree@Gu@2@PBVPxVec3@2@IPBGPBIIAAV?$Array@IVNamedAllocator@shdfnd@physx@@@shdfnd@2@PAURemapCallback@12@MW4Enum@PxMeshCookingHint@2@@Z 1000eda0 f   RTreeCooking.obj
 0001:0000ed20       ??$PX_UNUSED@I@@YAXABI@Z   1000fd20 f i RTreeCooking.obj
 0001:0000ed30       ??$PX_UNUSED@M@@YAXABM@Z   1000fd30 f i RTreeCooking.obj
 0001:0000ed40       ??$PX_UNUSED@PAURTreeNodeNQ@physx@@@@YAXABQAURTreeNodeNQ@physx@@@Z 1000fd40 f i RTreeCooking.obj
 0001:0000ed50       ??$PX_UNUSED@URTreeNodeNQ@physx@@@@YAXABURTreeNodeNQ@physx@@@Z 1000fd50 f i RTreeCooking.obj
 0001:0000ed60       ??$PxMax@H@physx@@YAHHH@Z  1000fd60 f i RTreeCooking.obj
 0001:0000ed90       ??$PxMin@I@physx@@YAIII@Z  1000fd90 f i RTreeCooking.obj
 0001:0000edc0       ??$median3@I$$CBU?$Less@I@shdfnd@physx@@@internal@shdfnd@physx@@YAXPAIHHABU?$Less@I@12@@Z 1000fdc0 f i RTreeCooking.obj
 0001:0000eeb0       ??$median3@I$$CBUSortBoundsPredicate@physx@@@internal@shdfnd@physx@@YAXPAIHHABUSortBoundsPredicate@2@@Z 1000feb0 f i RTreeCooking.obj
 0001:0000efa0       ??$partition@I$$CBU?$Less@I@shdfnd@physx@@@internal@shdfnd@physx@@YAHPAIHHABU?$Less@I@12@@Z 1000ffa0 f i RTreeCooking.obj
 0001:0000f100       ??$partition@I$$CBUSortBoundsPredicate@physx@@@internal@shdfnd@physx@@YAHPAIHHABUSortBoundsPredicate@2@@Z 10010100 f i RTreeCooking.obj
 0001:0000f260       ??$partition@UBoundsLTE@physx@@@quickSelect@physx@@YAIPIAIIIIABUBoundsLTE@1@@Z 10010260 f i RTreeCooking.obj
 0001:0000f470       ??$quickSelectFirstK@UBoundsLTE@physx@@@quickSelect@physx@@YAXPIAIIIIABUBoundsLTE@1@@Z 10010470 f i RTreeCooking.obj
 0001:0000f560       ??$smallSort@I$$CBU?$Less@I@shdfnd@physx@@@internal@shdfnd@physx@@YAXPAIHHABU?$Less@I@12@@Z 10010560 f i RTreeCooking.obj
 0001:0000f600       ??$smallSort@I$$CBUSortBoundsPredicate@physx@@@internal@shdfnd@physx@@YAXPAIHHABUSortBoundsPredicate@2@@Z 10010600 f i RTreeCooking.obj
 0001:0000f6a0       ??$sort@I@shdfnd@physx@@YAXPAII@Z 100106a0 f i RTreeCooking.obj
 0001:0000f6e0       ??$sort@IU?$Less@I@shdfnd@physx@@VNamedAllocator@23@@shdfnd@physx@@YAXPAIIABU?$Less@I@01@ABVNamedAllocator@01@I@Z 100106e0 f i RTreeCooking.obj
 0001:0000f910       ??$sort@IUSortBoundsPredicate@physx@@@shdfnd@physx@@YAXPAIIABUSortBoundsPredicate@1@@Z 10010910 f i RTreeCooking.obj
 0001:0000f950       ??$sort@IUSortBoundsPredicate@physx@@VNamedAllocator@shdfnd@2@@shdfnd@physx@@YAXPAIIABUSortBoundsPredicate@1@ABVNamedAllocator@01@I@Z 10010950 f i RTreeCooking.obj
 0001:0000fb80       ??0?$AlignedAllocator@$0IA@VNonTrackingAllocator@shdfnd@physx@@@shdfnd@physx@@QAE@ABVNonTrackingAllocator@12@@Z 10010b80 f i RTreeCooking.obj
 0001:0000fb90       ??0?$Array@IVNamedAllocator@shdfnd@physx@@@shdfnd@physx@@QAE@IABIABVNamedAllocator@12@@Z 10010b90 f i RTreeCooking.obj
 0001:0000fbe0       ??0?$Array@UInterval@physx@@V?$InlineAllocator@$0CAAA@VNamedAllocator@shdfnd@physx@@@shdfnd@2@@shdfnd@physx@@QAE@ABV?$InlineAllocator@$0CAAA@VNamedAllocator@shdfnd@physx@@@12@@Z 10010be0 f i RTreeCooking.obj
 0001:0000fc30       ??0?$Array@UPxBounds3V@physx@@VNamedAllocator@shdfnd@2@@shdfnd@physx@@QAE@ABVNamedAllocator@12@@Z 10010c30 f i RTreeCooking.obj
 0001:0000fc70       ??0?$Array@URTreeNodeNQ@physx@@VNamedAllocator@shdfnd@2@@shdfnd@physx@@QAE@ABVNamedAllocator@12@@Z 10010c70 f i RTreeCooking.obj
 0001:0000fcb0       ??0?$Array@URTreeNodeQ@Gu@physx@@VNamedAllocator@shdfnd@3@@shdfnd@physx@@QAE@ABVNamedAllocator@12@@Z 10010cb0 f i RTreeCooking.obj
 0001:0000fcf0       ??0?$InlineAllocator@$0CAAA@VNamedAllocator@shdfnd@physx@@@shdfnd@physx@@QAE@ABV012@@Z 10010cf0 f i RTreeCooking.obj
 0001:0000fd20       ??0?$InlineAllocator@$0CAAA@VNamedAllocator@shdfnd@physx@@@shdfnd@physx@@QAE@ABVNamedAllocator@12@@Z 10010d20 f i RTreeCooking.obj
 0001:0000fd50       ??0?$InlineArray@UInterval@physx@@$0EAA@VNamedAllocator@shdfnd@2@@shdfnd@physx@@QAE@ABVNamedAllocator@12@@Z 10010d50 f i RTreeCooking.obj
 0001:0000fdc0       ??0?$ScopedPointer@HVTempAllocator@shdfnd@physx@@@shdfnd@physx@@QAE@XZ 10010dc0 f i RTreeCooking.obj
 0001:0000fde0       ??0?$Stack@VNamedAllocator@shdfnd@physx@@@internal@shdfnd@physx@@QAE@PAHIABVNamedAllocator@23@@Z 10010de0 f i RTreeCooking.obj
 0001:0000fe20       ??0BoundsLTE@physx@@QAE@IPBVPxVec3@1@@Z 10010e20 f i RTreeCooking.obj
 0001:0000fe50       ??0Interval@physx@@QAE@II@Z 10010e50 f i RTreeCooking.obj
 0001:0000fe80       ??0PxBounds3@physx@@QAE@ABVPxVec3@1@0@Z 10010e80 f i RTreeCooking.obj
 0001:0000feb0       ??0PxBounds3V@physx@@QAE@AAT__m128@@0@Z 10010eb0 f i RTreeCooking.obj
 0001:0000fee0       ??0PxBounds3V@physx@@QAE@UU@01@@Z 10010ee0 f i RTreeCooking.obj
 0001:0000fef0       ??0PxVec4@physx@@QAE@ABVPxVec3@1@M@Z 10010ef0 f i RTreeCooking.obj
 0001:0000ff30       ??0PxVec4@physx@@QAE@M@Z   10010f30 f i RTreeCooking.obj
 0001:0000ff80       ??0RTreeNodeNQ@physx@@QAE@ABU01@@Z 10010f80 f i RTreeCooking.obj
 0001:0000ffc0       ??0RTreeNodeNQ@physx@@QAE@XZ 10010fc0 f i RTreeCooking.obj
 0001:0000fff0       ??0SortBoundsPredicate@physx@@QAE@IPBUPxBounds3V@1@@Z 10010ff0 f i RTreeCooking.obj
 0001:00010020       ??0SubSortQuick@physx@@QAE@PAIPBUPxBounds3V@1@IM@Z 10011020 f i RTreeCooking.obj
 0001:00010140       ??0SubSortSAH@physx@@QAE@PAIPBUPxBounds3V@1@IPBI22222M@Z 10011140 f i RTreeCooking.obj
 0001:000102c0       ??0TempAllocator@shdfnd@physx@@QAE@PBD@Z 100112c0 f i RTreeCooking.obj
 0001:000102d0       ??1?$Array@IVNamedAllocator@shdfnd@physx@@@shdfnd@physx@@QAE@XZ 100112d0 f i RTreeCooking.obj
 0001:00010330       ??1?$Array@UInterval@physx@@V?$InlineAllocator@$0CAAA@VNamedAllocator@shdfnd@physx@@@shdfnd@2@@shdfnd@physx@@QAE@XZ 10011330 f i RTreeCooking.obj
 0001:000103a0       ??1?$Array@UPxBounds3V@physx@@VNamedAllocator@shdfnd@2@@shdfnd@physx@@QAE@XZ 100113a0 f i RTreeCooking.obj
 0001:00010400       ??1?$Array@URTreeNodeNQ@physx@@VNamedAllocator@shdfnd@2@@shdfnd@physx@@QAE@XZ 10011400 f i RTreeCooking.obj
 0001:00010460       ??1?$Array@URTreeNodeQ@Gu@physx@@VNamedAllocator@shdfnd@3@@shdfnd@physx@@QAE@XZ 10011460 f i RTreeCooking.obj
 0001:000104c0       ??1?$InlineAllocator@$0CAAA@VNamedAllocator@shdfnd@physx@@@shdfnd@physx@@QAE@XZ 100114c0 f i RTreeCooking.obj
 0001:000104e0       ??1?$InlineArray@UInterval@physx@@$0EAA@VNamedAllocator@shdfnd@2@@shdfnd@physx@@QAE@XZ 100114e0 f i RTreeCooking.obj
 0001:00010500       ??1?$ScopedPointer@HVTempAllocator@shdfnd@physx@@@shdfnd@physx@@QAE@XZ 10011500 f i RTreeCooking.obj
 0001:00010530       ??1?$Stack@VNamedAllocator@shdfnd@physx@@@internal@shdfnd@physx@@QAE@XZ 10011530 f i RTreeCooking.obj
 0001:00010560       ??1SubSortQuick@physx@@QAE@XZ 10011560 f i RTreeCooking.obj
 0001:00010580       ??1SubSortSAH@physx@@QAE@XZ 10011580 f i RTreeCooking.obj
 0001:00010620       ??4PxVec4@physx@@QAEAAV01@ABV01@@Z 10011620 f i RTreeCooking.obj
 0001:00010660       ??A?$Array@IVNamedAllocator@shdfnd@physx@@@shdfnd@physx@@QAEAAII@Z 10011660 f i RTreeCooking.obj
 0001:000106c0       ??A?$Array@UInterval@physx@@V?$InlineAllocator@$0CAAA@VNamedAllocator@shdfnd@physx@@@shdfnd@2@@shdfnd@physx@@QAEAAUInterval@2@I@Z 100116c0 f i RTreeCooking.obj
 0001:00010720       ??A?$Array@URTreeNodeNQ@physx@@VNamedAllocator@shdfnd@2@@shdfnd@physx@@QAEAAURTreeNodeNQ@2@I@Z 10011720 f i RTreeCooking.obj
 0001:00010780       ??A?$Array@URTreeNodeQ@Gu@physx@@VNamedAllocator@shdfnd@3@@shdfnd@physx@@QAEAAURTreeNodeQ@Gu@2@I@Z 10011780 f i RTreeCooking.obj
 0001:000107e0       ??B?$ScopedPointer@HVTempAllocator@shdfnd@physx@@@shdfnd@physx@@QBEPAHXZ 100117e0 f i RTreeCooking.obj
 0001:000107f0       ??GPxVec4@physx@@QBE?AV01@ABV01@@Z 100117f0 f i RTreeCooking.obj
 0001:00010860       ??KPxVec4@physx@@QBE?AV01@M@Z 10011860 f i RTreeCooking.obj
 0001:000108e0       ??R?$Less@I@shdfnd@physx@@QBE_NABI0@Z 100118e0 f i RTreeCooking.obj
 0001:00010910       ??RBoundsLTE@physx@@QBE_NABI0@Z 10011910 f i RTreeCooking.obj
 0001:00010980       ??RSortBoundsPredicate@physx@@QBE_NABI0@Z 10011980 f i RTreeCooking.obj
 0001:00010a70       ?FMax@aos@shdfnd@physx@@YA?AT__m128@@XZ 10011a70 f i RTreeCooking.obj
 0001:00010ab0       ?FNegMax@aos@shdfnd@physx@@YA?AT__m128@@XZ 10011ab0 f i RTreeCooking.obj
 0001:00010af0       ?FStore@aos@shdfnd@physx@@YAXT__m128@@PIAM@Z 10011af0 f i RTreeCooking.obj
 0001:00010b70       ?PxAbs@physx@@YAHH@Z       10011b70 f i RTreeCooking.obj
 0001:00010b90       ?V3Add@aos@shdfnd@physx@@YA?AT__m128@@T4@0@Z 10011b90 f i RTreeCooking.obj
 0001:00010c50       ?V3Dot@aos@shdfnd@physx@@YA?AT__m128@@T4@0@Z 10011c50 f i RTreeCooking.obj
 0001:00010d80       ?V3LoadU@aos@shdfnd@physx@@YA?AT__m128@@ABVPxVec3@3@@Z 10011d80 f i RTreeCooking.obj
 0001:00010dd0       ?V3Max@aos@shdfnd@physx@@YA?AT__m128@@T4@0@Z 10011dd0 f i RTreeCooking.obj
 0001:00010e90       ?V3Min@aos@shdfnd@physx@@YA?AT__m128@@T4@0@Z 10011e90 f i RTreeCooking.obj
 0001:00010f50       ?V3PermZXY@aos@shdfnd@physx@@YA?AT__m128@@T4@@Z 10011f50 f i RTreeCooking.obj
 0001:00010fd0       ?V3ReadXYZ@aos@shdfnd@physx@@YAABVPxVec3@3@ABT__m128@@@Z 10011fd0 f i RTreeCooking.obj
 0001:00010fe0       ?V3Splat@aos@shdfnd@physx@@YA?AT__m128@@T4@@Z 10011fe0 f i RTreeCooking.obj
 0001:00011090       ?V3StoreA@aos@shdfnd@physx@@YAXT__m128@@AAVPxVec3@3@@Z 10012090 f i RTreeCooking.obj
 0001:00011150       ?V3StoreU@aos@shdfnd@physx@@YAXT__m128@@AAVPxVec3@3@@Z 10012150 f i RTreeCooking.obj
 0001:000111d0       ?V3Sub@aos@shdfnd@physx@@YA?AT__m128@@T4@0@Z 100121d0 f i RTreeCooking.obj
 0001:00011290       ?V3Zero@aos@shdfnd@physx@@YA?AT__m128@@XZ 10012290 f i RTreeCooking.obj
 0001:000112c0       ?V4ClearW@aos@shdfnd@physx@@YA?AT__m128@@T4@@Z 100122c0 f i RTreeCooking.obj
 0001:00011300       ?V4ReadW@aos@shdfnd@physx@@YAMABT__m128@@@Z 10012300 f i RTreeCooking.obj
 0001:00011310       ?V4ReadX@aos@shdfnd@physx@@YAMABT__m128@@@Z 10012310 f i RTreeCooking.obj
 0001:00011320       ?V4ReadY@aos@shdfnd@physx@@YAMABT__m128@@@Z 10012320 f i RTreeCooking.obj
 0001:00011330       ?V4ReadZ@aos@shdfnd@physx@@YAMABT__m128@@@Z 10012330 f i RTreeCooking.obj
 0001:00011340       ?Vec3V_From_FloatV@aos@shdfnd@physx@@YA?AT__m128@@T4@@Z 10012340 f i RTreeCooking.obj
 0001:00011390       ?Vec3V_From_Vec4V@aos@shdfnd@physx@@YA?AT__m128@@T4@@Z 10012390 f i RTreeCooking.obj
 0001:000113d0       ?Vec4V_From_FloatV@aos@shdfnd@physx@@YA?AT__m128@@T4@@Z 100123d0 f i RTreeCooking.obj
 0001:00011400       ?allocate@?$AlignedAllocator@$0IA@VNonTrackingAllocator@shdfnd@physx@@@shdfnd@physx@@QAEPAXIPBDH@Z 10012400 f i RTreeCooking.obj
 0001:00011460       ?allocate@?$Array@IVNamedAllocator@shdfnd@physx@@@shdfnd@physx@@IAEPAII@Z 10012460 f i RTreeCooking.obj
 0001:000114d0       ?allocate@?$Array@UInterval@physx@@V?$InlineAllocator@$0CAAA@VNamedAllocator@shdfnd@physx@@@shdfnd@2@@shdfnd@physx@@IAEPAUInterval@3@I@Z 100124d0 f i RTreeCooking.obj
 0001:00011540       ?allocate@?$Array@UPxBounds3V@physx@@VNamedAllocator@shdfnd@2@@shdfnd@physx@@IAEPAUPxBounds3V@3@I@Z 10012540 f i RTreeCooking.obj
 0001:000115b0       ?allocate@?$Array@URTreeNodeNQ@physx@@VNamedAllocator@shdfnd@2@@shdfnd@physx@@IAEPAURTreeNodeNQ@3@I@Z 100125b0 f i RTreeCooking.obj
 0001:00011620       ?allocate@?$Array@URTreeNodeQ@Gu@physx@@VNamedAllocator@shdfnd@3@@shdfnd@physx@@IAEPAURTreeNodeQ@Gu@3@I@Z 10012620 f i RTreeCooking.obj
 0001:00011690       ?allocate@?$InlineAllocator@$0CAAA@VNamedAllocator@shdfnd@physx@@@shdfnd@physx@@QAEPAXIPBDH@Z 10012690 f i RTreeCooking.obj
 0001:000116e0       ?allocate@NonTrackingAllocator@shdfnd@physx@@QAEPAXIPBDH@Z 100126e0 f i RTreeCooking.obj
 0001:00011730       ?begin@?$Array@IVNamedAllocator@shdfnd@physx@@@shdfnd@physx@@QAEPAIXZ 10012730 f i RTreeCooking.obj
 0001:00011740       ?begin@?$Array@UPxBounds3V@physx@@VNamedAllocator@shdfnd@2@@shdfnd@physx@@QAEPAUPxBounds3V@3@XZ 10012740 f i RTreeCooking.obj
 0001:00011750       ?begin@?$Array@VPxVec3@physx@@VNamedAllocator@shdfnd@2@@shdfnd@physx@@QAEPAVPxVec3@3@XZ 10012750 f i RTreeCooking.obj
 0001:00011760       ?capacity@?$Array@IVNamedAllocator@shdfnd@physx@@@shdfnd@physx@@QBEIXZ 10012760 f i RTreeCooking.obj
 0001:00011780       ?capacity@?$Array@UInterval@physx@@V?$InlineAllocator@$0CAAA@VNamedAllocator@shdfnd@physx@@@shdfnd@2@@shdfnd@physx@@QBEIXZ 10012780 f i RTreeCooking.obj
 0001:000117a0       ?capacity@?$Array@UPxBounds3V@physx@@VNamedAllocator@shdfnd@2@@shdfnd@physx@@QBEIXZ 100127a0 f i RTreeCooking.obj
 0001:000117c0       ?capacity@?$Array@URTreeNodeNQ@physx@@VNamedAllocator@shdfnd@2@@shdfnd@physx@@QBEIXZ 100127c0 f i RTreeCooking.obj
 0001:000117e0       ?capacity@?$Array@URTreeNodeQ@Gu@physx@@VNamedAllocator@shdfnd@3@@shdfnd@physx@@QBEIXZ 100127e0 f i RTreeCooking.obj
 0001:00011800       ?capacityIncrement@?$Array@IVNamedAllocator@shdfnd@physx@@@shdfnd@physx@@IBEIXZ 10012800 f i RTreeCooking.obj
 0001:00011840       ?capacityIncrement@?$Array@UInterval@physx@@V?$InlineAllocator@$0CAAA@VNamedAllocator@shdfnd@physx@@@shdfnd@2@@shdfnd@physx@@IBEIXZ 10012840 f i RTreeCooking.obj
 0001:00011880       ?capacityIncrement@?$Array@UPxBounds3V@physx@@VNamedAllocator@shdfnd@2@@shdfnd@physx@@IBEIXZ 10012880 f i RTreeCooking.obj
 0001:000118c0       ?capacityIncrement@?$Array@URTreeNodeNQ@physx@@VNamedAllocator@shdfnd@2@@shdfnd@physx@@IBEIXZ 100128c0 f i RTreeCooking.obj
 0001:00011900       ?capacityIncrement@?$Array@URTreeNodeQ@Gu@physx@@VNamedAllocator@shdfnd@3@@shdfnd@physx@@IBEIXZ 10012900 f i RTreeCooking.obj
 0001:00011940       ?computeSA@SubSortSAH@physx@@QAEMPBIABUInterval@2@@Z 10012940 f i RTreeCooking.obj
 0001:00011a70       ?copy@?$Array@IVNamedAllocator@shdfnd@physx@@@shdfnd@physx@@KAXPAI0PBI@Z 10012a70 f i RTreeCooking.obj
 0001:00011ac0       ?copy@?$Array@UInterval@physx@@V?$InlineAllocator@$0CAAA@VNamedAllocator@shdfnd@physx@@@shdfnd@2@@shdfnd@physx@@KAXPAUInterval@3@0PBU43@@Z 10012ac0 f i RTreeCooking.obj
 0001:00011b20       ?copy@?$Array@UPxBounds3V@physx@@VNamedAllocator@shdfnd@2@@shdfnd@physx@@KAXPAUPxBounds3V@3@0PBU43@@Z 10012b20 f i RTreeCooking.obj
 0001:00011b80       ?copy@?$Array@URTreeNodeNQ@physx@@VNamedAllocator@shdfnd@2@@shdfnd@physx@@KAXPAURTreeNodeNQ@3@0PBU43@@Z 10012b80 f i RTreeCooking.obj
 0001:00011bd0       ?copy@?$Array@URTreeNodeQ@Gu@physx@@VNamedAllocator@shdfnd@3@@shdfnd@physx@@KAXPAURTreeNodeQ@Gu@3@0PBU453@@Z 10012bd0 f i RTreeCooking.obj
 0001:00011c30       ?create@?$Array@IVNamedAllocator@shdfnd@physx@@@shdfnd@physx@@KAXPAI0ABI@Z 10012c30 f i RTreeCooking.obj
 0001:00011c70       ?deallocate@?$Array@IVNamedAllocator@shdfnd@physx@@@shdfnd@physx@@IAEXPAX@Z 10012c70 f i RTreeCooking.obj
 0001:00011c90       ?deallocate@?$Array@UInterval@physx@@V?$InlineAllocator@$0CAAA@VNamedAllocator@shdfnd@physx@@@shdfnd@2@@shdfnd@physx@@IAEXPAX@Z 10012c90 f i RTreeCooking.obj
 0001:00011cb0       ?deallocate@?$Array@UPxBounds3V@physx@@VNamedAllocator@shdfnd@2@@shdfnd@physx@@IAEXPAX@Z 10012cb0 f i RTreeCooking.obj
 0001:00011cd0       ?deallocate@?$Array@URTreeNodeNQ@physx@@VNamedAllocator@shdfnd@2@@shdfnd@physx@@IAEXPAX@Z 10012cd0 f i RTreeCooking.obj
 0001:00011cf0       ?deallocate@?$Array@URTreeNodeQ@Gu@physx@@VNamedAllocator@shdfnd@3@@shdfnd@physx@@IAEXPAX@Z 10012cf0 f i RTreeCooking.obj
 0001:00011d10       ?deallocate@?$InlineAllocator@$0CAAA@VNamedAllocator@shdfnd@physx@@@shdfnd@physx@@QAEXPAX@Z 10012d10 f i RTreeCooking.obj
 0001:00011d40       ?destroy@?$Array@IVNamedAllocator@shdfnd@physx@@@shdfnd@physx@@KAXPAI0@Z 10012d40 f i RTreeCooking.obj
 0001:00011d60       ?destroy@?$Array@UInterval@physx@@V?$InlineAllocator@$0CAAA@VNamedAllocator@shdfnd@physx@@@shdfnd@2@@shdfnd@physx@@KAXPAUInterval@3@0@Z 10012d60 f i RTreeCooking.obj
 0001:00011d80       ?destroy@?$Array@UPxBounds3V@physx@@VNamedAllocator@shdfnd@2@@shdfnd@physx@@KAXPAUPxBounds3V@3@0@Z 10012d80 f i RTreeCooking.obj
 0001:00011da0       ?destroy@?$Array@URTreeNodeNQ@physx@@VNamedAllocator@shdfnd@2@@shdfnd@physx@@KAXPAURTreeNodeNQ@3@0@Z 10012da0 f i RTreeCooking.obj
 0001:00011dc0       ?destroy@?$Array@URTreeNodeQ@Gu@physx@@VNamedAllocator@shdfnd@3@@shdfnd@physx@@KAXPAURTreeNodeQ@Gu@3@0@Z 10012dc0 f i RTreeCooking.obj
 0001:00011de0       ?empty@?$Stack@VNamedAllocator@shdfnd@physx@@@internal@shdfnd@physx@@QAE_NXZ 10012de0 f i RTreeCooking.obj
 0001:00011e10       ?empty@PxBounds3@physx@@SA?AV12@XZ 10012e10 f i RTreeCooking.obj
 0001:00011e60       ?getExtents@PxBounds3V@physx@@QBE?AT__m128@@XZ 10012e60 f i RTreeCooking.obj
 0001:00011eb0       ?getMaxVec3@PxBounds3V@physx@@QBE?BVPxVec3@2@XZ 10012eb0 f i RTreeCooking.obj
 0001:00011ef0       ?getMinVec3@PxBounds3V@physx@@QBE?BVPxVec3@2@XZ 10012ef0 f i RTreeCooking.obj
 0001:00011f30       ?grow@?$Array@IVNamedAllocator@shdfnd@physx@@@shdfnd@physx@@IAEXI@Z 10012f30 f i RTreeCooking.obj
 0001:00011f90       ?grow@?$Array@UPxBounds3V@physx@@VNamedAllocator@shdfnd@2@@shdfnd@physx@@IAEXI@Z 10012f90 f i RTreeCooking.obj
 0001:00011ff0       ?grow@?$Array@URTreeNodeNQ@physx@@VNamedAllocator@shdfnd@2@@shdfnd@physx@@IAEXI@Z 10012ff0 f i RTreeCooking.obj
 0001:00012050       ?grow@?$Array@URTreeNodeQ@Gu@physx@@VNamedAllocator@shdfnd@3@@shdfnd@physx@@IAEXI@Z 10013050 f i RTreeCooking.obj
 0001:000120b0       ?grow@?$Array@VPxVec3@physx@@VNamedAllocator@shdfnd@2@@shdfnd@physx@@IAEXI@Z 100130b0 f i RTreeCooking.obj
 0001:00012110       ?grow@?$Stack@VNamedAllocator@shdfnd@physx@@@internal@shdfnd@physx@@QAEXXZ 10013110 f i RTreeCooking.obj
 0001:000121a0       ?growAndPushBack@?$Array@IVNamedAllocator@shdfnd@physx@@@shdfnd@physx@@IAEAAIABI@Z 100131a0 f i RTreeCooking.obj
 0001:000122d0       ?growAndPushBack@?$Array@UInterval@physx@@V?$InlineAllocator@$0CAAA@VNamedAllocator@shdfnd@physx@@@shdfnd@2@@shdfnd@physx@@IAEAAUInterval@3@ABU43@@Z 100132d0 f i RTreeCooking.obj
 0001:00012430       ?growAndPushBack@?$Array@UPxBounds3V@physx@@VNamedAllocator@shdfnd@2@@shdfnd@physx@@IAEAAUPxBounds3V@3@ABU43@@Z 10013430 f i RTreeCooking.obj
 0001:00012560       ?growAndPushBack@?$Array@URTreeNodeNQ@physx@@VNamedAllocator@shdfnd@2@@shdfnd@physx@@IAEAAURTreeNodeNQ@3@ABU43@@Z 10013560 f i RTreeCooking.obj
 0001:00012690       ?growAndPushBack@?$Array@URTreeNodeQ@Gu@physx@@VNamedAllocator@shdfnd@3@@shdfnd@physx@@IAEAAURTreeNodeQ@Gu@3@ABU453@@Z 10013690 f i RTreeCooking.obj
 0001:000127b0       ?include@PxBounds3V@physx@@QAEXABU12@@Z 100137b0 f i RTreeCooking.obj
 0001:00012820       ?isInUserMemory@?$Array@IVNamedAllocator@shdfnd@physx@@@shdfnd@physx@@QBEIXZ 10013820 f i RTreeCooking.obj
 0001:00012840       ?isInUserMemory@?$Array@UInterval@physx@@V?$InlineAllocator@$0CAAA@VNamedAllocator@shdfnd@physx@@@shdfnd@2@@shdfnd@physx@@QBEIXZ 10013840 f i RTreeCooking.obj
 0001:00012860       ?isInUserMemory@?$Array@UPxBounds3V@physx@@VNamedAllocator@shdfnd@2@@shdfnd@physx@@QBEIXZ 10013860 f i RTreeCooking.obj
 0001:00012880       ?isInUserMemory@?$Array@URTreeNodeNQ@physx@@VNamedAllocator@shdfnd@2@@shdfnd@physx@@QBEIXZ 10013880 f i RTreeCooking.obj
 0001:000128a0       ?isInUserMemory@?$Array@URTreeNodeQ@Gu@physx@@VNamedAllocator@shdfnd@3@@shdfnd@physx@@QBEIXZ 100138a0 f i RTreeCooking.obj
 0001:000128c0       ?isInside@PxBounds3@physx@@QBE_NABV12@@Z 100138c0 f i RTreeCooking.obj
 0001:00012980       ?isLeaf@RTreeNodeQ@Gu@physx@@QBEIXZ 10013980 f i RTreeCooking.obj
 0001:000129a0       ?isValidFloatV@aos@shdfnd@physx@@YA_NT__m128@@@Z 100139a0 f i RTreeCooking.obj
 0001:00012b20       ?isValidVec3V@aos@shdfnd@physx@@YA_NT__m128@@@Z 10013b20 f i RTreeCooking.obj
 0001:00012b90       ?pop@?$Stack@VNamedAllocator@shdfnd@physx@@@internal@shdfnd@physx@@QAEXAAH0@Z 10013b90 f i RTreeCooking.obj
 0001:00012c30       ?popBack@?$Array@IVNamedAllocator@shdfnd@physx@@@shdfnd@physx@@QAEIXZ 10013c30 f i RTreeCooking.obj
 0001:00012cb0       ?push@?$Stack@VNamedAllocator@shdfnd@physx@@@internal@shdfnd@physx@@QAEXHH@Z 10013cb0 f i RTreeCooking.obj
 0001:00012d20       ?pushBack@?$Array@IVNamedAllocator@shdfnd@physx@@@shdfnd@physx@@QAEAAIABI@Z 10013d20 f i RTreeCooking.obj
 0001:00012da0       ?pushBack@?$Array@UInterval@physx@@V?$InlineAllocator@$0CAAA@VNamedAllocator@shdfnd@physx@@@shdfnd@2@@shdfnd@physx@@QAEAAUInterval@3@ABU43@@Z 10013da0 f i RTreeCooking.obj
 0001:00012e40       ?pushBack@?$Array@UPxBounds3V@physx@@VNamedAllocator@shdfnd@2@@shdfnd@physx@@QAEAAUPxBounds3V@3@ABU43@@Z 10013e40 f i RTreeCooking.obj
 0001:00012ec0       ?pushBack@?$Array@URTreeNodeNQ@physx@@VNamedAllocator@shdfnd@2@@shdfnd@physx@@QAEAAURTreeNodeNQ@3@ABU43@@Z 10013ec0 f i RTreeCooking.obj
 0001:00012f40       ?pushBack@?$Array@URTreeNodeQ@Gu@physx@@VNamedAllocator@shdfnd@3@@shdfnd@physx@@QAEAAURTreeNodeQ@Gu@3@ABU453@@Z 10013f40 f i RTreeCooking.obj
 0001:00012fc0       ?recreate@?$Array@IVNamedAllocator@shdfnd@physx@@@shdfnd@physx@@IAEXI@Z 10013fc0 f i RTreeCooking.obj
 0001:00013090       ?recreate@?$Array@UPxBounds3V@physx@@VNamedAllocator@shdfnd@2@@shdfnd@physx@@IAEXI@Z 10014090 f i RTreeCooking.obj
 0001:00013160       ?recreate@?$Array@URTreeNodeNQ@physx@@VNamedAllocator@shdfnd@2@@shdfnd@physx@@IAEXI@Z 10014160 f i RTreeCooking.obj
 0001:00013230       ?recreate@?$Array@URTreeNodeQ@Gu@physx@@VNamedAllocator@shdfnd@3@@shdfnd@physx@@IAEXI@Z 10014230 f i RTreeCooking.obj
 0001:00013300       ?recreate@?$Array@VPxVec3@physx@@VNamedAllocator@shdfnd@2@@shdfnd@physx@@IAEXI@Z 10014300 f i RTreeCooking.obj
 0001:000133d0       ?replaceWithLast@?$Array@UInterval@physx@@V?$InlineAllocator@$0CAAA@VNamedAllocator@shdfnd@physx@@@shdfnd@2@@shdfnd@physx@@QAEXI@Z 100143d0 f i RTreeCooking.obj
 0001:00013470       ?reserve@?$Array@IVNamedAllocator@shdfnd@physx@@@shdfnd@physx@@QAEXI@Z 10014470 f i RTreeCooking.obj
 0001:000134a0       ?reserve@?$Array@UPxBounds3V@physx@@VNamedAllocator@shdfnd@2@@shdfnd@physx@@QAEXI@Z 100144a0 f i RTreeCooking.obj
 0001:000134d0       ?reserve@?$Array@URTreeNodeNQ@physx@@VNamedAllocator@shdfnd@2@@shdfnd@physx@@QAEXI@Z 100144d0 f i RTreeCooking.obj
 0001:00013500       ?reserve@?$Array@URTreeNodeQ@Gu@physx@@VNamedAllocator@shdfnd@3@@shdfnd@physx@@QAEXI@Z 10014500 f i RTreeCooking.obj
 0001:00013530       ?reserve@?$Array@VPxVec3@physx@@VNamedAllocator@shdfnd@2@@shdfnd@physx@@QAEXI@Z 10014530 f i RTreeCooking.obj
 0001:00013560       ?resize@?$Array@IVNamedAllocator@shdfnd@physx@@@shdfnd@physx@@QAEXIABI@Z 10014560 f i RTreeCooking.obj
 0001:000135d0       ?resizeUninitialized@?$Array@URTreeNodeNQ@physx@@VNamedAllocator@shdfnd@2@@shdfnd@physx@@QAEXI@Z 100145d0 f i RTreeCooking.obj
 0001:00013600       ?setLeaf@RTreeNodeQ@Gu@physx@@QAEX_N@Z 10014600 f i RTreeCooking.obj
 0001:00013640       ?size@?$Array@IVNamedAllocator@shdfnd@physx@@@shdfnd@physx@@QBEIXZ 10014640 f i RTreeCooking.obj
 0001:00013660       ?size@?$Array@UInterval@physx@@V?$InlineAllocator@$0CAAA@VNamedAllocator@shdfnd@physx@@@shdfnd@2@@shdfnd@physx@@QBEIXZ 10014660 f i RTreeCooking.obj
 0001:00013680       ?size@?$Array@URTreeNodeNQ@physx@@VNamedAllocator@shdfnd@2@@shdfnd@physx@@QBEIXZ 10014680 f i RTreeCooking.obj
 0001:000136a0       ?size@?$Array@URTreeNodeQ@Gu@physx@@VNamedAllocator@shdfnd@3@@shdfnd@physx@@QBEIXZ 100146a0 f i RTreeCooking.obj
 0001:000136c0       ?size@?$Array@VPxVec3@physx@@VNamedAllocator@shdfnd@2@@shdfnd@physx@@QBEIXZ 100146c0 f i RTreeCooking.obj
 0001:000136e0       ?sort4@SubSortQuick@physx@@QAEXPIAIIAAV?$Array@URTreeNodeNQ@physx@@VNamedAllocator@shdfnd@2@@shdfnd@2@AAIAAUPxBounds3V@2@I@Z 100146e0 f i RTreeCooking.obj
 0001:00013da0       ?sort4@SubSortSAH@physx@@QAEXPAIIAAV?$Array@URTreeNodeNQ@physx@@VNamedAllocator@shdfnd@2@@shdfnd@2@AAIIPAURTreeNodeNQ@2@@Z 10014da0 f i RTreeCooking.obj
 0001:00014880       ?split@SubSortSAH@physx@@QAEIPAII@Z 10015880 f i RTreeCooking.obj
 0001:00015270       ?computeLocalBounds@MeshBulider@physx@@IAEXAAVMeshDataBase@Gu@2@@Z 10016270 f   MeshBuilder.obj
 0001:00015370       _powf                      10016370 f i MeshBuilder.obj
 0001:000153a0       ??0TriangleMeshBuilder@physx@@QAE@AAVTriangleMeshData@Gu@1@ABUPxCookingParams@1@@Z 100163a0 f   TriangleMeshBuilder.obj
 0001:000153e0       ??1TriangleMeshBuilder@physx@@UAE@XZ 100163e0 f   TriangleMeshBuilder.obj
 0001:00015400       ?cleanMesh@TriangleMeshBuilder@physx@@QAE_N_NPAW4Enum@PxTriangleMeshCookingResult@2@@Z 10016400 f   TriangleMeshBuilder.obj
 0001:00015990       ?remapTopology@TriangleMeshBuilder@physx@@QAEXPBI@Z 10016990 f   TriangleMeshBuilder.obj
 0001:00015c30       ?createSharedEdgeData@TriangleMeshBuilder@physx@@QAEX_N0@Z 10016c30 f   TriangleMeshBuilder.obj
 0001:00016210       ?recordTriangleIndices@TriangleMeshBuilder@physx@@QAEXXZ 10017210 f   TriangleMeshBuilder.obj
 0001:00016360       ?createGRBMidPhaseAndData@TriangleMeshBuilder@physx@@QAEXI@Z 10017360 f   TriangleMeshBuilder.obj
 0001:000165b0       ?createGRBData@TriangleMeshBuilder@physx@@QAEXXZ 100175b0 f   TriangleMeshBuilder.obj
 0001:000166c0       ?loadFromDesc@TriangleMeshBuilder@physx@@QAE_NABVPxTriangleMeshDesc@2@PAW4Enum@PxTriangleMeshCookingResult@2@_N@Z 100176c0 f   TriangleMeshBuilder.obj
 0001:000168c0       ?save@TriangleMeshBuilder@physx@@QBE_NAAVPxOutputStream@2@_NABUPxCookingParams@2@@Z 100178c0 f   TriangleMeshBuilder.obj
 0001:00016f30       ?checkMeshIndicesSize@TriangleMeshBuilder@physx@@QAEXXZ 10017f30 f   TriangleMeshBuilder.obj
 0001:000170c0       ?importMesh@TriangleMeshBuilder@physx@@IAE_NABVPxTriangleMeshDesc@2@ABUPxCookingParams@2@PAW4Enum@PxTriangleMeshCookingResult@2@_N@Z 100180c0 f   TriangleMeshBuilder.obj
 0001:00017530       ?releaseEdgeList@TriangleMeshBuilder@physx@@IAEXXZ 10018530 f   TriangleMeshBuilder.obj
 0001:00017570       ?createEdgeList@TriangleMeshBuilder@physx@@IAEXXZ 10018570 f   TriangleMeshBuilder.obj
 0001:00017670       ??0RTreeTriangleMeshBuilder@physx@@QAE@ABUPxCookingParams@1@@Z 10018670 f   TriangleMeshBuilder.obj
 0001:000176b0       ??1RTreeTriangleMeshBuilder@physx@@UAE@XZ 100186b0 f   TriangleMeshBuilder.obj
 0001:000176e0       ?createMidPhaseStructure@RTreeTriangleMeshBuilder@physx@@UAEXXZ 100186e0 f   TriangleMeshBuilder.obj
 0001:00017840       ?saveMidPhaseStructure@RTreeTriangleMeshBuilder@physx@@UBEXAAVPxOutputStream@2@_N@Z 10018840 f   TriangleMeshBuilder.obj
 0001:00017aa0       ??0BV4TriangleMeshBuilder@physx@@QAE@ABUPxCookingParams@1@@Z 10018aa0 f   TriangleMeshBuilder.obj
 0001:00017ae0       ??1BV4TriangleMeshBuilder@physx@@UAE@XZ 10018ae0 f   TriangleMeshBuilder.obj
 0001:00017b10       ?createMidPhaseStructure@BV4TriangleMeshBuilder@physx@@UAEXXZ 10018b10 f   TriangleMeshBuilder.obj
 0001:00017e20       ?saveMidPhaseStructure@BV4TriangleMeshBuilder@physx@@UBEXAAVPxOutputStream@2@_N@Z 10018e20 f   TriangleMeshBuilder.obj
 0001:00018070       ?onMeshIndexFormatChange@BV4TriangleMeshBuilder@physx@@UAEXXZ 10019070 f   TriangleMeshBuilder.obj
 0001:000180e0       ?createMidPhaseStructure@BV32TriangleMeshBuilder@physx@@SAXABUPxCookingParams@2@AAVTriangleMeshData@Gu@2@AAVBV32Tree@52@@Z 100190e0 f   TriangleMeshBuilder.obj
 0001:000182e0       ?saveMidPhaseStructure@BV32TriangleMeshBuilder@physx@@SAXPAVBV32Tree@Gu@2@AAVPxOutputStream@2@_N@Z 100192e0 f   TriangleMeshBuilder.obj
 0001:00018a30       ?findSharpVertices@GrbTrimeshCookerHelper@physx@@YAXAAV?$Array@USortedNeighbor@GrbTrimeshCookerHelper@physx@@VNamedAllocator@shdfnd@3@@shdfnd@2@AAV?$Array@USharpEdgeRange@GrbTrimeshCookerHelper@physx@@VNamedAllocator@shdfnd@3@@42@PBUuint3@2@PBUuint4@2@II@Z 10019a30 f   TriangleMeshBuilder.obj
 0001:00018dc0       ?buildVertexConnectionNew_p1@GrbTrimeshCookerHelper@physx@@YAIAAV?$Array@USortedNeighbor@GrbTrimeshCookerHelper@physx@@VNamedAllocator@shdfnd@3@@shdfnd@2@AAV?$Array@USharpEdgeRange@GrbTrimeshCookerHelper@physx@@VNamedAllocator@shdfnd@3@@42@PBUuint3@2@PBUuint4@2@II@Z 10019dc0 f   TriangleMeshBuilder.obj
 0001:00018e30       ?buildVertexConnectionNew_p2@GrbTrimeshCookerHelper@physx@@YAXPAI00AAV?$Array@USortedNeighbor@GrbTrimeshCookerHelper@physx@@VNamedAllocator@shdfnd@3@@shdfnd@2@AAV?$Array@USharpEdgeRange@GrbTrimeshCookerHelper@physx@@VNamedAllocator@shdfnd@3@@42@I@Z 10019e30 f   TriangleMeshBuilder.obj
 0001:00018ed0       ??$?2V?$ReflectionAllocator@VBV32Tree@Gu@physx@@@shdfnd@physx@@@UserAllocated@shdfnd@physx@@SAPAXIV?$ReflectionAllocator@VBV32Tree@Gu@physx@@@12@PBDH@Z 10019ed0 f i TriangleMeshBuilder.obj
 0001:00018ef0       ??$?2V?$ReflectionAllocator@VEdgeListBuilder@Gu@physx@@@shdfnd@physx@@@UserAllocated@shdfnd@physx@@SAPAXIV?$ReflectionAllocator@VEdgeListBuilder@Gu@physx@@@12@PBDH@Z 10019ef0 f i TriangleMeshBuilder.obj
 0001:00018f10       ??$?_UE@@YAPAXIV?$ReflectionAllocator@E@shdfnd@physx@@PBDH@Z 10019f10 f i TriangleMeshBuilder.obj
 0001:00018f30       ??$?_UG@@YAPAXIV?$ReflectionAllocator@G@shdfnd@physx@@PBDH@Z 10019f30 f i TriangleMeshBuilder.obj
 0001:00018f50       ??$PX_UNUSED@U?$TriangleT@I@Gu@physx@@@@YAXABU?$TriangleT@I@Gu@physx@@@Z 10019f50 f i TriangleMeshBuilder.obj
 0001:00018f60       ??$median3@UEdgeTriLookup@physx@@$$CBU?$Less@UEdgeTriLookup@physx@@@shdfnd@2@@internal@shdfnd@physx@@YAXPAUEdgeTriLookup@2@HHABU?$Less@UEdgeTriLookup@physx@@@12@@Z 10019f60 f i TriangleMeshBuilder.obj
 0001:00019040       ??$median3@USortedNeighbor@GrbTrimeshCookerHelper@physx@@$$CBU?$Less@USortedNeighbor@GrbTrimeshCookerHelper@physx@@@shdfnd@3@@internal@shdfnd@physx@@YAXPAUSortedNeighbor@GrbTrimeshCookerHelper@2@HHABU?$Less@USortedNeighbor@GrbTrimeshCookerHelper@physx@@@12@@Z 1001a040 f i TriangleMeshBuilder.obj
 0001:00019120       ??$partition@UEdgeTriLookup@physx@@$$CBU?$Less@UEdgeTriLookup@physx@@@shdfnd@2@@internal@shdfnd@physx@@YAHPAUEdgeTriLookup@2@HHABU?$Less@UEdgeTriLookup@physx@@@12@@Z 1001a120 f i TriangleMeshBuilder.obj
 0001:00019280       ??$partition@USortedNeighbor@GrbTrimeshCookerHelper@physx@@$$CBU?$Less@USortedNeighbor@GrbTrimeshCookerHelper@physx@@@shdfnd@3@@internal@shdfnd@physx@@YAHPAUSortedNeighbor@GrbTrimeshCookerHelper@2@HHABU?$Less@USortedNeighbor@GrbTrimeshCookerHelper@physx@@@12@@Z 1001a280 f i TriangleMeshBuilder.obj
 0001:000193e0       ??$smallSort@UEdgeTriLookup@physx@@$$CBU?$Less@UEdgeTriLookup@physx@@@shdfnd@2@@internal@shdfnd@physx@@YAXPAUEdgeTriLookup@2@HHABU?$Less@UEdgeTriLookup@physx@@@12@@Z 1001a3e0 f i TriangleMeshBuilder.obj
 0001:00019470       ??$smallSort@USortedNeighbor@GrbTrimeshCookerHelper@physx@@$$CBU?$Less@USortedNeighbor@GrbTrimeshCookerHelper@physx@@@shdfnd@3@@internal@shdfnd@physx@@YAXPAUSortedNeighbor@GrbTrimeshCookerHelper@2@HHABU?$Less@USortedNeighbor@GrbTrimeshCookerHelper@physx@@@12@@Z 1001a470 f i TriangleMeshBuilder.obj
 0001:00019500       ??$sort@UEdgeTriLookup@physx@@@shdfnd@physx@@YAXPAUEdgeTriLookup@1@I@Z 1001a500 f i TriangleMeshBuilder.obj
 0001:00019540       ??$sort@UEdgeTriLookup@physx@@U?$Less@UEdgeTriLookup@physx@@@shdfnd@2@VNamedAllocator@42@@shdfnd@physx@@YAXPAUEdgeTriLookup@1@IABU?$Less@UEdgeTriLookup@physx@@@01@ABVNamedAllocator@01@I@Z 1001a540 f i TriangleMeshBuilder.obj
 0001:00019770       ??$sort@USortedNeighbor@GrbTrimeshCookerHelper@physx@@@shdfnd@physx@@YAXPAUSortedNeighbor@GrbTrimeshCookerHelper@1@I@Z 1001a770 f i TriangleMeshBuilder.obj
 0001:000197b0       ??$sort@USortedNeighbor@GrbTrimeshCookerHelper@physx@@U?$Less@USortedNeighbor@GrbTrimeshCookerHelper@physx@@@shdfnd@3@VNamedAllocator@53@@shdfnd@physx@@YAXPAUSortedNeighbor@GrbTrimeshCookerHelper@1@IABU?$Less@USortedNeighbor@GrbTrimeshCookerHelper@physx@@@01@ABVNamedAllocator@01@I@Z 1001a7b0 f i TriangleMeshBuilder.obj
 0001:000199e0       ??$swap@UEdgeTriLookup@physx@@@shdfnd@physx@@YAXAAUEdgeTriLookup@1@0@Z 1001a9e0 f i TriangleMeshBuilder.obj
 0001:00019a30       ??$swap@USortedNeighbor@GrbTrimeshCookerHelper@physx@@@shdfnd@physx@@YAXAAUSortedNeighbor@GrbTrimeshCookerHelper@1@0@Z 1001aa30 f i TriangleMeshBuilder.obj
 0001:00019a80       ??0?$Array@IVNamedAllocator@shdfnd@physx@@@shdfnd@physx@@QAE@ABVNamedAllocator@12@@Z 1001aa80 f i TriangleMeshBuilder.obj
 0001:00019ac0       ??0?$PxFlags@W4Enum@PxMeshFlag@physx@@G@physx@@QAE@W4Enum@PxMeshFlag@1@@Z 1001aac0 f i TriangleMeshBuilder.obj
 0001:00019ae0       ??0?$PxFlags@W4Enum@PxMeshFlag@physx@@G@physx@@QAE@XZ 1001aae0 f i TriangleMeshBuilder.obj
 0001:00019b00       ??0?$ReflectionAllocator@E@shdfnd@physx@@QAE@PBD@Z 1001ab00 f i TriangleMeshBuilder.obj
 0001:00019b10       ??0?$ReflectionAllocator@G@shdfnd@physx@@QAE@PBD@Z 1001ab10 f i TriangleMeshBuilder.obj
 0001:00019b20       ??0?$ReflectionAllocator@VBV32Tree@Gu@physx@@@shdfnd@physx@@QAE@PBD@Z 1001ab20 f i TriangleMeshBuilder.obj
 0001:00019b30       ??0?$ReflectionAllocator@VEdgeListBuilder@Gu@physx@@@shdfnd@physx@@QAE@PBD@Z 1001ab30 f i TriangleMeshBuilder.obj
 0001:00019b40       ??0BV4TriangleData@Gu@physx@@QAE@XZ 1001ab40 f i TriangleMeshBuilder.obj
 0001:00019b80       ??0MeshDataBase@Gu@physx@@QAE@XZ 1001ab80 f i TriangleMeshBuilder.obj
 0001:00019c00       ??0PxPlane@physx@@QAE@ABVPxVec3@1@0@Z 1001ac00 f i TriangleMeshBuilder.obj
 0001:00019c50       ??0PxSimpleTriangleMesh@physx@@QAE@ABV01@@Z 1001ac50 f i TriangleMeshBuilder.obj
 0001:00019cb0       ??0PxTriangleMeshDesc@physx@@QAE@ABV01@@Z 1001acb0 f i TriangleMeshBuilder.obj
 0001:00019ce0       ??0RTree@Gu@physx@@QAE@XZ  1001ace0 f i TriangleMeshBuilder.obj
 0001:00019d50       ??0RTreeCookerRemap@physx@@QAE@I@Z 1001ad50 f i TriangleMeshBuilder.obj
 0001:00019d80       ??0RTreeTriangleData@Gu@physx@@QAE@XZ 1001ad80 f i TriangleMeshBuilder.obj
 0001:00019dc0       ??0RemapCallback@RTreeCooker@physx@@QAE@XZ 1001adc0 f i TriangleMeshBuilder.obj
 0001:00019de0       ??0SharpEdgeRange@GrbTrimeshCookerHelper@physx@@QAE@II@Z 1001ade0 f i TriangleMeshBuilder.obj
 0001:00019e10       ??0SharpEdgeRange@GrbTrimeshCookerHelper@physx@@QAE@XZ 1001ae10 f i TriangleMeshBuilder.obj
 0001:00019e40       ??0SortedNeighbor@GrbTrimeshCookerHelper@physx@@QAE@II_N@Z 1001ae40 f i TriangleMeshBuilder.obj
 0001:00019e70       ??0TriangleMeshData@Gu@physx@@QAE@XZ 1001ae70 f i TriangleMeshBuilder.obj
 0001:00019ed0       ??1BV4TriangleData@Gu@physx@@UAE@XZ 1001aed0 f i TriangleMeshBuilder.obj
 0001:00019f10       ??1MeshDataBase@Gu@physx@@UAE@XZ 1001af10 f i TriangleMeshBuilder.obj
 0001:0001a020       ??1RTree@Gu@physx@@QAE@XZ  1001b020 f i TriangleMeshBuilder.obj
 0001:0001a040       ??1RTreeCookerRemap@physx@@UAE@XZ 1001b040 f i TriangleMeshBuilder.obj
 0001:0001a060       ??1RTreeTriangleData@Gu@physx@@UAE@XZ 1001b060 f i TriangleMeshBuilder.obj
 0001:0001a090       ??1RemapCallback@RTreeCooker@physx@@UAE@XZ 1001b090 f i TriangleMeshBuilder.obj
 0001:0001a0b0       ??1TriangleMeshData@Gu@physx@@UAE@XZ 1001b0b0 f i TriangleMeshBuilder.obj
 0001:0001a190       ??A?$Array@USharpEdgeRange@GrbTrimeshCookerHelper@physx@@VNamedAllocator@shdfnd@3@@shdfnd@physx@@QAEAAUSharpEdgeRange@GrbTrimeshCookerHelper@2@I@Z 1001b190 f i TriangleMeshBuilder.obj
 0001:0001a1f0       ??A?$Array@USortedNeighbor@GrbTrimeshCookerHelper@physx@@VNamedAllocator@shdfnd@3@@shdfnd@physx@@QAEAAUSortedNeighbor@GrbTrimeshCookerHelper@2@I@Z 1001b1f0 f i TriangleMeshBuilder.obj
 0001:0001a250       ??MEdgeTriLookup@physx@@QBE_NABU01@@Z 1001b250 f i TriangleMeshBuilder.obj
 0001:0001a2a0       ??MSortedNeighbor@GrbTrimeshCookerHelper@physx@@QBE_NABU012@@Z 1001b2a0 f i TriangleMeshBuilder.obj
 0001:0001a320       ??NEdgeTriLookup@physx@@QBE_NABU01@@Z 1001b320 f i TriangleMeshBuilder.obj
 0001:0001a370       ??R?$Less@UEdgeTriLookup@physx@@@shdfnd@physx@@QBE_NABUEdgeTriLookup@2@0@Z 1001b370 f i TriangleMeshBuilder.obj
 0001:0001a390       ??R?$Less@USortedNeighbor@GrbTrimeshCookerHelper@physx@@@shdfnd@physx@@QBE_NABUSortedNeighbor@GrbTrimeshCookerHelper@2@0@Z 1001b390 f i TriangleMeshBuilder.obj
 0001:0001a3b0       ??S?$PxFlags@W4Enum@PxMeshFlag@physx@@G@physx@@QBE?AV01@XZ 1001b3b0 f i TriangleMeshBuilder.obj
 0001:0001a3f0       ??Sphysx@@YA?AV?$PxFlags@W4Enum@PxMeshFlag@physx@@G@0@W4Enum@PxMeshFlag@0@@Z 1001b3f0 f i TriangleMeshBuilder.obj
 0001:0001a420       ??_4?$PxFlags@W4Enum@PxMeshFlag@physx@@G@physx@@QAEAAV01@ABV01@@Z 1001b420 f i TriangleMeshBuilder.obj
 0001:0001a450       ??_GBV32Tree@Gu@physx@@QAEPAXI@Z 1001b450 f i TriangleMeshBuilder.obj
 0001:0001a4a0       ??_GBV4TriangleData@Gu@physx@@UAEPAXI@Z 1001b4a0 f i TriangleMeshBuilder.obj
 0001:0001a4a0       ??_EBV4TriangleData@Gu@physx@@UAEPAXI@Z 1001b4a0 f i TriangleMeshBuilder.obj
 0001:0001a4f0       ??_GBV4TriangleMeshBuilder@physx@@UAEPAXI@Z 1001b4f0 f i TriangleMeshBuilder.obj
 0001:0001a4f0       ??_EBV4TriangleMeshBuilder@physx@@UAEPAXI@Z 1001b4f0 f i TriangleMeshBuilder.obj
 0001:0001a530       ??_GEdgeListBuilder@Gu@physx@@QAEPAXI@Z 1001b530 f i TriangleMeshBuilder.obj
 0001:0001a580       ??_GMeshDataBase@Gu@physx@@UAEPAXI@Z 1001b580 f i TriangleMeshBuilder.obj
 0001:0001a580       ??_EMeshDataBase@Gu@physx@@UAEPAXI@Z 1001b580 f i TriangleMeshBuilder.obj
 0001:0001a5d0       ??_ERTreeCookerRemap@physx@@UAEPAXI@Z 1001b5d0 f i TriangleMeshBuilder.obj
 0001:0001a5d0       ??_GRTreeCookerRemap@physx@@UAEPAXI@Z 1001b5d0 f i TriangleMeshBuilder.obj
 0001:0001a600       ??_GRTreeTriangleData@Gu@physx@@UAEPAXI@Z 1001b600 f i TriangleMeshBuilder.obj
 0001:0001a600       ??_ERTreeTriangleData@Gu@physx@@UAEPAXI@Z 1001b600 f i TriangleMeshBuilder.obj
 0001:0001a650       ??_GRTreeTriangleMeshBuilder@physx@@UAEPAXI@Z 1001b650 f i TriangleMeshBuilder.obj
 0001:0001a650       ??_ERTreeTriangleMeshBuilder@physx@@UAEPAXI@Z 1001b650 f i TriangleMeshBuilder.obj
 0001:0001a690       ??_ERemapCallback@RTreeCooker@physx@@UAEPAXI@Z 1001b690 f i TriangleMeshBuilder.obj
 0001:0001a690       ??_GRemapCallback@RTreeCooker@physx@@UAEPAXI@Z 1001b690 f i TriangleMeshBuilder.obj
 0001:0001a6c0       ??_ETriangleMeshBuilder@physx@@UAEPAXI@Z 1001b6c0 f i TriangleMeshBuilder.obj
 0001:0001a6c0       ??_GTriangleMeshBuilder@physx@@UAEPAXI@Z 1001b6c0 f i TriangleMeshBuilder.obj
 0001:0001a6f0       ??_ETriangleMeshData@Gu@physx@@UAEPAXI@Z 1001b6f0 f i TriangleMeshBuilder.obj
 0001:0001a6f0       ??_GTriangleMeshData@Gu@physx@@UAEPAXI@Z 1001b6f0 f i TriangleMeshBuilder.obj
 0001:0001a740       ?LeafSetData@Gu@physx@@YAIII@Z 1001b740 f i TriangleMeshBuilder.obj
 0001:0001a7e0       ?SetData@LeafTriangles@Gu@physx@@QAEXII@Z 1001b7e0 f i TriangleMeshBuilder.obj
 0001:0001a810       ?WriteDwordBuffer@physx@@YAXPBII_NAAVPxOutputStream@1@@Z 1001b810 f i TriangleMeshBuilder.obj
 0001:0001a830       ?allocate@?$Array@USharpEdgeRange@GrbTrimeshCookerHelper@physx@@VNamedAllocator@shdfnd@3@@shdfnd@physx@@IAEPAUSharpEdgeRange@GrbTrimeshCookerHelper@3@I@Z 1001b830 f i TriangleMeshBuilder.obj
 0001:0001a8a0       ?allocate@?$Array@USortedNeighbor@GrbTrimeshCookerHelper@physx@@VNamedAllocator@shdfnd@3@@shdfnd@physx@@IAEPAUSortedNeighbor@GrbTrimeshCookerHelper@3@I@Z 1001b8a0 f i TriangleMeshBuilder.obj
 0001:0001a910       ?allocate@?$ReflectionAllocator@E@shdfnd@physx@@QAEPAXIPBDH@Z 1001b910 f i TriangleMeshBuilder.obj
 0001:0001a960       ?allocate@?$ReflectionAllocator@G@shdfnd@physx@@QAEPAXIPBDH@Z 1001b960 f i TriangleMeshBuilder.obj
 0001:0001a9b0       ?allocate@?$ReflectionAllocator@VBV32Tree@Gu@physx@@@shdfnd@physx@@QAEPAXIPBDH@Z 1001b9b0 f i TriangleMeshBuilder.obj
 0001:0001aa00       ?allocate@?$ReflectionAllocator@VEdgeListBuilder@Gu@physx@@@shdfnd@physx@@QAEPAXIPBDH@Z 1001ba00 f i TriangleMeshBuilder.obj
 0001:0001aa50       ?allocateMaterials@TriangleMeshData@Gu@physx@@QAEPAGXZ 1001ba50 f i TriangleMeshBuilder.obj
 0001:0001ab30       ?allocateTriangles@TriangleMeshData@Gu@physx@@QAEPAXI_NI@Z 1001bb30 f i TriangleMeshBuilder.obj
 0001:0001acb0       ?allocateVertices@MeshDataBase@Gu@physx@@QAEPAVPxVec3@3@I@Z 1001bcb0 f i TriangleMeshBuilder.obj
 0001:0001ad50       ?begin@?$Array@USortedNeighbor@GrbTrimeshCookerHelper@physx@@VNamedAllocator@shdfnd@3@@shdfnd@physx@@QAEPAUSortedNeighbor@GrbTrimeshCookerHelper@3@XZ 1001bd50 f i TriangleMeshBuilder.obj
 0001:0001ad60       ?capacity@?$Array@USharpEdgeRange@GrbTrimeshCookerHelper@physx@@VNamedAllocator@shdfnd@3@@shdfnd@physx@@QBEIXZ 1001bd60 f i TriangleMeshBuilder.obj
 0001:0001ad80       ?capacity@?$Array@USortedNeighbor@GrbTrimeshCookerHelper@physx@@VNamedAllocator@shdfnd@3@@shdfnd@physx@@QBEIXZ 1001bd80 f i TriangleMeshBuilder.obj
 0001:0001ada0       ?capacityIncrement@?$Array@USortedNeighbor@GrbTrimeshCookerHelper@physx@@VNamedAllocator@shdfnd@3@@shdfnd@physx@@IBEIXZ 1001bda0 f i TriangleMeshBuilder.obj
 0001:0001ade0       ?copy@?$Array@USharpEdgeRange@GrbTrimeshCookerHelper@physx@@VNamedAllocator@shdfnd@3@@shdfnd@physx@@KAXPAUSharpEdgeRange@GrbTrimeshCookerHelper@3@0PBU453@@Z 1001bde0 f i TriangleMeshBuilder.obj
 0001:0001ae40       ?copy@?$Array@USortedNeighbor@GrbTrimeshCookerHelper@physx@@VNamedAllocator@shdfnd@3@@shdfnd@physx@@KAXPAUSortedNeighbor@GrbTrimeshCookerHelper@3@0PBU453@@Z 1001be40 f i TriangleMeshBuilder.obj
 0001:0001aea0       ?create@?$Array@USharpEdgeRange@GrbTrimeshCookerHelper@physx@@VNamedAllocator@shdfnd@3@@shdfnd@physx@@KAXPAUSharpEdgeRange@GrbTrimeshCookerHelper@3@0ABU453@@Z 1001bea0 f i TriangleMeshBuilder.obj
 0001:0001aee0       ?deallocate@?$AlignedAllocator@$0IA@VNonTrackingAllocator@shdfnd@physx@@@shdfnd@physx@@QAEXPAX@Z 1001bee0 f i TriangleMeshBuilder.obj
 0001:0001af20       ?deallocate@?$Array@USharpEdgeRange@GrbTrimeshCookerHelper@physx@@VNamedAllocator@shdfnd@3@@shdfnd@physx@@IAEXPAX@Z 1001bf20 f i TriangleMeshBuilder.obj
 0001:0001af40       ?deallocate@?$Array@USortedNeighbor@GrbTrimeshCookerHelper@physx@@VNamedAllocator@shdfnd@3@@shdfnd@physx@@IAEXPAX@Z 1001bf40 f i TriangleMeshBuilder.obj
 0001:0001af60       ?destroy@?$Array@USharpEdgeRange@GrbTrimeshCookerHelper@physx@@VNamedAllocator@shdfnd@3@@shdfnd@physx@@KAXPAUSharpEdgeRange@GrbTrimeshCookerHelper@3@0@Z 1001bf60 f i TriangleMeshBuilder.obj
 0001:0001af80       ?destroy@?$Array@USortedNeighbor@GrbTrimeshCookerHelper@physx@@VNamedAllocator@shdfnd@3@@shdfnd@physx@@KAXPAUSortedNeighbor@GrbTrimeshCookerHelper@3@0@Z 1001bf80 f i TriangleMeshBuilder.obj
 0001:0001afa0       ?findEdgeCCW@?$TriangleT@I@Gu@physx@@QBEEII@Z 1001bfa0 f i TriangleMeshBuilder.obj
 0001:0001b0c0       ?getMidphaseID@BV4TriangleMeshBuilder@physx@@UBE?AW4Enum@PxMeshMidPhase@2@XZ 1001c0c0 f i TriangleMeshBuilder.obj
 0001:0001b0d0       ?getMidphaseID@RTreeTriangleMeshBuilder@physx@@UBE?AW4Enum@PxMeshMidPhase@2@XZ 1001c0d0 f i TriangleMeshBuilder.obj
 0001:0001b0e0       ?getName@?$ReflectionAllocator@E@shdfnd@physx@@CAPBDXZ 1001c0e0 f i TriangleMeshBuilder.obj
 0001:0001b120       ?getName@?$ReflectionAllocator@G@shdfnd@physx@@CAPBDXZ 1001c120 f i TriangleMeshBuilder.obj
 0001:0001b160       ?getName@?$ReflectionAllocator@VBV32Tree@Gu@physx@@@shdfnd@physx@@CAPBDXZ 1001c160 f i TriangleMeshBuilder.obj
 0001:0001b1a0       ?getName@?$ReflectionAllocator@VEdgeListBuilder@Gu@physx@@@shdfnd@physx@@CAPBDXZ 1001c1a0 f i TriangleMeshBuilder.obj
 0001:0001b1e0       ?getNbFaces@EdgeList@Gu@physx@@QBEIXZ 1001c1e0 f i TriangleMeshBuilder.obj
 0001:0001b200       ?getRemap@SourceMeshBase@Gu@physx@@QBEPBIXZ 1001c200 f i TriangleMeshBuilder.obj
 0001:0001b220       ?grow@?$Array@USharpEdgeRange@GrbTrimeshCookerHelper@physx@@VNamedAllocator@shdfnd@3@@shdfnd@physx@@IAEXI@Z 1001c220 f i TriangleMeshBuilder.obj
 0001:0001b280       ?grow@?$Array@USortedNeighbor@GrbTrimeshCookerHelper@physx@@VNamedAllocator@shdfnd@3@@shdfnd@physx@@IAEXI@Z 1001c280 f i TriangleMeshBuilder.obj
 0001:0001b2e0       ?growAndPushBack@?$Array@USortedNeighbor@GrbTrimeshCookerHelper@physx@@VNamedAllocator@shdfnd@3@@shdfnd@physx@@IAEAAUSortedNeighbor@GrbTrimeshCookerHelper@3@ABU453@@Z 1001c2e0 f i TriangleMeshBuilder.obj
 0001:0001b410       ?has16BitIndices@MeshDataBase@Gu@physx@@QBE_NXZ 1001c410 f i TriangleMeshBuilder.obj
 0001:0001b440       ?initRemap@SourceMeshBase@Gu@physx@@QAEXXZ 1001c440 f i TriangleMeshBuilder.obj
 0001:0001b460       ?isInUserMemory@?$Array@USharpEdgeRange@GrbTrimeshCookerHelper@physx@@VNamedAllocator@shdfnd@3@@shdfnd@physx@@QBEIXZ 1001c460 f i TriangleMeshBuilder.obj
 0001:0001b480       ?isInUserMemory@?$Array@USortedNeighbor@GrbTrimeshCookerHelper@physx@@VNamedAllocator@shdfnd@3@@shdfnd@physx@@QBEIXZ 1001c480 f i TriangleMeshBuilder.obj
 0001:0001b4a0       ?isValid@PxBVH33MidphaseDesc@physx@@QBE_NXZ 1001c4a0 f i TriangleMeshBuilder.obj
 0001:0001b4d0       ?isValid@PxBVH34MidphaseDesc@physx@@QBE_NXZ 1001c4d0 f i TriangleMeshBuilder.obj
 0001:0001b500       ?isValid@PxMidphaseDesc@physx@@QBE_NXZ 1001c500 f i TriangleMeshBuilder.obj
 0001:0001b540       ?onMeshIndexFormatChange@TriangleMeshBuilder@physx@@UAEXXZ 1001c540 f i TriangleMeshBuilder.obj
 0001:0001b550       ?pushBack@?$Array@USortedNeighbor@GrbTrimeshCookerHelper@physx@@VNamedAllocator@shdfnd@3@@shdfnd@physx@@QAEAAUSortedNeighbor@GrbTrimeshCookerHelper@3@ABU453@@Z 1001c550 f i TriangleMeshBuilder.obj
 0001:0001b5d0       ?recreate@?$Array@USharpEdgeRange@GrbTrimeshCookerHelper@physx@@VNamedAllocator@shdfnd@3@@shdfnd@physx@@IAEXI@Z 1001c5d0 f i TriangleMeshBuilder.obj
 0001:0001b6a0       ?recreate@?$Array@USortedNeighbor@GrbTrimeshCookerHelper@physx@@VNamedAllocator@shdfnd@3@@shdfnd@physx@@IAEXI@Z 1001c6a0 f i TriangleMeshBuilder.obj
 0001:0001b770       ?release@RTree@Gu@physx@@QAEXXZ 1001c770 f i TriangleMeshBuilder.obj
 0001:0001b7c0       ?releaseRemap@SourceMeshBase@Gu@physx@@QAEXXZ 1001c7c0 f i TriangleMeshBuilder.obj
 0001:0001b7f0       ?remap@RTreeCookerRemap@physx@@UAEXPAIII@Z 1001c7f0 f i TriangleMeshBuilder.obj
 0001:0001b950       ?reserve@?$Array@USharpEdgeRange@GrbTrimeshCookerHelper@physx@@VNamedAllocator@shdfnd@3@@shdfnd@physx@@QAEXI@Z 1001c950 f i TriangleMeshBuilder.obj
 0001:0001b980       ?reserve@?$Array@USortedNeighbor@GrbTrimeshCookerHelper@physx@@VNamedAllocator@shdfnd@3@@shdfnd@physx@@QAEXI@Z 1001c980 f i TriangleMeshBuilder.obj
 0001:0001b9b0       ?resize@?$Array@USharpEdgeRange@GrbTrimeshCookerHelper@physx@@VNamedAllocator@shdfnd@3@@shdfnd@physx@@QAEXIABUSharpEdgeRange@GrbTrimeshCookerHelper@3@@Z 1001c9b0 f i TriangleMeshBuilder.obj
 0001:0001ba20       ?resizeUninitialized@?$Array@USortedNeighbor@GrbTrimeshCookerHelper@physx@@VNamedAllocator@shdfnd@3@@shdfnd@physx@@QAEXI@Z 1001ca20 f i TriangleMeshBuilder.obj
 0001:0001ba50       ?setNbTriangles@SourceMesh@Gu@physx@@QAEXI@Z 1001ca50 f i TriangleMeshBuilder.obj
 0001:0001ba70       ?setNbVertices@SourceMeshBase@Gu@physx@@QAEXI@Z 1001ca70 f i TriangleMeshBuilder.obj
 0001:0001ba90       ?setPointers@SourceMesh@Gu@physx@@QAEXPAVIndTri32@23@PAVIndTri16@23@PBVPxVec3@3@@Z 1001ca90 f i TriangleMeshBuilder.obj
 0001:0001bac0       ?setTriangleAdjacency@TriangleMeshData@Gu@physx@@QAEXIII@Z 1001cac0 f i TriangleMeshBuilder.obj
 0001:0001bb20       ?size@?$Array@USortedNeighbor@GrbTrimeshCookerHelper@physx@@VNamedAllocator@shdfnd@3@@shdfnd@physx@@QBEIXZ 1001cb20 f i TriangleMeshBuilder.obj
 0001:0001bb40       ?to16@shdfnd@physx@@YAGI@Z 1001cb40 f i TriangleMeshBuilder.obj
 0001:0001bb90       ?writeChunk@physx@@YAXCCCCAAVPxOutputStream@1@@Z 1001cb90 f i TriangleMeshBuilder.obj
 0001:0001bbe0       ?writeIntBuffer@physx@@YAXPBII_NAAVPxOutputStream@1@@Z 1001cbe0 f i TriangleMeshBuilder.obj
 0001:0001bc00       ??0BigConvexDataBuilder@physx@@QAE@PBUConvexHullData@Gu@1@PAVBigConvexData@1@PBVPxVec3@1@@Z 1001cc00 f   BigConvexDataBuilder.obj
 0001:0001bc30       ??1BigConvexDataBuilder@physx@@QAE@XZ 1001cc30 f   BigConvexDataBuilder.obj
 0001:0001bc40       ?precompute@BigConvexDataBuilder@physx@@QAE_NI@Z 1001cc40 f   BigConvexDataBuilder.obj
 0001:0001c210       ?initialize@BigConvexDataBuilder@physx@@QAE_NXZ 1001d210 f   BigConvexDataBuilder.obj
 0001:0001c260       ?save@BigConvexDataBuilder@physx@@QBE_NAAVPxOutputStream@2@_N@Z 1001d260 f   BigConvexDataBuilder.obj
 0001:0001c340       ?computeValencies@BigConvexDataBuilder@physx@@QAE_NABVConvexHullBuilder@2@@Z 1001d340 f   BigConvexDataBuilder.obj
 0001:0001c8d0       ?saveValencies@BigConvexDataBuilder@physx@@QBE_NAAVPxOutputStream@2@_N@Z 1001d8d0 f   BigConvexDataBuilder.obj
 0001:0001ca60       ??0BigConvexData@physx@@QAE@W4PxEMPTY@1@@Z 1001da60 f i BigConvexDataBuilder.obj
 0001:0001ca70       ??4BigConvexData@physx@@QAEAAV01@ABV01@@Z 1001da70 f i BigConvexDataBuilder.obj
 0001:0001caa0       ?GetAdjacentVerts@BigConvexData@physx@@QBEPBEXZ 1001daa0 f i BigConvexDataBuilder.obj
 0001:0001cac0       ?GetNbNeighbors@BigConvexData@physx@@QBEGI@Z 1001dac0 f i BigConvexDataBuilder.obj
 0001:0001cae0       ?GetNbSamples@BigConvexData@physx@@QBEIXZ 1001dae0 f i BigConvexDataBuilder.obj
 0001:0001cb00       ?GetNbVerts@BigConvexData@physx@@QBEIXZ 1001db00 f i BigConvexDataBuilder.obj
 0001:0001cb20       ?GetNeighbors@BigConvexData@physx@@QBEPBEI@Z 1001db20 f i BigConvexDataBuilder.obj
 0001:0001cb50       ?GetOffset@BigConvexData@physx@@QBEGI@Z 1001db50 f i BigConvexDataBuilder.obj
 0001:0001cb70       ?GetSubdiv@BigConvexData@physx@@QBEIXZ 1001db70 f i BigConvexDataBuilder.obj
 0001:0001cb90       ?GetValencies@BigConvexData@physx@@QBEPBUValency@Gu@2@XZ 1001db90 f i BigConvexDataBuilder.obj
 0001:0001cbb0       ?GetValency@BigConvexData@physx@@QBEGI@Z 1001dbb0 f i BigConvexDataBuilder.obj
 0001:0001cbd0       ?precomputeSample@BigConvexDataBuilder@physx@@IAEXABVPxVec3@2@AAEM@Z 1001dbd0 f i BigConvexDataBuilder.obj
 0001:0001ce30       ??0ConvexHullBuilder@physx@@QAE@PAUConvexHullData@Gu@1@_N@Z 1001de30 f   ConvexHullBuilder.obj
 0001:0001cea0       ??1ConvexHullBuilder@physx@@QAE@XZ 1001dea0 f   ConvexHullBuilder.obj
 0001:0001cfa0       ?init@ConvexHullBuilder@physx@@QAE_NIPBVPxVec3@2@PBIIIPBUPxHullPolygon@2@_NPAVConvexHullLib@2@@Z 1001dfa0 f   ConvexHullBuilder.obj
 0001:0001d550       ?save@ConvexHullBuilder@physx@@QBE_NAAVPxOutputStream@2@_N@Z 1001e550 f   ConvexHullBuilder.obj
 0001:0001d7e0       ?copy@ConvexHullBuilder@physx@@QAE_NAAUConvexHullData@Gu@2@AAI@Z 1001e7e0 f   ConvexHullBuilder.obj
 0001:0001dcc0       ?createEdgeList@ConvexHullBuilder@physx@@QAE_N_NI@Z 1001ecc0 f   ConvexHullBuilder.obj
 0001:0001e6a0       ?checkHullPolygons@ConvexHullBuilder@physx@@QBE_NXZ 1001f6a0 f   ConvexHullBuilder.obj
 0001:0001ee50       ?calculateVertexMapTable@ConvexHullBuilder@physx@@QAE_NI_N@Z 1001fe50 f   ConvexHullBuilder.obj
 0001:0001f060       ?computeGeomCenter@ConvexHullBuilder@physx@@IBE_NAAVPxVec3@2@IPAUHullTriangleData@2@@Z 10020060 f   ConvexHullBuilder.obj
 0001:0001f190       ??$?_UUEdgeDescData@Gu@physx@@@@YAPAXIV?$ReflectionAllocator@UEdgeDescData@Gu@physx@@@shdfnd@physx@@PBDH@Z 10020190 f i ConvexHullBuilder.obj
 0001:0001f1b0       ??$?_U_N@@YAPAXIV?$ReflectionAllocator@_N@shdfnd@physx@@PBDH@Z 100201b0 f i ConvexHullBuilder.obj
 0001:0001f1d0       ??0?$PxBitAndDataT@G$0IAAA@@physx@@QAE@G_N@Z 100201d0 f i ConvexHullBuilder.obj
 0001:0001f210       ??0?$ReflectionAllocator@UEdgeDescData@Gu@physx@@@shdfnd@physx@@QAE@PBD@Z 10020210 f i ConvexHullBuilder.obj
 0001:0001f220       ??0?$ReflectionAllocator@_N@shdfnd@physx@@QAE@PBD@Z 10020220 f i ConvexHullBuilder.obj
 0001:0001f230       ??0?$TriangleT@I@Gu@physx@@QAE@III@Z 10020230 f i ConvexHullBuilder.obj
 0001:0001f280       ??0HullPolygonData@Gu@physx@@QAE@ABU012@@Z 10020280 f i ConvexHullBuilder.obj
 0001:0001f2d0       ??0PxPlane@physx@@QAE@ABV01@@Z 100202d0 f i ConvexHullBuilder.obj
 0001:0001f300       ??0PxPlane@physx@@QAE@MMMM@Z 10020300 f i ConvexHullBuilder.obj
 0001:0001f350       ??4PxPlane@physx@@QAEAAV01@$$QAV01@@Z 10020350 f i ConvexHullBuilder.obj
 0001:0001f380       ?PxMemSet@physx@@YAPAXPAXHI@Z 10020380 f i ConvexHullBuilder.obj
 0001:0001f3a0       ?allocate@?$ReflectionAllocator@UEdgeDescData@Gu@physx@@@shdfnd@physx@@QAEPAXIPBDH@Z 100203a0 f i ConvexHullBuilder.obj
 0001:0001f3f0       ?allocate@?$ReflectionAllocator@_N@shdfnd@physx@@QAEPAXIPBDH@Z 100203f0 f i ConvexHullBuilder.obj
 0001:0001f440       ?area@?$TriangleT@I@Gu@physx@@QBEMPBVPxVec3@3@@Z 10020440 f i ConvexHullBuilder.obj
 0001:0001f4e0       ?center@?$TriangleT@I@Gu@physx@@QBEXPBVPxVec3@3@AAV43@@Z 100204e0 f i ConvexHullBuilder.obj
 0001:0001f570       ?computeBufferSize@Gu@physx@@YAIABUConvexHullData@12@I@Z 10020570 f i ConvexHullBuilder.obj
 0001:0001f630       ?computeNbPolygons@ConvexHullBuilder@physx@@QBEIXZ 10020630 f i ConvexHullBuilder.obj
 0001:0001f690       ?flip@physx@@YAXAAG@Z      10020690 f i ConvexHullBuilder.obj
 0001:0001f6e0       ?flip@physx@@YAXAAM@Z      100206e0 f i ConvexHullBuilder.obj
 0001:0001f770       ?flipData@Gu@physx@@YAXAAUHullPolygonData@12@@Z 10020770 f i ConvexHullBuilder.obj
 0001:0001f7c0       ?getName@?$ReflectionAllocator@UEdgeDescData@Gu@physx@@@shdfnd@physx@@CAPBDXZ 100207c0 f i ConvexHullBuilder.obj
 0001:0001f800       ?getName@?$ReflectionAllocator@_N@shdfnd@physx@@CAPBDXZ 10020800 f i ConvexHullBuilder.obj
 0001:0001f840       ?memSet@intrinsics@physx@@YAPAXPAXHI@Z 10020840 f i ConvexHullBuilder.obj
 0001:0001f860       ?to8@shdfnd@physx@@YAEI@Z  10020860 f i ConvexHullBuilder.obj
 0001:0001f8b0       ??1ConvexHullLib@physx@@UAE@XZ 100208b0 f   ConvexHullLib.obj
 0001:0001f910       ?cleanupVertices@ConvexHullLib@physx@@IAE_NIPBVPxVec3@2@IAAIPAV32@AAV32@3@Z 10020910 f   ConvexHullLib.obj
 0001:0001fd90       ?shiftAndcleanupVertices@ConvexHullLib@physx@@IAE_NIPBVPxVec3@2@IAAIPAV32@AAV32@3@Z 10020d90 f   ConvexHullLib.obj
 0001:0001feb0       ?swapLargestFace@ConvexHullLib@physx@@IAEXAAVPxConvexMeshDesc@2@@Z 10020eb0 f   ConvexHullLib.obj
 0001:00020180       ?shiftConvexMeshDesc@ConvexHullLib@physx@@IAEXAAVPxConvexMeshDesc@2@@Z 10021180 f   ConvexHullLib.obj
 0001:00020740       ??_GConvexHullLib@physx@@UAEPAXI@Z 10021740 f i ConvexHullLib.obj
 0001:00020740       ??_EConvexHullLib@physx@@UAEPAXI@Z 10021740 f i ConvexHullLib.obj
 0001:00020770       ??0ConvexHull@physx@@QAE@ABVPxVec3@1@0ABV?$Array@VPxPlane@physx@@VNamedAllocator@shdfnd@2@@shdfnd@1@@Z 10021770 f   ConvexHullUtils.obj
 0001:00020e30       ??0ConvexHull@physx@@QAE@ABVPxVec3@1@ABVPxTransform@1@ABV?$Array@VPxPlane@physx@@VNamedAllocator@shdfnd@2@@shdfnd@1@@Z 10021e30 f   ConvexHullUtils.obj
 0001:00021650       ?findCandidatePlane@ConvexHull@physx@@QBEHMM@Z 10022650 f   ConvexHullUtils.obj
 0001:00021970       ?assertIntact@ConvexHull@physx@@QBE_NM@Z 10022970 f   ConvexHullUtils.obj
 0001:00021ef0       ?maxNumVertsPerFace@ConvexHull@physx@@QBEIXZ 10022ef0 f   ConvexHullUtils.obj
 0001:00021f90       ?convexHullCrop@physx@@YAPAVConvexHull@1@ABV21@ABVPxPlane@1@M@Z 10022f90 f   ConvexHullUtils.obj
 0001:00023060       ?computeOBBFromConvex@physx@@YA_NABVPxConvexMeshDesc@1@AAVPxVec3@1@AAVPxTransform@1@@Z 10024060 f   ConvexHullUtils.obj
 0001:00023760       ?computeOBBSIMD@local@@YAXIPBT__m128@@AAT2@ABT2@1@Z 10024760 f   ConvexHullUtils.obj
 0001:00023ae0       ??$?2V?$ReflectionAllocator@VConvexHull@physx@@@shdfnd@physx@@@UserAllocated@shdfnd@physx@@SAPAXIV?$ReflectionAllocator@VConvexHull@physx@@@12@PBDH@Z 10024ae0 f i ConvexHullUtils.obj
 0001:00023b00       ??0?$Array@VHalfEdge@ConvexHull@physx@@VNamedAllocator@shdfnd@3@@shdfnd@physx@@QAE@ABVNamedAllocator@12@@Z 10024b00 f i ConvexHullUtils.obj
 0001:00023b40       ??0?$Array@VPxPlane@physx@@VNamedAllocator@shdfnd@2@@shdfnd@physx@@QAE@ABVNamedAllocator@12@@Z 10024b40 f i ConvexHullUtils.obj
 0001:00023b80       ??0?$ReflectionAllocator@VConvexHull@physx@@@shdfnd@physx@@QAE@PBD@Z 10024b80 f i ConvexHullUtils.obj
 0001:00023b90       ??0Box@Gu@physx@@QAE@ABV012@@Z 10024b90 f i ConvexHullUtils.obj
 0001:00023bd0       ??0Box@Gu@physx@@QAE@ABVPxVec3@2@0ABVPxMat33@2@@Z 10024bd0 f i ConvexHullUtils.obj
 0001:00023c10       ??0Box@Gu@physx@@QAE@XZ    10024c10 f i ConvexHullUtils.obj
 0001:00023c40       ??0ConvexHull@physx@@QAE@ABV01@@Z 10024c40 f i ConvexHullUtils.obj
 0001:00023cd0       ??0ConvexHull@physx@@QAE@ABV?$Array@VPxPlane@physx@@VNamedAllocator@shdfnd@2@@shdfnd@1@@Z 10024cd0 f i ConvexHullUtils.obj
 0001:00023d50       ??0HalfEdge@ConvexHull@physx@@QAE@FEE@Z 10024d50 f i ConvexHullUtils.obj
 0001:00023d80       ??0HalfEdge@ConvexHull@physx@@QAE@XZ 10024d80 f i ConvexHullUtils.obj
 0001:00023d90       ??0Mat33V@aos@shdfnd@physx@@QAE@XZ 10024d90 f i ConvexHullUtils.obj
 0001:00023da0       ??0PxBoundedData@physx@@QAE@XZ 10024da0 f i ConvexHullUtils.obj
 0001:00023dc0       ??0PxConvexMeshDesc@physx@@QAE@XZ 10024dc0 f i ConvexHullUtils.obj
 0001:00023e10       ??0PxIntegrals@physx@@QAE@XZ 10024e10 f i ConvexHullUtils.obj
 0001:00023e30       ??0PxMat33@physx@@QAE@ABV01@@Z 10024e30 f i ConvexHullUtils.obj
 0001:00023e70       ??0PxMat33@physx@@QAE@ABVPxQuat@1@@Z 10024e70 f i ConvexHullUtils.obj
 0001:00024070       ??0PxMat33@physx@@QAE@ABVPxVec3@1@00@Z 10025070 f i ConvexHullUtils.obj
 0001:000240b0       ??0PxMat33@physx@@QAE@W4PxIDENTITY@1@@Z 100250b0 f i ConvexHullUtils.obj
 0001:00024150       ??0PxPlane@physx@@QAE@ABVPxVec3@1@M@Z 10025150 f i ConvexHullUtils.obj
 0001:00024180       ??0PxPlane@physx@@QAE@XZ   10025180 f i ConvexHullUtils.obj
 0001:000241a0       ??0PxQuat@physx@@QAE@ABV01@@Z 100251a0 f i ConvexHullUtils.obj
 0001:000241e0       ??0PxQuat@physx@@QAE@ABVPxMat33@1@@Z 100251e0 f i ConvexHullUtils.obj
 0001:00024530       ??0PxQuat@physx@@QAE@MABVPxVec3@1@@Z 10025530 f i ConvexHullUtils.obj
 0001:00024610       ??0PxQuat@physx@@QAE@MMMM@Z 10025610 f i ConvexHullUtils.obj
 0001:00024660       ??0PxQuat@physx@@QAE@XZ    10025660 f i ConvexHullUtils.obj
 0001:00024670       ??0PxStridedData@physx@@QAE@XZ 10025670 f i ConvexHullUtils.obj
 0001:000246a0       ??0PxTransform@physx@@QAE@ABVPxVec3@1@ABVPxQuat@1@@Z 100256a0 f i ConvexHullUtils.obj
 0001:000246f0       ??1Box@Gu@physx@@QAE@XZ    100256f0 f i ConvexHullUtils.obj
 0001:00024700       ??4Box@Gu@physx@@QAEABV012@ABV012@@Z 10025700 f i ConvexHullUtils.obj
 0001:00024740       ??4PxMat33@physx@@QAEAAV01@ABV01@@Z 10025740 f i ConvexHullUtils.obj
 0001:00024780       ??4PxPlane@physx@@QAEAAV01@ABV01@@Z 10025780 f i ConvexHullUtils.obj
 0001:000247b0       ??4PxQuat@physx@@QAEAAV01@ABV01@@Z 100257b0 f i ConvexHullUtils.obj
 0001:000247f0       ??8PxPlane@physx@@QBE_NABV01@@Z 100257f0 f i ConvexHullUtils.obj
 0001:00024840       ??8PxVec3@physx@@QBE_NABV01@@Z 10025840 f i ConvexHullUtils.obj
 0001:000248a0       ??A?$Array@VHalfEdge@ConvexHull@physx@@VNamedAllocator@shdfnd@3@@shdfnd@physx@@QAEAAVHalfEdge@ConvexHull@2@I@Z 100258a0 f i ConvexHullUtils.obj
 0001:00024900       ??A?$Array@VHalfEdge@ConvexHull@physx@@VNamedAllocator@shdfnd@3@@shdfnd@physx@@QBEABVHalfEdge@ConvexHull@2@I@Z 10025900 f i ConvexHullUtils.obj
 0001:00024960       ??A?$Array@VPxPlane@physx@@VNamedAllocator@shdfnd@2@@shdfnd@physx@@QBEABVPxPlane@2@I@Z 10025960 f i ConvexHullUtils.obj
 0001:000249c0       ??A?$Array@VPxVec3@physx@@VNamedAllocator@shdfnd@2@@shdfnd@physx@@QBEABVPxVec3@2@I@Z 100259c0 f i ConvexHullUtils.obj
 0001:00024a20       ??APxMat33@physx@@QAEAAVPxVec3@1@I@Z 10025a20 f i ConvexHullUtils.obj
 0001:00024a40       ??APxMat33@physx@@QBEABVPxVec3@1@I@Z 10025a40 f i ConvexHullUtils.obj
 0001:00024a60       ??DPxMat33@physx@@QBE?BVPxVec3@1@ABV21@@Z 10025a60 f i ConvexHullUtils.obj
 0001:00024a80       ??DPxQuat@physx@@QBE?AV01@M@Z 10025a80 f i ConvexHullUtils.obj
 0001:00024af0       ??GPxVec3@physx@@QBE?AV01@XZ 10025af0 f i ConvexHullUtils.obj
 0001:00024b50       ??RPxMat33@physx@@QAEAAMII@Z 10025b50 f i ConvexHullUtils.obj
 0001:00024b80       ?FAdd@aos@shdfnd@physx@@YA?AT__m128@@T4@0@Z 10025b80 f i ConvexHullUtils.obj
 0001:00024c40       ?FMul@aos@shdfnd@physx@@YA?AT__m128@@T4@0@Z 10025c40 f i ConvexHullUtils.obj
 0001:00024d00       ?FScaleAdd@aos@shdfnd@physx@@YA?AT__m128@@T4@00@Z 10025d00 f i ConvexHullUtils.obj
 0001:00024e20       ?PxCos@physx@@YAMM@Z       10025e20 f i ConvexHullUtils.obj
 0001:00024e40       ?PxSin@physx@@YAMM@Z       10025e40 f i ConvexHullUtils.obj
 0001:00024e60       ?QuatGetMat33V@aos@shdfnd@physx@@YAXABT__m128@@AAT4@11@Z 10025e60 f i ConvexHullUtils.obj
 0001:00025060       ?QuatRotateInv@aos@shdfnd@physx@@YA?AT__m128@@T4@0@Z 10026060 f i ConvexHullUtils.obj
 0001:000251e0       ?QuatVLoadU@aos@shdfnd@physx@@YA?AT__m128@@PBM@Z 100261e0 f i ConvexHullUtils.obj
 0001:00025220       ?V3Cross@aos@shdfnd@physx@@YA?AT__m128@@T4@0@Z 10026220 f i ConvexHullUtils.obj
 0001:00025380       ?V3NegScaleSub@aos@shdfnd@physx@@YA?AT__m128@@T4@00@Z 10026380 f i ConvexHullUtils.obj
 0001:000254a0       ?V3Scale@aos@shdfnd@physx@@YA?AT__m128@@T4@0@Z 100264a0 f i ConvexHullUtils.obj
 0001:00025560       ?V3ScaleAdd@aos@shdfnd@physx@@YA?AT__m128@@T4@00@Z 10026560 f i ConvexHullUtils.obj
 0001:00025680       ?V4GetW@aos@shdfnd@physx@@YA?AT__m128@@T4@@Z 10026680 f i ConvexHullUtils.obj
 0001:000256c0       ?V4GetX@aos@shdfnd@physx@@YA?AT__m128@@T4@@Z 100266c0 f i ConvexHullUtils.obj
 0001:00025700       ?V4GetY@aos@shdfnd@physx@@YA?AT__m128@@T4@@Z 10026700 f i ConvexHullUtils.obj
 0001:00025740       ?V4GetZ@aos@shdfnd@physx@@YA?AT__m128@@T4@@Z 10026740 f i ConvexHullUtils.obj
 0001:00025780       ?V4Max@aos@shdfnd@physx@@YA?AT__m128@@T4@0@Z 10026780 f i ConvexHullUtils.obj
 0001:000257c0       ?V4Min@aos@shdfnd@physx@@YA?AT__m128@@T4@0@Z 100267c0 f i ConvexHullUtils.obj
 0001:00025800       ?V4Mul@aos@shdfnd@physx@@YA?AT__m128@@T4@0@Z 10026800 f i ConvexHullUtils.obj
 0001:00025840       ?V4MulAdd@aos@shdfnd@physx@@YA?AT__m128@@T4@00@Z 10026840 f i ConvexHullUtils.obj
 0001:000258a0       ?V4Neg@aos@shdfnd@physx@@YA?AT__m128@@T4@@Z 100268a0 f i ConvexHullUtils.obj
 0001:000258e0       ?Vec4V_From_Vec3V@aos@shdfnd@physx@@YA?AT__m128@@T4@@Z 100268e0 f i ConvexHullUtils.obj
 0001:00025910       ?allocate@?$Array@VHalfEdge@ConvexHull@physx@@VNamedAllocator@shdfnd@3@@shdfnd@physx@@IAEPAVHalfEdge@ConvexHull@3@I@Z 10026910 f i ConvexHullUtils.obj
 0001:00025980       ?allocate@?$Array@VPxPlane@physx@@VNamedAllocator@shdfnd@2@@shdfnd@physx@@IAEPAVPxPlane@3@I@Z 10026980 f i ConvexHullUtils.obj
 0001:000259f0       ?allocate@?$ReflectionAllocator@VConvexHull@physx@@@shdfnd@physx@@QAEPAXIPBDH@Z 100269f0 f i ConvexHullUtils.obj
 0001:00025a40       ?begin@?$Array@VHalfEdge@ConvexHull@physx@@VNamedAllocator@shdfnd@3@@shdfnd@physx@@QAEPAVHalfEdge@ConvexHull@3@XZ 10026a40 f i ConvexHullUtils.obj
 0001:00025a50       ?begin@?$Array@VHalfEdge@ConvexHull@physx@@VNamedAllocator@shdfnd@3@@shdfnd@physx@@QBEPBVHalfEdge@ConvexHull@3@XZ 10026a50 f i ConvexHullUtils.obj
 0001:00025a60       ?begin@?$Array@VPxPlane@physx@@VNamedAllocator@shdfnd@2@@shdfnd@physx@@QAEPAVPxPlane@3@XZ 10026a60 f i ConvexHullUtils.obj
 0001:00025a70       ?begin@?$Array@VPxPlane@physx@@VNamedAllocator@shdfnd@2@@shdfnd@physx@@QBEPBVPxPlane@3@XZ 10026a70 f i ConvexHullUtils.obj
 0001:00025a80       ?begin@?$Array@VPxVec3@physx@@VNamedAllocator@shdfnd@2@@shdfnd@physx@@QBEPBVPxVec3@3@XZ 10026a80 f i ConvexHullUtils.obj
 0001:00025a90       ?capacity@?$Array@VHalfEdge@ConvexHull@physx@@VNamedAllocator@shdfnd@3@@shdfnd@physx@@QBEIXZ 10026a90 f i ConvexHullUtils.obj
 0001:00025ab0       ?capacity@?$Array@VPxPlane@physx@@VNamedAllocator@shdfnd@2@@shdfnd@physx@@QBEIXZ 10026ab0 f i ConvexHullUtils.obj
 0001:00025ad0       ?capacityIncrement@?$Array@VHalfEdge@ConvexHull@physx@@VNamedAllocator@shdfnd@3@@shdfnd@physx@@IBEIXZ 10026ad0 f i ConvexHullUtils.obj
 0001:00025b10       ?capacityIncrement@?$Array@VPxPlane@physx@@VNamedAllocator@shdfnd@2@@shdfnd@physx@@IBEIXZ 10026b10 f i ConvexHullUtils.obj
 0001:00025b50       ?computeAABBExtent@Box@Gu@physx@@QBE?AVPxVec3@3@XZ 10026b50 f i ConvexHullUtils.obj
 0001:00025d80       ?computeBoxPoints@Box@Gu@physx@@QBEXPIAVPxVec3@3@@Z 10026d80 f i ConvexHullUtils.obj
 0001:00025dc0       ?copy@?$Array@VHalfEdge@ConvexHull@physx@@VNamedAllocator@shdfnd@3@@shdfnd@physx@@KAXPAVHalfEdge@ConvexHull@3@0PBV453@@Z 10026dc0 f i ConvexHullUtils.obj
 0001:00025e10       ?copy@?$Array@VPxPlane@physx@@VNamedAllocator@shdfnd@2@@shdfnd@physx@@KAXPAVPxPlane@3@0PBV43@@Z 10026e10 f i ConvexHullUtils.obj
 0001:00025e60       ?copyHull@ConvexHull@physx@@QAEXABV12@@Z 10026e60 f i ConvexHullUtils.obj
 0001:00025f80       ?cos@intrinsics@physx@@YAMM@Z 10026f80 f i ConvexHullUtils.obj
 0001:00025fa0       ?create@?$Array@VHalfEdge@ConvexHull@physx@@VNamedAllocator@shdfnd@3@@shdfnd@physx@@KAXPAVHalfEdge@ConvexHull@3@0ABV453@@Z 10026fa0 f i ConvexHullUtils.obj
 0001:00025fe0       ?create@?$Array@VPxPlane@physx@@VNamedAllocator@shdfnd@2@@shdfnd@physx@@KAXPAVPxPlane@3@0ABV43@@Z 10026fe0 f i ConvexHullUtils.obj
 0001:00026020       ?create@?$Array@VPxVec3@physx@@VNamedAllocator@shdfnd@2@@shdfnd@physx@@KAXPAVPxVec3@3@0ABV43@@Z 10027020 f i ConvexHullUtils.obj
 0001:00026060       ?deallocate@?$Array@VHalfEdge@ConvexHull@physx@@VNamedAllocator@shdfnd@3@@shdfnd@physx@@IAEXPAX@Z 10027060 f i ConvexHullUtils.obj
 0001:00026080       ?deallocate@?$Array@VPxPlane@physx@@VNamedAllocator@shdfnd@2@@shdfnd@physx@@IAEXPAX@Z 10027080 f i ConvexHullUtils.obj
 0001:000260a0       ?degToRad@shdfnd@physx@@YAMM@Z 100270a0 f i ConvexHullUtils.obj
 0001:000260c0       ?destroy@?$Array@VHalfEdge@ConvexHull@physx@@VNamedAllocator@shdfnd@3@@shdfnd@physx@@KAXPAVHalfEdge@ConvexHull@3@0@Z 100270c0 f i ConvexHullUtils.obj
 0001:000260e0       ?destroy@?$Array@VPxPlane@physx@@VNamedAllocator@shdfnd@2@@shdfnd@physx@@KAXPAVPxPlane@3@0@Z 100270e0 f i ConvexHullUtils.obj
 0001:00026100       ?getDeterminant@PxMat33@physx@@QBEMXZ 10027100 f i ConvexHullUtils.obj
 0001:00026130       ?getEdges@ConvexHull@physx@@QAEAAV?$Array@VHalfEdge@ConvexHull@physx@@VNamedAllocator@shdfnd@3@@shdfnd@2@XZ 10027130 f i ConvexHullUtils.obj
 0001:00026150       ?getEdges@ConvexHull@physx@@QBEABV?$Array@VHalfEdge@ConvexHull@physx@@VNamedAllocator@shdfnd@3@@shdfnd@2@XZ 10027150 f i ConvexHullUtils.obj
 0001:00026170       ?getFacets@ConvexHull@physx@@QAEAAV?$Array@VPxPlane@physx@@VNamedAllocator@shdfnd@2@@shdfnd@2@XZ 10027170 f i ConvexHullUtils.obj
 0001:00026190       ?getFacets@ConvexHull@physx@@QBEABV?$Array@VPxPlane@physx@@VNamedAllocator@shdfnd@2@@shdfnd@2@XZ 10027190 f i ConvexHullUtils.obj
 0001:000261b0       ?getInputPlanes@ConvexHull@physx@@QBEABV?$Array@VPxPlane@physx@@VNamedAllocator@shdfnd@2@@shdfnd@2@XZ 100271b0 f i ConvexHullUtils.obj
 0001:000261d0       ?getInverse@PxMat33@physx@@QBE?BV12@XZ 100271d0 f i ConvexHullUtils.obj
 0001:000263f0       ?getName@?$ReflectionAllocator@VConvexHull@physx@@@shdfnd@physx@@CAPBDXZ 100273f0 f i ConvexHullUtils.obj
 0001:00026430       ?getOriginInertia@PxIntegrals@physx@@QAEXAAVPxMat33@2@@Z 10027430 f i ConvexHullUtils.obj
 0001:000264b0       ?getTransform@Box@Gu@physx@@QBE?AVPxTransform@3@XZ 100274b0 f i ConvexHullUtils.obj
 0001:000264e0       ?getTranspose@PxMat33@physx@@QBE?BV12@XZ 100274e0 f i ConvexHullUtils.obj
 0001:000265a0       ?getVertices@ConvexHull@physx@@QAEAAV?$Array@VPxVec3@physx@@VNamedAllocator@shdfnd@2@@shdfnd@2@XZ 100275a0 f i ConvexHullUtils.obj
 0001:000265b0       ?getVertices@ConvexHull@physx@@QBEABV?$Array@VPxVec3@physx@@VNamedAllocator@shdfnd@2@@shdfnd@2@XZ 100275b0 f i ConvexHullUtils.obj
 0001:000265c0       ?grow@?$Array@VHalfEdge@ConvexHull@physx@@VNamedAllocator@shdfnd@3@@shdfnd@physx@@IAEXI@Z 100275c0 f i ConvexHullUtils.obj
 0001:00026620       ?grow@?$Array@VPxPlane@physx@@VNamedAllocator@shdfnd@2@@shdfnd@physx@@IAEXI@Z 10027620 f i ConvexHullUtils.obj
 0001:00026680       ?growAndPushBack@?$Array@VHalfEdge@ConvexHull@physx@@VNamedAllocator@shdfnd@3@@shdfnd@physx@@IAEAAVHalfEdge@ConvexHull@3@ABV453@@Z 10027680 f i ConvexHullUtils.obj
 0001:000267b0       ?growAndPushBack@?$Array@VPxPlane@physx@@VNamedAllocator@shdfnd@2@@shdfnd@physx@@IAEAAVPxPlane@3@ABV43@@Z 100277b0 f i ConvexHullUtils.obj
 0001:000268e0       ?isFinite@PxQuat@physx@@QBE_NXZ 100278e0 f i ConvexHullUtils.obj
 0001:00026980       ?isInUserMemory@?$Array@VHalfEdge@ConvexHull@physx@@VNamedAllocator@shdfnd@3@@shdfnd@physx@@QBEIXZ 10027980 f i ConvexHullUtils.obj
 0001:000269a0       ?isInUserMemory@?$Array@VPxPlane@physx@@VNamedAllocator@shdfnd@2@@shdfnd@physx@@QBEIXZ 100279a0 f i ConvexHullUtils.obj
 0001:000269c0       ?isSane@PxQuat@physx@@QBE_NXZ 100279c0 f i ConvexHullUtils.obj
 0001:00026a40       ?isValid@Box@Gu@physx@@QBE_NXZ 10027a40 f i ConvexHullUtils.obj
 0001:00026a80       ?magnitude@PxQuat@physx@@QBEMXZ 10027a80 f i ConvexHullUtils.obj
 0001:00026aa0       ?magnitudeSquared@PxQuat@physx@@QBEMXZ 10027aa0 f i ConvexHullUtils.obj
 0001:00026b00       ?pushBack@?$Array@VHalfEdge@ConvexHull@physx@@VNamedAllocator@shdfnd@3@@shdfnd@physx@@QAEAAVHalfEdge@ConvexHull@3@ABV453@@Z 10027b00 f i ConvexHullUtils.obj
 0001:00026b80       ?pushBack@?$Array@VPxPlane@physx@@VNamedAllocator@shdfnd@2@@shdfnd@physx@@QAEAAVPxPlane@3@ABV43@@Z 10027b80 f i ConvexHullUtils.obj
 0001:00026c00       ?recreate@?$Array@VHalfEdge@ConvexHull@physx@@VNamedAllocator@shdfnd@3@@shdfnd@physx@@IAEXI@Z 10027c00 f i ConvexHullUtils.obj
 0001:00026cd0       ?recreate@?$Array@VPxPlane@physx@@VNamedAllocator@shdfnd@2@@shdfnd@physx@@IAEXI@Z 10027cd0 f i ConvexHullUtils.obj
 0001:00026da0       ?reserve@?$Array@VHalfEdge@ConvexHull@physx@@VNamedAllocator@shdfnd@3@@shdfnd@physx@@QAEXI@Z 10027da0 f i ConvexHullUtils.obj
 0001:00026dd0       ?reserve@?$Array@VPxPlane@physx@@VNamedAllocator@shdfnd@2@@shdfnd@physx@@QAEXI@Z 10027dd0 f i ConvexHullUtils.obj
 0001:00026e00       ?resize@?$Array@VHalfEdge@ConvexHull@physx@@VNamedAllocator@shdfnd@3@@shdfnd@physx@@QAEXIABVHalfEdge@ConvexHull@3@@Z 10027e00 f i ConvexHullUtils.obj
 0001:00026e70       ?resize@?$Array@VPxPlane@physx@@VNamedAllocator@shdfnd@2@@shdfnd@physx@@QAEXIABVPxPlane@3@@Z 10027e70 f i ConvexHullUtils.obj
 0001:00026ee0       ?resize@?$Array@VPxVec3@physx@@VNamedAllocator@shdfnd@2@@shdfnd@physx@@QAEXIABVPxVec3@3@@Z 10027ee0 f i ConvexHullUtils.obj
 0001:00026f50       ?rotate@Box@Gu@physx@@QBE?AVPxVec3@3@ABV43@@Z 10027f50 f i ConvexHullUtils.obj
 0001:00026f70       ?rotateInv@Box@Gu@physx@@QBE?AVPxVec3@3@ABV43@@Z 10027f70 f i ConvexHullUtils.obj
 0001:00026f90       ?setAxes@Box@Gu@physx@@QAEXABVPxVec3@3@00@Z 10027f90 f i ConvexHullUtils.obj
 0001:00026fd0       ?setEmpty@Box@Gu@physx@@QAEXXZ 10027fd0 f i ConvexHullUtils.obj
 0001:00027050       ?sin@intrinsics@physx@@YAMM@Z 10028050 f i ConvexHullUtils.obj
 0001:00027070       ?size@?$Array@VHalfEdge@ConvexHull@physx@@VNamedAllocator@shdfnd@3@@shdfnd@physx@@QBEIXZ 10028070 f i ConvexHullUtils.obj
 0001:00027090       ?size@?$Array@VPxPlane@physx@@VNamedAllocator@shdfnd@2@@shdfnd@physx@@QBEIXZ 10028090 f i ConvexHullUtils.obj
 0001:000270b0       ?threePlaneIntersection@physx@@YA?AVPxVec3@1@ABVPxPlane@1@00@Z 100280b0 f i ConvexHullUtils.obj
 0001:00027140       ?to8@shdfnd@physx@@YAEG@Z  10028140 f i ConvexHullUtils.obj
 0001:00027190       ?transform@Box@Gu@physx@@QBE?AVPxVec3@3@ABV43@@Z 10028190 f i ConvexHullUtils.obj
 0001:000271d0       ?transform@PxMat33@physx@@QBE?BVPxVec3@2@ABV32@@Z 100281d0 f i ConvexHullUtils.obj
 0001:00027250       ?transformTranspose@PxMat33@physx@@QBE?BVPxVec3@2@ABV32@@Z 10028250 f i ConvexHullUtils.obj
 0001:000272a0       _cosf                      100282a0 f i ConvexHullUtils.obj
 0001:000272d0       _sinf                      100282d0 f i ConvexHullUtils.obj
 0001:00027390       ??0ConvexMeshBuilder@physx@@QAE@_N@Z 10028390 f   ConvexMeshBuilder.obj
 0001:000273f0       ??1ConvexMeshBuilder@physx@@QAE@XZ 100283f0 f   ConvexMeshBuilder.obj
 0001:00027440       ?build@ConvexMeshBuilder@physx@@QAE_NABVPxConvexMeshDesc@2@I_NPAVConvexHullLib@2@@Z 10028440 f   ConvexMeshBuilder.obj
 0001:00027520       ?save@ConvexMeshBuilder@physx@@QBE_NAAVPxOutputStream@2@_N@Z 10028520 f   ConvexMeshBuilder.obj
 0001:000277f0       ?copy@ConvexMeshBuilder@physx@@QAE_NAAUConvexHullInitData@Gu@2@@Z 100287f0 f   ConvexMeshBuilder.obj
 0001:00027910       ?loadConvexHull@ConvexMeshBuilder@physx@@QAE_NABVPxConvexMeshDesc@2@PAVConvexHullLib@2@@Z 10028910 f   ConvexMeshBuilder.obj
 0001:00027bf0       ?computeHullPolygons@ConvexMeshBuilder@physx@@QAE_NABIPBVPxVec3@2@0PBIAAVPxAllocatorCallback@2@AAIAAPAV32@4AAPAI4AAPAUPxHullPolygon@2@@Z 10028bf0 f   ConvexMeshBuilder.obj
 0001:00027ea0       ?computeGaussMaps@ConvexMeshBuilder@physx@@QAE_NXZ 10028ea0 f   ConvexMeshBuilder.obj
 0001:00027f80       ?computeMassInfo@ConvexMeshBuilder@physx@@QAEX_N@Z 10028f80 f   ConvexMeshBuilder.obj
 0001:00028200       ?computeInternalObjects@ConvexMeshBuilder@physx@@QAEXXZ 10029200 f   ConvexMeshBuilder.obj
 0001:00028910       ??0?$ReflectionAllocator@VBigConvexData@physx@@@shdfnd@physx@@QAE@PBD@Z 10029910 f i ConvexMeshBuilder.obj
 0001:00028920       ??0CenterExtents@Gu@physx@@QAE@ABVPxBounds3@2@@Z 10029920 f i ConvexMeshBuilder.obj
 0001:00028980       ??GPxMat33@physx@@QBE?BV01@XZ 10029980 f i ConvexMeshBuilder.obj
 0001:000289d0       ??_GBigConvexData@physx@@QAEPAXI@Z 100299d0 f i ConvexMeshBuilder.obj
 0001:00028a20       ?allocate@?$ReflectionAllocator@VBigConvexData@physx@@@shdfnd@physx@@QAEPAXIPBDH@Z 10029a20 f i ConvexMeshBuilder.obj
 0001:00028a70       ?getExtents@PxBounds3@physx@@QBE?AVPxVec3@2@XZ 10029a70 f i ConvexMeshBuilder.obj
 0001:00028ad0       ?getMax@CenterExtents@Gu@physx@@QBE?AVPxVec3@3@XZ 10029ad0 f i ConvexMeshBuilder.obj
 0001:00028b00       ?getMin@CenterExtents@Gu@physx@@QBE?AVPxVec3@3@XZ 10029b00 f i ConvexMeshBuilder.obj
 0001:00028b30       ?getName@?$ReflectionAllocator@VBigConvexData@physx@@@shdfnd@physx@@CAPBDXZ 10029b30 f i ConvexMeshBuilder.obj
 0001:00028b70       ?getNextIndex3@shdfnd@physx@@YAII@Z 10029b70 f i ConvexMeshBuilder.obj
 0001:00028b90       ?largestAxis@shdfnd@physx@@YAIABVPxVec3@2@@Z 10029b90 f i ConvexMeshBuilder.obj
 0001:00028bf0       ??0ConvexPolygonsBuilder@physx@@QAE@PAUConvexHullData@Gu@1@_N@Z 10029bf0 f   ConvexPolygonsBuilder.obj
 0001:00028c30       ??1ConvexPolygonsBuilder@physx@@QAE@XZ 10029c30 f   ConvexPolygonsBuilder.obj
 0001:00028c70       ?computeHullPolygons@ConvexPolygonsBuilder@physx@@QAE_NABIPBVPxVec3@2@0PBI@Z 10029c70 f   ConvexPolygonsBuilder.obj
 0001:00029010       ?createPolygonData@ConvexPolygonsBuilder@physx@@AAE_NXZ 1002a010 f   ConvexPolygonsBuilder.obj
 0001:00029ad0       ?createTrianglesFromPolygons@ConvexPolygonsBuilder@physx@@AAE_NXZ 1002aad0 f   ConvexPolygonsBuilder.obj
 0001:0002bf10       ??$?4VNamedAllocator@shdfnd@physx@@@?$Array@IVNamedAllocator@shdfnd@physx@@@shdfnd@physx@@QAEAAV012@ABV012@@Z 1002cf10 f i ConvexPolygonsBuilder.obj
 0001:0002bf80       ??$?_UUHullTriangleData@physx@@@@YAPAXIV?$ReflectionAllocator@UHullTriangleData@physx@@@shdfnd@physx@@PBDH@Z 1002cf80 f i ConvexPolygonsBuilder.obj
 0001:0002bfa0       ??$PlaneEquation@U?$TriangleT@I@Gu@physx@@@@YA?AVPxPlane@physx@@ABU?$TriangleT@I@Gu@1@PBVPxVec3@1@@Z 1002cfa0 f i ConvexPolygonsBuilder.obj
 0001:0002c000       ??$copy@VNamedAllocator@shdfnd@physx@@@?$Array@VPair@@VNamedAllocator@shdfnd@physx@@@shdfnd@physx@@IAEXABV012@@Z 1002d000 f i ConvexPolygonsBuilder.obj
 0001:0002c0a0       ??$swap@E@shdfnd@physx@@YAXAAE0@Z 1002d0a0 f i ConvexPolygonsBuilder.obj
 0001:0002c0d0       ??0?$Array@VPair@@VNamedAllocator@shdfnd@physx@@@shdfnd@physx@@QAE@ABV012@ABVNamedAllocator@12@@Z 1002d0d0 f i ConvexPolygonsBuilder.obj
 0001:0002c100       ??0?$Array@VPair@@VNamedAllocator@shdfnd@physx@@@shdfnd@physx@@QAE@ABVNamedAllocator@12@@Z 1002d100 f i ConvexPolygonsBuilder.obj
 0001:0002c140       ??0?$ReflectionAllocator@UHullTriangleData@physx@@@shdfnd@physx@@QAE@PBD@Z 1002d140 f i ConvexPolygonsBuilder.obj
 0001:0002c150       ??0ADJACENCIESCREATE@physx@@QAE@XZ 1002d150 f i ConvexPolygonsBuilder.obj
 0001:0002c1a0       ??0Pair@@QAE@II@Z          1002d1a0 f i ConvexPolygonsBuilder.obj
 0001:0002c1d0       ??1?$Array@VPair@@VNamedAllocator@shdfnd@physx@@@shdfnd@physx@@QAE@XZ 1002d1d0 f i ConvexPolygonsBuilder.obj
 0001:0002c230       ??1Pair@@QAE@XZ            1002d230 f i ConvexPolygonsBuilder.obj
 0001:0002c240       ??4?$Array@IVNamedAllocator@shdfnd@physx@@@shdfnd@physx@@QAEAAV012@ABV012@@Z 1002d240 f i ConvexPolygonsBuilder.obj
 0001:0002c260       ??A?$Array@VPair@@VNamedAllocator@shdfnd@physx@@@shdfnd@physx@@QAEAAVPair@@I@Z 1002d260 f i ConvexPolygonsBuilder.obj
 0001:0002c2c0       ??_GPair@@QAEPAXI@Z        1002d2c0 f i ConvexPolygonsBuilder.obj
 0001:0002c310       ?GetAdjTri@AdjTriangle@physx@@QBEIW4SharedEdgeIndex@2@@Z 1002d310 f i ConvexPolygonsBuilder.obj
 0001:0002c330       ?HasActiveEdge@AdjTriangle@physx@@QBEHI@Z 1002d330 f i ConvexPolygonsBuilder.obj
 0001:0002c350       ?allocate@?$Array@VPair@@VNamedAllocator@shdfnd@physx@@@shdfnd@physx@@IAEPAVPair@@I@Z 1002d350 f i ConvexPolygonsBuilder.obj
 0001:0002c3c0       ?allocate@?$ReflectionAllocator@UHullTriangleData@physx@@@shdfnd@physx@@QAEPAXIPBDH@Z 1002d3c0 f i ConvexPolygonsBuilder.obj
 0001:0002c410       ?begin@?$Array@VPair@@VNamedAllocator@shdfnd@physx@@@shdfnd@physx@@QAEPAVPair@@XZ 1002d410 f i ConvexPolygonsBuilder.obj
 0001:0002c420       ?begin@?$Array@VPair@@VNamedAllocator@shdfnd@physx@@@shdfnd@physx@@QBEPBVPair@@XZ 1002d420 f i ConvexPolygonsBuilder.obj
 0001:0002c430       ?capacity@?$Array@VPair@@VNamedAllocator@shdfnd@physx@@@shdfnd@physx@@QBEIXZ 1002d430 f i ConvexPolygonsBuilder.obj
 0001:0002c450       ?capacityIncrement@?$Array@VPair@@VNamedAllocator@shdfnd@physx@@@shdfnd@physx@@IBEIXZ 1002d450 f i ConvexPolygonsBuilder.obj
 0001:0002c490       ?clear@?$Array@IVNamedAllocator@shdfnd@physx@@@shdfnd@physx@@QAEXXZ 1002d490 f i ConvexPolygonsBuilder.obj
 0001:0002c4d0       ?copy@?$Array@VPair@@VNamedAllocator@shdfnd@physx@@@shdfnd@physx@@KAXPAVPair@@0PBV4@@Z 1002d4d0 f i ConvexPolygonsBuilder.obj
 0001:0002c530       ?deallocate@?$Array@VPair@@VNamedAllocator@shdfnd@physx@@@shdfnd@physx@@IAEXPAX@Z 1002d530 f i ConvexPolygonsBuilder.obj
 0001:0002c550       ?destroy@?$Array@VPair@@VNamedAllocator@shdfnd@physx@@@shdfnd@physx@@KAXPAVPair@@0@Z 1002d550 f i ConvexPolygonsBuilder.obj
 0001:0002c580       ?empty@?$Array@VPair@@VNamedAllocator@shdfnd@physx@@@shdfnd@physx@@QBE_NXZ 1002d580 f i ConvexPolygonsBuilder.obj
 0001:0002c5b0       ?end@?$Array@IVNamedAllocator@shdfnd@physx@@@shdfnd@physx@@QAEPAIXZ 1002d5b0 f i ConvexPolygonsBuilder.obj
 0001:0002c5d0       ?find@?$Array@IVNamedAllocator@shdfnd@physx@@@shdfnd@physx@@QAEPAIABI@Z 1002d5d0 f i ConvexPolygonsBuilder.obj
 0001:0002c620       ?flip@?$TriangleT@I@Gu@physx@@QAEXXZ 1002d620 f i ConvexPolygonsBuilder.obj
 0001:0002c650       ?forceSize_Unsafe@?$Array@IVNamedAllocator@shdfnd@physx@@@shdfnd@physx@@QAEXI@Z 1002d650 f i ConvexPolygonsBuilder.obj
 0001:0002c6b0       ?getFaces@ConvexPolygonsBuilder@physx@@QBEPBUHullTriangleData@2@XZ 1002d6b0 f i ConvexPolygonsBuilder.obj
 0001:0002c6d0       ?getName@?$ReflectionAllocator@UHullTriangleData@physx@@@shdfnd@physx@@CAPBDXZ 1002d6d0 f i ConvexPolygonsBuilder.obj
 0001:0002c710       ?getNbFaces@ConvexPolygonsBuilder@physx@@QBEIXZ 1002d710 f i ConvexPolygonsBuilder.obj
 0001:0002c730       ?growAndPushBack@?$Array@VPair@@VNamedAllocator@shdfnd@physx@@@shdfnd@physx@@IAEAAVPair@@ABV4@@Z 1002d730 f i ConvexPolygonsBuilder.obj
 0001:0002c870       ?isInUserMemory@?$Array@VPair@@VNamedAllocator@shdfnd@physx@@@shdfnd@physx@@QBEIXZ 1002d870 f i ConvexPolygonsBuilder.obj
 0001:0002c890       ?pushBack@?$Array@VPair@@VNamedAllocator@shdfnd@physx@@@shdfnd@physx@@QAEAAVPair@@ABV4@@Z 1002d890 f i ConvexPolygonsBuilder.obj
 0001:0002c930       ?remove@?$Array@IVNamedAllocator@shdfnd@physx@@@shdfnd@physx@@QAEXI@Z 1002d930 f i ConvexPolygonsBuilder.obj
 0001:0002c9e0       ?remove@?$Array@VPair@@VNamedAllocator@shdfnd@physx@@@shdfnd@physx@@QAEXI@Z 1002d9e0 f i ConvexPolygonsBuilder.obj
 0001:0002cac0       ?size@?$Array@VPair@@VNamedAllocator@shdfnd@physx@@@shdfnd@physx@@QBEIXZ 1002dac0 f i ConvexPolygonsBuilder.obj
 0001:0002cb30       ??0QuickHullConvexHullLib@physx@@QAE@ABVPxConvexMeshDesc@1@ABUPxCookingParams@1@@Z 1002db30 f   QuickHullConvexHullLib.obj
 0001:0002cbf0       ??1QuickHullConvexHullLib@physx@@UAE@XZ 1002dbf0 f   QuickHullConvexHullLib.obj
 0001:0002cc90       ?createConvexHull@QuickHullConvexHullLib@physx@@UAE?AW4Enum@PxConvexMeshCookingResult@2@XZ 1002dc90 f   QuickHullConvexHullLib.obj
 0001:0002d060       ?fillConvexMeshDesc@QuickHullConvexHullLib@physx@@UAEXAAVPxConvexMeshDesc@2@@Z 1002e060 f   QuickHullConvexHullLib.obj
 0001:0002d0d0       ?createEdgeList@QuickHullConvexHullLib@physx@@UAE_NIPBEPAPAEPAPAG2@Z 1002e0d0 f   QuickHullConvexHullLib.obj
 0001:0002d450       ?expandHullOBB@QuickHullConvexHullLib@physx@@IAE?AW4Enum@PxConvexMeshCookingResult@2@XZ 1002e450 f   QuickHullConvexHullLib.obj
 0001:0002d8a0       ?expandHull@QuickHullConvexHullLib@physx@@IAE?AW4Enum@PxConvexMeshCookingResult@2@XZ 1002e8a0 f   QuickHullConvexHullLib.obj
 0001:0002de70       ?cleanupForSimplex@QuickHullConvexHullLib@physx@@IAE_NPAVPxVec3@2@IPAUQuickHullVertex@local@@1AAM2@Z 1002ee70 f   QuickHullConvexHullLib.obj
 0001:0002e5f0       ?fillConvexMeshDescFromQuickHull@QuickHullConvexHullLib@physx@@IAEXAAVPxConvexMeshDesc@2@@Z 1002f5f0 f   QuickHullConvexHullLib.obj
 0001:0002eb10       ?fillConvexMeshDescFromCroppedHull@QuickHullConvexHullLib@physx@@IAEXAAVPxConvexMeshDesc@2@@Z 1002fb10 f   QuickHullConvexHullLib.obj
 0001:0002eec0       ?getOppositeFaceDistance@QuickHullHalfEdge@local@@QBEMXZ 1002fec0 f   QuickHullConvexHullLib.obj
 0001:0002ef70       ?mergeAdjacentFace@QuickHullFace@local@@QAE_NPAUQuickHullHalfEdge@2@AAV?$Array@PAUQuickHullFace@local@@VNamedAllocator@shdfnd@physx@@@shdfnd@physx@@@Z 1002ff70 f   QuickHullConvexHullLib.obj
 0001:0002f110       ?checkFaceConsistency@QuickHullFace@local@@QAE_NXZ 10030110 f   QuickHullConvexHullLib.obj
 0001:0002f300       ?connectHalfEdges@QuickHullFace@local@@AAEPAU12@PAUQuickHullHalfEdge@2@0@Z 10030300 f   QuickHullConvexHullLib.obj
 0001:0002f410       ??0QuickHull@local@@QAE@ABUPxCookingParams@physx@@ABVPxConvexMeshDesc@3@@Z 10030410 f   QuickHullConvexHullLib.obj
 0001:0002f5a0       ??1QuickHull@local@@QAE@XZ 100305a0 f   QuickHullConvexHullLib.obj
 0001:0002f620       ?preallocate@QuickHull@local@@QAEXI@Z 10030620 f   QuickHullConvexHullLib.obj
 0001:0002f760       ?parseInputVertices@QuickHull@local@@QAEXPBVPxVec3@physx@@I@Z 10030760 f   QuickHullConvexHullLib.obj
 0001:0002f840       ?releaseHull@QuickHull@local@@QAEXXZ 10030840 f   QuickHullConvexHullLib.obj
 0001:0002f890       ?setPrecomputedMinMax@QuickHull@local@@QAEXPBUQuickHullVertex@2@0MM@Z 10030890 f   QuickHullConvexHullLib.obj
 0001:0002f920       ?buildHull@QuickHull@local@@QAE?AW4Enum@QuickHullResult@2@XZ 10030920 f   QuickHullConvexHullLib.obj
 0001:0002fb90       ?maxNumVertsPerFace@QuickHull@local@@QBEIXZ 10030b90 f   QuickHullConvexHullLib.obj
 0001:0002fc10       ?computeMinMaxVerts@QuickHull@local@@IAEXXZ 10030c10 f   QuickHullConvexHullLib.obj
 0001:0002fec0       ?findSimplex@QuickHull@local@@IAE_NXZ 10030ec0 f   QuickHullConvexHullLib.obj
 0001:000302f0       ?addSimplex@QuickHull@local@@IAEXPAUQuickHullVertex@2@_N@Z 100312f0 f   QuickHullConvexHullLib.obj
 0001:000307e0       ?nextPointToAdd@QuickHull@local@@IAEPAUQuickHullVertex@2@AAPAUQuickHullFace@2@@Z 100317e0 f   QuickHullConvexHullLib.obj
 0001:000308d0       ?addPointToHull@QuickHull@local@@IAE_NPBUQuickHullVertex@2@AAUQuickHullFace@2@AA_N@Z 100318d0 f   QuickHullConvexHullLib.obj
 0001:00030b40       ?createTriangle@QuickHull@local@@IAEPAUQuickHullFace@2@ABUQuickHullVertex@2@00@Z 10031b40 f   QuickHullConvexHullLib.obj
 0001:00030c10       ?addPointToFace@QuickHull@local@@IAEXAAUQuickHullFace@2@PAUQuickHullVertex@2@M@Z 10031c10 f   QuickHullConvexHullLib.obj
 0001:00030ce0       ?removeEyePointFromFace@QuickHull@local@@IAEXAAUQuickHullFace@2@PBUQuickHullVertex@2@@Z 10031ce0 f   QuickHullConvexHullLib.obj
 0001:00030d50       ?calculateHorizon@QuickHull@local@@IAEXABVPxVec3@physx@@PAUQuickHullHalfEdge@2@AAUQuickHullFace@2@AAV?$Array@PAUQuickHullHalfEdge@local@@VNamedAllocator@shdfnd@physx@@@shdfnd@4@AAV?$Array@PAUQuickHullFace@local@@VNamedAllocator@shdfnd@physx@@@84@@Z 10031d50 f   QuickHullConvexHullLib.obj
 0001:00030e40       ?addNewFacesFromHorizon@QuickHull@local@@IAEXPBUQuickHullVertex@2@ABV?$Array@PAUQuickHullHalfEdge@local@@VNamedAllocator@shdfnd@physx@@@shdfnd@physx@@AAV?$Array@PAUQuickHullFace@local@@VNamedAllocator@shdfnd@physx@@@56@@Z 10031e40 f   QuickHullConvexHullLib.obj
 0001:00030f40       ?doAdjacentMerge@QuickHull@local@@IAE_NAAUQuickHullFace@2@_NAA_N@Z 10031f40 f   QuickHullConvexHullLib.obj
 0001:000311c0       ?doPostAdjacentMerge@QuickHull@local@@IAE_NAAUQuickHullFace@2@M@Z 100321c0 f   QuickHullConvexHullLib.obj
 0001:00031330       ?deleteFacePoints@QuickHull@local@@IAEXAAUQuickHullFace@2@PAU32@@Z 10032330 f   QuickHullConvexHullLib.obj
 0001:00031410       ?resolveUnclaimedPoints@QuickHull@local@@IAEXABV?$Array@PAUQuickHullFace@local@@VNamedAllocator@shdfnd@physx@@@shdfnd@physx@@@Z 10032410 f   QuickHullConvexHullLib.obj
 0001:00031530       ?postMergeHull@QuickHull@local@@IAEXXZ 10032530 f   QuickHullConvexHullLib.obj
 0001:000315f0       ?canMergeFaces@QuickHull@local@@IAE_NABUQuickHullHalfEdge@2@@Z 100325f0 f   QuickHullConvexHullLib.obj
 0001:00031c30       ?getExpandPoint@local@@YAXABUQuickHullHalfEdge@1@AAUExpandPoint@1@PBV?$Array@IVNamedAllocator@shdfnd@physx@@@shdfnd@physx@@@Z 10032c30 f   QuickHullConvexHullLib.obj
 0001:00031e00       ?addExpandPoint@local@@YAXABUExpandPoint@1@AAV?$Array@UExpandPoint@local@@VNamedAllocator@shdfnd@physx@@@shdfnd@physx@@@Z 10032e00 f   QuickHullConvexHullLib.obj
 0001:00031ef0       ??$?2V?$ReflectionAllocator@VQuickHull@local@@@shdfnd@physx@@@UserAllocated@shdfnd@physx@@SAPAXIV?$ReflectionAllocator@VQuickHull@local@@@12@PBDH@Z 10032ef0 f i QuickHullConvexHullLib.obj
 0001:00031f10       ??$PX_UNUSED@PAUQuickHullFace@local@@@@YAXABQAUQuickHullFace@local@@@Z 10032f10 f i QuickHullConvexHullLib.obj
 0001:00031f20       ??$PX_UNUSED@PBUQuickHullVertex@local@@@@YAXABQBUQuickHullVertex@local@@@Z 10032f20 f i QuickHullConvexHullLib.obj
 0001:00031f30       ??0?$Array@PAUQuickHullFace@local@@VNamedAllocator@shdfnd@physx@@@shdfnd@physx@@QAE@ABVNamedAllocator@12@@Z 10032f30 f i QuickHullConvexHullLib.obj
 0001:00031f70       ??0?$Array@PAUQuickHullHalfEdge@local@@VNamedAllocator@shdfnd@physx@@@shdfnd@physx@@QAE@ABVNamedAllocator@12@@Z 10032f70 f i QuickHullConvexHullLib.obj
 0001:00031fb0       ??0?$Array@PAUQuickHullVertex@local@@VNamedAllocator@shdfnd@physx@@@shdfnd@physx@@QAE@ABVNamedAllocator@12@@Z 10032fb0 f i QuickHullConvexHullLib.obj
 0001:00031ff0       ??0?$Array@UExpandPoint@local@@VNamedAllocator@shdfnd@physx@@@shdfnd@physx@@QAE@ABVNamedAllocator@12@@Z 10032ff0 f i QuickHullConvexHullLib.obj
 0001:00032030       ??0?$MemBlock@UQuickHullFace@local@@$00@local@@QAE@XZ 10033030 f i QuickHullConvexHullLib.obj
 0001:00032080       ??0?$MemBlock@UQuickHullHalfEdge@local@@$0A@@local@@QAE@XZ 10033080 f i QuickHullConvexHullLib.obj
 0001:000320d0       ??0?$ReflectionAllocator@VQuickHull@local@@@shdfnd@physx@@QAE@PBD@Z 100330d0 f i QuickHullConvexHullLib.obj
 0001:000320e0       ??0?$ScopedPointer@UQuickHullHalfEdge@local@@VTempAllocator@shdfnd@physx@@@shdfnd@physx@@QAE@XZ 100330e0 f i QuickHullConvexHullLib.obj
 0001:00032100       ??0?$ScopedPointer@VPxVec3@physx@@VTempAllocator@shdfnd@2@@shdfnd@physx@@QAE@XZ 10033100 f i QuickHullConvexHullLib.obj
 0001:00032120       ??0ConvexHullLib@physx@@QAE@ABVPxConvexMeshDesc@1@ABUPxCookingParams@1@@Z 10033120 f i QuickHullConvexHullLib.obj
 0001:00032170       ??0ExpandPoint@local@@QAE@ABU01@@Z 10033170 f i QuickHullConvexHullLib.obj
 0001:000321c0       ??0ExpandPoint@local@@QAE@XZ 100331c0 f i QuickHullConvexHullLib.obj
 0001:000321e0       ??0PxTransform@physx@@QAE@XZ 100331e0 f i QuickHullConvexHullLib.obj
 0001:00032210       ??0QuickHullFace@local@@QAE@I@Z 10033210 f i QuickHullConvexHullLib.obj
 0001:000322a0       ??0QuickHullFace@local@@QAE@XZ 100332a0 f i QuickHullConvexHullLib.obj
 0001:00032330       ??0QuickHullHalfEdge@local@@QAE@I@Z 10033330 f i QuickHullConvexHullLib.obj
 0001:00032380       ??0QuickHullVertex@local@@QAE@XZ 10033380 f i QuickHullConvexHullLib.obj
 0001:000323a0       ??1?$Array@PAUQuickHullFace@local@@VNamedAllocator@shdfnd@physx@@@shdfnd@physx@@QAE@XZ 100333a0 f i QuickHullConvexHullLib.obj
 0001:00032400       ??1?$Array@PAUQuickHullHalfEdge@local@@VNamedAllocator@shdfnd@physx@@@shdfnd@physx@@QAE@XZ 10033400 f i QuickHullConvexHullLib.obj
 0001:00032460       ??1?$Array@PAUQuickHullVertex@local@@VNamedAllocator@shdfnd@physx@@@shdfnd@physx@@QAE@XZ 10033460 f i QuickHullConvexHullLib.obj
 0001:000324c0       ??1?$Array@UExpandPoint@local@@VNamedAllocator@shdfnd@physx@@@shdfnd@physx@@QAE@XZ 100334c0 f i QuickHullConvexHullLib.obj
 0001:00032520       ??1?$Array@VHalfEdge@ConvexHull@physx@@VNamedAllocator@shdfnd@3@@shdfnd@physx@@QAE@XZ 10033520 f i QuickHullConvexHullLib.obj
 0001:00032580       ??1?$Array@VPxPlane@physx@@VNamedAllocator@shdfnd@2@@shdfnd@physx@@QAE@XZ 10033580 f i QuickHullConvexHullLib.obj
 0001:000325e0       ??1?$MemBlock@UQuickHullFace@local@@$00@local@@QAE@XZ 100335e0 f i QuickHullConvexHullLib.obj
 0001:00032650       ??1?$MemBlock@UQuickHullHalfEdge@local@@$0A@@local@@QAE@XZ 10033650 f i QuickHullConvexHullLib.obj
 0001:000326c0       ??1?$ScopedPointer@UQuickHullHalfEdge@local@@VTempAllocator@shdfnd@physx@@@shdfnd@physx@@QAE@XZ 100336c0 f i QuickHullConvexHullLib.obj
 0001:000326f0       ??1?$ScopedPointer@VPxVec3@physx@@VTempAllocator@shdfnd@2@@shdfnd@physx@@QAE@XZ 100336f0 f i QuickHullConvexHullLib.obj
 0001:00032720       ??1ConvexHull@physx@@QAE@XZ 10033720 f i QuickHullConvexHullLib.obj
 0001:00032750       ??1QuickHullFace@local@@QAE@XZ 10033750 f i QuickHullConvexHullLib.obj
 0001:00032760       ??4?$PxFlags@W4Enum@PxConvexFlag@physx@@G@physx@@QAEAAV01@ABV01@@Z 10033760 f i QuickHullConvexHullLib.obj
 0001:00032780       ??4QuickHullVertex@local@@QAEAAU01@ABU01@@Z 10033780 f i QuickHullConvexHullLib.obj
 0001:000327c0       ??8ExpandPoint@local@@QBE_NABU01@@Z 100337c0 f i QuickHullConvexHullLib.obj
 0001:00032840       ??8QuickHullVertex@local@@QBE_NABU01@@Z 10033840 f i QuickHullConvexHullLib.obj
 0001:00032870       ??A?$Array@IVNamedAllocator@shdfnd@physx@@@shdfnd@physx@@QBEABII@Z 10033870 f i QuickHullConvexHullLib.obj
 0001:000328d0       ??A?$Array@PAUQuickHullFace@local@@VNamedAllocator@shdfnd@physx@@@shdfnd@physx@@QAEAAPAUQuickHullFace@local@@I@Z 100338d0 f i QuickHullConvexHullLib.obj
 0001:00032930       ??A?$Array@PAUQuickHullFace@local@@VNamedAllocator@shdfnd@physx@@@shdfnd@physx@@QBEABQAUQuickHullFace@local@@I@Z 10033930 f i QuickHullConvexHullLib.obj
 0001:00032990       ??A?$Array@PAUQuickHullHalfEdge@local@@VNamedAllocator@shdfnd@physx@@@shdfnd@physx@@QAEAAPAUQuickHullHalfEdge@local@@I@Z 10033990 f i QuickHullConvexHullLib.obj
 0001:000329f0       ??A?$Array@PAUQuickHullHalfEdge@local@@VNamedAllocator@shdfnd@physx@@@shdfnd@physx@@QBEABQAUQuickHullHalfEdge@local@@I@Z 100339f0 f i QuickHullConvexHullLib.obj
 0001:00032a50       ??A?$Array@PAUQuickHullVertex@local@@VNamedAllocator@shdfnd@physx@@@shdfnd@physx@@QAEAAPAUQuickHullVertex@local@@I@Z 10033a50 f i QuickHullConvexHullLib.obj
 0001:00032ab0       ??A?$Array@UExpandPoint@local@@VNamedAllocator@shdfnd@physx@@@shdfnd@physx@@QAEAAUExpandPoint@local@@I@Z 10033ab0 f i QuickHullConvexHullLib.obj
 0001:00032b10       ??A?$Array@VPxPlane@physx@@VNamedAllocator@shdfnd@2@@shdfnd@physx@@QAEAAVPxPlane@2@I@Z 10033b10 f i QuickHullConvexHullLib.obj
 0001:00032b70       ??B?$ScopedPointer@UQuickHullHalfEdge@local@@VTempAllocator@shdfnd@physx@@@shdfnd@physx@@QBEPAUQuickHullHalfEdge@local@@XZ 10033b70 f i QuickHullConvexHullLib.obj
 0001:00032b80       ??B?$ScopedPointer@VPxVec3@physx@@VTempAllocator@shdfnd@2@@shdfnd@physx@@QBEPAVPxVec3@2@XZ 10033b80 f i QuickHullConvexHullLib.obj
 0001:00032b90       ??KPxVec3@physx@@QBE?AV01@M@Z 10033b90 f i QuickHullConvexHullLib.obj
 0001:00032c00       ??_GConvexHull@physx@@QAEPAXI@Z 10033c00 f i QuickHullConvexHullLib.obj
 0001:00032c50       ??_GQuickHull@local@@QAEPAXI@Z 10033c50 f i QuickHullConvexHullLib.obj
 0001:00032ca0       ??_EQuickHullConvexHullLib@physx@@UAEPAXI@Z 10033ca0 f i QuickHullConvexHullLib.obj
 0001:00032ca0       ??_GQuickHullConvexHullLib@physx@@UAEPAXI@Z 10033ca0 f i QuickHullConvexHullLib.obj
 0001:00032cf0       ??__G@YGXPAX0IIP6EPAX00@Z@Z 10033cf0 f i QuickHullConvexHullLib.obj
 0001:00032d50       ?allocate@?$Array@PAUQuickHullFace@local@@VNamedAllocator@shdfnd@physx@@@shdfnd@physx@@IAEPAPAUQuickHullFace@local@@I@Z 10033d50 f i QuickHullConvexHullLib.obj
 0001:00032dc0       ?allocate@?$Array@PAUQuickHullHalfEdge@local@@VNamedAllocator@shdfnd@physx@@@shdfnd@physx@@IAEPAPAUQuickHullHalfEdge@local@@I@Z 10033dc0 f i QuickHullConvexHullLib.obj
 0001:00032e30       ?allocate@?$Array@PAUQuickHullVertex@local@@VNamedAllocator@shdfnd@physx@@@shdfnd@physx@@IAEPAPAUQuickHullVertex@local@@I@Z 10033e30 f i QuickHullConvexHullLib.obj
 0001:00032ea0       ?allocate@?$Array@UExpandPoint@local@@VNamedAllocator@shdfnd@physx@@@shdfnd@physx@@IAEPAUExpandPoint@local@@I@Z 10033ea0 f i QuickHullConvexHullLib.obj
 0001:00032f10       ?allocate@?$ReflectionAllocator@VQuickHull@local@@@shdfnd@physx@@QAEPAXIPBDH@Z 10033f10 f i QuickHullConvexHullLib.obj
 0001:00032f60       ?capacity@?$Array@PAUQuickHullFace@local@@VNamedAllocator@shdfnd@physx@@@shdfnd@physx@@QBEIXZ 10033f60 f i QuickHullConvexHullLib.obj
 0001:00032f80       ?capacity@?$Array@PAUQuickHullHalfEdge@local@@VNamedAllocator@shdfnd@physx@@@shdfnd@physx@@QBEIXZ 10033f80 f i QuickHullConvexHullLib.obj
 0001:00032fa0       ?capacity@?$Array@PAUQuickHullVertex@local@@VNamedAllocator@shdfnd@physx@@@shdfnd@physx@@QBEIXZ 10033fa0 f i QuickHullConvexHullLib.obj
 0001:00032fc0       ?capacity@?$Array@UExpandPoint@local@@VNamedAllocator@shdfnd@physx@@@shdfnd@physx@@QBEIXZ 10033fc0 f i QuickHullConvexHullLib.obj
 0001:00032fe0       ?capacityIncrement@?$Array@PAUQuickHullFace@local@@VNamedAllocator@shdfnd@physx@@@shdfnd@physx@@IBEIXZ 10033fe0 f i QuickHullConvexHullLib.obj
 0001:00033020       ?capacityIncrement@?$Array@PAUQuickHullHalfEdge@local@@VNamedAllocator@shdfnd@physx@@@shdfnd@physx@@IBEIXZ 10034020 f i QuickHullConvexHullLib.obj
 0001:00033060       ?capacityIncrement@?$Array@PAUQuickHullVertex@local@@VNamedAllocator@shdfnd@physx@@@shdfnd@physx@@IBEIXZ 10034060 f i QuickHullConvexHullLib.obj
 0001:000330a0       ?capacityIncrement@?$Array@UExpandPoint@local@@VNamedAllocator@shdfnd@physx@@@shdfnd@physx@@IBEIXZ 100340a0 f i QuickHullConvexHullLib.obj
 0001:000330e0       ?clear@?$Array@PAUQuickHullFace@local@@VNamedAllocator@shdfnd@physx@@@shdfnd@physx@@QAEXXZ 100340e0 f i QuickHullConvexHullLib.obj
 0001:00033120       ?clear@?$Array@PAUQuickHullHalfEdge@local@@VNamedAllocator@shdfnd@physx@@@shdfnd@physx@@QAEXXZ 10034120 f i QuickHullConvexHullLib.obj
 0001:00033160       ?clear@?$Array@PAUQuickHullVertex@local@@VNamedAllocator@shdfnd@physx@@@shdfnd@physx@@QAEXXZ 10034160 f i QuickHullConvexHullLib.obj
 0001:000331a0       ?computeNormalAndCentroid@QuickHullFace@local@@QAEXXZ 100341a0 f i QuickHullConvexHullLib.obj
 0001:000333a0       ?copy@?$Array@PAUQuickHullFace@local@@VNamedAllocator@shdfnd@physx@@@shdfnd@physx@@KAXPAPAUQuickHullFace@local@@0PBQAU45@@Z 100343a0 f i QuickHullConvexHullLib.obj
 0001:000333f0       ?copy@?$Array@PAUQuickHullHalfEdge@local@@VNamedAllocator@shdfnd@physx@@@shdfnd@physx@@KAXPAPAUQuickHullHalfEdge@local@@0PBQAU45@@Z 100343f0 f i QuickHullConvexHullLib.obj
 0001:00033440       ?copy@?$Array@PAUQuickHullVertex@local@@VNamedAllocator@shdfnd@physx@@@shdfnd@physx@@KAXPAPAUQuickHullVertex@local@@0PBQAU45@@Z 10034440 f i QuickHullConvexHullLib.obj
 0001:00033490       ?copy@?$Array@UExpandPoint@local@@VNamedAllocator@shdfnd@physx@@@shdfnd@physx@@KAXPAUExpandPoint@local@@0PBU45@@Z 10034490 f i QuickHullConvexHullLib.obj
 0001:000334e0       ?deallocate@?$Array@PAUQuickHullFace@local@@VNamedAllocator@shdfnd@physx@@@shdfnd@physx@@IAEXPAX@Z 100344e0 f i QuickHullConvexHullLib.obj
 0001:00033500       ?deallocate@?$Array@PAUQuickHullHalfEdge@local@@VNamedAllocator@shdfnd@physx@@@shdfnd@physx@@IAEXPAX@Z 10034500 f i QuickHullConvexHullLib.obj
 0001:00033520       ?deallocate@?$Array@PAUQuickHullVertex@local@@VNamedAllocator@shdfnd@physx@@@shdfnd@physx@@IAEXPAX@Z 10034520 f i QuickHullConvexHullLib.obj
 0001:00033540       ?deallocate@?$Array@UExpandPoint@local@@VNamedAllocator@shdfnd@physx@@@shdfnd@physx@@IAEXPAX@Z 10034540 f i QuickHullConvexHullLib.obj
 0001:00033560       ?destroy@?$Array@PAUQuickHullFace@local@@VNamedAllocator@shdfnd@physx@@@shdfnd@physx@@KAXPAPAUQuickHullFace@local@@0@Z 10034560 f i QuickHullConvexHullLib.obj
 0001:00033580       ?destroy@?$Array@PAUQuickHullHalfEdge@local@@VNamedAllocator@shdfnd@physx@@@shdfnd@physx@@KAXPAPAUQuickHullHalfEdge@local@@0@Z 10034580 f i QuickHullConvexHullLib.obj
 0001:000335a0       ?destroy@?$Array@PAUQuickHullVertex@local@@VNamedAllocator@shdfnd@physx@@@shdfnd@physx@@KAXPAPAUQuickHullVertex@local@@0@Z 100345a0 f i QuickHullConvexHullLib.obj
 0001:000335c0       ?destroy@?$Array@UExpandPoint@local@@VNamedAllocator@shdfnd@physx@@@shdfnd@physx@@KAXPAUExpandPoint@local@@0@Z 100345c0 f i QuickHullConvexHullLib.obj
 0001:000335e0       ?distanceToPlane@QuickHullFace@local@@QBEMVPxVec3@physx@@@Z 100345e0 f i QuickHullConvexHullLib.obj
 0001:00033620       ?getEdge@QuickHullFace@local@@QBEPAUQuickHullHalfEdge@2@I@Z 10034620 f i QuickHullConvexHullLib.obj
 0001:00033660       ?getFreeHullFace@QuickHull@local@@IAEPAUQuickHullFace@2@XZ 10034660 f i QuickHullConvexHullLib.obj
 0001:00033680       ?getFreeHullHalfEdge@QuickHull@local@@IAEPAUQuickHullHalfEdge@2@XZ 10034680 f i QuickHullConvexHullLib.obj
 0001:000336a0       ?getFreeItem@?$MemBlock@UQuickHullFace@local@@$00@local@@QAEPAUQuickHullFace@2@XZ 100346a0 f i QuickHullConvexHullLib.obj
 0001:00033820       ?getFreeItem@?$MemBlock@UQuickHullHalfEdge@local@@$0A@@local@@QAEPAUQuickHullHalfEdge@2@XZ 10034820 f i QuickHullConvexHullLib.obj
 0001:00033990       ?getHead@QuickHullHalfEdge@local@@QBEABUQuickHullVertex@2@XZ 10034990 f i QuickHullConvexHullLib.obj
 0001:000339e0       ?getItem@?$MemBlock@UQuickHullFace@local@@$00@local@@QAEPAUQuickHullFace@2@I@Z 100349e0 f i QuickHullConvexHullLib.obj
 0001:00033aa0       ?getName@?$ReflectionAllocator@VQuickHull@local@@@shdfnd@physx@@CAPBDXZ 10034aa0 f i QuickHullConvexHullLib.obj
 0001:00033ae0       ?getNbHullVerts@QuickHull@local@@IAEIXZ 10034ae0 f i QuickHullConvexHullLib.obj
 0001:00033b00       ?getOppositeFace@QuickHullHalfEdge@local@@QBEPAUQuickHullFace@2@XZ 10034b00 f i QuickHullConvexHullLib.obj
 0001:00033b20       ?getTail@QuickHullHalfEdge@local@@QBEABUQuickHullVertex@2@XZ 10034b20 f i QuickHullConvexHullLib.obj
 0001:00033b30       ?grow@?$Array@PAUQuickHullFace@local@@VNamedAllocator@shdfnd@physx@@@shdfnd@physx@@IAEXI@Z 10034b30 f i QuickHullConvexHullLib.obj
 0001:00033b90       ?grow@?$Array@PAUQuickHullHalfEdge@local@@VNamedAllocator@shdfnd@physx@@@shdfnd@physx@@IAEXI@Z 10034b90 f i QuickHullConvexHullLib.obj
 0001:00033bf0       ?grow@?$Array@PAUQuickHullVertex@local@@VNamedAllocator@shdfnd@physx@@@shdfnd@physx@@IAEXI@Z 10034bf0 f i QuickHullConvexHullLib.obj
 0001:00033c50       ?grow@?$Array@UExpandPoint@local@@VNamedAllocator@shdfnd@physx@@@shdfnd@physx@@IAEXI@Z 10034c50 f i QuickHullConvexHullLib.obj
 0001:00033cb0       ?growAndPushBack@?$Array@PAUQuickHullFace@local@@VNamedAllocator@shdfnd@physx@@@shdfnd@physx@@IAEAAPAUQuickHullFace@local@@ABQAU45@@Z 10034cb0 f i QuickHullConvexHullLib.obj
 0001:00033de0       ?growAndPushBack@?$Array@PAUQuickHullHalfEdge@local@@VNamedAllocator@shdfnd@physx@@@shdfnd@physx@@IAEAAPAUQuickHullHalfEdge@local@@ABQAU45@@Z 10034de0 f i QuickHullConvexHullLib.obj
 0001:00033f10       ?growAndPushBack@?$Array@PAUQuickHullVertex@local@@VNamedAllocator@shdfnd@physx@@@shdfnd@physx@@IAEAAPAUQuickHullVertex@local@@ABQAU45@@Z 10034f10 f i QuickHullConvexHullLib.obj
 0001:00034040       ?growAndPushBack@?$Array@UExpandPoint@local@@VNamedAllocator@shdfnd@physx@@@shdfnd@physx@@IAEAAUExpandPoint@local@@ABU45@@Z 10035040 f i QuickHullConvexHullLib.obj
 0001:00034160       ?init@?$MemBlock@UQuickHullFace@local@@$00@local@@QAEXI@Z 10035160 f i QuickHullConvexHullLib.obj
 0001:00034240       ?init@?$MemBlock@UQuickHullHalfEdge@local@@$0A@@local@@QAEXI@Z 10035240 f i QuickHullConvexHullLib.obj
 0001:00034310       ?isInUserMemory@?$Array@PAUQuickHullFace@local@@VNamedAllocator@shdfnd@physx@@@shdfnd@physx@@QBEIXZ 10035310 f i QuickHullConvexHullLib.obj
 0001:00034330       ?isInUserMemory@?$Array@PAUQuickHullHalfEdge@local@@VNamedAllocator@shdfnd@physx@@@shdfnd@physx@@QBEIXZ 10035330 f i QuickHullConvexHullLib.obj
 0001:00034350       ?isInUserMemory@?$Array@PAUQuickHullVertex@local@@VNamedAllocator@shdfnd@physx@@@shdfnd@physx@@QBEIXZ 10035350 f i QuickHullConvexHullLib.obj
 0001:00034370       ?isInUserMemory@?$Array@UExpandPoint@local@@VNamedAllocator@shdfnd@physx@@@shdfnd@physx@@QBEIXZ 10035370 f i QuickHullConvexHullLib.obj
 0001:00034390       ?isTriangle@QuickHullFace@local@@ABE_NXZ 10035390 f i QuickHullConvexHullLib.obj
 0001:000343c0       ?pushBack@?$Array@PAUQuickHullFace@local@@VNamedAllocator@shdfnd@physx@@@shdfnd@physx@@QAEAAPAUQuickHullFace@local@@ABQAU45@@Z 100353c0 f i QuickHullConvexHullLib.obj
 0001:00034440       ?pushBack@?$Array@PAUQuickHullHalfEdge@local@@VNamedAllocator@shdfnd@physx@@@shdfnd@physx@@QAEAAPAUQuickHullHalfEdge@local@@ABQAU45@@Z 10035440 f i QuickHullConvexHullLib.obj
 0001:000344c0       ?pushBack@?$Array@PAUQuickHullVertex@local@@VNamedAllocator@shdfnd@physx@@@shdfnd@physx@@QAEAAPAUQuickHullVertex@local@@ABQAU45@@Z 100354c0 f i QuickHullConvexHullLib.obj
 0001:00034540       ?pushBack@?$Array@UExpandPoint@local@@VNamedAllocator@shdfnd@physx@@@shdfnd@physx@@QAEAAUExpandPoint@local@@ABU45@@Z 10035540 f i QuickHullConvexHullLib.obj
 0001:000345c0       ?recreate@?$Array@PAUQuickHullFace@local@@VNamedAllocator@shdfnd@physx@@@shdfnd@physx@@IAEXI@Z 100355c0 f i QuickHullConvexHullLib.obj
 0001:00034690       ?recreate@?$Array@PAUQuickHullHalfEdge@local@@VNamedAllocator@shdfnd@physx@@@shdfnd@physx@@IAEXI@Z 10035690 f i QuickHullConvexHullLib.obj
 0001:00034760       ?recreate@?$Array@PAUQuickHullVertex@local@@VNamedAllocator@shdfnd@physx@@@shdfnd@physx@@IAEXI@Z 10035760 f i QuickHullConvexHullLib.obj
 0001:00034830       ?recreate@?$Array@UExpandPoint@local@@VNamedAllocator@shdfnd@physx@@@shdfnd@physx@@IAEXI@Z 10035830 f i QuickHullConvexHullLib.obj
 0001:00034900       ?reserve@?$Array@PAUQuickHullFace@local@@VNamedAllocator@shdfnd@physx@@@shdfnd@physx@@QAEXI@Z 10035900 f i QuickHullConvexHullLib.obj
 0001:00034930       ?reserve@?$Array@PAUQuickHullHalfEdge@local@@VNamedAllocator@shdfnd@physx@@@shdfnd@physx@@QAEXI@Z 10035930 f i QuickHullConvexHullLib.obj
 0001:00034960       ?reserve@?$Array@PAUQuickHullVertex@local@@VNamedAllocator@shdfnd@physx@@@shdfnd@physx@@QAEXI@Z 10035960 f i QuickHullConvexHullLib.obj
 0001:00034990       ?reserve@?$Array@UExpandPoint@local@@VNamedAllocator@shdfnd@physx@@@shdfnd@physx@@QAEXI@Z 10035990 f i QuickHullConvexHullLib.obj
 0001:000349c0       ?reset@?$MemBlock@UQuickHullFace@local@@$00@local@@QAEXXZ 100359c0 f i QuickHullConvexHullLib.obj
 0001:00034a50       ?reset@?$MemBlock@UQuickHullHalfEdge@local@@$0A@@local@@QAEXXZ 10035a50 f i QuickHullConvexHullLib.obj
 0001:00034ae0       ?setTwin@QuickHullHalfEdge@local@@QAEXPAU12@@Z 10035ae0 f i QuickHullConvexHullLib.obj
 0001:00034b00       ?size@?$Array@PAUQuickHullFace@local@@VNamedAllocator@shdfnd@physx@@@shdfnd@physx@@QBEIXZ 10035b00 f i QuickHullConvexHullLib.obj
 0001:00034b20       ?size@?$Array@PAUQuickHullHalfEdge@local@@VNamedAllocator@shdfnd@physx@@@shdfnd@physx@@QBEIXZ 10035b20 f i QuickHullConvexHullLib.obj
 0001:00034b40       ?size@?$Array@PAUQuickHullVertex@local@@VNamedAllocator@shdfnd@physx@@@shdfnd@physx@@QBEIXZ 10035b40 f i QuickHullConvexHullLib.obj
 0001:00034b60       ?size@?$Array@UExpandPoint@local@@VNamedAllocator@shdfnd@physx@@@shdfnd@physx@@QBEIXZ 10035b60 f i QuickHullConvexHullLib.obj
 0001:00034bd0       ?computeVolumeIntegrals@physx@@YA_NABVPxSimpleTriangleMesh@1@MAAUPxIntegrals@1@@Z 10035bd0 f   VolumeIntegration.obj
 0001:00034c30       ?computeVolumeIntegralsEberly@physx@@YA_NABVPxConvexMeshDesc@1@MAAUPxIntegrals@1@ABVPxVec3@1@@Z 10035c30 f   VolumeIntegration.obj
 0001:00034c80       ?computeVolumeIntegralsEberlySIMD@physx@@YA_NABVPxConvexMeshDesc@1@MAAUPxIntegrals@1@ABVPxVec3@1@@Z 10035c80 f   VolumeIntegration.obj
 0001:00038b00       ??$swap@VPxVec3@physx@@@shdfnd@physx@@YAXAAVPxVec3@1@0@Z 10039b00 f i VolumeIntegration.obj
 0001:00038b30       ??0PxSimpleTriangleMesh@physx@@QAE@XZ 10039b30 f i VolumeIntegration.obj
 0001:00038b60       ??4?$PxFlags@W4Enum@PxMeshFlag@physx@@G@physx@@QAEAAV01@ABV01@@Z 10039b60 f i VolumeIntegration.obj
 0001:00038b80       ??4PxSimpleTriangleMesh@physx@@QAEAAV01@ABV01@@Z 10039b80 f i VolumeIntegration.obj
 0001:00038be0       ?FAllGrtr@aos@shdfnd@physx@@YAIT__m128@@0@Z 10039be0 f i VolumeIntegration.obj
 0001:00038ca0       ?V4Cross@aos@shdfnd@physx@@YA?AT__m128@@T4@0@Z 10039ca0 f i VolumeIntegration.obj
 0001:00038d70       ?V4Dot3@aos@shdfnd@physx@@YA?AT__m128@@T4@0@Z 10039d70 f i VolumeIntegration.obj
 0001:00038e30       ?V4PermYZXW@aos@shdfnd@physx@@YA?AT__m128@@T4@@Z 10039e30 f i VolumeIntegration.obj
 0001:00038e70       ?V4ScaleInv@aos@shdfnd@physx@@YA?AT__m128@@T4@0@Z 10039e70 f i VolumeIntegration.obj
 0001:00038ef0       ?Vec4V_From_PxVec3_WUndefined@aos@shdfnd@physx@@YA?AT__m128@@ABVPxVec3@3@@Z 10039ef0 f i VolumeIntegration.obj
 0001:00038f40       ?isZero@PxVec3@physx@@QBE_NXZ 10039f40 f i VolumeIntegration.obj
 0001:00038fa0       _PxSetPhysXCookingDelayLoadHook 10039fa0 f   WindowsCookingDelayLoadHook.obj
 0001:00038fb0       ?cookingDelayHook@@YGP6GHXZIPAUDelayLoadInfo@@@Z 10039fb0 f   WindowsCookingDelayLoadHook.obj
 0001:00039010       ?loadLibrary@Cm@physx@@YGPAUHINSTANCE__@@PBD@Z 1003a010 f i WindowsCookingDelayLoadHook.obj
 0001:00039030       ?physXCommonDliNotePreLoadLibrary@Cm@physx@@YGP6GHXZPBDPBVPxDelayLoadHook@2@@Z 1003a030 f i WindowsCookingDelayLoadHook.obj
 0001:000390a0       __imp_load_??0RadixSortBuffered@Cm@physx@@QAE@XZ 1003a0a0 f   PhysXCommon_32:PhysXCommon_32.dll
 0001:000390aa       ??0RadixSortBuffered@Cm@physx@@QAE@XZ 1003a0aa f   PhysXCommon_32:PhysXCommon_32.dll
 0001:000390b0       __tailMerge_physxcommon_32_dll 1003a0b0     PhysXCommon_32:PhysXCommon_32.dll
 0001:000390c1       __imp_load_??1RadixSortBuffered@Cm@physx@@UAE@XZ 1003a0c1 f   PhysXCommon_32:PhysXCommon_32.dll
 0001:000390cb       ??1RadixSortBuffered@Cm@physx@@UAE@XZ 1003a0cb f   PhysXCommon_32:PhysXCommon_32.dll
 0001:000390d1       __imp_load_?Sort@RadixSortBuffered@Cm@physx@@QAEAAV123@PBIIW4RadixHint@23@@Z 1003a0d1 f   PhysXCommon_32:PhysXCommon_32.dll
 0001:000390db       ?Sort@RadixSortBuffered@Cm@physx@@QAEAAV123@PBIIW4RadixHint@23@@Z 1003a0db f   PhysXCommon_32:PhysXCommon_32.dll
 0001:000390e1       __imp_load_?readDword@physx@@YAI_NAAVPxInputStream@1@@Z 1003a0e1 f   PhysXCommon_32:PhysXCommon_32.dll
 0001:000390eb       ?readDword@physx@@YAI_NAAVPxInputStream@1@@Z 1003a0eb f   PhysXCommon_32:PhysXCommon_32.dll
 0001:000390f1       __imp_load_?ReadHeader@Gu@physx@@YA_NEEEEAAIAA_NAAVPxInputStream@2@@Z 1003a0f1 f   PhysXCommon_32:PhysXCommon_32.dll
 0001:000390fb       ?ReadHeader@Gu@physx@@YA_NEEEEAAIAA_NAAVPxInputStream@2@@Z 1003a0fb f   PhysXCommon_32:PhysXCommon_32.dll
 0001:00039101       __imp_load_??0HeightField@Gu@physx@@QAE@PAVGuMeshFactory@2@@Z 1003a101 f   PhysXCommon_32:PhysXCommon_32.dll
 0001:0003910b       ??0HeightField@Gu@physx@@QAE@PAVGuMeshFactory@2@@Z 1003a10b f   PhysXCommon_32:PhysXCommon_32.dll
 0001:00039111       __imp_load_?loadFromDesc@HeightField@Gu@physx@@QAE_NABVPxHeightFieldDesc@3@@Z 1003a111 f   PhysXCommon_32:PhysXCommon_32.dll
 0001:0003911b       ?loadFromDesc@HeightField@Gu@physx@@QAE_NABVPxHeightFieldDesc@3@@Z 1003a11b f   PhysXCommon_32:PhysXCommon_32.dll
 0001:00039121       __imp_load_?computeCellCoordinates@HeightField@Gu@physx@@QBEIMMAAM0@Z 1003a121 f   PhysXCommon_32:PhysXCommon_32.dll
 0001:0003912b       ?computeCellCoordinates@HeightField@Gu@physx@@QBEIMMAAM0@Z 1003a12b f   PhysXCommon_32:PhysXCommon_32.dll
 0001:00039131       __imp_load_?releaseMemory@HeightField@Gu@physx@@QAEXXZ 1003a131 f   PhysXCommon_32:PhysXCommon_32.dll
 0001:0003913b       ?releaseMemory@HeightField@Gu@physx@@QAEXXZ 1003a13b f   PhysXCommon_32:PhysXCommon_32.dll
 0001:00039141       __imp_load_??1HeightField@Gu@physx@@UAE@XZ 1003a141 f   PhysXCommon_32:PhysXCommon_32.dll
 0001:0003914b       ??1HeightField@Gu@physx@@UAE@XZ 1003a14b f   PhysXCommon_32:PhysXCommon_32.dll
 0001:00039151       __imp_load_??0NodeAllocator@Gu@physx@@QAE@XZ 1003a151 f   PhysXCommon_32:PhysXCommon_32.dll
 0001:0003915b       ??0NodeAllocator@Gu@physx@@QAE@XZ 1003a15b f   PhysXCommon_32:PhysXCommon_32.dll
 0001:00039161       __imp_load_??1NodeAllocator@Gu@physx@@QAE@XZ 1003a161 f   PhysXCommon_32:PhysXCommon_32.dll
 0001:0003916b       ??1NodeAllocator@Gu@physx@@QAE@XZ 1003a16b f   PhysXCommon_32:PhysXCommon_32.dll
 0001:00039171       __imp_load_?release@NodeAllocator@Gu@physx@@QAEXXZ 1003a171 f   PhysXCommon_32:PhysXCommon_32.dll
 0001:0003917b       ?release@NodeAllocator@Gu@physx@@QAEXXZ 1003a17b f   PhysXCommon_32:PhysXCommon_32.dll
 0001:00039181       __imp_load_?buildAABBTree@Gu@physx@@YA_NAAVAABBTreeBuildParams@12@AAVNodeAllocator@12@AAUBuildStats@12@AAPAI@Z 1003a181 f   PhysXCommon_32:PhysXCommon_32.dll
 0001:0003918b       ?buildAABBTree@Gu@physx@@YA_NAAVAABBTreeBuildParams@12@AAVNodeAllocator@12@AAUBuildStats@12@AAPAI@Z 1003a18b f   PhysXCommon_32:PhysXCommon_32.dll
 0001:00039191       __imp_load_?writeDword@physx@@YAXI_NAAVPxOutputStream@1@@Z 1003a191 f   PhysXCommon_32:PhysXCommon_32.dll
 0001:0003919b       ?writeDword@physx@@YAXI_NAAVPxOutputStream@1@@Z 1003a19b f   PhysXCommon_32:PhysXCommon_32.dll
 0001:000391a1       __imp_load_?writeFloatBuffer@physx@@YAXPBMI_NAAVPxOutputStream@1@@Z 1003a1a1 f   PhysXCommon_32:PhysXCommon_32.dll
 0001:000391ab       ?writeFloatBuffer@physx@@YAXPBMI_NAAVPxOutputStream@1@@Z 1003a1ab f   PhysXCommon_32:PhysXCommon_32.dll
 0001:000391b1       __imp_load_?writeHeader@physx@@YA_NCCCCI_NAAVPxOutputStream@1@@Z 1003a1b1 f   PhysXCommon_32:PhysXCommon_32.dll
 0001:000391bb       ?writeHeader@physx@@YA_NCCCCI_NAAVPxOutputStream@1@@Z 1003a1bb f   PhysXCommon_32:PhysXCommon_32.dll
 0001:000391c1       __imp_load_?writeWord@physx@@YAXG_NAAVPxOutputStream@1@@Z 1003a1c1 f   PhysXCommon_32:PhysXCommon_32.dll
 0001:000391cb       ?writeWord@physx@@YAXG_NAAVPxOutputStream@1@@Z 1003a1cb f   PhysXCommon_32:PhysXCommon_32.dll
 0001:000391d1       __imp_load_?writeFloat@physx@@YAXM_NAAVPxOutputStream@1@@Z 1003a1d1 f   PhysXCommon_32:PhysXCommon_32.dll
 0001:000391db       ?writeFloat@physx@@YAXM_NAAVPxOutputStream@1@@Z 1003a1db f   PhysXCommon_32:PhysXCommon_32.dll
 0001:000391e1       __imp_load_?validate@RTree@Gu@physx@@QAEXPAUCallbackRefit@123@@Z 1003a1e1 f   PhysXCommon_32:PhysXCommon_32.dll
 0001:000391eb       ?validate@RTree@Gu@physx@@QAEXPAUCallbackRefit@123@@Z 1003a1eb f   PhysXCommon_32:PhysXCommon_32.dll
 0001:000391f1       __imp_load_?computeBoundsAroundVertices@Gu@physx@@YAXAAVPxBounds3@2@IPIBVPxVec3@2@@Z 1003a1f1 f   PhysXCommon_32:PhysXCommon_32.dll
 0001:000391fb       ?computeBoundsAroundVertices@Gu@physx@@YAXAAVPxBounds3@2@IPIBVPxVec3@2@@Z 1003a1fb f   PhysXCommon_32:PhysXCommon_32.dll
 0001:00039201       __imp_load_??0SourceMesh@Gu@physx@@QAE@XZ 1003a201 f   PhysXCommon_32:PhysXCommon_32.dll
 0001:0003920b       ??0SourceMesh@Gu@physx@@QAE@XZ 1003a20b f   PhysXCommon_32:PhysXCommon_32.dll
 0001:00039211       __imp_load_??1SourceMesh@Gu@physx@@QAE@XZ 1003a211 f   PhysXCommon_32:PhysXCommon_32.dll
 0001:0003921b       ??1SourceMesh@Gu@physx@@QAE@XZ 1003a21b f   PhysXCommon_32:PhysXCommon_32.dll
 0001:00039221       __imp_load_??0BV4Tree@Gu@physx@@QAE@XZ 1003a221 f   PhysXCommon_32:PhysXCommon_32.dll
 0001:0003922b       ??0BV4Tree@Gu@physx@@QAE@XZ 1003a22b f   PhysXCommon_32:PhysXCommon_32.dll
 0001:00039231       __imp_load_??1BV4Tree@Gu@physx@@QAE@XZ 1003a231 f   PhysXCommon_32:PhysXCommon_32.dll
 0001:0003923b       ??1BV4Tree@Gu@physx@@QAE@XZ 1003a23b f   PhysXCommon_32:PhysXCommon_32.dll
 0001:00039241       __imp_load_??0BV32Tree@Gu@physx@@QAE@XZ 1003a241 f   PhysXCommon_32:PhysXCommon_32.dll
 0001:0003924b       ??0BV32Tree@Gu@physx@@QAE@XZ 1003a24b f   PhysXCommon_32:PhysXCommon_32.dll
 0001:00039251       __imp_load_??1BV32Tree@Gu@physx@@QAE@XZ 1003a251 f   PhysXCommon_32:PhysXCommon_32.dll
 0001:0003925b       ??1BV32Tree@Gu@physx@@QAE@XZ 1003a25b f   PhysXCommon_32:PhysXCommon_32.dll
 0001:00039261       __imp_load_?writeWordBuffer@physx@@YAXPBGI_NAAVPxOutputStream@1@@Z 1003a261 f   PhysXCommon_32:PhysXCommon_32.dll
 0001:0003926b       ?writeWordBuffer@physx@@YAXPBGI_NAAVPxOutputStream@1@@Z 1003a26b f   PhysXCommon_32:PhysXCommon_32.dll
 0001:00039271       __imp_load_?computeMaxIndex@physx@@YAIPBII@Z 1003a271 f   PhysXCommon_32:PhysXCommon_32.dll
 0001:0003927b       ?computeMaxIndex@physx@@YAIPBII@Z 1003a27b f   PhysXCommon_32:PhysXCommon_32.dll
 0001:00039281       __imp_load_?storeIndices@physx@@YAXIIPBIAAVPxOutputStream@1@_N@Z 1003a281 f   PhysXCommon_32:PhysXCommon_32.dll
 0001:0003928b       ?storeIndices@physx@@YAXIIPBIAAVPxOutputStream@1@_N@Z 1003a28b f   PhysXCommon_32:PhysXCommon_32.dll
 0001:00039291       __imp_load_?BuildBV4Ex@Gu@physx@@YA_NAAVBV4Tree@12@AAVSourceMesh@12@MI@Z 1003a291 f   PhysXCommon_32:PhysXCommon_32.dll
 0001:0003929b       ?BuildBV4Ex@Gu@physx@@YA_NAAVBV4Tree@12@AAVSourceMesh@12@MI@Z 1003a29b f   PhysXCommon_32:PhysXCommon_32.dll
 0001:000392a1       __imp_load_?BuildBV32Ex@Gu@physx@@YA_NAAVBV32Tree@12@AAVSourceMesh@12@MI@Z 1003a2a1 f   PhysXCommon_32:PhysXCommon_32.dll
 0001:000392ab       ?BuildBV32Ex@Gu@physx@@YA_NAAVBV32Tree@12@AAVSourceMesh@12@MI@Z 1003a2ab f   PhysXCommon_32:PhysXCommon_32.dll
 0001:000392b1       __imp_load_?computeMaxIndex@physx@@YAGPBGI@Z 1003a2b1 f   PhysXCommon_32:PhysXCommon_32.dll
 0001:000392bb       ?computeMaxIndex@physx@@YAGPBGI@Z 1003a2bb f   PhysXCommon_32:PhysXCommon_32.dll
 0001:000392c1       __imp_load_?WriteHeader@Gu@physx@@YA_NEEEEI_NAAVPxOutputStream@2@@Z 1003a2c1 f   PhysXCommon_32:PhysXCommon_32.dll
 0001:000392cb       ?WriteHeader@Gu@physx@@YA_NEEEEI_NAAVPxOutputStream@2@@Z 1003a2cb f   PhysXCommon_32:PhysXCommon_32.dll
 0001:000392d1       __imp_load_?StoreIndices@Gu@physx@@YAXGIPBGAAVPxOutputStream@2@_N@Z 1003a2d1 f   PhysXCommon_32:PhysXCommon_32.dll
 0001:000392db       ?StoreIndices@Gu@physx@@YAXGIPBGAAVPxOutputStream@2@_N@Z 1003a2db f   PhysXCommon_32:PhysXCommon_32.dll
 0001:000392e1       __imp_load_?CreateOffsets@BigConvexData@physx@@IAEXXZ 1003a2e1 f   PhysXCommon_32:PhysXCommon_32.dll
 0001:000392eb       ?CreateOffsets@BigConvexData@physx@@IAEXXZ 1003a2eb f   PhysXCommon_32:PhysXCommon_32.dll
 0001:000392f1       __imp_load_?computeOBBPoints@Gu@physx@@YAXPIAVPxVec3@2@ABV32@1111@Z 1003a2f1 f   PhysXCommon_32:PhysXCommon_32.dll
 0001:000392fb       ?computeOBBPoints@Gu@physx@@YAXPIAVPxVec3@2@ABV32@1111@Z 1003a2fb f   PhysXCommon_32:PhysXCommon_32.dll
 0001:00039301       __imp_load_??0BigConvexData@physx@@QAE@XZ 1003a301 f   PhysXCommon_32:PhysXCommon_32.dll
 0001:0003930b       ??0BigConvexData@physx@@QAE@XZ 1003a30b f   PhysXCommon_32:PhysXCommon_32.dll
 0001:00039311       __imp_load_??1BigConvexData@physx@@QAE@XZ 1003a311 f   PhysXCommon_32:PhysXCommon_32.dll
 0001:0003931b       ??1BigConvexData@physx@@QAE@XZ 1003a31b f   PhysXCommon_32:PhysXCommon_32.dll
 0001:00039321       __imp_load_?PxGetAssertHandler@physx@@YAAAVPxAssertHandler@1@XZ 1003a321 f   PhysXFoundation_32:PhysXFoundation_32.dll
 0001:0003932b       ?PxGetAssertHandler@physx@@YAAAVPxAssertHandler@1@XZ 1003a32b f   PhysXFoundation_32:PhysXFoundation_32.dll
 0001:00039331       __tailMerge_physxfoundation_32_dll 1003a331     PhysXFoundation_32:PhysXFoundation_32.dll
 0001:00039342       __imp_load__PxGetFoundation 1003a342 f   PhysXFoundation_32:PhysXFoundation_32.dll
 0001:0003934c       _PxGetFoundation           1003a34c f   PhysXFoundation_32:PhysXFoundation_32.dll
 0001:00039352       __imp_load_?getAllocator@shdfnd@physx@@YAAAVPxAllocatorCallback@2@XZ 1003a352 f   PhysXFoundation_32:PhysXFoundation_32.dll
 0001:0003935c       ?getAllocator@shdfnd@physx@@YAAAVPxAllocatorCallback@2@XZ 1003a35c f   PhysXFoundation_32:PhysXFoundation_32.dll
 0001:00039362       __imp_load_??0NamedAllocator@shdfnd@physx@@QAE@PBD@Z 1003a362 f   PhysXFoundation_32:PhysXFoundation_32.dll
 0001:0003936c       ??0NamedAllocator@shdfnd@physx@@QAE@PBD@Z 1003a36c f   PhysXFoundation_32:PhysXFoundation_32.dll
 0001:00039372       __imp_load_?getInstance@Foundation@shdfnd@physx@@SAAAV123@XZ 1003a372 f   PhysXFoundation_32:PhysXFoundation_32.dll
 0001:0003937c       ?getInstance@Foundation@shdfnd@physx@@SAAAV123@XZ 1003a37c f   PhysXFoundation_32:PhysXFoundation_32.dll
 0001:00039382       __imp_load_?error@Foundation@shdfnd@physx@@QAAXW4Enum@PxErrorCode@3@PBDH1ZZ 1003a382 f   PhysXFoundation_32:PhysXFoundation_32.dll
 0001:0003938c       ?error@Foundation@shdfnd@physx@@QAAXW4Enum@PxErrorCode@3@PBDH1ZZ 1003a38c f   PhysXFoundation_32:PhysXFoundation_32.dll
 0001:00039392       __imp_load_?allocate@NamedAllocator@shdfnd@physx@@QAEPAXIPBDH@Z 1003a392 f   PhysXFoundation_32:PhysXFoundation_32.dll
 0001:0003939c       ?allocate@NamedAllocator@shdfnd@physx@@QAEPAXIPBDH@Z 1003a39c f   PhysXFoundation_32:PhysXFoundation_32.dll
 0001:000393a2       __imp_load_?deallocate@NamedAllocator@shdfnd@physx@@QAEXPAX@Z 1003a3a2 f   PhysXFoundation_32:PhysXFoundation_32.dll
 0001:000393ac       ?deallocate@NamedAllocator@shdfnd@physx@@QAEXPAX@Z 1003a3ac f   PhysXFoundation_32:PhysXFoundation_32.dll
 0001:000393b2       __imp_load_?incRefCount@Foundation@shdfnd@physx@@SAXXZ 1003a3b2 f   PhysXFoundation_32:PhysXFoundation_32.dll
 0001:000393bc       ?incRefCount@Foundation@shdfnd@physx@@SAXXZ 1003a3bc f   PhysXFoundation_32:PhysXFoundation_32.dll
 0001:000393c2       __imp_load_?decRefCount@Foundation@shdfnd@physx@@SAXXZ 1003a3c2 f   PhysXFoundation_32:PhysXFoundation_32.dll
 0001:000393cc       ?decRefCount@Foundation@shdfnd@physx@@SAXXZ 1003a3cc f   PhysXFoundation_32:PhysXFoundation_32.dll
 0001:000393d2       __imp_load_??0FPUGuard@shdfnd@physx@@QAE@XZ 1003a3d2 f   PhysXFoundation_32:PhysXFoundation_32.dll
 0001:000393dc       ??0FPUGuard@shdfnd@physx@@QAE@XZ 1003a3dc f   PhysXFoundation_32:PhysXFoundation_32.dll
 0001:000393e2       __imp_load_??1FPUGuard@shdfnd@physx@@QAE@XZ 1003a3e2 f   PhysXFoundation_32:PhysXFoundation_32.dll
 0001:000393ec       ??1FPUGuard@shdfnd@physx@@QAE@XZ 1003a3ec f   PhysXFoundation_32:PhysXFoundation_32.dll
 0001:000393f2       __imp_load_??1NamedAllocator@shdfnd@physx@@QAE@XZ 1003a3f2 f   PhysXFoundation_32:PhysXFoundation_32.dll
 0001:000393fc       ??1NamedAllocator@shdfnd@physx@@QAE@XZ 1003a3fc f   PhysXFoundation_32:PhysXFoundation_32.dll
 0001:00039402       __imp_load_??0NamedAllocator@shdfnd@physx@@QAE@ABV012@@Z 1003a402 f   PhysXFoundation_32:PhysXFoundation_32.dll
 0001:0003940c       ??0NamedAllocator@shdfnd@physx@@QAE@ABV012@@Z 1003a40c f   PhysXFoundation_32:PhysXFoundation_32.dll
 0001:00039412       __imp_load_?allocate@TempAllocator@shdfnd@physx@@QAEPAXIPBDH@Z 1003a412 f   PhysXFoundation_32:PhysXFoundation_32.dll
 0001:0003941c       ?allocate@TempAllocator@shdfnd@physx@@QAEPAXIPBDH@Z 1003a41c f   PhysXFoundation_32:PhysXFoundation_32.dll
 0001:00039422       __imp_load_?deallocate@TempAllocator@shdfnd@physx@@QAEXPAX@Z 1003a422 f   PhysXFoundation_32:PhysXFoundation_32.dll
 0001:0003942c       ?deallocate@TempAllocator@shdfnd@physx@@QAEXPAX@Z 1003a42c f   PhysXFoundation_32:PhysXFoundation_32.dll
 0001:00039432       __imp_load_?PxDiagonalize@physx@@YA?AVPxVec3@1@ABVPxMat33@1@AAVPxQuat@1@@Z 1003a432 f   PhysXFoundation_32:PhysXFoundation_32.dll
 0001:0003943c       ?PxDiagonalize@physx@@YA?AVPxVec3@1@ABVPxMat33@1@AAVPxQuat@1@@Z 1003a43c f   PhysXFoundation_32:PhysXFoundation_32.dll
 0001:00039442       _LoadLibraryA@4            1003a442 f   kernel32:KERNEL32.dll
 0001:00039448       ??$PFromRva@PAP6GHXZ@@YGPAP6GHXZK@Z 1003a448 f i Delayimp:delayhlp.obj
 0001:0003945a       ??$PFromRva@PAPAUHINSTANCE__@@@@YGPAPAUHINSTANCE__@@K@Z 1003a45a f i Delayimp:delayhlp.obj
 0001:0003946c       ??$PFromRva@PAU_IMAGE_IMPORT_BY_NAME@@@@YGPAU_IMAGE_IMPORT_BY_NAME@@K@Z 1003a46c f i Delayimp:delayhlp.obj
 0001:0003947e       ??$PFromRva@PAU_IMAGE_THUNK_DATA32@@@@YGPAU_IMAGE_THUNK_DATA32@@K@Z 1003a47e f i Delayimp:delayhlp.obj
 0001:00039490       ??$PFromRva@PBD@@YGPBDK@Z  1003a490 f i Delayimp:delayhlp.obj
 0001:000394a2       ??$PFromRva@PBUImgDelayDescr@@@@YGPBUImgDelayDescr@@K@Z 1003a4a2 f i Delayimp:delayhlp.obj
 0001:000394b4       ??$PFromRva@PBU_IMAGE_THUNK_DATA32@@@@YGPBU_IMAGE_THUNK_DATA32@@K@Z 1003a4b4 f i Delayimp:delayhlp.obj
 0001:000394c6       ?CountOfImports@@YGIPBU_IMAGE_THUNK_DATA32@@@Z 1003a4c6 f i Delayimp:delayhlp.obj
 0001:000394e1       ?DloadAcquireSectionWriteAccess@@YGXXZ 1003a4e1 f i Delayimp:delayhlp.obj
 0001:00039514       ?DloadGetSRWLockFunctionPointers@@YGEXZ 1003a514 f i Delayimp:delayhlp.obj
 0001:00039587       ?DloadLock@@YGXXZ          1003a587 f i Delayimp:delayhlp.obj
 0001:000395c6       ?DloadMakePermanentImageCommit@@YGXPAXK@Z 1003a5c6 f i Delayimp:delayhlp.obj
 0001:00039635       ?DloadObtainSection@@YGPAXPAK0@Z 1003a635 f i Delayimp:delayhlp.obj
 0001:000396b0       ?DloadProtectSection@@YGXKPAK@Z 1003a6b0 f i Delayimp:delayhlp.obj
 0001:0003971e       ?DloadReleaseSectionWriteAccess@@YGXXZ 1003a71e f i Delayimp:delayhlp.obj
 0001:00039754       ?DloadUnlock@@YGXXZ        1003a754 f i Delayimp:delayhlp.obj
 0001:00039795       ?IndexFromPImgThunkData@@YGIPBU_IMAGE_THUNK_DATA32@@0@Z 1003a795 f i Delayimp:delayhlp.obj
 0001:000398f5       _HRESULT_FROM_WIN32@4      1003a8f5 f i Delayimp:delayhlp.obj
 0001:0003990d       _ReadAcquire@4             1003a90d f i Delayimp:delayhlp.obj
 0001:0003991b       _ReadPointerAcquire@4      1003a91b f i Delayimp:delayhlp.obj
 0001:00039929       _WritePointerRelease@8     1003a929 f i Delayimp:delayhlp.obj
 0001:0003993a       _WriteRelease@8            1003a93a f i Delayimp:delayhlp.obj
 0001:0003994b       __InlineInterlockedCompareExchangePointer@12 1003a94b f i Delayimp:delayhlp.obj
 0001:00039961       ___FUnloadDelayLoadedDLL2@4 1003a961 f   Delayimp:delayhlp.obj
 0001:000399e5       ___HrLoadAllImportsForDll@4 1003a9e5 f   Delayimp:delayhlp.obj
 0001:00039a46       ___delayLoadHelper2@8      1003aa46 f   Delayimp:delayhlp.obj
 0001:00039cc0       ??3@YAXPAXI@Z              1003acc0 f   LIBCMTD:delete_scalar_size.obj
 0001:00039ce0       ??_V@YAXPAXI@Z             1003ace0 f   LIBCMTD:delete_array_size.obj
 0001:00039d00       __CRT_RTC_INIT             1003ad00 f   LIBCMTD:init.obj
 0001:00039d10       __CRT_RTC_INITW            1003ad10 f   LIBCMTD:init.obj
 0001:00039d20       __RTC_InitBase             1003ad20 f   LIBCMTD:init.obj
 0001:00039d50       __RTC_Shutdown             1003ad50 f   LIBCMTD:init.obj
 0001:00039d70       ??1type_info@@UAE@XZ       1003ad70 f   LIBCMTD:std_type_info_static.obj
 0001:00039d90       ??_Gtype_info@@UAEPAXI@Z   1003ad90 f i LIBCMTD:std_type_info_static.obj
 0001:00039d90       ??_Etype_info@@UAEPAXI@Z   1003ad90 f i LIBCMTD:std_type_info_static.obj
 0001:00039dc0       ?__scrt_initialize_type_info@@YAXXZ 1003adc0 f   LIBCMTD:tncleanup.obj
 0001:00039dd0       ?__scrt_uninitialize_type_info@@YAXXZ 1003add0 f   LIBCMTD:tncleanup.obj
 0001:00039df0       __alloca_probe_16          1003adf0 f   LIBCMTD:alloca16.obj
 0001:00039e06       __alloca_probe_8           1003ae06     LIBCMTD:alloca16.obj
 0001:00039e20       ??3@YAXPAX@Z               1003ae20 f   LIBCMTD:delete_scalar.obj
 0001:00039e40       ??_V@YAXPAX@Z              1003ae40 f   LIBCMTD:delete_array.obj
 0001:00039e60       __alloca_probe             1003ae60 f   LIBCMTD:chkstk.obj
 0001:00039e60       __chkstk                   1003ae60 f   LIBCMTD:chkstk.obj
 0001:00039e90       __ftoui3                   1003ae90 f   LIBCMTD:ftol3.obj
 0001:00039ee0       __ftoul3                   1003aee0 f   LIBCMTD:ftol3.obj
 0001:00039f60       __ftol3                    1003af60 f   LIBCMTD:ftol3.obj
 0001:00039fd0       __dtoui3                   1003afd0 f   LIBCMTD:ftol3.obj
 0001:0003a050       __dtoul3                   1003b050 f   LIBCMTD:ftol3.obj
 0001:0003a100       __dtol3                    1003b100 f   LIBCMTD:ftol3.obj
 0001:0003a1b0       __ultod3                   1003b1b0 f   LIBCMTD:ftol3.obj
 0001:0003a210       __ltod3                    1003b210 f   LIBCMTD:ftol3.obj
 0001:0003a730       __CRT_INIT@12              1003b730 f   LIBCMTD:dll_dllmain.obj
 0001:0003a750       __DllMainCRTStartup@12     1003b750 f   LIBCMTD:dll_dllmain.obj
 0001:0003a780       @_guard_check_icall_nop@4  1003b780 f i LIBCMTD:guard_support.obj
 0001:0003a790       _ReadNoFence               1003b790 f i LIBCMTD:guard_support.obj
 0001:0003a7b0       _ReadPointerNoFence        1003b7b0 f i LIBCMTD:guard_support.obj
 0001:0003a7d0       ___castguard_check_failure_debugbreak 1003b7d0 f i LIBCMTD:guard_support.obj
 0001:0003a7f0       ___castguard_check_failure_fastfail 1003b7f0 f i LIBCMTD:guard_support.obj
 0001:0003a810       ___castguard_check_failure_nop 1003b810 f i LIBCMTD:guard_support.obj
 0001:0003a820       ___castguard_check_failure_os_handled 1003b820 f i LIBCMTD:guard_support.obj
 0001:0003a8a0       ___castguard_slow_path_check_debugbreak 1003b8a0 f i LIBCMTD:guard_support.obj
 0001:0003a8d0       ___castguard_slow_path_check_fastfail 1003b8d0 f i LIBCMTD:guard_support.obj
 0001:0003a910       ___castguard_slow_path_check_nop 1003b910 f i LIBCMTD:guard_support.obj
 0001:0003a920       ___castguard_slow_path_check_os_handled 1003b920 f i LIBCMTD:guard_support.obj
 0001:0003a9c0       __guard_icall_checks_enforced 1003b9c0 f i LIBCMTD:guard_support.obj
 0001:0003a9f0       ?_RTC_GetErrorFunc@@YAP6AHHPBDH00ZZPBX@Z 1003b9f0 f   LIBCMTD:userapi.obj
 0001:0003aa00       ?_RTC_GetErrorFuncW@@YAP6AHHPB_WH00ZZPBX@Z 1003ba00 f   LIBCMTD:userapi.obj
 0001:0003aa10       __RTC_GetErrDesc           1003ba10 f   LIBCMTD:userapi.obj
 0001:0003aa30       __RTC_NumErrors            1003ba30 f   LIBCMTD:userapi.obj
 0001:0003aa40       __RTC_SetErrorFunc         1003ba40 f   LIBCMTD:userapi.obj
 0001:0003aa60       __RTC_SetErrorFuncW        1003ba60 f   LIBCMTD:userapi.obj
 0001:0003aa80       __RTC_SetErrorType         1003ba80 f   LIBCMTD:userapi.obj
 0001:0003aab0       ___isa_available_init      1003bab0 f   LIBCMTD:cpu_disp.obj
 0001:0003ae60       ___security_init_cookie    1003be60 f   LIBCMTD:gs_support.obj
 0001:0003aee0       _DllMain@12                1003bee0 f   LIBCMTD:dll_dllmain_stub.obj
 0001:0003aef0       ___local_stdio_printf_options 1003bef0 f i LIBCMTD:default_local_stdio_options.obj
 0001:0003af00       ___local_stdio_scanf_options 1003bf00 f i LIBCMTD:default_local_stdio_options.obj
 0001:0003af10       ___scrt_initialize_default_local_stdio_options 1003bf10 f   LIBCMTD:default_local_stdio_options.obj
 0001:0003af50       ?configure_argv@__scrt_narrow_argv_policy@@SAHXZ 1003bf50 f i LIBCMTD:utility.obj
 0001:0003b000       ?initialize_environment@__scrt_narrow_environment_policy@@SAHXZ 1003c000 f i LIBCMTD:utility.obj
 0001:0003b080       _NtCurrentTeb              1003c080 f i LIBCMTD:utility.obj
 0001:0003b090       ___scrt_acquire_startup_lock 1003c090 f   LIBCMTD:utility.obj
 0001:0003b0e0       ___scrt_dllmain_after_initialize_c 1003c0e0 f   LIBCMTD:utility.obj
 0001:0003b110       ___scrt_dllmain_before_initialize_c 1003c110 f   LIBCMTD:utility.obj
 0001:0003b130       ___scrt_dllmain_crt_thread_attach 1003c130 f   LIBCMTD:utility.obj
 0001:0003b160       ___scrt_dllmain_crt_thread_detach 1003c160 f   LIBCMTD:utility.obj
 0001:0003b180       ___scrt_dllmain_exception_filter 1003c180 f   LIBCMTD:utility.obj
 0001:0003b1d0       ___scrt_dllmain_uninitialize_c 1003c1d0 f   LIBCMTD:utility.obj
 0001:0003b200       ___scrt_dllmain_uninitialize_critical 1003c200 f   LIBCMTD:utility.obj
 0001:0003b220       ___scrt_initialize_crt     1003c220 f   LIBCMTD:utility.obj
 0001:0003b270       ___scrt_initialize_onexit_tables 1003c270 f   LIBCMTD:utility.obj
 0001:0003b350       ___scrt_is_nonwritable_in_current_image 1003c350 f   LIBCMTD:utility.obj
 0001:0003b480       ___scrt_release_startup_lock 1003c480 f   LIBCMTD:utility.obj
 0001:0003b4b0       ___scrt_uninitialize_crt   1003c4b0 f   LIBCMTD:utility.obj
 0001:0003b4f0       __onexit                   1003c4f0 f   LIBCMTD:utility.obj
 0001:0003b560       _at_quick_exit             1003c560 f   LIBCMTD:utility.obj
 0001:0003b5a0       _atexit                    1003c5a0 f   LIBCMTD:utility.obj
 0001:0003b5d0       ___scrt_get_dyn_tls_init_callback 1003c5d0 f   LIBCMTD:dyn_tls_init.obj
 0001:0003b5e0       ___scrt_fastfail           1003c5e0 f   LIBCMTD:utility_desktop.obj
 0001:0003b720       ___scrt_get_show_window_mode 1003c720 f   LIBCMTD:utility_desktop.obj
 0001:0003b760       ___scrt_initialize_mta     1003c760 f   LIBCMTD:utility_desktop.obj
 0001:0003b770       ___scrt_initialize_winrt   1003c770 f   LIBCMTD:utility_desktop.obj
 0001:0003b780       ___scrt_is_managed_app     1003c780 f   LIBCMTD:utility_desktop.obj
 0001:0003b810       ___scrt_set_unhandled_exception_filter 1003c810 f   LIBCMTD:utility_desktop.obj
 0001:0003b820       ___scrt_stub_for_initialize_mta 1003c820 f   LIBCMTD:utility_desktop.obj
 0001:0003b820       ___scrt_exe_initialize_mta 1003c820 f   LIBCMTD:utility_desktop.obj
 0001:0003b830       ___scrt_unhandled_exception_filter@4 1003c830 f   LIBCMTD:utility_desktop.obj
 0001:0003b8b0       __crt_debugger_hook        1003c8b0 f   LIBCMTD:utility_desktop.obj
 0001:0003b8c0       __RTC_Initialize           1003c8c0 f   LIBCMTD:initsect.obj
 0001:0003b8f0       __RTC_Terminate            1003c8f0 f   LIBCMTD:initsect.obj
 0001:0003b9b0       ?_RTC_AllocaFailure@@YAXPAXPAU_RTC_ALLOCA_NODE@@H@Z 1003c9b0 f   LIBCMTD:error.obj
 0001:0003baa0       ?_RTC_Failure@@YAXPAXH@Z   1003caa0 f   LIBCMTD:error.obj
 0001:0003baf0       ?_RTC_StackFailure@@YAXPAXPBD@Z 1003caf0 f   LIBCMTD:error.obj
 0001:0003beb0       __RTC_UninitUse            1003ceb0 f   LIBCMTD:error.obj
 0001:0003bf60       __vsprintf_s_l             1003cf60 f i LIBCMTD:error.obj
 0001:0003bf90       _sprintf_s                 1003cf90 f i LIBCMTD:error.obj
 0001:0003bfb0       @__security_check_cookie@4 1003cfb0 f   LIBCMTD:secchk.obj
 0001:0003bfc0       __get_startup_argv_mode    1003cfc0 f   LIBCMTD:argv_mode.obj
 0001:0003bfd0       ___scrt_is_ucrt_dll_in_use 1003cfd0 f   LIBCMTD:ucrt_detection.obj
 0001:0003c480       ?_RTC_GetSrcLine@@YAHPAEPA_WKPAH1K@Z 1003d480 f   LIBCMTD:pdblkup.obj
 0001:0003c800       __except_handler4_noexcept 1003d800 f   LIBCMTD:chandler4_noexcept.obj
 0001:0003c860       ___raise_securityfailure   1003d860 f   LIBCMTD:gs_report.obj
 0001:0003c890       ___report_gsfailure        1003d890 f   LIBCMTD:gs_report.obj
 0001:0003c9a0       ___report_rangecheckfailure 1003d9a0 f   LIBCMTD:gs_report.obj
 0001:0003c9b0       ___report_securityfailure  1003d9b0 f   LIBCMTD:gs_report.obj
 0001:0003ca90       ___report_securityfailureEx 1003da90 f   LIBCMTD:gs_report.obj
 0001:0003cbc0       ??$__crt_interlocked_exchange_pointer@$$A6AXXZP6AXXZ@@YAP6AXXZPDS6AXXZQ6AXXZ@Z 1003dbc0 f i libvcruntimed:purevirt.obj
 0001:0003cbd0       ??$__crt_interlocked_read_pointer@$$A6AXXZ@@YAP6AXXZPDS6AXXZ@Z 1003dbd0 f i libvcruntimed:purevirt.obj
 0001:0003cbf0       ?__crt_interlocked_read_32@@YAHPDH@Z 1003dbf0 f i libvcruntimed:purevirt.obj
 0001:0003cc10       __get_purecall_handler     1003dc10 f   libvcruntimed:purevirt.obj
 0001:0003cc30       __purecall                 1003dc30 f   libvcruntimed:purevirt.obj
 0001:0003cc60       __set_purecall_handler     1003dc60 f   libvcruntimed:purevirt.obj
 0001:0003cc80       _memset                    1003dc80 f   libvcruntimed:memset.obj
 0001:0003ce00       ??$?RD@__crt_internal_free_policy@@QBEXQBD@Z 1003de00 f i libvcruntimed:std_type_info.obj
 0001:0003ce20       ??$?RX@__crt_internal_free_policy@@QBEXQBX@Z 1003de20 f i libvcruntimed:std_type_info.obj
 0001:0003ce40       ??$__crt_interlocked_compare_exchange_pointer@$$CBDPAD$$T@@YAPBDPDSBDQAD$$T@Z 1003de40 f i libvcruntimed:std_type_info.obj
 0001:0003ce60       ??$__crt_interlocked_read_pointer@$$CBD@@YAPBDPDSBD@Z 1003de60 f i libvcruntimed:std_type_info.obj
 0001:0003ce80       ??0?$__crt_unique_heap_ptr@DU__crt_internal_free_policy@@@@QAE@QAD@Z 1003de80 f i libvcruntimed:std_type_info.obj
 0001:0003cea0       ??0?$__crt_unique_heap_ptr@XU__crt_internal_free_policy@@@@QAE@QAX@Z 1003dea0 f i libvcruntimed:std_type_info.obj
 0001:0003cec0       ??1?$__crt_unique_heap_ptr@DU__crt_internal_free_policy@@@@QAE@XZ 1003dec0 f i libvcruntimed:std_type_info.obj
 0001:0003cee0       ??1?$__crt_unique_heap_ptr@XU__crt_internal_free_policy@@@@QAE@XZ 1003dee0 f i libvcruntimed:std_type_info.obj
 0001:0003cf00       ??B?$__crt_unique_heap_ptr@DU__crt_internal_free_policy@@@@QBE_NXZ 1003df00 f i libvcruntimed:std_type_info.obj
 0001:0003cf20       ??B?$__crt_unique_heap_ptr@XU__crt_internal_free_policy@@@@QBE_NXZ 1003df20 f i libvcruntimed:std_type_info.obj
 0001:0003cfb0       ?detach@?$__crt_unique_heap_ptr@XU__crt_internal_free_policy@@@@QAEPAXXZ 1003dfb0 f i libvcruntimed:std_type_info.obj
 0001:0003cfe0       ?get@?$__crt_unique_heap_ptr@DU__crt_internal_free_policy@@@@QBEPADXZ 1003dfe0 f i libvcruntimed:std_type_info.obj
 0001:0003cff0       ?get@?$__crt_unique_heap_ptr@XU__crt_internal_free_policy@@@@QBEPAXXZ 1003dff0 f i libvcruntimed:std_type_info.obj
 0001:0003d000       ?is_valid@?$__crt_unique_heap_ptr@DU__crt_internal_free_policy@@@@QBE_NXZ 1003e000 f i libvcruntimed:std_type_info.obj
 0001:0003d030       ?is_valid@?$__crt_unique_heap_ptr@XU__crt_internal_free_policy@@@@QBE_NXZ 1003e030 f i libvcruntimed:std_type_info.obj
 0001:0003d060       ?release@?$__crt_unique_heap_ptr@DU__crt_internal_free_policy@@@@QAEXXZ 1003e060 f i libvcruntimed:std_type_info.obj
 0001:0003d090       ?release@?$__crt_unique_heap_ptr@XU__crt_internal_free_policy@@@@QAEXXZ 1003e090 f i libvcruntimed:std_type_info.obj
 0001:0003d0c0       ___std_type_info_compare   1003e0c0 f   libvcruntimed:std_type_info.obj
 0001:0003d0f0       ___std_type_info_destroy_list 1003e0f0 f   libvcruntimed:std_type_info.obj
 0001:0003d130       ___std_type_info_hash      1003e130 f   libvcruntimed:std_type_info.obj
 0001:0003d190       ___std_type_info_name      1003e190 f   libvcruntimed:std_type_info.obj
 0001:0003d370       _memcpy                    1003e370 f   libvcruntimed:memcpy.obj
 0001:0003d8f0       _strstr                    1003e8f0 f   libvcruntimed:strstr.obj
 0001:0003dbc0       __except_handler4          1003ebc0 f   libvcruntimed:chandler4.obj
 0001:0003ddb0       ___vcrt_initialize         1003edb0 f   libvcruntimed:initialization.obj
 0001:0003ddf0       ___vcrt_thread_attach      1003edf0 f   libvcruntimed:initialization.obj
 0001:0003de10       ___vcrt_thread_detach      1003ee10 f   libvcruntimed:initialization.obj
 0001:0003de30       ___vcrt_uninitialize       1003ee30 f   libvcruntimed:initialization.obj
 0001:0003de50       ___vcrt_uninitialize_critical 1003ee50 f   libvcruntimed:initialization.obj
 0001:0003de70       ___DestructExceptionObject 1003ee70 f   libvcruntimed:ehhelpers.obj
 0001:0003df90       ?_CallMemberFunction0@@YGXQAX0@Z 1003ef90 f i libvcruntimed:ehhelpers.obj
 0001:0003e030       ?raw_name@type_info@@QBEPBDXZ 1003f030 f i libvcruntimed:ehhelpers.obj
 0001:0003e050       __IsExceptionObjectToBeDestroyed 1003f050 f   libvcruntimed:ehhelpers.obj
 0001:0003e090       __SetWinRTOutOfMemoryExceptionCallback 1003f090 f   libvcruntimed:ehhelpers.obj
 0001:0003e0a0       ___AdjustPointer           1003f0a0 f   libvcruntimed:ehhelpers.obj
 0001:0003e0f0       ___FrameUnwindFilter       1003f0f0 f   libvcruntimed:ehhelpers.obj
 0001:0003e180       ___GetPlatformExceptionInfo 1003f180 f   libvcruntimed:ehhelpers.obj
 0001:0003e200       ___current_exception       1003f200 f   libvcruntimed:ehhelpers.obj
 0001:0003e210       ___current_exception_context 1003f210 f   libvcruntimed:ehhelpers.obj
 0001:0003e220       ___processing_throw        1003f220 f   libvcruntimed:ehhelpers.obj
 0001:0003e230       ___std_terminate           1003f230 f   libvcruntimed:ehhelpers.obj
 0001:0003e240       __is_exception_typeof      1003f240 f   libvcruntimed:ehhelpers.obj
 0001:0003e320       ___vcrt_GetModuleFileNameW 1003f320 f   libvcruntimed:winapi_thunks.obj
 0001:0003e340       ___vcrt_GetModuleHandleW   1003f340 f   libvcruntimed:winapi_thunks.obj
 0001:0003e350       ___vcrt_LoadLibraryExW     1003f350 f   libvcruntimed:winapi_thunks.obj
 0001:0003e370       ??$?0$00@DName@@QAE@PBDU?$StringLifeSelector@$00@@@Z 1003f370 f i libvcruntimed:undname.obj
 0001:0003e3c0       ??$?0$00@pcharNode@@QAE@PBDHU?$StringLifeSelector@$00@@@Z 1003f3c0 f i libvcruntimed:undname.obj
 0001:0003e400       ??$?0$01@DName@@QAE@PBDU?$StringLifeSelector@$01@@@Z 1003f400 f i libvcruntimed:undname.obj
 0001:0003e450       ??$?0$01@pcharNode@@QAE@PBDHU?$StringLifeSelector@$01@@@Z 1003f450 f i libvcruntimed:undname.obj
 0001:0003e4d0       ??$?0$0A@@DName@@QAE@PBDU?$StringLifeSelector@$0A@@@@Z 1003f4d0 f i libvcruntimed:undname.obj
 0001:0003e520       ??$?0$0A@@pcharNode@@QAE@PBDHU?$StringLifeSelector@$0A@@@@Z 1003f520 f i libvcruntimed:undname.obj
 0001:0003e5a0       ??$?0_K$0A@@?$optional@_K@std@@QAE@$$QA_K@Z 1003f5a0 f i libvcruntimed:undname.obj
 0001:0003e5e0       ??$?0_K@?$_Optional_construct_base@_K@std@@QAE@Uin_place_t@1@$$QA_K@Z 1003f5e0 f i libvcruntimed:undname.obj
 0001:0003e610       ??$?0_K@?$_Optional_destruct_base@_K$00@std@@QAE@Uin_place_t@1@$$QA_K@Z 1003f610 f i libvcruntimed:undname.obj
 0001:0003e640       ??$append@VDNameNode@@@DName@@AAEXPBVDNameNode@@@Z 1003f640 f i libvcruntimed:undname.obj
 0001:0003e6d0       ??$append@VDNameStatusNode@@@DName@@AAEXPBVDNameStatusNode@@@Z 1003f6d0 f i libvcruntimed:undname.obj
 0001:0003e760       ??$append@VcharNode@@@DName@@AAEXPBVcharNode@@@Z 1003f760 f i libvcruntimed:undname.obj
 0001:0003e7f0       ??$append@VpDNameNode@@@DName@@AAEXPBVpDNameNode@@@Z 1003f7f0 f i libvcruntimed:undname.obj
 0001:0003e880       ??$append@VpcharNode@@@DName@@AAEXPBVpcharNode@@@Z 1003f880 f i libvcruntimed:undname.obj
 0001:0003e910       ??$doPchar@$00@DName@@AAEXPBDH@Z 1003f910 f i libvcruntimed:undname.obj
 0001:0003ea20       ??$doPchar@$01@DName@@AAEXPBDH@Z 1003fa20 f i libvcruntimed:undname.obj
 0001:0003eb30       ??$doPchar@$0A@@DName@@AAEXPBDH@Z 1003fb30 f i libvcruntimed:undname.obj
 0001:0003ec40       ??$forward@_K@std@@YA$$QA_KAA_K@Z 1003fc40 f i libvcruntimed:undname.obj
 0001:0003ec50       ??$size@D$04@std@@YAIAAY04$$CBD@Z 1003fc50 f i libvcruntimed:undname.obj
 0001:0003ec60       ??$size@D$0EB@@std@@YAIAAY0EB@$$CBD@Z 1003fc60 f i libvcruntimed:undname.obj
 0001:0003ec70       ??0?$_Optional_construct_base@_K@std@@QAE@XZ 1003fc70 f i libvcruntimed:undname.obj
 0001:0003ec90       ??0?$_Optional_destruct_base@_K$00@std@@QAE@XZ 1003fc90 f i libvcruntimed:undname.obj
 0001:0003ecb0       ??0?$optional@_K@std@@QAE@XZ 1003fcb0 f i libvcruntimed:undname.obj
 0001:0003ecd0       ??0Block@_HeapManager@@QAE@XZ 1003fcd0 f i libvcruntimed:undname.obj
 0001:0003ecf0       ??0DName@@QAE@AAPBDD@Z     1003fcf0 f   libvcruntimed:undname.obj
 0001:0003ee60       ??0DName@@QAE@ABUStringLiteral@@@Z 1003fe60 f   libvcruntimed:undname.obj
 0001:0003eeb0       ??0DName@@QAE@ABV0@@Z      1003feb0 f i libvcruntimed:undname.obj
 0001:0003eee0       ??0DName@@QAE@D@Z          1003fee0 f   libvcruntimed:undname.obj
 0001:0003ef10       ??0DName@@QAE@PAV0@@Z      1003ff10 f   libvcruntimed:undname.obj
 0001:0003efc0       ??0DName@@QAE@W4DNameStatus@@@Z 1003ffc0 f   libvcruntimed:undname.obj
 0001:0003f060       ??0DName@@QAE@XZ           10040060 f i libvcruntimed:undname.obj
 0001:0003f090       ??0DName@@QAE@_J@Z         10040090 f   libvcruntimed:undname.obj
 0001:0003f180       ??0DName@@QAE@_K@Z         10040180 f   libvcruntimed:undname.obj
 0001:0003f230       ??0DNameNode@@IAE@XZ       10040230 f i libvcruntimed:undname.obj
 0001:0003f250       ??0Replicator@@QAE@XZ      10040250 f i libvcruntimed:undname.obj
 0001:0003f290       ??0UnDecorator@@QAE@PBDP6APADJ@ZK@Z 10040290 f i libvcruntimed:undname.obj
 0001:0003f310       ??0_Nontrivial_dummy_type@std@@QAE@XZ 10040310 f i libvcruntimed:undname.obj
 0001:0003f320       ??0charNode@@QAE@D@Z       10040320 f i libvcruntimed:undname.obj
 0001:0003f350       ??0pDNameNode@@QAE@PAVDName@@@Z 10040350 f   libvcruntimed:undname.obj
 0001:0003f3b0       ??0pairNode@@QAE@PBVDNameNode@@0@Z 100403b0 f i libvcruntimed:undname.obj
 0001:0003f410       ??2@YAPAXIAAV_HeapManager@@H@Z 10040410 f   libvcruntimed:undname.obj
 0001:0003f450       ??4DName@@QAEAAV0@ABUStringLiteral@@@Z 10040450 f   libvcruntimed:undname.obj
 0001:0003f490       ??4DName@@QAEAAV0@ABV0@@Z  10040490 f   libvcruntimed:undname.obj
 0001:0003f4c0       ??4DName@@QAEAAV0@D@Z      100404c0 f i libvcruntimed:undname.obj
 0001:0003f4f0       ??4DName@@QAEAAV0@PAV0@@Z  100404f0 f   libvcruntimed:undname.obj
 0001:0003f590       ??4DName@@QAEAAV0@W4DNameStatus@@@Z 10040590 f   libvcruntimed:undname.obj
 0001:0003f610       ??AReplicator@@QBE?AVDName@@H@Z 10040610 f   libvcruntimed:undname.obj
 0001:0003f680       ??B?$optional@_K@std@@QBE_NXZ 10040680 f i libvcruntimed:undname.obj
 0001:0003f6a0       ??D?$optional@_K@std@@QGAEAA_KXZ 100406a0 f i libvcruntimed:undname.obj
 0001:0003f710       ??H@YA?AVDName@@ABUStringLiteral@@ABV0@@Z 10040710 f i libvcruntimed:undname.obj
 0001:0003f740       ??H@YA?AVDName@@DABV0@@Z   10040740 f i libvcruntimed:undname.obj
 0001:0003f770       ??H@YA?AVDName@@W4DNameStatus@@ABV0@@Z 10040770 f i libvcruntimed:undname.obj
 0001:0003f7a0       ??HDName@@QBE?AV0@ABUStringLiteral@@@Z 100407a0 f   libvcruntimed:undname.obj
 0001:0003f7e0       ??HDName@@QBE?AV0@ABV0@@Z  100407e0 f   libvcruntimed:undname.obj
 0001:0003f820       ??HDName@@QBE?AV0@D@Z      10040820 f   libvcruntimed:undname.obj
 0001:0003f860       ??HDName@@QBE?AV0@PAV0@@Z  10040860 f   libvcruntimed:undname.obj
 0001:0003f8a0       ??HDName@@QBE?AV0@W4DNameStatus@@@Z 100408a0 f   libvcruntimed:undname.obj
 0001:0003f8e0       ??HStringLiteral@@QBE?AU0@H@Z 100408e0 f i libvcruntimed:undname.obj
 0001:0003f910       ??YDName@@QAEAAV0@ABUStringLiteral@@@Z 10040910 f   libvcruntimed:undname.obj
 0001:0003f9b0       ??YDName@@QAEAAV0@ABV0@@Z  100409b0 f   libvcruntimed:undname.obj
 0001:0003fa50       ??YDName@@QAEAAV0@D@Z      10040a50 f   libvcruntimed:undname.obj
 0001:0003fad0       ??YDName@@QAEAAV0@PAV0@@Z  10040ad0 f   libvcruntimed:undname.obj
 0001:0003fb80       ??YDName@@QAEAAV0@W4DNameStatus@@@Z 10040b80 f   libvcruntimed:undname.obj
 0001:0003fbe0       ??YReplicator@@QAEAAV0@ABVDName@@@Z 10040be0 f   libvcruntimed:undname.obj
 0001:0003fc70       ??_5DName@@QAEAAV0@ABV0@@Z 10040c70 f   libvcruntimed:undname.obj
 0001:0003fcd0       ??__K_l@@YA?AUStringLiteral@@PBDI@Z 10040cd0 f i libvcruntimed:undname.obj
 0001:0003fcf0       ?Constructor@_HeapManager@@QAEXP6APAXI@ZP6AXPAX@Z@Z 10040cf0 f i libvcruntimed:undname.obj
 0001:0003fd30       ?Destructor@_HeapManager@@QAEXXZ 10040d30 f i libvcruntimed:undname.obj
 0001:0003fda0       ?UScore@UnDecorator@@SA?AUStringLiteral@@W4Tokens@@@Z 10040da0 f   libvcruntimed:undname.obj
 0001:0003fdf0       ?composeDeclaration@UnDecorator@@CA?AVDName@@ABV2@@Z 10040df0 f i libvcruntimed:undname.obj
 0001:00041d60       ?dbGetString@DName@@QBEPADXZ 10042d60 f   libvcruntimed:undname.obj
 0001:00041d80       ?doAccessSpecifiers@UnDecorator@@SAHXZ 10042d80 f i libvcruntimed:undname.obj
 0001:00041db0       ?doAllocationLanguage@UnDecorator@@SAHXZ 10042db0 f i libvcruntimed:undname.obj
 0001:00041de0       ?doAllocationModel@UnDecorator@@SAHXZ 10042de0 f i libvcruntimed:undname.obj
 0001:00041e10       ?doEcsu@UnDecorator@@SAHXZ 10042e10 f i libvcruntimed:undname.obj
 0001:00041e40       ?doEllipsis@UnDecorator@@SAHXZ 10042e40 f i libvcruntimed:undname.obj
 0001:00041e70       ?doFunctionReturns@UnDecorator@@SAHXZ 10042e70 f i libvcruntimed:undname.obj
 0001:00041ea0       ?doMSKeywords@UnDecorator@@SAHXZ 10042ea0 f i libvcruntimed:undname.obj
 0001:00041ed0       ?doMemberTypes@UnDecorator@@SAHXZ 10042ed0 f i libvcruntimed:undname.obj
 0001:00041f00       ?doNameOnly@UnDecorator@@SAHXZ 10042f00 f i libvcruntimed:undname.obj
 0001:00041f10       ?doNoIdentCharCheck@UnDecorator@@SAHXZ 10042f10 f i libvcruntimed:undname.obj
 0001:00041f20       ?doPchar@DName@@AAEXD@Z    10042f20 f   libvcruntimed:undname.obj
 0001:00041f90       ?doPtr64@UnDecorator@@SAHXZ 10042f90 f i libvcruntimed:undname.obj
 0001:00041fc0       ?doRestrictionSpec@UnDecorator@@SAHXZ 10042fc0 f i libvcruntimed:undname.obj
 0001:00041ff0       ?doThisTypes@UnDecorator@@SAHXZ 10042ff0 f i libvcruntimed:undname.obj
 0001:00042020       ?doThrowTypes@UnDecorator@@SAHXZ 10043020 f i libvcruntimed:undname.obj
 0001:00042050       ?doTypeOnly@UnDecorator@@SAHXZ 10043050 f i libvcruntimed:undname.obj
 0001:00042060       ?doUnderScore@UnDecorator@@SAHXZ 10043060 f i libvcruntimed:undname.obj
 0001:00042090       ?getAddressOf@UnDecorator@@CA?AVDName@@XZ 10043090 f   libvcruntimed:undname.obj
 0001:00042110       ?getArgumentList@UnDecorator@@CA?AVDName@@XZ 10043110 f   libvcruntimed:undname.obj
 0001:00042260       ?getArgumentTypes@UnDecorator@@CA?AVDName@@XZ 10043260 f   libvcruntimed:undname.obj
 0001:00042470       ?getArrayAccess@UnDecorator@@CA?AVDName@@XZ 10043470 f   libvcruntimed:undname.obj
 0001:00042510       ?getArrayObject@UnDecorator@@CA?AVDName@@XZ 10043510 f   libvcruntimed:undname.obj
 0001:000425f0       ?getArrayType@UnDecorator@@CA?AVDName@@ABV2@@Z 100435f0 f i libvcruntimed:undname.obj
 0001:00042890       ?getBasedType@UnDecorator@@CA?AVDName@@XZ 10043890 f   libvcruntimed:undname.obj
 0001:00042980       ?getBasicDataType@UnDecorator@@CA?AVDName@@ABV2@@Z 10043980 f   libvcruntimed:undname.obj
 0001:000432f0       ?getCHPEName@UnDecorator@@QAEPADPADH@Z 100442f0 f i libvcruntimed:undname.obj
 0001:00043450       ?getCallIndex@UnDecorator@@CA?AVDName@@XZ 10044450 f i libvcruntimed:undname.obj
 0001:00043470       ?getCallingConvention@UnDecorator@@CA?AVDName@@XZ 10044470 f   libvcruntimed:undname.obj
 0001:000436b0       ?getDataIndirectType@UnDecorator@@CA?AVDName@@ABV2@W4IndirectionKind@@0H@Z 100446b0 f   libvcruntimed:undname.obj
 0001:00043fd0       ?getDataIndirectType@UnDecorator@@CA?AVDName@@XZ 10044fd0 f i libvcruntimed:undname.obj
 0001:00044010       ?getDataType@UnDecorator@@CA?AVDName@@PAV2@@Z 10045010 f   libvcruntimed:undname.obj
 0001:00044150       ?getDecoratedName@UnDecorator@@CA?AVDName@@XZ 10045150 f   libvcruntimed:undname.obj
 0001:00044590       ?getDimension@UnDecorator@@CA?AVDName@@_N@Z 10045590 f   libvcruntimed:undname.obj
 0001:000447f0       ?getDispatchTarget@UnDecorator@@CA?AVDName@@XZ 100457f0 f   libvcruntimed:undname.obj
 0001:00044890       ?getDisplacement@UnDecorator@@CA?AVDName@@XZ 10045890 f i libvcruntimed:undname.obj
 0001:000448b0       ?getECSUDataType@UnDecorator@@CA?AVDName@@XZ 100458b0 f   libvcruntimed:undname.obj
 0001:00044b10       ?getECSUName@UnDecorator@@CA?AVDName@@XZ 10045b10 f i libvcruntimed:undname.obj
 0001:00044b30       ?getEnumType@UnDecorator@@CA?AVDName@@XZ 10045b30 f i libvcruntimed:undname.obj
 0001:00044cf0       ?getExtendedDataIndirectType@UnDecorator@@CA?AVDName@@AAW4IndirectionKind@@AA_NH@Z 10045cf0 f   libvcruntimed:undname.obj
 0001:00044f40       ?getExternalDataType@UnDecorator@@CA?AVDName@@ABV2@@Z 10045f40 f i libvcruntimed:undname.obj
 0001:00044fe0       ?getFloatingPoint@UnDecorator@@CA?AVDName@@H@Z 10045fe0 f   libvcruntimed:undname.obj
 0001:000451a0       ?getFunctionIndirectType@UnDecorator@@CA?AVDName@@ABV2@@Z 100461a0 f   libvcruntimed:undname.obj
 0001:00045680       ?getGuardNumber@UnDecorator@@CA?AVDName@@XZ 10046680 f i libvcruntimed:undname.obj
 0001:000456a0       ?getLastChar@DName@@QBEDXZ 100466a0 f i libvcruntimed:undname.obj
 0001:000456e0       ?getLastChar@DNameStatusNode@@UBEDXZ 100466e0 f i libvcruntimed:undname.obj
 0001:00045710       ?getLastChar@charNode@@UBEDXZ 10046710 f i libvcruntimed:undname.obj
 0001:00045730       ?getLastChar@pDNameNode@@UBEDXZ 10046730 f i libvcruntimed:undname.obj
 0001:00045760       ?getLastChar@pairNode@@UBEDXZ 10046760 f i libvcruntimed:undname.obj
 0001:000457d0       ?getLastChar@pcharNode@@UBEDXZ 100467d0 f i libvcruntimed:undname.obj
 0001:00045810       ?getLexicalFrame@UnDecorator@@CA?AVDName@@XZ 10046810 f i libvcruntimed:undname.obj
 0001:00045850       ?getMemberAccess@UnDecorator@@CA?AVDName@@XZ 10046850 f   libvcruntimed:undname.obj
 0001:000458e0       ?getMemoryWithBuffer@_HeapManager@@QAEPAXI@Z 100468e0 f   libvcruntimed:undname.obj
 0001:000459d0       ?getMemoryWithoutBuffer@_HeapManager@@QAEPAXI@Z 100469d0 f   libvcruntimed:undname.obj
 0001:00045a10       ?getNoexcept@UnDecorator@@CA?AVDName@@XZ 10046a10 f   libvcruntimed:undname.obj
 0001:00045a90       ?getNumberOfDimensions@UnDecorator@@CAHXZ 10046a90 f   libvcruntimed:undname.obj
 0001:00045b90       ?getOperatorName@UnDecorator@@CA?AVDName@@_NPA_N@Z 10046b90 f i libvcruntimed:undname.obj
 0001:00046690       ?getPointerToMember@UnDecorator@@CA?AVDName@@XZ 10047690 f   libvcruntimed:undname.obj
 0001:00046780       ?getPointerType@UnDecorator@@CA?AVDName@@ABV2@0@Z 10047780 f i libvcruntimed:undname.obj
 0001:000467a0       ?getPointerTypeArray@UnDecorator@@CA?AVDName@@ABV2@0@Z 100477a0 f i libvcruntimed:undname.obj
 0001:000467c0       ?getPrimaryDataType@UnDecorator@@CA?AVDName@@ABV2@@Z 100477c0 f   libvcruntimed:undname.obj
 0001:00046c50       ?getPtrRefDataType@UnDecorator@@CA?AVDName@@ABV2@H@Z 10047c50 f   libvcruntimed:undname.obj
 0001:00046f00       ?getPtrRefType@UnDecorator@@CA?AVDName@@ABV2@0W4IndirectionKind@@@Z 10047f00 f   libvcruntimed:undname.obj
 0001:00047080       ?getReferenceType@UnDecorator@@CA?AVDName@@ABV2@0W4IndirectionKind@@@Z 10048080 f i libvcruntimed:undname.obj
 0001:000470a0       ?getRestrictionSpec@UnDecorator@@CA?AVDName@@XZ 100480a0 f   libvcruntimed:undname.obj
 0001:00047260       ?getReturnType@UnDecorator@@CA?AVDName@@PAV2@@Z 10048260 f   libvcruntimed:undname.obj
 0001:000472b0       ?getScope@UnDecorator@@CA?AVDName@@XZ 100482b0 f   libvcruntimed:undname.obj
 0001:00047840       ?getScopedName@UnDecorator@@CA?AVDName@@XZ 10048840 f   libvcruntimed:undname.obj
 0001:00047990       ?getSignedDimension@UnDecorator@@CA?AVDName@@XZ 10048990 f   libvcruntimed:undname.obj
 0001:00047a10       ?getStorageConvention@UnDecorator@@CA?AVDName@@XZ 10048a10 f i libvcruntimed:undname.obj
 0001:00047a30       ?getString@DName@@QBEPADPAD0@Z 10048a30 f i libvcruntimed:undname.obj
 0001:00047a90       ?getString@DName@@QBEPADPADH@Z 10048a90 f i libvcruntimed:undname.obj
 0001:00047b20       ?getString@DNameStatusNode@@UBEPADPAD0@Z 10048b20 f i libvcruntimed:undname.obj
 0001:00047b60       ?getString@charNode@@UBEPADPAD0@Z 10048b60 f i libvcruntimed:undname.obj
 0001:00047b90       ?getString@pDNameNode@@UBEPADPAD0@Z 10048b90 f i libvcruntimed:undname.obj
 0001:00047bd0       ?getString@pairNode@@UBEPADPAD0@Z 10048bd0 f i libvcruntimed:undname.obj
 0001:00047c60       ?getString@pcharNode@@UBEPADPAD0@Z 10048c60 f i libvcruntimed:undname.obj
 0001:00047c90       ?getStringEncoding@UnDecorator@@CA?AVDName@@W4PrefixKind@@H@Z 10048c90 f   libvcruntimed:undname.obj
 0001:00047da0       ?getStringHelper@@YAPADPADPBD1H@Z 10048da0 f i libvcruntimed:undname.obj
 0001:00047de0       ?getStringObject@UnDecorator@@CA?AVDName@@XZ 10048de0 f   libvcruntimed:undname.obj
 0001:00047e90       ?getSymbolName@UnDecorator@@CA?AVDName@@XZ 10048e90 f i libvcruntimed:undname.obj
 0001:00047f20       ?getTemplateArgumentList@UnDecorator@@CA?AVDName@@XZ 10048f20 f   libvcruntimed:undname.obj
 0001:00048210       ?getTemplateName@UnDecorator@@CA?AVDName@@_N@Z 10049210 f   libvcruntimed:undname.obj
 0001:000483d0       ?getTemplateNonTypeArgument@UnDecorator@@CA?AVDName@@XZ 100493d0 f   libvcruntimed:undname.obj
 0001:000489d0       ?getTemplateTypeArgument@UnDecorator@@CA?AVDName@@XZ 100499d0 f   libvcruntimed:undname.obj
 0001:00048b70       ?getThisType@UnDecorator@@CA?AVDName@@XZ 10049b70 f i libvcruntimed:undname.obj
 0001:00048bb0       ?getThrowTypes@UnDecorator@@CA?AVDName@@XZ 10049bb0 f   libvcruntimed:undname.obj
 0001:00048bf0       ?getTypeEncoding@UnDecorator@@CAHXZ 10049bf0 f i libvcruntimed:undname.obj
 0001:000496b0       ?getUndecoratedName@UnDecorator@@QAEPADPADH@Z 1004a6b0 f i libvcruntimed:undname.obj
 0001:00049810       ?getUnionObject@UnDecorator@@CA?AVDName@@XZ 1004a810 f   libvcruntimed:undname.obj
 0001:000498e0       ?getVCallThunkType@UnDecorator@@CA?AVDName@@XZ 1004a8e0 f i libvcruntimed:undname.obj
 0001:00049960       ?getValue@UnDecorator@@CA?AV?$optional@_K@std@@XZ 1004a960 f   libvcruntimed:undname.obj
 0001:00049a20       ?getValueObject@UnDecorator@@CA?AVDName@@XZ 1004aa20 f   libvcruntimed:undname.obj
 0001:00049c00       ?getVbTableType@UnDecorator@@CA?AVDName@@ABV2@@Z 1004ac00 f i libvcruntimed:undname.obj
 0001:00049c20       ?getVdispMapType@UnDecorator@@CA?AVDName@@ABV2@@Z 1004ac20 f i libvcruntimed:undname.obj
 0001:00049cb0       ?getVfTableType@UnDecorator@@CA?AVDName@@ABV2@@Z 1004acb0 f i libvcruntimed:undname.obj
 0001:00049eb0       ?getZName@UnDecorator@@CA?AVDName@@_N0@Z 1004aeb0 f   libvcruntimed:undname.obj
 0001:0004a1f0       ?haveTemplateParameters@UnDecorator@@SAHXZ 1004b1f0 f i libvcruntimed:undname.obj
 0001:0004a200       ?isArray@DName@@QBEHXZ     1004b200 f i libvcruntimed:undname.obj
 0001:0004a220       ?isComArray@DName@@QBEHXZ  1004b220 f i libvcruntimed:undname.obj
 0001:0004a240       ?isEmpty@DName@@QBEHXZ     1004b240 f i libvcruntimed:undname.obj
 0001:0004a270       ?isFull@Replicator@@QBEHXZ 1004b270 f i libvcruntimed:undname.obj
 0001:0004a2a0       ?isNoTE@DName@@QBEHXZ      1004b2a0 f i libvcruntimed:undname.obj
 0001:0004a2c0       ?isPinPtr@DName@@QBEHXZ    1004b2c0 f i libvcruntimed:undname.obj
 0001:0004a2e0       ?isPtrRef@DName@@QBEHXZ    1004b2e0 f i libvcruntimed:undname.obj
 0001:0004a300       ?isUDC@DName@@QBEHXZ       1004b300 f i libvcruntimed:undname.obj
 0001:0004a340       ?isUDTThunk@DName@@QBEHXZ  1004b340 f i libvcruntimed:undname.obj
 0001:0004a380       ?isVCallThunk@DName@@QBEHXZ 1004b380 f i libvcruntimed:undname.obj
 0001:0004a3a0       ?isValid@DName@@QBEHXZ     1004b3a0 f i libvcruntimed:undname.obj
 0001:0004a3e0       ?length@DName@@QBEHXZ      1004b3e0 f i libvcruntimed:undname.obj
 0001:0004a420       ?length@DNameStatusNode@@UBEHXZ 1004b420 f i libvcruntimed:undname.obj
 0001:0004a440       ?length@charNode@@UBEHXZ   1004b440 f i libvcruntimed:undname.obj
 0001:0004a450       ?length@pDNameNode@@UBEHXZ 1004b450 f i libvcruntimed:undname.obj
 0001:0004a480       ?length@pairNode@@UBEHXZ   1004b480 f i libvcruntimed:undname.obj
 0001:0004a4f0       ?length@pcharNode@@UBEHXZ  1004b4f0 f i libvcruntimed:undname.obj
 0001:0004a510       ?make@DNameStatusNode@@SAPBV1@W4DNameStatus@@@Z 1004b510 f i libvcruntimed:undname.obj
 0001:0004a540       ?parseDecoratedName@UnDecorator@@CA?AVDName@@XZ 1004b540 f   libvcruntimed:undname.obj
 0001:0004a6d0       ?raw_length@DNameStatusNode@@UBEHXZ 1004b6d0 f i libvcruntimed:undname.obj
 0001:0004a6f0       ?raw_length@charNode@@UBEHXZ 1004b6f0 f i libvcruntimed:undname.obj
 0001:0004a710       ?raw_length@pDNameNode@@UBEHXZ 1004b710 f i libvcruntimed:undname.obj
 0001:0004a720       ?raw_length@pairNode@@UBEHXZ 1004b720 f i libvcruntimed:undname.obj
 0001:0004a740       ?raw_length@pcharNode@@UBEHXZ 1004b740 f i libvcruntimed:undname.obj
 0001:0004a760       ?setIsArray@DName@@QAEXXZ  1004b760 f i libvcruntimed:undname.obj
 0001:0004a780       ?setIsComArray@DName@@QAEXXZ 1004b780 f i libvcruntimed:undname.obj
 0001:0004a7a0       ?setIsNoTE@DName@@QAEXXZ   1004b7a0 f i libvcruntimed:undname.obj
 0001:0004a7c0       ?setIsPinPtr@DName@@QAEXXZ 1004b7c0 f i libvcruntimed:undname.obj
 0001:0004a7e0       ?setIsUDC@DName@@QAEXXZ    1004b7e0 f i libvcruntimed:undname.obj
 0001:0004a810       ?setIsVCallThunk@DName@@QAEXXZ 1004b810 f i libvcruntimed:undname.obj
 0001:0004a830       ?setPtrRef@DName@@QAEAAV1@XZ 1004b830 f i libvcruntimed:undname.obj
 0001:0004a850       ?status@DName@@QBE?AW4DNameStatus@@XZ 1004b850 f i libvcruntimed:undname.obj
 0001:0004a950       ___unDName                 1004b950 f   libvcruntimed:undname.obj
 0001:0004a980       ___unDNameEx               1004b980 f   libvcruntimed:undname.obj
 0001:0004aa50       _unDNameGenerateCHPE       1004ba50 f   libvcruntimed:undname.obj
 0001:0004aab0       _strchr                    1004bab0 f   libvcruntimed:strchr.obj
 0001:0004ab1e       ___from_strstr_to_strchr   1004bb1e     libvcruntimed:strchr.obj
 0001:0004abe0       __local_unwind4            1004bbe0 f   libvcruntimed:exsup4.obj
 0001:0004acd0       __seh_longjmp_unwind4@4    1004bcd0 f   libvcruntimed:exsup4.obj
 0001:0004ad00       @_EH4_CallFilterFunc@8     1004bd00 f   libvcruntimed:exsup4.obj
 0001:0004ad20       @_EH4_TransferToHandler@8  1004bd20 f   libvcruntimed:exsup4.obj
 0001:0004ad40       @_EH4_GlobalUnwind2@8      1004bd40 f   libvcruntimed:exsup4.obj
 0001:0004ad60       @_EH4_LocalUnwind@16       1004bd60 f   libvcruntimed:exsup4.obj
 0001:0004ad90       ___except_validate_context_record 1004bd90 f   libvcruntimed:jbcxrval.obj
 0001:0004ade0       ___except_validate_jump_buffer 1004bde0 f   libvcruntimed:jbcxrval.obj
 0001:0004ae00       ___except_validate_jump_buffer_common 1004be00 f i libvcruntimed:jbcxrval.obj
 0001:0004ae60       ??$?RU__vcrt_ptd@@@__crt_internal_free_policy@@QBEXQBU__vcrt_ptd@@@Z 1004be60 f i libvcruntimed:per_thread_data.obj
 0001:0004ae80       ??0?$__crt_unique_heap_ptr@U__vcrt_ptd@@U__crt_internal_free_policy@@@@QAE@QAU__vcrt_ptd@@@Z 1004be80 f i libvcruntimed:per_thread_data.obj
 0001:0004aec0       ??1?$__crt_unique_heap_ptr@U__vcrt_ptd@@U__crt_internal_free_policy@@@@QAE@XZ 1004bec0 f i libvcruntimed:per_thread_data.obj
 0001:0004af00       ??B?$__crt_unique_heap_ptr@U__vcrt_ptd@@U__crt_internal_free_policy@@@@QBE_NXZ 1004bf00 f i libvcruntimed:per_thread_data.obj
 0001:0004af20       ?detach@?$__crt_unique_heap_ptr@U__vcrt_ptd@@U__crt_internal_free_policy@@@@QAEPAU__vcrt_ptd@@XZ 1004bf20 f i libvcruntimed:per_thread_data.obj
 0001:0004af50       ?get@?$__crt_unique_heap_ptr@U__vcrt_ptd@@U__crt_internal_free_policy@@@@QBEPAU__vcrt_ptd@@XZ 1004bf50 f i libvcruntimed:per_thread_data.obj
 0001:0004af60       ?is_valid@?$__crt_unique_heap_ptr@U__vcrt_ptd@@U__crt_internal_free_policy@@@@QBE_NXZ 1004bf60 f i libvcruntimed:per_thread_data.obj
 0001:0004af90       ?release@?$__crt_unique_heap_ptr@U__vcrt_ptd@@U__crt_internal_free_policy@@@@QAEXXZ 1004bf90 f i libvcruntimed:per_thread_data.obj
 0001:0004aff0       ___vcrt_freefls@4          1004bff0 f   libvcruntimed:per_thread_data.obj
 0001:0004b020       ___vcrt_freeptd            1004c020 f   libvcruntimed:per_thread_data.obj
 0001:0004b080       ___vcrt_getptd             1004c080 f   libvcruntimed:per_thread_data.obj
 0001:0004b0a0       ___vcrt_getptd_noexit      1004c0a0 f   libvcruntimed:per_thread_data.obj
 0001:0004b200       ___vcrt_getptd_noinit      1004c200 f   libvcruntimed:per_thread_data.obj
 0001:0004b260       ___vcrt_initialize_ptd     1004c260 f   libvcruntimed:per_thread_data.obj
 0001:0004b2b0       ___vcrt_uninitialize_ptd   1004c2b0 f   libvcruntimed:per_thread_data.obj
 0001:0004b2e0       ___vcrt_initialize_locks   1004c2e0 f   libvcruntimed:locks.obj
 0001:0004b340       ___vcrt_lock               1004c340 f   libvcruntimed:locks.obj
 0001:0004b360       ___vcrt_uninitialize_locks 1004c360 f   libvcruntimed:locks.obj
 0001:0004b3b0       ___vcrt_unlock             1004c3b0 f   libvcruntimed:locks.obj
 0001:0004b3d0       ??$?0AAViterator@TryBlockMap@__FrameHandler3@@AAV012@$0A@@?$pair@Viterator@TryBlockMap@__FrameHandler3@@V123@@std@@QAE@AAViterator@TryBlockMap@__FrameHandler3@@0@Z 1004c3d0 f i libvcruntimed:trnsctrl.obj
 0001:0004b420       ??$forward@AAViterator@TryBlockMap@__FrameHandler3@@@std@@YAAAViterator@TryBlockMap@__FrameHandler3@@AAV123@@Z 1004c420 f i libvcruntimed:trnsctrl.obj
 0001:0004b430       ??0iterator@TryBlockMap@__FrameHandler3@@QAE@AAV12@I@Z 1004c430 f i libvcruntimed:trnsctrl.obj
 0001:0004b460       ?GetRangeOfTrysToCheck@__FrameHandler3@@SA?AU?$pair@Viterator@TryBlockMap@__FrameHandler3@@V123@@std@@AAVTryBlockMap@1@HPAXPBU_s_FuncInfo@@H@Z 1004c460 f   libvcruntimed:trnsctrl.obj
 0001:0004b540       ?_CallCatchBlock2@@YAPAXPAUEHRegistrationNode@@PBU_s_FuncInfo@@PAXHK@Z 1004c540 f   libvcruntimed:trnsctrl.obj
 0001:0004b5b0       ?_CallSETranslator@@YAHPAUEHExceptionRecord@@PAUEHRegistrationNode@@PAX2PBU_s_FuncInfo@@H1@Z 1004c5b0 f   libvcruntimed:trnsctrl.obj
 0001:0004b6c0       ?_JumpToContinuation@@YGXPAXPAUEHRegistrationNode@@@Z 1004c6c0 f   libvcruntimed:trnsctrl.obj
 0001:0004b700       ?_UnwindNestedFrames@@YGXPAUEHRegistrationNode@@PAUEHExceptionRecord@@@Z 1004c700 f   libvcruntimed:trnsctrl.obj
 0001:0004b760       __CatchGuardHandler        1004c760 f   libvcruntimed:trnsctrl.obj
 0001:0004b7b0       __CreateFrameInfo          1004c7b0 f   libvcruntimed:trnsctrl.obj
 0001:0004b7e0       __FindAndUnlinkFrame       1004c7e0 f   libvcruntimed:trnsctrl.obj
 0001:0004b850       __TranslatorGuardHandler   1004c850 f   libvcruntimed:trnsctrl.obj
 0001:0004b900       ___CxxFrameHandler         1004c900 f   libvcruntimed:trnsctrl.obj
 0001:0004b940       ___CxxFrameHandler2        1004c940 f   libvcruntimed:trnsctrl.obj
 0001:0004b980       ___CxxFrameHandler3        1004c980 f   libvcruntimed:trnsctrl.obj
 0001:0004b9c0       ___CxxLongjmpUnwind@4      1004c9c0 f   libvcruntimed:trnsctrl.obj
 0001:0004ba00       __global_unwind2           1004ca00 f   libvcruntimed:exsup.obj
 0001:0004ba80       __local_unwind2            1004ca80 f   libvcruntimed:exsup.obj
 0001:0004bb20       __abnormal_termination     1004cb20 f   libvcruntimed:exsup.obj
 0001:0004bb50       __NLG_Notify1              1004cb50 f   libvcruntimed:exsup.obj
 0001:0004bb60       __NLG_Notify               1004cb60 f   libvcruntimed:exsup.obj
 0001:0004bb77       __NLG_Dispatch2            1004cb77     libvcruntimed:exsup.obj
 0001:0004bb77       __NLG_Dispatch             1004cb77     libvcruntimed:exsup.obj
 0001:0004bb80       __NLG_Call                 1004cb80 f   libvcruntimed:exsup.obj
 0001:0004bb82       __NLG_Return2              1004cb82     libvcruntimed:exsup.obj
 0001:0004bb90       ??$__crt_interlocked_exchange_pointer@UHINSTANCE__@@PAU1@@@YAPAUHINSTANCE__@@PDSAU0@QAU0@@Z 1004cb90 f i libvcruntimed:winapi_downlevel.obj
 0001:0004bba0       ??$__crt_interlocked_exchange_pointer@UHINSTANCE__@@PAX@@YAPAUHINSTANCE__@@PDSAU0@QAX@Z 1004cba0 f i libvcruntimed:winapi_downlevel.obj
 0001:0004bbb0       ??$__crt_interlocked_exchange_pointer@XPAX@@YAPAXPDSAXQAX@Z 1004cbb0 f i libvcruntimed:winapi_downlevel.obj
 0001:0004bbc0       ??$__crt_interlocked_read_pointer@UHINSTANCE__@@@@YAPAUHINSTANCE__@@PDSAU0@@Z 1004cbc0 f i libvcruntimed:winapi_downlevel.obj
 0001:0004bbe0       ??$__crt_interlocked_read_pointer@X@@YAPAXPDSAX@Z 1004cbe0 f i libvcruntimed:winapi_downlevel.obj
 0001:0004bfb0       ___vcrt_FlsAlloc           1004cfb0 f   libvcruntimed:winapi_downlevel.obj
 0001:0004bff0       ___vcrt_FlsFree            1004cff0 f   libvcruntimed:winapi_downlevel.obj
 0001:0004c030       ___vcrt_FlsGetValue        1004d030 f   libvcruntimed:winapi_downlevel.obj
 0001:0004c070       ___vcrt_FlsSetValue        1004d070 f   libvcruntimed:winapi_downlevel.obj
 0001:0004c0c0       ___vcrt_InitializeCriticalSectionEx 1004d0c0 f   libvcruntimed:winapi_downlevel.obj
 0001:0004cc60       ??$TypeMatchHelper@V__FrameHandler3@@@@YAHPBU_s_HandlerType@@PBU_s_CatchableType@@PBU_s_ThrowInfo@@@Z 1004dc60 f i libvcruntimed:frame.obj
 0001:0004cd40       ??$__InternalCxxFrameHandler@V__FrameHandler3@@@@YA?AW4_EXCEPTION_DISPOSITION@@PAUEHExceptionRecord@@PAUEHRegistrationNode@@PAU_CONTEXT@@PAXPBU_s_FuncInfo@@H1E@Z 1004dd40 f i libvcruntimed:frame.obj
 0001:0004cf00       ??0HandlerMap@__FrameHandler3@@QAE@PBU_s_TryBlockMapEntry@@II@Z 1004df00 f i libvcruntimed:frame.obj
 0001:0004cf30       ??0TryBlockMap@__FrameHandler3@@QAE@PBU_s_FuncInfo@@I@Z 1004df30 f i libvcruntimed:frame.obj
 0001:0004cf60       ??0bad_exception@std@@QAE@ABV01@@Z 1004df60 f i libvcruntimed:frame.obj
 0001:0004cf90       ??0bad_exception@std@@QAE@XZ 1004df90 f i libvcruntimed:frame.obj
 0001:0004cfc0       ??0exception@std@@QAE@ABV01@@Z 1004dfc0 f i libvcruntimed:frame.obj
 0001:0004d000       ??0exception@std@@QAE@QBDH@Z 1004e000 f i libvcruntimed:frame.obj
 0001:0004d030       ??0iterator@HandlerMap@__FrameHandler3@@QAE@AAV12@I@Z 1004e030 f i libvcruntimed:frame.obj
 0001:0004d060       ??1bad_exception@std@@UAE@XZ 1004e060 f i libvcruntimed:frame.obj
 0001:0004d080       ??1exception@std@@UAE@XZ   1004e080 f i libvcruntimed:frame.obj
 0001:0004d0b0       ??8iterator@HandlerMap@__FrameHandler3@@QBE_NABV012@@Z 1004e0b0 f i libvcruntimed:frame.obj
 0001:0004d0e0       ??8type_info@@QBE_NABV0@@Z 1004e0e0 f i libvcruntimed:frame.obj
 0001:0004d120       ??9iterator@HandlerMap@__FrameHandler3@@QBE_NABV012@@Z 1004e120 f i libvcruntimed:frame.obj
 0001:0004d160       ??Diterator@HandlerMap@__FrameHandler3@@QAE?BU_s_HandlerType@@XZ 1004e160 f i libvcruntimed:frame.obj
 0001:0004d1a0       ??Diterator@TryBlockMap@__FrameHandler3@@QAE?BU_s_TryBlockMapEntry@@XZ 1004e1a0 f i libvcruntimed:frame.obj
 0001:0004d1f0       ??Eiterator@HandlerMap@__FrameHandler3@@QAEAAV012@XZ 1004e1f0 f i libvcruntimed:frame.obj
 0001:0004d210       ??Eiterator@TryBlockMap@__FrameHandler3@@QAEAAV012@XZ 1004e210 f i libvcruntimed:frame.obj
 0001:0004d230       ??Miterator@TryBlockMap@__FrameHandler3@@QBE_NABV012@@Z 1004e230 f i libvcruntimed:frame.obj
 0001:0004d260       ??_Ebad_exception@std@@UAEPAXI@Z 1004e260 f i libvcruntimed:frame.obj
 0001:0004d260       ??_Gbad_exception@std@@UAEPAXI@Z 1004e260 f i libvcruntimed:frame.obj
 0001:0004d290       ??_Gexception@std@@UAEPAXI@Z 1004e290 f i libvcruntimed:frame.obj
 0001:0004d290       ??_Eexception@std@@UAEPAXI@Z 1004e290 f i libvcruntimed:frame.obj
 0001:0004d2c0       ?BuildCatchObject@__FrameHandler3@@SAXPAUEHExceptionRecord@@PAXPBU_s_HandlerType@@PBU_s_CatchableType@@@Z 1004e2c0 f   libvcruntimed:frame.obj
 0001:0004d2e0       ?BuildCatchObjectHelper@__FrameHandler3@@SAHPAUEHExceptionRecord@@PAXPBU_s_HandlerType@@PBU_s_CatchableType@@@Z 1004e2e0 f   libvcruntimed:frame.obj
 0001:0004d680       ?FrameUnwindToEmptyState@__FrameHandler3@@SAXPAUEHRegistrationNode@@PAXPBU_s_FuncInfo@@@Z 1004e680 f   libvcruntimed:frame.obj
 0001:0004d6a0       ?FrameUnwindToState@__FrameHandler3@@SAXPAUEHRegistrationNode@@PAXPBU_s_FuncInfo@@H@Z 1004e6a0 f   libvcruntimed:frame.obj
 0001:0004d820       ?GetMaxState@__FrameHandler3@@SAHPAXPBU_s_FuncInfo@@@Z 1004e820 f i libvcruntimed:frame.obj
 0001:0004d940       ?TypeMatch@__FrameHandler3@@SAHPBU_s_HandlerType@@PBU_s_CatchableType@@PBU_s_ThrowInfo@@@Z 1004e940 f   libvcruntimed:frame.obj
 0001:0004d960       ?_CallMemberFunction1@@YGXQAX00@Z 1004e960 f i libvcruntimed:frame.obj
 0001:0004d990       ?_CallMemberFunction2@@YGXQAX00H@Z 1004e990 f i libvcruntimed:frame.obj
 0001:0004d9c0       ?begin@HandlerMap@__FrameHandler3@@QAE?AViterator@12@XZ 1004e9c0 f i libvcruntimed:frame.obj
 0001:0004d9e0       ?end@HandlerMap@__FrameHandler3@@QAE?AViterator@12@XZ 1004e9e0 f i libvcruntimed:frame.obj
 0001:0004da10       ?getESTypes@__FrameHandler3@@SAPBU_s_ESTypeList@@PBU_s_FuncInfo@@@Z 1004ea10 f i libvcruntimed:frame.obj
 0001:0004da20       ?getLastEntry@HandlerMap@__FrameHandler3@@QAEPBU_s_HandlerType@@XZ 1004ea20 f i libvcruntimed:frame.obj
 0001:0004da40       ?getMagicNum@__FrameHandler3@@SAIPBU_s_FuncInfo@@@Z 1004ea40 f i libvcruntimed:frame.obj
 0001:0004da50       ?getNumTryBlocks@TryBlockMap@__FrameHandler3@@QAEIXZ 1004ea50 f i libvcruntimed:frame.obj
 0001:0004da70       ?isEHs@__FrameHandler3@@SA_NPBU_s_FuncInfo@@@Z 1004ea70 f i libvcruntimed:frame.obj
 0001:0004daa0       ?isNoExcept@__FrameHandler3@@SA_NPBU_s_FuncInfo@@@Z 1004eaa0 f i libvcruntimed:frame.obj
 0001:0004dad0       ?what@exception@std@@UBEPBDXZ 1004ead0 f i libvcruntimed:frame.obj
 0001:0004db00       ___BuildCatchObject        1004eb00 f   libvcruntimed:frame.obj
 0001:0004db20       ___BuildCatchObjectHelper  1004eb20 f   libvcruntimed:frame.obj
 0001:0004db40       ___TypeMatch               1004eb40 f   libvcruntimed:frame.obj
 0001:0004db60       ___vcrt_EncodePointer      1004eb60 f i libvcruntimed:frame.obj
 0001:0004db70       __CallSettingFrame@12      1004eb70 f   libvcruntimed:lowhelpr.obj
 0001:0004db97       __NLG_Return               1004eb97     libvcruntimed:lowhelpr.obj
 0001:0004dbf0       __get_unexpected           1004ebf0 f   libvcruntimed:unexpected.obj
 0001:0004dc10       _set_unexpected            1004ec10 f   libvcruntimed:unexpected.obj
 0001:0004dc40       _unexpected                1004ec40 f   libvcruntimed:unexpected.obj
 0001:0004dc80       _memmove                   1004ec80 f   libvcruntimed:memmove.obj
 0001:0004e200       ?GetCurrentState@__FrameHandler3@@SAHPAUEHRegistrationNode@@PAXPBU_s_FuncInfo@@@Z 1004f200 f   libvcruntimed:ehstate.obj
 0001:0004e230       ?SetState@__FrameHandler3@@SAXPAUEHRegistrationNode@@PBU_s_FuncInfo@@H@Z 1004f230 f   libvcruntimed:ehstate.obj
 0001:0004e240       ??$?RD@__crt_public_free_policy@@QBEXQBD@Z 1004f240 f i libvcruntimed:std_exception.obj
 0001:0004e260       ??0?$__crt_unique_heap_ptr@DU__crt_public_free_policy@@@@QAE@QAD@Z 1004f260 f i libvcruntimed:std_exception.obj
 0001:0004e280       ??1?$__crt_unique_heap_ptr@DU__crt_public_free_policy@@@@QAE@XZ 1004f280 f i libvcruntimed:std_exception.obj
 0001:0004e2a0       ??B?$__crt_unique_heap_ptr@DU__crt_public_free_policy@@@@QBE_NXZ 1004f2a0 f i libvcruntimed:std_exception.obj
 0001:0004e2c0       ?detach@?$__crt_unique_heap_ptr@DU__crt_public_free_policy@@@@QAEPADXZ 1004f2c0 f i libvcruntimed:std_exception.obj
 0001:0004e2f0       ?get@?$__crt_unique_heap_ptr@DU__crt_public_free_policy@@@@QBEPADXZ 1004f2f0 f i libvcruntimed:std_exception.obj
 0001:0004e300       ?is_valid@?$__crt_unique_heap_ptr@DU__crt_public_free_policy@@@@QBE_NXZ 1004f300 f i libvcruntimed:std_exception.obj
 0001:0004e330       ?release@?$__crt_unique_heap_ptr@DU__crt_public_free_policy@@@@QAEXXZ 1004f330 f i libvcruntimed:std_exception.obj
 0001:0004e360       ___std_exception_copy      1004f360 f   libvcruntimed:std_exception.obj
 0001:0004e450       ___std_exception_destroy   1004f450 f   libvcruntimed:std_exception.obj
 0001:0004e480       __CxxThrowException@8      1004f480 f   libvcruntimed:throw.obj
 0001:0004e530       _strcmp                    1004f530 f   libucrtd:strcmp.obj
 0001:0004e5c0       _atan2                     1004f5c0 f   libucrtd:atan2.obj
 0001:0004e5e0       _fabs                      1004f5e0 f   libucrtd:fabs.obj
 0001:0004e670       _sqrt                      1004f670 f   libucrtd:sqrt.obj
 0001:0004e680       _floor                     1004f680 f   libucrtd:floor_pentium4.obj
 0001:0004e6c0       __floor_pentium4           1004f6c0 f   libucrtd:floor_pentium4.obj
 0001:0004e780       __chgsign                  1004f780 f   libucrtd:ieeemisc.obj
 0001:0004e7c0       __chgsignf                 1004f7c0 f   libucrtd:ieeemisc.obj
 0001:0004e800       __copysign                 1004f800 f   libucrtd:ieeemisc.obj
 0001:0004e840       __copysignf                1004f840 f   libucrtd:ieeemisc.obj
 0001:0004e890       __finite                   1004f890 f   libucrtd:ieeemisc.obj
 0001:0004e8b0       __fpclass                  1004f8b0 f   libucrtd:ieeemisc.obj
 0001:0004e9b0       __isnan                    1004f9b0 f   libucrtd:ieeemisc.obj
 0001:0004ea00       __logb                     1004fa00 f   libucrtd:ieeemisc.obj
 0001:0004eb20       __nextafter                1004fb20 f   libucrtd:ieeemisc.obj
 0001:0004eb50       __scalb                    1004fb50 f   libucrtd:ieeemisc.obj
 0001:0004eb70       ??$__crt_interlocked_read@J@@YAJPDJ@Z 1004fb70 f i libucrtd:assert.obj
 0001:00050620       ??$ftprintf@PAU_iobuf@@PBDABQBDABQBDABI@?$__crt_char_traits@D@@SAH$$QAPAU_iobuf@@$$QAPBDABQBD2ABI@Z 10051620 f i libucrtd:assert.obj
 0001:00050650       ??$ftprintf@PAU_iobuf@@PB_WABQB_WABQB_WABI@?$__crt_char_traits@_W@@SAH$$QAPAU_iobuf@@$$QAPB_WABQB_W2ABI@Z 10051650 f i libucrtd:assert.obj
 0001:00050680       ??$get_module_file_name@AAPAUHINSTANCE__@@AAY0BAF@DK@?$__crt_char_traits@D@@SAKAAPAUHINSTANCE__@@AAY0BAF@D$$QAK@Z 10051680 f i libucrtd:assert.obj
 0001:000506a0       ??$get_module_file_name@AAPAUHINSTANCE__@@AAY0BAF@_WK@?$__crt_char_traits@_W@@SAKAAPAUHINSTANCE__@@AAY0BAF@_W$$QAK@Z 100516a0 f i libucrtd:assert.obj
 0001:000506c0       ??$itot_s@ABIPADIH@?$__crt_char_traits@D@@SAHABI$$QAPAD$$QAI$$QAH@Z 100516c0 f i libucrtd:assert.obj
 0001:000506f0       ??$itot_s@ABIPA_WIH@?$__crt_char_traits@_W@@SAHABI$$QAPA_W$$QAI$$QAH@Z 100516f0 f i libucrtd:assert.obj
 0001:00050720       ??$show_message_box@AAY0CEA@DPBDJ@?$__crt_char_traits@D@@SAHAAY0CEA@D$$QAPBD$$QAJ@Z 10051720 f i libucrtd:assert.obj
 0001:00050740       ??$show_message_box@AAY0CEA@_WPB_WJ@?$__crt_char_traits@_W@@SAHAAY0CEA@_W$$QAPB_W$$QAJ@Z 10051740 f i libucrtd:assert.obj
 0001:00050760       ??$tcscat_s@ABQADABIAAPAD@?$__crt_char_traits@D@@SAHABQADABIAAPAD@Z 10051760 f i libucrtd:assert.obj
 0001:00050790       ??$tcscat_s@ABQADABIABQBD@?$__crt_char_traits@D@@SAHABQADABIABQBD@Z 10051790 f i libucrtd:assert.obj
 0001:000507c0       ??$tcscat_s@ABQADABIPBD@?$__crt_char_traits@D@@SAHABQADABI$$QAPBD@Z 100517c0 f i libucrtd:assert.obj
 0001:000507f0       ??$tcscat_s@ABQA_WABIAAPA_W@?$__crt_char_traits@_W@@SAHABQA_WABIAAPA_W@Z 100517f0 f i libucrtd:assert.obj
 0001:00050820       ??$tcscat_s@ABQA_WABIABQB_W@?$__crt_char_traits@_W@@SAHABQA_WABIABQB_W@Z 10051820 f i libucrtd:assert.obj
 0001:00050850       ??$tcscat_s@ABQA_WABIPB_W@?$__crt_char_traits@_W@@SAHABQA_WABI$$QAPB_W@Z 10051850 f i libucrtd:assert.obj
 0001:00050880       ??$tcscpy_s@AAY0BAF@DIPBD@?$__crt_char_traits@D@@SAHAAY0BAF@D$$QAI$$QAPBD@Z 10051880 f i libucrtd:assert.obj
 0001:000508a0       ??$tcscpy_s@AAY0BAF@_WIPB_W@?$__crt_char_traits@_W@@SAHAAY0BAF@_W$$QAI$$QAPB_W@Z 100518a0 f i libucrtd:assert.obj
 0001:000508c0       ??$tcscpy_s@ABQADABIPBD@?$__crt_char_traits@D@@SAHABQADABI$$QAPBD@Z 100518c0 f i libucrtd:assert.obj
 0001:000508f0       ??$tcscpy_s@ABQA_WABIPB_W@?$__crt_char_traits@_W@@SAHABQA_WABI$$QAPB_W@Z 100518f0 f i libucrtd:assert.obj
 0001:00050920       ??$tcslen@AAY0BAF@D@?$__crt_char_traits@D@@SAIAAY0BAF@D@Z 10051920 f i libucrtd:assert.obj
 0001:00050940       ??$tcslen@AAY0BAF@_W@?$__crt_char_traits@_W@@SAIAAY0BAF@_W@Z 10051940 f i libucrtd:assert.obj
 0001:00050960       ??$tcslen@ABQAD@?$__crt_char_traits@D@@SAIABQAD@Z 10051960 f i libucrtd:assert.obj
 0001:00050980       ??$tcslen@ABQA_W@?$__crt_char_traits@_W@@SAIABQA_W@Z 10051980 f i libucrtd:assert.obj
 0001:000509a0       ??$tcslen@ABQBD@?$__crt_char_traits@D@@SAIABQBD@Z 100519a0 f i libucrtd:assert.obj
 0001:000509c0       ??$tcslen@ABQB_W@?$__crt_char_traits@_W@@SAIABQB_W@Z 100519c0 f i libucrtd:assert.obj
 0001:000509e0       ??$tcsncat_s@ABQADABIAAPBDI@?$__crt_char_traits@D@@SAHABQADABIAAPBD$$QAI@Z 100519e0 f i libucrtd:assert.obj
 0001:00050a10       ??$tcsncat_s@ABQADABIABQBDABI@?$__crt_char_traits@D@@SAHABQADABIABQBD1@Z 10051a10 f i libucrtd:assert.obj
 0001:00050a40       ??$tcsncat_s@ABQADABIPBDI@?$__crt_char_traits@D@@SAHABQADABI$$QAPBD$$QAI@Z 10051a40 f i libucrtd:assert.obj
 0001:00050a70       ??$tcsncat_s@ABQA_WABIAAPB_WI@?$__crt_char_traits@_W@@SAHABQA_WABIAAPB_W$$QAI@Z 10051a70 f i libucrtd:assert.obj
 0001:00050aa0       ??$tcsncat_s@ABQA_WABIABQB_WABI@?$__crt_char_traits@_W@@SAHABQA_WABIABQB_W1@Z 10051aa0 f i libucrtd:assert.obj
 0001:00050ad0       ??$tcsncat_s@ABQA_WABIPB_WI@?$__crt_char_traits@_W@@SAHABQA_WABI$$QAPB_W$$QAI@Z 10051ad0 f i libucrtd:assert.obj
 0001:00050b00       ??0__crt_stdio_stream@@QAE@QAU_iobuf@@@Z 10051b00 f i libucrtd:assert.obj
 0001:00050cf0       ?get_flags@__crt_stdio_stream@@QBEJXZ 10051cf0 f i libucrtd:assert.obj
 0001:00050dd0       ?has_any_buffer@__crt_stdio_stream@@QBE_NXZ 10051dd0 f i libucrtd:assert.obj
 0001:00050df0       ?has_any_of@__crt_stdio_stream@@QBE_NJ@Z 10051df0 f i libucrtd:assert.obj
 0001:00050e30       __assert                   10051e30 f   libucrtd:assert.obj
 0001:00050e50       __invoke_watson_if_error   10051e50 f i libucrtd:assert.obj
 0001:00050e80       __vfprintf_l               10051e80 f i libucrtd:assert.obj
 0001:00050eb0       __vfwprintf_l              10051eb0 f i libucrtd:assert.obj
 0001:00050ee0       __vswprintf_c_l            10051ee0 f i libucrtd:assert.obj
 0001:00050f30       __wassert                  10051f30 f   libucrtd:assert.obj
 0001:00050f50       _fprintf                   10051f50 f i libucrtd:assert.obj
 0001:00050f90       _fwprintf                  10051f90 f i libucrtd:assert.obj
 0001:000510e0       _swprintf                  100520e0 f i libucrtd:assert.obj
 0001:00051120       __abs64                    10052120 f   libucrtd:abs.obj
 0001:00051170       _abs                       10052170 f   libucrtd:abs.obj
 0001:000511a0       _pow                       100521a0 f   libucrtd:pow.obj
 0001:000511f0       _cos                       100521f0 f   libucrtd:cos.obj
 0001:00051240       _sin                       10052240 f   libucrtd:sin.obj
 0001:00051290       ??$?RU?$__crt_report_hook_node@D@@@__crt_internal_free_policy@@QBEXQBU?$__crt_report_hook_node@D@@@Z 10052290 f i libucrtd:dbgrpt.obj
 0001:000512b0       ??$?RU?$__crt_report_hook_node@_W@@@__crt_internal_free_policy@@QBEXQBU?$__crt_report_hook_node@_W@@@Z 100522b0 f i libucrtd:dbgrpt.obj
 0001:00052180       ??0?$__crt_unique_heap_ptr@U?$__crt_report_hook_node@D@@U__crt_internal_free_policy@@@@QAE@QAU?$__crt_report_hook_node@D@@@Z 10053180 f i libucrtd:dbgrpt.obj
 0001:000521a0       ??0?$__crt_unique_heap_ptr@U?$__crt_report_hook_node@_W@@U__crt_internal_free_policy@@@@QAE@QAU?$__crt_report_hook_node@_W@@@Z 100531a0 f i libucrtd:dbgrpt.obj
 0001:000521c0       ??1?$__crt_unique_heap_ptr@U?$__crt_report_hook_node@D@@U__crt_internal_free_policy@@@@QAE@XZ 100531c0 f i libucrtd:dbgrpt.obj
 0001:000521e0       ??1?$__crt_unique_heap_ptr@U?$__crt_report_hook_node@_W@@U__crt_internal_free_policy@@@@QAE@XZ 100531e0 f i libucrtd:dbgrpt.obj
 0001:00052200       ??B?$__crt_unique_heap_ptr@U?$__crt_report_hook_node@D@@U__crt_internal_free_policy@@@@QBE_NXZ 10053200 f i libucrtd:dbgrpt.obj
 0001:00052220       ??B?$__crt_unique_heap_ptr@U?$__crt_report_hook_node@_W@@U__crt_internal_free_policy@@@@QBE_NXZ 10053220 f i libucrtd:dbgrpt.obj
 0001:00052760       ?detach@?$__crt_unique_heap_ptr@U?$__crt_report_hook_node@D@@U__crt_internal_free_policy@@@@QAEPAU?$__crt_report_hook_node@D@@XZ 10053760 f i libucrtd:dbgrpt.obj
 0001:00052790       ?detach@?$__crt_unique_heap_ptr@U?$__crt_report_hook_node@_W@@U__crt_internal_free_policy@@@@QAEPAU?$__crt_report_hook_node@_W@@XZ 10053790 f i libucrtd:dbgrpt.obj
 0001:000527c0       ?get@?$__crt_unique_heap_ptr@U?$__crt_report_hook_node@D@@U__crt_internal_free_policy@@@@QBEPAU?$__crt_report_hook_node@D@@XZ 100537c0 f i libucrtd:dbgrpt.obj
 0001:000527e0       ?get@?$__crt_unique_heap_ptr@U?$__crt_report_hook_node@_W@@U__crt_internal_free_policy@@@@QBEPAU?$__crt_report_hook_node@_W@@XZ 100537e0 f i libucrtd:dbgrpt.obj
 0001:00052860       ?is_valid@?$__crt_unique_heap_ptr@U?$__crt_report_hook_node@D@@U__crt_internal_free_policy@@@@QBE_NXZ 10053860 f i libucrtd:dbgrpt.obj
 0001:00052890       ?is_valid@?$__crt_unique_heap_ptr@U?$__crt_report_hook_node@_W@@U__crt_internal_free_policy@@@@QBE_NXZ 10053890 f i libucrtd:dbgrpt.obj
 0001:000528c0       ?release@?$__crt_unique_heap_ptr@U?$__crt_report_hook_node@D@@U__crt_internal_free_policy@@@@QAEXXZ 100538c0 f i libucrtd:dbgrpt.obj
 0001:000528f0       ?release@?$__crt_unique_heap_ptr@U?$__crt_report_hook_node@_W@@U__crt_internal_free_policy@@@@QAEXXZ 100538f0 f i libucrtd:dbgrpt.obj
 0001:00052920       __CrtDbgReport             10053920 f   libucrtd:dbgrpt.obj
 0001:00052970       __CrtDbgReportW            10053970 f   libucrtd:dbgrpt.obj
 0001:000529c0       __CrtSetReportHook2        100539c0 f   libucrtd:dbgrpt.obj
 0001:000529e0       __CrtSetReportHookW2       100539e0 f   libucrtd:dbgrpt.obj
 0001:00052a00       ___acrt_MessageWindowA     10053a00 f   libucrtd:dbgrpt.obj
 0001:00052a30       ___acrt_MessageWindowW     10053a30 f   libucrtd:dbgrpt.obj
 0001:00052a60       __invoke_watson_if_oneof   10053a60 f i libucrtd:dbgrpt.obj
 0001:00052aa0       __snwprintf_s              10053aa0 f i libucrtd:dbgrpt.obj
 0001:00052ae0       __vsnwprintf_s_l           10053ae0 f i libucrtd:dbgrpt.obj
 0001:00052b40       ??0_LocaleUpdate@@QAE@QAU__crt_locale_pointers@@@Z 10053b40 f i libucrtd:debug_heap.obj
 0001:00052c10       ??1_LocaleUpdate@@QAE@XZ   10053c10 f i libucrtd:debug_heap.obj
 0001:00052c40       ?GetLocaleT@_LocaleUpdate@@QAEPAU__crt_locale_pointers@@XZ 10053c40 f i libucrtd:debug_heap.obj
 0001:000544b0       __CrtCheckMemory           100554b0 f   libucrtd:debug_heap.obj
 0001:00054640       __CrtDoForAllClientObjects 10055640 f   libucrtd:debug_heap.obj
 0001:00054790       __CrtDumpMemoryLeaks       10055790 f   libucrtd:debug_heap.obj
 0001:00054830       __CrtGetAllocHook          10055830 f   libucrtd:debug_heap.obj
 0001:00054840       __CrtGetDumpClient         10055840 f   libucrtd:debug_heap.obj
 0001:00054850       __CrtIsMemoryBlock         10055850 f   libucrtd:debug_heap.obj
 0001:000549a0       __CrtIsValidHeapPointer    100559a0 f   libucrtd:debug_heap.obj
 0001:000549d0       __CrtIsValidPointer        100559d0 f   libucrtd:debug_heap.obj
 0001:00054a00       __CrtMemCheckpoint         10055a00 f   libucrtd:debug_heap.obj
 0001:00054c30       __CrtMemDifference         10055c30 f   libucrtd:debug_heap.obj
 0001:00054ea0       __CrtMemDumpAllObjectsSince 10055ea0 f   libucrtd:debug_heap.obj
 0001:00054f40       __CrtMemDumpStatistics     10055f40 f   libucrtd:debug_heap.obj
 0001:00055070       __CrtReportBlockType       10056070 f   libucrtd:debug_heap.obj
 0001:000550a0       __CrtSetAllocHook          100560a0 f   libucrtd:debug_heap.obj
 0001:000550c0       __CrtSetBreakAlloc         100560c0 f   libucrtd:debug_heap.obj
 0001:000550e0       __CrtSetDbgBlockType       100560e0 f   libucrtd:debug_heap.obj
 0001:000551c0       __CrtSetDbgFlag            100561c0 f   libucrtd:debug_heap.obj
 0001:00055330       __CrtSetDumpClient         10056330 f   libucrtd:debug_heap.obj
 0001:00055350       ___acrt_disable_global_locale_sync 10056350 f i libucrtd:debug_heap.obj
 0001:00055370       ___acrt_enable_global_locale_sync 10056370 f i libucrtd:debug_heap.obj
 0001:00055390       ___acrt_get_locale_data_prefix 10056390 f i libucrtd:debug_heap.obj
 0001:000553b0       ___acrt_locale_changed     100563b0 f i libucrtd:debug_heap.obj
 0001:000553e0       ___p__crtBreakAlloc        100563e0 f   libucrtd:debug_heap.obj
 0001:000553f0       ___p__crtDbgFlag           100563f0 f   libucrtd:debug_heap.obj
 0001:00055400       __aligned_free_dbg         10056400 f   libucrtd:debug_heap.obj
 0001:000554b0       __aligned_malloc_dbg       100564b0 f   libucrtd:debug_heap.obj
 0001:000554e0       __aligned_msize_dbg        100564e0 f   libucrtd:debug_heap.obj
 0001:00055610       __aligned_offset_malloc_dbg 10056610 f   libucrtd:debug_heap.obj
 0001:000557f0       __aligned_offset_realloc_dbg 100567f0 f   libucrtd:debug_heap.obj
 0001:00055b00       __aligned_offset_recalloc_dbg 10056b00 f   libucrtd:debug_heap.obj
 0001:00055bc0       __aligned_realloc_dbg      10056bc0 f   libucrtd:debug_heap.obj
 0001:00055bf0       __aligned_recalloc_dbg     10056bf0 f   libucrtd:debug_heap.obj
 0001:00055c20       __calloc_dbg               10056c20 f   libucrtd:debug_heap.obj
 0001:00055c90       __chvalidchk_l             10056c90 f i libucrtd:debug_heap.obj
 0001:00055cb0       __expand_dbg               10056cb0 f   libucrtd:debug_heap.obj
 0001:00055de0       __free_dbg                 10056de0 f   libucrtd:debug_heap.obj
 0001:00055e90       __ischartype_l             10056e90 f i libucrtd:debug_heap.obj
 0001:00055f10       __malloc_dbg               10056f10 f   libucrtd:debug_heap.obj
 0001:00055f30       __msize_dbg                10056f30 f   libucrtd:debug_heap.obj
 0001:000560c0       __realloc_dbg              100570c0 f   libucrtd:debug_heap.obj
 0001:00056160       __recalloc_dbg             10057160 f   libucrtd:debug_heap.obj
 0001:00056210       __errcode                  10057210 f   libucrtd:fpexcept.obj
 0001:00056280       __except1                  10057280 f   libucrtd:fpexcept.obj
 0001:00056380       __except2                  10057380 f   libucrtd:fpexcept.obj
 0001:000564e0       __handle_exc               100574e0 f   libucrtd:fpexcept.obj
 0001:00056800       __handle_qnan2             10057800 f   libucrtd:fpexcept.obj
 0001:00056820       __raise_exc                10057820 f   libucrtd:fpexcept.obj
 0001:00056850       __raise_exc_ex             10057850 f   libucrtd:fpexcept.obj
 0001:00056dd0       __raise_excf               10057dd0 f   libucrtd:fpexcept.obj
 0001:00056e00       __set_errno_from_matherr   10057e00 f   libucrtd:fpexcept.obj
 0001:00056e40       __umatherr                 10057e40 f   libucrtd:fpexcept.obj
 0001:00056ee0       __initterm                 10057ee0 f   libucrtd:initterm.obj
 0001:00056f30       __initterm_e               10057f30 f   libucrtd:initterm.obj
 0001:00056fe0       __seh_filter_dll           10057fe0 f   libucrtd:exception_filter.obj
 0001:00057010       __seh_filter_exe           10058010 f   libucrtd:exception_filter.obj
 0001:00057220       ??$?B$$A6GXPAXK0@Z@__crt_fast_encoded_nullptr_t@@QBEP6GXPAXK0@ZXZ 10058220 f i libucrtd:exit.obj
 0001:00057300       ??$__crt_fast_decode_pointer@P6GXPAXK0@Z@@YAP6GXPAXK0@ZQ6GX0K0@Z@Z 10058300 f i libucrtd:exit.obj
 0001:00057330       ??$__crt_fast_encode_pointer@P6GXPAXK0@Z@@YAP6GXPAXK0@ZQ6GX0K0@Z@Z 10058330 f i libucrtd:exit.obj
 0001:00057360       ??$__crt_get_proc_address@P6GXI@Z@@YAP6GXI@ZQAUHINSTANCE__@@QBD@Z 10058360 f i libucrtd:exit.obj
 0001:000573f0       ??0?$__crt_unique_handle_t@U__crt_hmodule_traits@@@@QAE@QAUHINSTANCE__@@@Z 100583f0 f i libucrtd:exit.obj
 0001:00057410       ??1?$__crt_unique_handle_t@U__crt_hmodule_traits@@@@QAE@XZ 10058410 f i libucrtd:exit.obj
 0001:000575d0       ?__acrt_select_exit_lock@@YA?AW4__acrt_lock_id@@XZ 100585d0 f i libucrtd:exit.obj
 0001:000575e0       ?__crt_fast_encode_pointer@@YA?AU__crt_fast_encoded_nullptr_t@@$$T@Z 100585e0 f i libucrtd:exit.obj
 0001:000575f0       ?__crt_rotate_pointer_value@@YAIIH@Z 100585f0 f i libucrtd:exit.obj
 0001:00057620       ?close@?$__crt_unique_handle_t@U__crt_hmodule_traits@@@@QAEXXZ 10058620 f i libucrtd:exit.obj
 0001:00057660       ?close@__crt_hmodule_traits@@SA_NPAUHINSTANCE__@@@Z 10058660 f i libucrtd:exit.obj
 0001:00057750       ?get@?$__crt_unique_handle_t@U__crt_hmodule_traits@@@@QBEPAUHINSTANCE__@@XZ 10058750 f i libucrtd:exit.obj
 0001:00057770       ?get_address_of@?$__crt_unique_handle_t@U__crt_hmodule_traits@@@@QAEPAPAUHINSTANCE__@@XZ 10058770 f i libucrtd:exit.obj
 0001:00057780       ?get_invalid_value@__crt_hmodule_traits@@SAPAUHINSTANCE__@@XZ 10058780 f i libucrtd:exit.obj
 0001:00057900       __Exit                     10058900 f   libucrtd:exit.obj
 0001:00057920       ___acrt_initialize_thread_local_exit_callback 10058920 f   libucrtd:exit.obj
 0001:00057930       __c_exit                   10058930 f   libucrtd:exit.obj
 0001:00057950       __cexit                    10058950 f   libucrtd:exit.obj
 0001:00057970       __exit                     10058970 f   libucrtd:exit.obj
 0001:00057990       __is_c_termination_complete 10058990 f   libucrtd:exit.obj
 0001:000579b0       __register_thread_local_exe_atexit_callback 100589b0 f   libucrtd:exit.obj
 0001:000579f0       _exit                      100589f0 f   libucrtd:exit.obj
 0001:00057a10       _quick_exit                10058a10 f   libucrtd:exit.obj
 0001:00057a30       ??$?RE@__crt_internal_free_policy@@QBEXQBE@Z 10058a30 f i libucrtd:argv_parsing.obj
 0001:00057a50       ??$?RPAD@__crt_internal_free_policy@@QBEXQBQAD@Z 10058a50 f i libucrtd:argv_parsing.obj
 0001:00057a70       ??$?RPA_W@__crt_internal_free_policy@@QBEXQBQA_W@Z 10058a70 f i libucrtd:argv_parsing.obj
 0001:00057fd0       ??$get_module_file_name@$$TAAY0BAF@DH@?$__crt_char_traits@D@@SAK$$QA$$TAAY0BAF@D$$QAH@Z 10058fd0 f i libucrtd:argv_parsing.obj
 0001:00057ff0       ??$get_module_file_name@$$TAAY0BAF@_WH@?$__crt_char_traits@_W@@SAK$$QA$$TAAY0BAF@_W$$QAH@Z 10058ff0 f i libucrtd:argv_parsing.obj
 0001:00058710       ??$set_program_name@PAD@?$__crt_char_traits@D@@SAX$$QAPAD@Z 10059710 f i libucrtd:argv_parsing.obj
 0001:00058730       ??$set_program_name@PA_W@?$__crt_char_traits@_W@@SAX$$QAPA_W@Z 10059730 f i libucrtd:argv_parsing.obj
 0001:00058790       ??0?$__crt_unique_heap_ptr@EU__crt_internal_free_policy@@@@QAE@QAE@Z 10059790 f i libucrtd:argv_parsing.obj
 0001:000587b0       ??0?$__crt_unique_heap_ptr@PADU__crt_internal_free_policy@@@@QAE@QAPAD@Z 100597b0 f i libucrtd:argv_parsing.obj
 0001:000587d0       ??0?$__crt_unique_heap_ptr@PA_WU__crt_internal_free_policy@@@@QAE@QAPA_W@Z 100597d0 f i libucrtd:argv_parsing.obj
 0001:000587f0       ??1?$__crt_unique_heap_ptr@EU__crt_internal_free_policy@@@@QAE@XZ 100597f0 f i libucrtd:argv_parsing.obj
 0001:00058810       ??1?$__crt_unique_heap_ptr@PADU__crt_internal_free_policy@@@@QAE@XZ 10059810 f i libucrtd:argv_parsing.obj
 0001:00058830       ??1?$__crt_unique_heap_ptr@PA_WU__crt_internal_free_policy@@@@QAE@XZ 10059830 f i libucrtd:argv_parsing.obj
 0001:00058850       ??B?$__crt_unique_heap_ptr@EU__crt_internal_free_policy@@@@QBE_NXZ 10059850 f i libucrtd:argv_parsing.obj
 0001:00058910       ?detach@?$__crt_unique_heap_ptr@EU__crt_internal_free_policy@@@@QAEPAEXZ 10059910 f i libucrtd:argv_parsing.obj
 0001:00058940       ?detach@?$__crt_unique_heap_ptr@PADU__crt_internal_free_policy@@@@QAEPAPADXZ 10059940 f i libucrtd:argv_parsing.obj
 0001:00058970       ?detach@?$__crt_unique_heap_ptr@PA_WU__crt_internal_free_policy@@@@QAEPAPA_WXZ 10059970 f i libucrtd:argv_parsing.obj
 0001:00058a00       ?get@?$__crt_unique_heap_ptr@EU__crt_internal_free_policy@@@@QBEPAEXZ 10059a00 f i libucrtd:argv_parsing.obj
 0001:00058a20       ?get@?$__crt_unique_heap_ptr@PADU__crt_internal_free_policy@@@@QBEPAPADXZ 10059a20 f i libucrtd:argv_parsing.obj
 0001:00058a40       ?get@?$__crt_unique_heap_ptr@PA_WU__crt_internal_free_policy@@@@QBEPAPA_WXZ 10059a40 f i libucrtd:argv_parsing.obj
 0001:00058a60       ?get_address_of@?$__crt_unique_heap_ptr@PADU__crt_internal_free_policy@@@@QAEPAPAPADXZ 10059a60 f i libucrtd:argv_parsing.obj
 0001:00058a70       ?get_address_of@?$__crt_unique_heap_ptr@PA_WU__crt_internal_free_policy@@@@QAEPAPAPA_WXZ 10059a70 f i libucrtd:argv_parsing.obj
 0001:00058ac0       ?is_valid@?$__crt_unique_heap_ptr@EU__crt_internal_free_policy@@@@QBE_NXZ 10059ac0 f i libucrtd:argv_parsing.obj
 0001:00058af0       ?release@?$__crt_unique_heap_ptr@EU__crt_internal_free_policy@@@@QAEXXZ 10059af0 f i libucrtd:argv_parsing.obj
 0001:00058b20       ?release@?$__crt_unique_heap_ptr@PADU__crt_internal_free_policy@@@@QAEXXZ 10059b20 f i libucrtd:argv_parsing.obj
 0001:00058b50       ?release@?$__crt_unique_heap_ptr@PA_WU__crt_internal_free_policy@@@@QAEXXZ 10059b50 f i libucrtd:argv_parsing.obj
 0001:00058bc0       ___acrt_allocate_buffer_for_argv 10059bc0 f   libucrtd:argv_parsing.obj
 0001:00058c80       __configure_narrow_argv    10059c80 f   libucrtd:argv_parsing.obj
 0001:00058ca0       __configure_wide_argv      10059ca0 f   libucrtd:argv_parsing.obj
 0001:00058cc0       __set_pgmptr               10059cc0 f i libucrtd:argv_parsing.obj
 0001:00058cd0       __set_wpgmptr              10059cd0 f i libucrtd:argv_parsing.obj
 0001:00058cdf       ??$?R_W@__crt_internal_free_policy@@QBEXQB_W@Z 10059cdf f i libucrtd:environment_initialization.obj
 0001:00059148       ??$get_environment_from_os@$$V@?$__crt_char_traits@D@@SAPADXZ 1005a148 f i libucrtd:environment_initialization.obj
 0001:0005914d       ??$get_environment_from_os@$$V@?$__crt_char_traits@_W@@SAPA_WXZ 1005a14d f i libucrtd:environment_initialization.obj
 0001:00059276       ??$set_variable_in_environment_nolock@PADH@?$__crt_char_traits@D@@SAH$$QAPAD$$QAH@Z 1005a276 f i libucrtd:environment_initialization.obj
 0001:0005928e       ??$set_variable_in_environment_nolock@PA_WH@?$__crt_char_traits@_W@@SAH$$QAPA_W$$QAH@Z 1005a28e f i libucrtd:environment_initialization.obj
 0001:000592a6       ??$tcscpy_s@PADABIAAPAD@?$__crt_char_traits@D@@SAH$$QAPADABIAAPAD@Z 1005a2a6 f i libucrtd:environment_initialization.obj
 0001:000592c4       ??$tcscpy_s@PA_WABIAAPA_W@?$__crt_char_traits@_W@@SAH$$QAPA_WABIAAPA_W@Z 1005a2c4 f i libucrtd:environment_initialization.obj
 0001:000592e2       ??$tcslen@AAPAD@?$__crt_char_traits@D@@SAIAAPAD@Z 1005a2e2 f i libucrtd:environment_initialization.obj
 0001:000592fa       ??$tcslen@AAPA_W@?$__crt_char_traits@_W@@SAIAAPA_W@Z 1005a2fa f i libucrtd:environment_initialization.obj
 0001:00059318       ??$uninitialize@A6AXAAPAPAD@Z@?$dual_state_global@PAPAD@__crt_state_management@@QAEXA6AXAAPAPAD@Z@Z 1005a318 f i libucrtd:environment_initialization.obj
 0001:00059341       ??$uninitialize@A6AXAAPAPA_W@Z@?$dual_state_global@PAPA_W@__crt_state_management@@QAEXA6AXAAPAPA_W@Z@Z 1005a341 f i libucrtd:environment_initialization.obj
 0001:000593a0       ??0?$__crt_unique_heap_ptr@_WU__crt_internal_free_policy@@@@QAE@QA_W@Z 1005a3a0 f i libucrtd:environment_initialization.obj
 0001:000593b0       ??1?$__crt_unique_heap_ptr@_WU__crt_internal_free_policy@@@@QAE@XZ 1005a3b0 f i libucrtd:environment_initialization.obj
 0001:000593c5       ??B?$__crt_unique_heap_ptr@PADU__crt_internal_free_policy@@@@QBE_NXZ 1005a3c5 f i libucrtd:environment_initialization.obj
 0001:000593cc       ??B?$__crt_unique_heap_ptr@PA_WU__crt_internal_free_policy@@@@QBE_NXZ 1005a3cc f i libucrtd:environment_initialization.obj
 0001:000593d3       ??B?$__crt_unique_heap_ptr@_WU__crt_internal_free_policy@@@@QBE_NXZ 1005a3d3 f i libucrtd:environment_initialization.obj
 0001:000593da       ?__crt_compute_required_transform_buffer_count@@YAIIQBD@Z 1005a3da f i libucrtd:environment_initialization.obj
 0001:000593f6       ?__crt_compute_required_transform_buffer_count@@YAIIQB_W@Z 1005a3f6 f i libucrtd:environment_initialization.obj
 0001:00059414       ?__crt_transform_string@@YAIIQBDQA_WI@Z 1005a414 f i libucrtd:environment_initialization.obj
 0001:00059433       ?__crt_transform_string@@YAIIQB_WQADI@Z 1005a433 f i libucrtd:environment_initialization.obj
 0001:00059455       ?detach@?$__crt_unique_heap_ptr@DU__crt_internal_free_policy@@@@QAEPADXZ 1005a455 f i libucrtd:environment_initialization.obj
 0001:0005945b       ?detach@?$__crt_unique_heap_ptr@_WU__crt_internal_free_policy@@@@QAEPA_WXZ 1005a45b f i libucrtd:environment_initialization.obj
 0001:00059461       ?get@?$__crt_unique_heap_ptr@_WU__crt_internal_free_policy@@@@QBEPA_WXZ 1005a461 f i libucrtd:environment_initialization.obj
 0001:00059464       ?get_current_state_index@__crt_state_management@@YAIXZ 1005a464 f i libucrtd:environment_initialization.obj
 0001:0005948b       ?initialize@?$dual_state_global@PAPAD@__crt_state_management@@QAEXQAPAD@Z 1005a48b f i libucrtd:environment_initialization.obj
 0001:000594b1       ?initialize@?$dual_state_global@PAPA_W@__crt_state_management@@QAEXQAPA_W@Z 1005a4b1 f i libucrtd:environment_initialization.obj
 0001:000594d7       ?is_valid@?$__crt_unique_heap_ptr@PADU__crt_internal_free_policy@@@@QBE_NXZ 1005a4d7 f i libucrtd:environment_initialization.obj
 0001:000594de       ?is_valid@?$__crt_unique_heap_ptr@PA_WU__crt_internal_free_policy@@@@QBE_NXZ 1005a4de f i libucrtd:environment_initialization.obj
 0001:000594e5       ?is_valid@?$__crt_unique_heap_ptr@_WU__crt_internal_free_policy@@@@QBE_NXZ 1005a4e5 f i libucrtd:environment_initialization.obj
 0001:000594f4       ?release@?$__crt_unique_heap_ptr@_WU__crt_internal_free_policy@@@@QAEXXZ 1005a4f4 f i libucrtd:environment_initialization.obj
 0001:00059509       ?value@?$dual_state_global@PAPAD@__crt_state_management@@QAEAAPAPADXZ 1005a509 f i libucrtd:environment_initialization.obj
 0001:0005950c       ?value@?$dual_state_global@PAPA_W@__crt_state_management@@QAEAAPAPA_WXZ 1005a50c f i libucrtd:environment_initialization.obj
 0001:0005950f       ___dcrt_get_or_create_narrow_environment_nolock 1005a50f f   libucrtd:environment_initialization.obj
 0001:00059514       ___dcrt_get_or_create_wide_environment_nolock 1005a514 f   libucrtd:environment_initialization.obj
 0001:00059519       ___dcrt_uninitialize_environments_nolock 1005a519 f   libucrtd:environment_initialization.obj
 0001:00059550       ___p__environ              1005a550 f   libucrtd:environment_initialization.obj
 0001:00059556       ___p__wenviron             1005a556 f   libucrtd:environment_initialization.obj
 0001:0005955c       __get_initial_narrow_environment 1005a55c f   libucrtd:environment_initialization.obj
 0001:00059570       __get_initial_wide_environment 1005a570 f   libucrtd:environment_initialization.obj
 0001:00059584       __initialize_narrow_environment 1005a584 f   libucrtd:environment_initialization.obj
 0001:00059589       __initialize_wide_environment 1005a589 f   libucrtd:environment_initialization.obj
 0001:00059590       ??$?B$$A6AXXZ@__crt_fast_encoded_nullptr_t@@QBEP6AXXZXZ 1005a590 f i libucrtd:onexit.obj
 0001:000595b0       ??$?BP6AXXZ@__crt_fast_encoded_nullptr_t@@QBEPAP6AXXZXZ 1005a5b0 f i libucrtd:onexit.obj
 0001:000595d0       ??$?RP6AXXZ@__crt_internal_free_policy@@QBEXQBQ6AXXZ@Z 1005a5d0 f i libucrtd:onexit.obj
 0001:00059790       ??$__crt_fast_decode_pointer@P6AXXZ@@YAP6AXXZQ6AXXZ@Z 1005a790 f i libucrtd:onexit.obj
 0001:000597c0       ??$__crt_fast_decode_pointer@PAP6AXXZ@@YAPAP6AXXZQAP6AXXZ@Z 1005a7c0 f i libucrtd:onexit.obj
 0001:000597f0       ??$__crt_fast_encode_pointer@P6AHXZ@@YAP6AHXZQ6AHXZ@Z 1005a7f0 f i libucrtd:onexit.obj
 0001:00059820       ??$__crt_fast_encode_pointer@P6AXXZ@@YAP6AXXZQ6AXXZ@Z 1005a820 f i libucrtd:onexit.obj
 0001:00059850       ??$__crt_fast_encode_pointer@PAP6AXXZ@@YAPAP6AXXZQAP6AXXZ@Z 1005a850 f i libucrtd:onexit.obj
 0001:00059950       ??0?$__crt_unique_heap_ptr@P6AXXZU__crt_internal_free_policy@@@@QAE@QAP6AXXZ@Z 1005a950 f i libucrtd:onexit.obj
 0001:00059970       ??1?$__crt_unique_heap_ptr@P6AXXZU__crt_internal_free_policy@@@@QAE@XZ 1005a970 f i libucrtd:onexit.obj
 0001:00059990       ??1scoped_global_state_reset@__crt_state_management@@QAE@XZ 1005a990 f i libucrtd:onexit.obj
 0001:00059e00       ?detach@?$__crt_unique_heap_ptr@P6AXXZU__crt_internal_free_policy@@@@QAEPAP6AXXZXZ 1005ae00 f i libucrtd:onexit.obj
 0001:00059e30       ?release@?$__crt_unique_heap_ptr@P6AXXZU__crt_internal_free_policy@@@@QAEXXZ 1005ae30 f i libucrtd:onexit.obj
 0001:00059e60       __crt_at_quick_exit        1005ae60 f   libucrtd:onexit.obj
 0001:00059e80       __crt_atexit               1005ae80 f   libucrtd:onexit.obj
 0001:00059ea0       __execute_onexit_table     1005aea0 f   libucrtd:onexit.obj
 0001:00059ed0       __initialize_onexit_table  1005aed0 f   libucrtd:onexit.obj
 0001:00059f30       __register_onexit_function 1005af30 f   libucrtd:onexit.obj
 0001:0005a170       ??$?BX@__crt_fast_encoded_nullptr_t@@QBEPAXXZ 1005b170 f i libucrtd:initialization.obj
 0001:0005a190       ??$__crt_fast_encode_pointer@PAX@@YAPAXQAX@Z 1005b190 f i libucrtd:initialization.obj
 0001:0005a250       ?initialize@?$dual_state_global@PAU__crt_locale_data@@@__crt_state_management@@QAEXQAU__crt_locale_data@@@Z 1005b250 f i libucrtd:initialization.obj
 0001:0005a290       ___acrt_initialize         1005b290 f   libucrtd:initialization.obj
 0001:0005a2b0       ___acrt_thread_attach      1005b2b0 f   libucrtd:initialization.obj
 0001:0005a2d0       ___acrt_thread_detach      1005b2d0 f   libucrtd:initialization.obj
 0001:0005a2e0       ___acrt_uninitialize       1005b2e0 f   libucrtd:initialization.obj
 0001:0005a300       ___acrt_uninitialize_critical 1005b300 f   libucrtd:initialization.obj
 0001:0005a350       __get_terminate            1005b350 f   libucrtd:terminate.obj
 0001:0005a370       _set_terminate             1005b370 f   libucrtd:terminate.obj
 0001:0005a3a0       _terminate                 1005b3a0 f   libucrtd:terminate.obj
 0001:0005a740       _strcpy_s                  1005b740 f   libucrtd:strcpy_s.obj
 0001:0005ab70       _strcat_s                  1005bb70 f   libucrtd:strcat_s.obj
 0001:0005ab90       ??$?0ABV?$stream_output_adapter@D@__crt_stdio_output@@AB_KABQBDABQAU__crt_locale_pointers@@ABQAD@?$format_validation_base@DV?$stream_output_adapter@D@__crt_stdio_output@@@__crt_stdio_output@@IAE@ABV?$stream_output_adapter@D@1@AB_KABQBDABQAU__crt_locale_pointers@@ABQAD@Z 1005bb90 f i libucrtd:output.obj
 0001:0005abc0       ??$?0ABV?$stream_output_adapter@D@__crt_stdio_output@@AB_KABQBDABQAU__crt_locale_pointers@@ABQAD@?$positional_parameter_base@DV?$stream_output_adapter@D@__crt_stdio_output@@@__crt_stdio_output@@IAE@ABV?$stream_output_adapter@D@1@AB_KABQBDABQAU__crt_locale_pointers@@ABQAD@Z 1005bbc0 f i libucrtd:output.obj
 0001:0005ac40       ??$?0ABV?$stream_output_adapter@D@__crt_stdio_output@@AB_KABQBDABQAU__crt_locale_pointers@@ABQAD@?$standard_base@DV?$stream_output_adapter@D@__crt_stdio_output@@@__crt_stdio_output@@IAE@ABV?$stream_output_adapter@D@1@AB_KABQBDABQAU__crt_locale_pointers@@ABQAD@Z 1005bc40 f i libucrtd:output.obj
 0001:0005ac90       ??$?0ABV?$stream_output_adapter@_W@__crt_stdio_output@@AB_KABQB_WABQAU__crt_locale_pointers@@ABQAD@?$format_validation_base@_WV?$stream_output_adapter@_W@__crt_stdio_output@@@__crt_stdio_output@@IAE@ABV?$stream_output_adapter@_W@1@AB_KABQB_WABQAU__crt_locale_pointers@@ABQAD@Z 1005bc90 f i libucrtd:output.obj
 0001:0005acc0       ??$?0ABV?$stream_output_adapter@_W@__crt_stdio_output@@AB_KABQB_WABQAU__crt_locale_pointers@@ABQAD@?$positional_parameter_base@_WV?$stream_output_adapter@_W@__crt_stdio_output@@@__crt_stdio_output@@IAE@ABV?$stream_output_adapter@_W@1@AB_KABQB_WABQAU__crt_locale_pointers@@ABQAD@Z 1005bcc0 f i libucrtd:output.obj
 0001:0005ad40       ??$?0ABV?$stream_output_adapter@_W@__crt_stdio_output@@AB_KABQB_WABQAU__crt_locale_pointers@@ABQAD@?$standard_base@_WV?$stream_output_adapter@_W@__crt_stdio_output@@@__crt_stdio_output@@IAE@ABV?$stream_output_adapter@_W@1@AB_KABQB_WABQAU__crt_locale_pointers@@ABQAD@Z 1005bd40 f i libucrtd:output.obj
 0001:0005ad90       ??$?0ABV?$string_output_adapter@D@__crt_stdio_output@@AB_KABQBDABQAU__crt_locale_pointers@@ABQAD@?$format_validation_base@DV?$string_output_adapter@D@__crt_stdio_output@@@__crt_stdio_output@@IAE@ABV?$string_output_adapter@D@1@AB_KABQBDABQAU__crt_locale_pointers@@ABQAD@Z 1005bd90 f i libucrtd:output.obj
 0001:0005adc0       ??$?0ABV?$string_output_adapter@D@__crt_stdio_output@@AB_KABQBDABQAU__crt_locale_pointers@@ABQAD@?$positional_parameter_base@DV?$string_output_adapter@D@__crt_stdio_output@@@__crt_stdio_output@@IAE@ABV?$string_output_adapter@D@1@AB_KABQBDABQAU__crt_locale_pointers@@ABQAD@Z 1005bdc0 f i libucrtd:output.obj
 0001:0005ae40       ??$?0ABV?$string_output_adapter@D@__crt_stdio_output@@AB_KABQBDABQAU__crt_locale_pointers@@ABQAD@?$standard_base@DV?$string_output_adapter@D@__crt_stdio_output@@@__crt_stdio_output@@IAE@ABV?$string_output_adapter@D@1@AB_KABQBDABQAU__crt_locale_pointers@@ABQAD@Z 1005be40 f i libucrtd:output.obj
 0001:0005ae90       ??$?0ABV?$string_output_adapter@_W@__crt_stdio_output@@AB_KABQB_WABQAU__crt_locale_pointers@@ABQAD@?$format_validation_base@_WV?$string_output_adapter@_W@__crt_stdio_output@@@__crt_stdio_output@@IAE@ABV?$string_output_adapter@_W@1@AB_KABQB_WABQAU__crt_locale_pointers@@ABQAD@Z 1005be90 f i libucrtd:output.obj
 0001:0005aec0       ??$?0ABV?$string_output_adapter@_W@__crt_stdio_output@@AB_KABQB_WABQAU__crt_locale_pointers@@ABQAD@?$positional_parameter_base@_WV?$string_output_adapter@_W@__crt_stdio_output@@@__crt_stdio_output@@IAE@ABV?$string_output_adapter@_W@1@AB_KABQB_WABQAU__crt_locale_pointers@@ABQAD@Z 1005bec0 f i libucrtd:output.obj
 0001:0005af40       ??$?0ABV?$string_output_adapter@_W@__crt_stdio_output@@AB_KABQB_WABQAU__crt_locale_pointers@@ABQAD@?$standard_base@_WV?$string_output_adapter@_W@__crt_stdio_output@@@__crt_stdio_output@@IAE@ABV?$string_output_adapter@_W@1@AB_KABQB_WABQAU__crt_locale_pointers@@ABQAD@Z 1005bf40 f i libucrtd:output.obj
 0001:0005e1f0       ??$count@D@formatting_buffer@__crt_stdio_output@@QBEIXZ 1005f1f0 f i libucrtd:output.obj
 0001:0005e230       ??$count@_W@formatting_buffer@__crt_stdio_output@@QBEIXZ 1005f230 f i libucrtd:output.obj
 0001:0005e270       ??$data@D@formatting_buffer@__crt_stdio_output@@QAEPADXZ 1005f270 f i libucrtd:output.obj
 0001:0005e2b0       ??$data@_W@formatting_buffer@__crt_stdio_output@@QAEPA_WXZ 1005f2b0 f i libucrtd:output.obj
 0001:0005e2f0       ??$ensure_buffer_is_big_enough@D@formatting_buffer@__crt_stdio_output@@QAE_NI@Z 1005f2f0 f i libucrtd:output.obj
 0001:0005e3d0       ??$ensure_buffer_is_big_enough@_W@formatting_buffer@__crt_stdio_output@@QAE_NI@Z 1005f3d0 f i libucrtd:output.obj
 0001:0005e4c0       ??$extract_argument_from_va_list@C_J@?$positional_parameter_base@DV?$stream_output_adapter@D@__crt_stdio_output@@@__crt_stdio_output@@IAE_NAA_J@Z 1005f4c0 f i libucrtd:output.obj
 0001:0005e600       ??$extract_argument_from_va_list@C_J@?$positional_parameter_base@DV?$string_output_adapter@D@__crt_stdio_output@@@__crt_stdio_output@@IAE_NAA_J@Z 1005f600 f i libucrtd:output.obj
 0001:0005e740       ??$extract_argument_from_va_list@C_J@?$positional_parameter_base@_WV?$stream_output_adapter@_W@__crt_stdio_output@@@__crt_stdio_output@@IAE_NAA_J@Z 1005f740 f i libucrtd:output.obj
 0001:0005e880       ??$extract_argument_from_va_list@C_J@?$positional_parameter_base@_WV?$string_output_adapter@_W@__crt_stdio_output@@@__crt_stdio_output@@IAE_NAA_J@Z 1005f880 f i libucrtd:output.obj
 0001:0005e9c0       ??$extract_argument_from_va_list@C_J@?$standard_base@DV?$stream_output_adapter@D@__crt_stdio_output@@@__crt_stdio_output@@IAE_NAA_J@Z 1005f9c0 f i libucrtd:output.obj
 0001:0005e9f0       ??$extract_argument_from_va_list@C_J@?$standard_base@DV?$string_output_adapter@D@__crt_stdio_output@@@__crt_stdio_output@@IAE_NAA_J@Z 1005f9f0 f i libucrtd:output.obj
 0001:0005ea20       ??$extract_argument_from_va_list@C_J@?$standard_base@_WV?$stream_output_adapter@_W@__crt_stdio_output@@@__crt_stdio_output@@IAE_NAA_J@Z 1005fa20 f i libucrtd:output.obj
 0001:0005ea50       ??$extract_argument_from_va_list@C_J@?$standard_base@_WV?$string_output_adapter@_W@__crt_stdio_output@@@__crt_stdio_output@@IAE_NAA_J@Z 1005fa50 f i libucrtd:output.obj
 0001:0005ea80       ??$extract_argument_from_va_list@E_J@?$positional_parameter_base@DV?$stream_output_adapter@D@__crt_stdio_output@@@__crt_stdio_output@@IAE_NAA_J@Z 1005fa80 f i libucrtd:output.obj
 0001:0005ebc0       ??$extract_argument_from_va_list@E_J@?$positional_parameter_base@DV?$string_output_adapter@D@__crt_stdio_output@@@__crt_stdio_output@@IAE_NAA_J@Z 1005fbc0 f i libucrtd:output.obj
 0001:0005ed00       ??$extract_argument_from_va_list@E_J@?$positional_parameter_base@_WV?$stream_output_adapter@_W@__crt_stdio_output@@@__crt_stdio_output@@IAE_NAA_J@Z 1005fd00 f i libucrtd:output.obj
 0001:0005ee40       ??$extract_argument_from_va_list@E_J@?$positional_parameter_base@_WV?$string_output_adapter@_W@__crt_stdio_output@@@__crt_stdio_output@@IAE_NAA_J@Z 1005fe40 f i libucrtd:output.obj
 0001:0005ef80       ??$extract_argument_from_va_list@E_J@?$standard_base@DV?$stream_output_adapter@D@__crt_stdio_output@@@__crt_stdio_output@@IAE_NAA_J@Z 1005ff80 f i libucrtd:output.obj
 0001:0005efb0       ??$extract_argument_from_va_list@E_J@?$standard_base@DV?$string_output_adapter@D@__crt_stdio_output@@@__crt_stdio_output@@IAE_NAA_J@Z 1005ffb0 f i libucrtd:output.obj
 0001:0005efe0       ??$extract_argument_from_va_list@E_J@?$standard_base@_WV?$stream_output_adapter@_W@__crt_stdio_output@@@__crt_stdio_output@@IAE_NAA_J@Z 1005ffe0 f i libucrtd:output.obj
 0001:0005f010       ??$extract_argument_from_va_list@E_J@?$standard_base@_WV?$string_output_adapter@_W@__crt_stdio_output@@@__crt_stdio_output@@IAE_NAA_J@Z 10060010 f i libucrtd:output.obj
 0001:0005f040       ??$extract_argument_from_va_list@F_J@?$positional_parameter_base@DV?$stream_output_adapter@D@__crt_stdio_output@@@__crt_stdio_output@@IAE_NAA_J@Z 10060040 f i libucrtd:output.obj
 0001:0005f170       ??$extract_argument_from_va_list@F_J@?$positional_parameter_base@DV?$string_output_adapter@D@__crt_stdio_output@@@__crt_stdio_output@@IAE_NAA_J@Z 10060170 f i libucrtd:output.obj
 0001:0005f2a0       ??$extract_argument_from_va_list@F_J@?$positional_parameter_base@_WV?$stream_output_adapter@_W@__crt_stdio_output@@@__crt_stdio_output@@IAE_NAA_J@Z 100602a0 f i libucrtd:output.obj
 0001:0005f3d0       ??$extract_argument_from_va_list@F_J@?$positional_parameter_base@_WV?$string_output_adapter@_W@__crt_stdio_output@@@__crt_stdio_output@@IAE_NAA_J@Z 100603d0 f i libucrtd:output.obj
 0001:0005f500       ??$extract_argument_from_va_list@F_J@?$standard_base@DV?$stream_output_adapter@D@__crt_stdio_output@@@__crt_stdio_output@@IAE_NAA_J@Z 10060500 f i libucrtd:output.obj
 0001:0005f530       ??$extract_argument_from_va_list@F_J@?$standard_base@DV?$string_output_adapter@D@__crt_stdio_output@@@__crt_stdio_output@@IAE_NAA_J@Z 10060530 f i libucrtd:output.obj
 0001:0005f560       ??$extract_argument_from_va_list@F_J@?$standard_base@_WV?$stream_output_adapter@_W@__crt_stdio_output@@@__crt_stdio_output@@IAE_NAA_J@Z 10060560 f i libucrtd:output.obj
 0001:0005f590       ??$extract_argument_from_va_list@F_J@?$standard_base@_WV?$string_output_adapter@_W@__crt_stdio_output@@@__crt_stdio_output@@IAE_NAA_J@Z 10060590 f i libucrtd:output.obj
 0001:0005f5c0       ??$extract_argument_from_va_list@GD@?$positional_parameter_base@DV?$stream_output_adapter@D@__crt_stdio_output@@@__crt_stdio_output@@IAE_NAAD@Z 100605c0 f i libucrtd:output.obj
 0001:0005f6f0       ??$extract_argument_from_va_list@GD@?$positional_parameter_base@DV?$string_output_adapter@D@__crt_stdio_output@@@__crt_stdio_output@@IAE_NAAD@Z 100606f0 f i libucrtd:output.obj
 0001:0005f820       ??$extract_argument_from_va_list@GD@?$standard_base@DV?$stream_output_adapter@D@__crt_stdio_output@@@__crt_stdio_output@@IAE_NAAD@Z 10060820 f i libucrtd:output.obj
 0001:0005f850       ??$extract_argument_from_va_list@GD@?$standard_base@DV?$string_output_adapter@D@__crt_stdio_output@@@__crt_stdio_output@@IAE_NAAD@Z 10060850 f i libucrtd:output.obj
 0001:0005f880       ??$extract_argument_from_va_list@G_J@?$positional_parameter_base@DV?$stream_output_adapter@D@__crt_stdio_output@@@__crt_stdio_output@@IAE_NAA_J@Z 10060880 f i libucrtd:output.obj
 0001:0005f9c0       ??$extract_argument_from_va_list@G_J@?$positional_parameter_base@DV?$string_output_adapter@D@__crt_stdio_output@@@__crt_stdio_output@@IAE_NAA_J@Z 100609c0 f i libucrtd:output.obj
 0001:0005fb00       ??$extract_argument_from_va_list@G_J@?$positional_parameter_base@_WV?$stream_output_adapter@_W@__crt_stdio_output@@@__crt_stdio_output@@IAE_NAA_J@Z 10060b00 f i libucrtd:output.obj
 0001:0005fc40       ??$extract_argument_from_va_list@G_J@?$positional_parameter_base@_WV?$string_output_adapter@_W@__crt_stdio_output@@@__crt_stdio_output@@IAE_NAA_J@Z 10060c40 f i libucrtd:output.obj
 0001:0005fd80       ??$extract_argument_from_va_list@G_J@?$standard_base@DV?$stream_output_adapter@D@__crt_stdio_output@@@__crt_stdio_output@@IAE_NAA_J@Z 10060d80 f i libucrtd:output.obj
 0001:0005fdb0       ??$extract_argument_from_va_list@G_J@?$standard_base@DV?$string_output_adapter@D@__crt_stdio_output@@@__crt_stdio_output@@IAE_NAA_J@Z 10060db0 f i libucrtd:output.obj
 0001:0005fde0       ??$extract_argument_from_va_list@G_J@?$standard_base@_WV?$stream_output_adapter@_W@__crt_stdio_output@@@__crt_stdio_output@@IAE_NAA_J@Z 10060de0 f i libucrtd:output.obj
 0001:0005fe10       ??$extract_argument_from_va_list@G_J@?$standard_base@_WV?$string_output_adapter@_W@__crt_stdio_output@@@__crt_stdio_output@@IAE_NAA_J@Z 10060e10 f i libucrtd:output.obj
 0001:0005fe40       ??$extract_argument_from_va_list@H_J@?$positional_parameter_base@DV?$stream_output_adapter@D@__crt_stdio_output@@@__crt_stdio_output@@IAE_NAA_J@Z 10060e40 f i libucrtd:output.obj
 0001:0005ff70       ??$extract_argument_from_va_list@H_J@?$positional_parameter_base@DV?$string_output_adapter@D@__crt_stdio_output@@@__crt_stdio_output@@IAE_NAA_J@Z 10060f70 f i libucrtd:output.obj
 0001:000600a0       ??$extract_argument_from_va_list@H_J@?$positional_parameter_base@_WV?$stream_output_adapter@_W@__crt_stdio_output@@@__crt_stdio_output@@IAE_NAA_J@Z 100610a0 f i libucrtd:output.obj
 0001:000601d0       ??$extract_argument_from_va_list@H_J@?$positional_parameter_base@_WV?$string_output_adapter@_W@__crt_stdio_output@@@__crt_stdio_output@@IAE_NAA_J@Z 100611d0 f i libucrtd:output.obj
 0001:00060300       ??$extract_argument_from_va_list@H_J@?$standard_base@DV?$stream_output_adapter@D@__crt_stdio_output@@@__crt_stdio_output@@IAE_NAA_J@Z 10061300 f i libucrtd:output.obj
 0001:00060330       ??$extract_argument_from_va_list@H_J@?$standard_base@DV?$string_output_adapter@D@__crt_stdio_output@@@__crt_stdio_output@@IAE_NAA_J@Z 10061330 f i libucrtd:output.obj
 0001:00060360       ??$extract_argument_from_va_list@H_J@?$standard_base@_WV?$stream_output_adapter@_W@__crt_stdio_output@@@__crt_stdio_output@@IAE_NAA_J@Z 10061360 f i libucrtd:output.obj
 0001:00060390       ??$extract_argument_from_va_list@H_J@?$standard_base@_WV?$string_output_adapter@_W@__crt_stdio_output@@@__crt_stdio_output@@IAE_NAA_J@Z 10061390 f i libucrtd:output.obj
 0001:000603c0       ??$extract_argument_from_va_list@I_J@?$positional_parameter_base@DV?$stream_output_adapter@D@__crt_stdio_output@@@__crt_stdio_output@@IAE_NAA_J@Z 100613c0 f i libucrtd:output.obj
 0001:000604f0       ??$extract_argument_from_va_list@I_J@?$positional_parameter_base@DV?$string_output_adapter@D@__crt_stdio_output@@@__crt_stdio_output@@IAE_NAA_J@Z 100614f0 f i libucrtd:output.obj
 0001:00060620       ??$extract_argument_from_va_list@I_J@?$positional_parameter_base@_WV?$stream_output_adapter@_W@__crt_stdio_output@@@__crt_stdio_output@@IAE_NAA_J@Z 10061620 f i libucrtd:output.obj
 0001:00060750       ??$extract_argument_from_va_list@I_J@?$positional_parameter_base@_WV?$string_output_adapter@_W@__crt_stdio_output@@@__crt_stdio_output@@IAE_NAA_J@Z 10061750 f i libucrtd:output.obj
 0001:00060880       ??$extract_argument_from_va_list@I_J@?$standard_base@DV?$stream_output_adapter@D@__crt_stdio_output@@@__crt_stdio_output@@IAE_NAA_J@Z 10061880 f i libucrtd:output.obj
 0001:000608b0       ??$extract_argument_from_va_list@I_J@?$standard_base@DV?$string_output_adapter@D@__crt_stdio_output@@@__crt_stdio_output@@IAE_NAA_J@Z 100618b0 f i libucrtd:output.obj
 0001:000608e0       ??$extract_argument_from_va_list@I_J@?$standard_base@_WV?$stream_output_adapter@_W@__crt_stdio_output@@@__crt_stdio_output@@IAE_NAA_J@Z 100618e0 f i libucrtd:output.obj
 0001:00060910       ??$extract_argument_from_va_list@I_J@?$standard_base@_WV?$string_output_adapter@_W@__crt_stdio_output@@@__crt_stdio_output@@IAE_NAA_J@Z 10061910 f i libucrtd:output.obj
 0001:00060940       ??$extract_argument_from_va_list@PADPAD@?$positional_parameter_base@DV?$stream_output_adapter@D@__crt_stdio_output@@@__crt_stdio_output@@IAE_NAAPAD@Z 10061940 f i libucrtd:output.obj
 0001:00060a70       ??$extract_argument_from_va_list@PADPAD@?$positional_parameter_base@DV?$string_output_adapter@D@__crt_stdio_output@@@__crt_stdio_output@@IAE_NAAPAD@Z 10061a70 f i libucrtd:output.obj
 0001:00060ba0       ??$extract_argument_from_va_list@PADPAD@?$positional_parameter_base@_WV?$stream_output_adapter@_W@__crt_stdio_output@@@__crt_stdio_output@@IAE_NAAPAD@Z 10061ba0 f i libucrtd:output.obj
 0001:00060cd0       ??$extract_argument_from_va_list@PADPAD@?$positional_parameter_base@_WV?$string_output_adapter@_W@__crt_stdio_output@@@__crt_stdio_output@@IAE_NAAPAD@Z 10061cd0 f i libucrtd:output.obj
 0001:00060e00       ??$extract_argument_from_va_list@PADPAD@?$standard_base@DV?$stream_output_adapter@D@__crt_stdio_output@@@__crt_stdio_output@@IAE_NAAPAD@Z 10061e00 f i libucrtd:output.obj
 0001:00060e30       ??$extract_argument_from_va_list@PADPAD@?$standard_base@DV?$string_output_adapter@D@__crt_stdio_output@@@__crt_stdio_output@@IAE_NAAPAD@Z 10061e30 f i libucrtd:output.obj
 0001:00060e60       ??$extract_argument_from_va_list@PADPAD@?$standard_base@_WV?$stream_output_adapter@_W@__crt_stdio_output@@@__crt_stdio_output@@IAE_NAAPAD@Z 10061e60 f i libucrtd:output.obj
 0001:00060e90       ??$extract_argument_from_va_list@PADPAD@?$standard_base@_WV?$string_output_adapter@_W@__crt_stdio_output@@@__crt_stdio_output@@IAE_NAAPAD@Z 10061e90 f i libucrtd:output.obj
 0001:00060ec0       ??$extract_argument_from_va_list@PAUansi_string@?1??type_case_Z@?$output_processor@DV?$stream_output_adapter@D@__crt_stdio_output@@V?$format_validation_base@DV?$stream_output_adapter@D@__crt_stdio_output@@@2@@__crt_stdio_output@@AAE_NXZ@PAU1?1??234@AAE_NXZ@@?$standard_base@DV?$stream_output_adapter@D@__crt_stdio_output@@@__crt_stdio_output@@IAE_NAAPAUansi_string@?1??type_case_Z@?$output_processor@DV?$stream_output_adapter@D@__crt_stdio_output@@V?$format_validation_base@DV?$stream_output_adapter@D@__crt_stdio_output@@@2@@1@AAE_NXZ@@Z 10061ec0 f i libucrtd:output.obj
 0001:00060ef0       ??$extract_argument_from_va_list@PAUansi_string@?1??type_case_Z@?$output_processor@DV?$stream_output_adapter@D@__crt_stdio_output@@V?$positional_parameter_base@DV?$stream_output_adapter@D@__crt_stdio_output@@@2@@__crt_stdio_output@@AAE_NXZ@PAU1?1??234@AAE_NXZ@@?$positional_parameter_base@DV?$stream_output_adapter@D@__crt_stdio_output@@@__crt_stdio_output@@IAE_NAAPAUansi_string@?1??type_case_Z@?$output_processor@DV?$stream_output_adapter@D@__crt_stdio_output@@V?$positional_parameter_base@DV?$stream_output_adapter@D@__crt_stdio_output@@@2@@1@AAE_NXZ@@Z 10061ef0 f i libucrtd:output.obj
 0001:00061020       ??$extract_argument_from_va_list@PAUansi_string@?1??type_case_Z@?$output_processor@DV?$stream_output_adapter@D@__crt_stdio_output@@V?$positional_parameter_base@DV?$stream_output_adapter@D@__crt_stdio_output@@@2@@__crt_stdio_output@@AAE_NXZ@PAU1?1??234@AAE_NXZ@@?$standard_base@DV?$stream_output_adapter@D@__crt_stdio_output@@@__crt_stdio_output@@IAE_NAAPAUansi_string@?1??type_case_Z@?$output_processor@DV?$stream_output_adapter@D@__crt_stdio_output@@V?$positional_parameter_base@DV?$stream_output_adapter@D@__crt_stdio_output@@@2@@1@AAE_NXZ@@Z 10062020 f i libucrtd:output.obj
 0001:00061050       ??$extract_argument_from_va_list@PAUansi_string@?1??type_case_Z@?$output_processor@DV?$stream_output_adapter@D@__crt_stdio_output@@V?$standard_base@DV?$stream_output_adapter@D@__crt_stdio_output@@@2@@__crt_stdio_output@@AAE_NXZ@PAU1?1??234@AAE_NXZ@@?$standard_base@DV?$stream_output_adapter@D@__crt_stdio_output@@@__crt_stdio_output@@IAE_NAAPAUansi_string@?1??type_case_Z@?$output_processor@DV?$stream_output_adapter@D@__crt_stdio_output@@V?$standard_base@DV?$stream_output_adapter@D@__crt_stdio_output@@@2@@1@AAE_NXZ@@Z 10062050 f i libucrtd:output.obj
 0001:00061080       ??$extract_argument_from_va_list@PAUansi_string@?1??type_case_Z@?$output_processor@DV?$string_output_adapter@D@__crt_stdio_output@@V?$format_validation_base@DV?$string_output_adapter@D@__crt_stdio_output@@@2@@__crt_stdio_output@@AAE_NXZ@PAU1?1??234@AAE_NXZ@@?$standard_base@DV?$string_output_adapter@D@__crt_stdio_output@@@__crt_stdio_output@@IAE_NAAPAUansi_string@?1??type_case_Z@?$output_processor@DV?$string_output_adapter@D@__crt_stdio_output@@V?$format_validation_base@DV?$string_output_adapter@D@__crt_stdio_output@@@2@@1@AAE_NXZ@@Z 10062080 f i libucrtd:output.obj
 0001:000610b0       ??$extract_argument_from_va_list@PAUansi_string@?1??type_case_Z@?$output_processor@DV?$string_output_adapter@D@__crt_stdio_output@@V?$positional_parameter_base@DV?$string_output_adapter@D@__crt_stdio_output@@@2@@__crt_stdio_output@@AAE_NXZ@PAU1?1??234@AAE_NXZ@@?$positional_parameter_base@DV?$string_output_adapter@D@__crt_stdio_output@@@__crt_stdio_output@@IAE_NAAPAUansi_string@?1??type_case_Z@?$output_processor@DV?$string_output_adapter@D@__crt_stdio_output@@V?$positional_parameter_base@DV?$string_output_adapter@D@__crt_stdio_output@@@2@@1@AAE_NXZ@@Z 100620b0 f i libucrtd:output.obj
 0001:000611e0       ??$extract_argument_from_va_list@PAUansi_string@?1??type_case_Z@?$output_processor@DV?$string_output_adapter@D@__crt_stdio_output@@V?$positional_parameter_base@DV?$string_output_adapter@D@__crt_stdio_output@@@2@@__crt_stdio_output@@AAE_NXZ@PAU1?1??234@AAE_NXZ@@?$standard_base@DV?$string_output_adapter@D@__crt_stdio_output@@@__crt_stdio_output@@IAE_NAAPAUansi_string@?1??type_case_Z@?$output_processor@DV?$string_output_adapter@D@__crt_stdio_output@@V?$positional_parameter_base@DV?$string_output_adapter@D@__crt_stdio_output@@@2@@1@AAE_NXZ@@Z 100621e0 f i libucrtd:output.obj
 0001:00061210       ??$extract_argument_from_va_list@PAUansi_string@?1??type_case_Z@?$output_processor@DV?$string_output_adapter@D@__crt_stdio_output@@V?$standard_base@DV?$string_output_adapter@D@__crt_stdio_output@@@2@@__crt_stdio_output@@AAE_NXZ@PAU1?1??234@AAE_NXZ@@?$standard_base@DV?$string_output_adapter@D@__crt_stdio_output@@@__crt_stdio_output@@IAE_NAAPAUansi_string@?1??type_case_Z@?$output_processor@DV?$string_output_adapter@D@__crt_stdio_output@@V?$standard_base@DV?$string_output_adapter@D@__crt_stdio_output@@@2@@1@AAE_NXZ@@Z 10062210 f i libucrtd:output.obj
 0001:00061240       ??$extract_argument_from_va_list@PAUansi_string@?1??type_case_Z@?$output_processor@_WV?$stream_output_adapter@_W@__crt_stdio_output@@V?$format_validation_base@_WV?$stream_output_adapter@_W@__crt_stdio_output@@@2@@__crt_stdio_output@@AAE_NXZ@PAU1?1??234@AAE_NXZ@@?$standard_base@_WV?$stream_output_adapter@_W@__crt_stdio_output@@@__crt_stdio_output@@IAE_NAAPAUansi_string@?1??type_case_Z@?$output_processor@_WV?$stream_output_adapter@_W@__crt_stdio_output@@V?$format_validation_base@_WV?$stream_output_adapter@_W@__crt_stdio_output@@@2@@1@AAE_NXZ@@Z 10062240 f i libucrtd:output.obj
 0001:00061270       ??$extract_argument_from_va_list@PAUansi_string@?1??type_case_Z@?$output_processor@_WV?$stream_output_adapter@_W@__crt_stdio_output@@V?$positional_parameter_base@_WV?$stream_output_adapter@_W@__crt_stdio_output@@@2@@__crt_stdio_output@@AAE_NXZ@PAU1?1??234@AAE_NXZ@@?$positional_parameter_base@_WV?$stream_output_adapter@_W@__crt_stdio_output@@@__crt_stdio_output@@IAE_NAAPAUansi_string@?1??type_case_Z@?$output_processor@_WV?$stream_output_adapter@_W@__crt_stdio_output@@V?$positional_parameter_base@_WV?$stream_output_adapter@_W@__crt_stdio_output@@@2@@1@AAE_NXZ@@Z 10062270 f i libucrtd:output.obj
 0001:000613a0       ??$extract_argument_from_va_list@PAUansi_string@?1??type_case_Z@?$output_processor@_WV?$stream_output_adapter@_W@__crt_stdio_output@@V?$positional_parameter_base@_WV?$stream_output_adapter@_W@__crt_stdio_output@@@2@@__crt_stdio_output@@AAE_NXZ@PAU1?1??234@AAE_NXZ@@?$standard_base@_WV?$stream_output_adapter@_W@__crt_stdio_output@@@__crt_stdio_output@@IAE_NAAPAUansi_string@?1??type_case_Z@?$output_processor@_WV?$stream_output_adapter@_W@__crt_stdio_output@@V?$positional_parameter_base@_WV?$stream_output_adapter@_W@__crt_stdio_output@@@2@@1@AAE_NXZ@@Z 100623a0 f i libucrtd:output.obj
 0001:000613d0       ??$extract_argument_from_va_list@PAUansi_string@?1??type_case_Z@?$output_processor@_WV?$stream_output_adapter@_W@__crt_stdio_output@@V?$standard_base@_WV?$stream_output_adapter@_W@__crt_stdio_output@@@2@@__crt_stdio_output@@AAE_NXZ@PAU1?1??234@AAE_NXZ@@?$standard_base@_WV?$stream_output_adapter@_W@__crt_stdio_output@@@__crt_stdio_output@@IAE_NAAPAUansi_string@?1??type_case_Z@?$output_processor@_WV?$stream_output_adapter@_W@__crt_stdio_output@@V?$standard_base@_WV?$stream_output_adapter@_W@__crt_stdio_output@@@2@@1@AAE_NXZ@@Z 100623d0 f i libucrtd:output.obj
 0001:00061400       ??$extract_argument_from_va_list@PAUansi_string@?1??type_case_Z@?$output_processor@_WV?$string_output_adapter@_W@__crt_stdio_output@@V?$format_validation_base@_WV?$string_output_adapter@_W@__crt_stdio_output@@@2@@__crt_stdio_output@@AAE_NXZ@PAU1?1??234@AAE_NXZ@@?$standard_base@_WV?$string_output_adapter@_W@__crt_stdio_output@@@__crt_stdio_output@@IAE_NAAPAUansi_string@?1??type_case_Z@?$output_processor@_WV?$string_output_adapter@_W@__crt_stdio_output@@V?$format_validation_base@_WV?$string_output_adapter@_W@__crt_stdio_output@@@2@@1@AAE_NXZ@@Z 10062400 f i libucrtd:output.obj
 0001:00061430       ??$extract_argument_from_va_list@PAUansi_string@?1??type_case_Z@?$output_processor@_WV?$string_output_adapter@_W@__crt_stdio_output@@V?$positional_parameter_base@_WV?$string_output_adapter@_W@__crt_stdio_output@@@2@@__crt_stdio_output@@AAE_NXZ@PAU1?1??234@AAE_NXZ@@?$positional_parameter_base@_WV?$string_output_adapter@_W@__crt_stdio_output@@@__crt_stdio_output@@IAE_NAAPAUansi_string@?1??type_case_Z@?$output_processor@_WV?$string_output_adapter@_W@__crt_stdio_output@@V?$positional_parameter_base@_WV?$string_output_adapter@_W@__crt_stdio_output@@@2@@1@AAE_NXZ@@Z 10062430 f i libucrtd:output.obj
 0001:00061560       ??$extract_argument_from_va_list@PAUansi_string@?1??type_case_Z@?$output_processor@_WV?$string_output_adapter@_W@__crt_stdio_output@@V?$positional_parameter_base@_WV?$string_output_adapter@_W@__crt_stdio_output@@@2@@__crt_stdio_output@@AAE_NXZ@PAU1?1??234@AAE_NXZ@@?$standard_base@_WV?$string_output_adapter@_W@__crt_stdio_output@@@__crt_stdio_output@@IAE_NAAPAUansi_string@?1??type_case_Z@?$output_processor@_WV?$string_output_adapter@_W@__crt_stdio_output@@V?$positional_parameter_base@_WV?$string_output_adapter@_W@__crt_stdio_output@@@2@@1@AAE_NXZ@@Z 10062560 f i libucrtd:output.obj
 0001:00061590       ??$extract_argument_from_va_list@PAUansi_string@?1??type_case_Z@?$output_processor@_WV?$string_output_adapter@_W@__crt_stdio_output@@V?$standard_base@_WV?$string_output_adapter@_W@__crt_stdio_output@@@2@@__crt_stdio_output@@AAE_NXZ@PAU1?1??234@AAE_NXZ@@?$standard_base@_WV?$string_output_adapter@_W@__crt_stdio_output@@@__crt_stdio_output@@IAE_NAAPAUansi_string@?1??type_case_Z@?$output_processor@_WV?$string_output_adapter@_W@__crt_stdio_output@@V?$standard_base@_WV?$string_output_adapter@_W@__crt_stdio_output@@@2@@1@AAE_NXZ@@Z 10062590 f i libucrtd:output.obj
 0001:000615c0       ??$extract_argument_from_va_list@PAXPAX@?$positional_parameter_base@DV?$stream_output_adapter@D@__crt_stdio_output@@@__crt_stdio_output@@IAE_NAAPAX@Z 100625c0 f i libucrtd:output.obj
 0001:000616f0       ??$extract_argument_from_va_list@PAXPAX@?$positional_parameter_base@DV?$string_output_adapter@D@__crt_stdio_output@@@__crt_stdio_output@@IAE_NAAPAX@Z 100626f0 f i libucrtd:output.obj
 0001:00061820       ??$extract_argument_from_va_list@PAXPAX@?$positional_parameter_base@_WV?$stream_output_adapter@_W@__crt_stdio_output@@@__crt_stdio_output@@IAE_NAAPAX@Z 10062820 f i libucrtd:output.obj
 0001:00061950       ??$extract_argument_from_va_list@PAXPAX@?$positional_parameter_base@_WV?$string_output_adapter@_W@__crt_stdio_output@@@__crt_stdio_output@@IAE_NAAPAX@Z 10062950 f i libucrtd:output.obj
 0001:00061a80       ??$extract_argument_from_va_list@PAXPAX@?$standard_base@DV?$stream_output_adapter@D@__crt_stdio_output@@@__crt_stdio_output@@IAE_NAAPAX@Z 10062a80 f i libucrtd:output.obj
 0001:00061ab0       ??$extract_argument_from_va_list@PAXPAX@?$standard_base@DV?$string_output_adapter@D@__crt_stdio_output@@@__crt_stdio_output@@IAE_NAAPAX@Z 10062ab0 f i libucrtd:output.obj
 0001:00061ae0       ??$extract_argument_from_va_list@PAXPAX@?$standard_base@_WV?$stream_output_adapter@_W@__crt_stdio_output@@@__crt_stdio_output@@IAE_NAAPAX@Z 10062ae0 f i libucrtd:output.obj
 0001:00061b10       ??$extract_argument_from_va_list@PAXPAX@?$standard_base@_WV?$string_output_adapter@_W@__crt_stdio_output@@@__crt_stdio_output@@IAE_NAAPAX@Z 10062b10 f i libucrtd:output.obj
 0001:00061b40       ??$extract_argument_from_va_list@U_CRT_DOUBLE@@U1@@?$positional_parameter_base@DV?$stream_output_adapter@D@__crt_stdio_output@@@__crt_stdio_output@@IAE_NAAU_CRT_DOUBLE@@@Z 10062b40 f i libucrtd:output.obj
 0001:00061ca0       ??$extract_argument_from_va_list@U_CRT_DOUBLE@@U1@@?$positional_parameter_base@DV?$string_output_adapter@D@__crt_stdio_output@@@__crt_stdio_output@@IAE_NAAU_CRT_DOUBLE@@@Z 10062ca0 f i libucrtd:output.obj
 0001:00061e00       ??$extract_argument_from_va_list@U_CRT_DOUBLE@@U1@@?$positional_parameter_base@_WV?$stream_output_adapter@_W@__crt_stdio_output@@@__crt_stdio_output@@IAE_NAAU_CRT_DOUBLE@@@Z 10062e00 f i libucrtd:output.obj
 0001:00061f60       ??$extract_argument_from_va_list@U_CRT_DOUBLE@@U1@@?$positional_parameter_base@_WV?$string_output_adapter@_W@__crt_stdio_output@@@__crt_stdio_output@@IAE_NAAU_CRT_DOUBLE@@@Z 10062f60 f i libucrtd:output.obj
 0001:000620c0       ??$extract_argument_from_va_list@U_CRT_DOUBLE@@U1@@?$standard_base@DV?$stream_output_adapter@D@__crt_stdio_output@@@__crt_stdio_output@@IAE_NAAU_CRT_DOUBLE@@@Z 100630c0 f i libucrtd:output.obj
 0001:00062110       ??$extract_argument_from_va_list@U_CRT_DOUBLE@@U1@@?$standard_base@DV?$string_output_adapter@D@__crt_stdio_output@@@__crt_stdio_output@@IAE_NAAU_CRT_DOUBLE@@@Z 10063110 f i libucrtd:output.obj
 0001:00062160       ??$extract_argument_from_va_list@U_CRT_DOUBLE@@U1@@?$standard_base@_WV?$stream_output_adapter@_W@__crt_stdio_output@@@__crt_stdio_output@@IAE_NAAU_CRT_DOUBLE@@@Z 10063160 f i libucrtd:output.obj
 0001:000621b0       ??$extract_argument_from_va_list@U_CRT_DOUBLE@@U1@@?$standard_base@_WV?$string_output_adapter@_W@__crt_stdio_output@@@__crt_stdio_output@@IAE_NAAU_CRT_DOUBLE@@@Z 100631b0 f i libucrtd:output.obj
 0001:00062200       ??$extract_argument_from_va_list@_J_J@?$positional_parameter_base@DV?$stream_output_adapter@D@__crt_stdio_output@@@__crt_stdio_output@@IAE_NAA_J@Z 10063200 f i libucrtd:output.obj
 0001:00062330       ??$extract_argument_from_va_list@_J_J@?$positional_parameter_base@DV?$string_output_adapter@D@__crt_stdio_output@@@__crt_stdio_output@@IAE_NAA_J@Z 10063330 f i libucrtd:output.obj
 0001:00062460       ??$extract_argument_from_va_list@_J_J@?$positional_parameter_base@_WV?$stream_output_adapter@_W@__crt_stdio_output@@@__crt_stdio_output@@IAE_NAA_J@Z 10063460 f i libucrtd:output.obj
 0001:00062590       ??$extract_argument_from_va_list@_J_J@?$positional_parameter_base@_WV?$string_output_adapter@_W@__crt_stdio_output@@@__crt_stdio_output@@IAE_NAA_J@Z 10063590 f i libucrtd:output.obj
 0001:000626c0       ??$extract_argument_from_va_list@_J_J@?$standard_base@DV?$stream_output_adapter@D@__crt_stdio_output@@@__crt_stdio_output@@IAE_NAA_J@Z 100636c0 f i libucrtd:output.obj
 0001:000626f0       ??$extract_argument_from_va_list@_J_J@?$standard_base@DV?$string_output_adapter@D@__crt_stdio_output@@@__crt_stdio_output@@IAE_NAA_J@Z 100636f0 f i libucrtd:output.obj
 0001:00062720       ??$extract_argument_from_va_list@_J_J@?$standard_base@_WV?$stream_output_adapter@_W@__crt_stdio_output@@@__crt_stdio_output@@IAE_NAA_J@Z 10063720 f i libucrtd:output.obj
 0001:00062750       ??$extract_argument_from_va_list@_J_J@?$standard_base@_WV?$string_output_adapter@_W@__crt_stdio_output@@@__crt_stdio_output@@IAE_NAA_J@Z 10063750 f i libucrtd:output.obj
 0001:00062780       ??$extract_argument_from_va_list@_K_J@?$positional_parameter_base@DV?$stream_output_adapter@D@__crt_stdio_output@@@__crt_stdio_output@@IAE_NAA_J@Z 10063780 f i libucrtd:output.obj
 0001:000628b0       ??$extract_argument_from_va_list@_K_J@?$positional_parameter_base@DV?$string_output_adapter@D@__crt_stdio_output@@@__crt_stdio_output@@IAE_NAA_J@Z 100638b0 f i libucrtd:output.obj
 0001:000629e0       ??$extract_argument_from_va_list@_K_J@?$positional_parameter_base@_WV?$stream_output_adapter@_W@__crt_stdio_output@@@__crt_stdio_output@@IAE_NAA_J@Z 100639e0 f i libucrtd:output.obj
 0001:00062b10       ??$extract_argument_from_va_list@_K_J@?$positional_parameter_base@_WV?$string_output_adapter@_W@__crt_stdio_output@@@__crt_stdio_output@@IAE_NAA_J@Z 10063b10 f i libucrtd:output.obj
 0001:00062c40       ??$extract_argument_from_va_list@_K_J@?$standard_base@DV?$stream_output_adapter@D@__crt_stdio_output@@@__crt_stdio_output@@IAE_NAA_J@Z 10063c40 f i libucrtd:output.obj
 0001:00062c70       ??$extract_argument_from_va_list@_K_J@?$standard_base@DV?$string_output_adapter@D@__crt_stdio_output@@@__crt_stdio_output@@IAE_NAA_J@Z 10063c70 f i libucrtd:output.obj
 0001:00062ca0       ??$extract_argument_from_va_list@_K_J@?$standard_base@_WV?$stream_output_adapter@_W@__crt_stdio_output@@@__crt_stdio_output@@IAE_NAA_J@Z 10063ca0 f i libucrtd:output.obj
 0001:00062cd0       ??$extract_argument_from_va_list@_K_J@?$standard_base@_WV?$string_output_adapter@_W@__crt_stdio_output@@@__crt_stdio_output@@IAE_NAA_J@Z 10063cd0 f i libucrtd:output.obj
 0001:00062d00       ??$extract_argument_from_va_list@_W_W@?$positional_parameter_base@DV?$stream_output_adapter@D@__crt_stdio_output@@@__crt_stdio_output@@IAE_NAA_W@Z 10063d00 f i libucrtd:output.obj
 0001:00062e30       ??$extract_argument_from_va_list@_W_W@?$positional_parameter_base@DV?$string_output_adapter@D@__crt_stdio_output@@@__crt_stdio_output@@IAE_NAA_W@Z 10063e30 f i libucrtd:output.obj
 0001:00062f60       ??$extract_argument_from_va_list@_W_W@?$positional_parameter_base@_WV?$stream_output_adapter@_W@__crt_stdio_output@@@__crt_stdio_output@@IAE_NAA_W@Z 10063f60 f i libucrtd:output.obj
 0001:00063090       ??$extract_argument_from_va_list@_W_W@?$positional_parameter_base@_WV?$string_output_adapter@_W@__crt_stdio_output@@@__crt_stdio_output@@IAE_NAA_W@Z 10064090 f i libucrtd:output.obj
 0001:000631c0       ??$extract_argument_from_va_list@_W_W@?$standard_base@DV?$stream_output_adapter@D@__crt_stdio_output@@@__crt_stdio_output@@IAE_NAA_W@Z 100641c0 f i libucrtd:output.obj
 0001:000631f0       ??$extract_argument_from_va_list@_W_W@?$standard_base@DV?$string_output_adapter@D@__crt_stdio_output@@@__crt_stdio_output@@IAE_NAA_W@Z 100641f0 f i libucrtd:output.obj
 0001:00063220       ??$extract_argument_from_va_list@_W_W@?$standard_base@_WV?$stream_output_adapter@_W@__crt_stdio_output@@@__crt_stdio_output@@IAE_NAA_W@Z 10064220 f i libucrtd:output.obj
 0001:00063250       ??$extract_argument_from_va_list@_W_W@?$standard_base@_WV?$string_output_adapter@_W@__crt_stdio_output@@@__crt_stdio_output@@IAE_NAA_W@Z 10064250 f i libucrtd:output.obj
 0001:00063280       ??$get_parameter_type@D@?$positional_parameter_base@DV?$stream_output_adapter@D@__crt_stdio_output@@@__crt_stdio_output@@CA?AW4parameter_type@01@PAD@Z 10064280 f i libucrtd:output.obj
 0001:00063290       ??$get_parameter_type@D@?$positional_parameter_base@DV?$string_output_adapter@D@__crt_stdio_output@@@__crt_stdio_output@@CA?AW4parameter_type@01@PAD@Z 10064290 f i libucrtd:output.obj
 0001:000632a0       ??$get_parameter_type@D@?$positional_parameter_base@_WV?$stream_output_adapter@_W@__crt_stdio_output@@@__crt_stdio_output@@CA?AW4parameter_type@01@PAD@Z 100642a0 f i libucrtd:output.obj
 0001:000632b0       ??$get_parameter_type@D@?$positional_parameter_base@_WV?$string_output_adapter@_W@__crt_stdio_output@@@__crt_stdio_output@@CA?AW4parameter_type@01@PAD@Z 100642b0 f i libucrtd:output.obj
 0001:000632c0       ??$get_parameter_type@Uansi_string@?1??type_case_Z@?$output_processor@DV?$stream_output_adapter@D@__crt_stdio_output@@V?$positional_parameter_base@DV?$stream_output_adapter@D@__crt_stdio_output@@@2@@__crt_stdio_output@@AAE_NXZ@@?$positional_parameter_base@DV?$stream_output_adapter@D@__crt_stdio_output@@@__crt_stdio_output@@CA?AW4parameter_type@01@PAUansi_string@?1??type_case_Z@?$output_processor@DV?$stream_output_adapter@D@__crt_stdio_output@@V?$positional_parameter_base@DV?$stream_output_adapter@D@__crt_stdio_output@@@2@@1@AAE_NXZ@@Z 100642c0 f i libucrtd:output.obj
 0001:000632d0       ??$get_parameter_type@Uansi_string@?1??type_case_Z@?$output_processor@DV?$string_output_adapter@D@__crt_stdio_output@@V?$positional_parameter_base@DV?$string_output_adapter@D@__crt_stdio_output@@@2@@__crt_stdio_output@@AAE_NXZ@@?$positional_parameter_base@DV?$string_output_adapter@D@__crt_stdio_output@@@__crt_stdio_output@@CA?AW4parameter_type@01@PAUansi_string@?1??type_case_Z@?$output_processor@DV?$string_output_adapter@D@__crt_stdio_output@@V?$positional_parameter_base@DV?$string_output_adapter@D@__crt_stdio_output@@@2@@1@AAE_NXZ@@Z 100642d0 f i libucrtd:output.obj
 0001:000632e0       ??$get_parameter_type@Uansi_string@?1??type_case_Z@?$output_processor@_WV?$stream_output_adapter@_W@__crt_stdio_output@@V?$positional_parameter_base@_WV?$stream_output_adapter@_W@__crt_stdio_output@@@2@@__crt_stdio_output@@AAE_NXZ@@?$positional_parameter_base@_WV?$stream_output_adapter@_W@__crt_stdio_output@@@__crt_stdio_output@@CA?AW4parameter_type@01@PAUansi_string@?1??type_case_Z@?$output_processor@_WV?$stream_output_adapter@_W@__crt_stdio_output@@V?$positional_parameter_base@_WV?$stream_output_adapter@_W@__crt_stdio_output@@@2@@1@AAE_NXZ@@Z 100642e0 f i libucrtd:output.obj
 0001:000632f0       ??$get_parameter_type@Uansi_string@?1??type_case_Z@?$output_processor@_WV?$string_output_adapter@_W@__crt_stdio_output@@V?$positional_parameter_base@_WV?$string_output_adapter@_W@__crt_stdio_output@@@2@@__crt_stdio_output@@AAE_NXZ@@?$positional_parameter_base@_WV?$string_output_adapter@_W@__crt_stdio_output@@@__crt_stdio_output@@CA?AW4parameter_type@01@PAUansi_string@?1??type_case_Z@?$output_processor@_WV?$string_output_adapter@_W@__crt_stdio_output@@V?$positional_parameter_base@_WV?$string_output_adapter@_W@__crt_stdio_output@@@2@@1@AAE_NXZ@@Z 100642f0 f i libucrtd:output.obj
 0001:00063300       ??$get_parameter_type@X@?$positional_parameter_base@DV?$stream_output_adapter@D@__crt_stdio_output@@@__crt_stdio_output@@CA?AW4parameter_type@01@PAX@Z 10064300 f i libucrtd:output.obj
 0001:00063310       ??$get_parameter_type@X@?$positional_parameter_base@DV?$string_output_adapter@D@__crt_stdio_output@@@__crt_stdio_output@@CA?AW4parameter_type@01@PAX@Z 10064310 f i libucrtd:output.obj
 0001:00063320       ??$get_parameter_type@X@?$positional_parameter_base@_WV?$stream_output_adapter@_W@__crt_stdio_output@@@__crt_stdio_output@@CA?AW4parameter_type@01@PAX@Z 10064320 f i libucrtd:output.obj
 0001:00063330       ??$get_parameter_type@X@?$positional_parameter_base@_WV?$string_output_adapter@_W@__crt_stdio_output@@@__crt_stdio_output@@CA?AW4parameter_type@01@PAX@Z 10064330 f i libucrtd:output.obj
 0001:00063340       ??$is_character_specifier@D@?$positional_parameter_base@DV?$stream_output_adapter@D@__crt_stdio_output@@@__crt_stdio_output@@CA_ND@Z 10064340 f i libucrtd:output.obj
 0001:00063370       ??$is_character_specifier@D@?$positional_parameter_base@DV?$string_output_adapter@D@__crt_stdio_output@@@__crt_stdio_output@@CA_ND@Z 10064370 f i libucrtd:output.obj
 0001:000633a0       ??$is_character_specifier@_W@?$positional_parameter_base@_WV?$stream_output_adapter@_W@__crt_stdio_output@@@__crt_stdio_output@@CA_N_W@Z 100643a0 f i libucrtd:output.obj
 0001:000633d0       ??$is_character_specifier@_W@?$positional_parameter_base@_WV?$string_output_adapter@_W@__crt_stdio_output@@@__crt_stdio_output@@CA_N_W@Z 100643d0 f i libucrtd:output.obj
 0001:00063400       ??$is_integral_specifier@D@?$positional_parameter_base@DV?$stream_output_adapter@D@__crt_stdio_output@@@__crt_stdio_output@@CA_ND@Z 10064400 f i libucrtd:output.obj
 0001:00063460       ??$is_integral_specifier@D@?$positional_parameter_base@DV?$string_output_adapter@D@__crt_stdio_output@@@__crt_stdio_output@@CA_ND@Z 10064460 f i libucrtd:output.obj
 0001:000634c0       ??$is_integral_specifier@_W@?$positional_parameter_base@_WV?$stream_output_adapter@_W@__crt_stdio_output@@@__crt_stdio_output@@CA_N_W@Z 100644c0 f i libucrtd:output.obj
 0001:00063520       ??$is_integral_specifier@_W@?$positional_parameter_base@_WV?$string_output_adapter@_W@__crt_stdio_output@@@__crt_stdio_output@@CA_N_W@Z 10064520 f i libucrtd:output.obj
 0001:00063580       ??$is_pointer_specifier@D@?$positional_parameter_base@DV?$stream_output_adapter@D@__crt_stdio_output@@@__crt_stdio_output@@CA_ND@Z 10064580 f i libucrtd:output.obj
 0001:000635b0       ??$is_pointer_specifier@D@?$positional_parameter_base@DV?$string_output_adapter@D@__crt_stdio_output@@@__crt_stdio_output@@CA_ND@Z 100645b0 f i libucrtd:output.obj
 0001:000635e0       ??$is_pointer_specifier@_W@?$positional_parameter_base@_WV?$stream_output_adapter@_W@__crt_stdio_output@@@__crt_stdio_output@@CA_N_W@Z 100645e0 f i libucrtd:output.obj
 0001:00063610       ??$is_pointer_specifier@_W@?$positional_parameter_base@_WV?$string_output_adapter@_W@__crt_stdio_output@@@__crt_stdio_output@@CA_N_W@Z 10064610 f i libucrtd:output.obj
 0001:00063640       ??$is_string_specifier@D@?$positional_parameter_base@DV?$stream_output_adapter@D@__crt_stdio_output@@@__crt_stdio_output@@CA_ND@Z 10064640 f i libucrtd:output.obj
 0001:00063670       ??$is_string_specifier@D@?$positional_parameter_base@DV?$string_output_adapter@D@__crt_stdio_output@@@__crt_stdio_output@@CA_ND@Z 10064670 f i libucrtd:output.obj
 0001:000636a0       ??$is_string_specifier@_W@?$positional_parameter_base@_WV?$stream_output_adapter@_W@__crt_stdio_output@@@__crt_stdio_output@@CA_N_W@Z 100646a0 f i libucrtd:output.obj
 0001:000636d0       ??$is_string_specifier@_W@?$positional_parameter_base@_WV?$string_output_adapter@_W@__crt_stdio_output@@@__crt_stdio_output@@CA_N_W@Z 100646d0 f i libucrtd:output.obj
 0001:00063700       ??$is_wide_character_specifier@D@__crt_stdio_output@@YA_N_KDW4length_modifier@0@@Z 10064700 f i libucrtd:output.obj
 0001:00063780       ??$is_wide_character_specifier@_W@__crt_stdio_output@@YA_N_K_WW4length_modifier@0@@Z 10064780 f i libucrtd:output.obj
 0001:00063840       ??$peek_va_arg@C@__crt_stdio_output@@YACPAD@Z 10064840 f i libucrtd:output.obj
 0001:00063860       ??$peek_va_arg@E@__crt_stdio_output@@YAEPAD@Z 10064860 f i libucrtd:output.obj
 0001:00063880       ??$peek_va_arg@F@__crt_stdio_output@@YAFPAD@Z 10064880 f i libucrtd:output.obj
 0001:000638a0       ??$peek_va_arg@G@__crt_stdio_output@@YAGPAD@Z 100648a0 f i libucrtd:output.obj
 0001:000638c0       ??$peek_va_arg@H@__crt_stdio_output@@YAHPAD@Z 100648c0 f i libucrtd:output.obj
 0001:000638e0       ??$peek_va_arg@I@__crt_stdio_output@@YAIPAD@Z 100648e0 f i libucrtd:output.obj
 0001:00063900       ??$peek_va_arg@PAD@__crt_stdio_output@@YAPADPAD@Z 10064900 f i libucrtd:output.obj
 0001:00063920       ??$peek_va_arg@PAUansi_string@?1??type_case_Z@?$output_processor@DV?$stream_output_adapter@D@__crt_stdio_output@@V?$positional_parameter_base@DV?$stream_output_adapter@D@__crt_stdio_output@@@2@@__crt_stdio_output@@AAE_NXZ@@__crt_stdio_output@@YAPAUansi_string@?1??type_case_Z@?$output_processor@DV?$stream_output_adapter@D@__crt_stdio_output@@V?$positional_parameter_base@DV?$stream_output_adapter@D@__crt_stdio_output@@@2@@0@AAE_NXZ@PAD@Z 10064920 f i libucrtd:output.obj
 0001:00063940       ??$peek_va_arg@PAUansi_string@?1??type_case_Z@?$output_processor@DV?$string_output_adapter@D@__crt_stdio_output@@V?$positional_parameter_base@DV?$string_output_adapter@D@__crt_stdio_output@@@2@@__crt_stdio_output@@AAE_NXZ@@__crt_stdio_output@@YAPAUansi_string@?1??type_case_Z@?$output_processor@DV?$string_output_adapter@D@__crt_stdio_output@@V?$positional_parameter_base@DV?$string_output_adapter@D@__crt_stdio_output@@@2@@0@AAE_NXZ@PAD@Z 10064940 f i libucrtd:output.obj
 0001:00063960       ??$peek_va_arg@PAUansi_string@?1??type_case_Z@?$output_processor@_WV?$stream_output_adapter@_W@__crt_stdio_output@@V?$positional_parameter_base@_WV?$stream_output_adapter@_W@__crt_stdio_output@@@2@@__crt_stdio_output@@AAE_NXZ@@__crt_stdio_output@@YAPAUansi_string@?1??type_case_Z@?$output_processor@_WV?$stream_output_adapter@_W@__crt_stdio_output@@V?$positional_parameter_base@_WV?$stream_output_adapter@_W@__crt_stdio_output@@@2@@0@AAE_NXZ@PAD@Z 10064960 f i libucrtd:output.obj
 0001:00063980       ??$peek_va_arg@PAUansi_string@?1??type_case_Z@?$output_processor@_WV?$string_output_adapter@_W@__crt_stdio_output@@V?$positional_parameter_base@_WV?$string_output_adapter@_W@__crt_stdio_output@@@2@@__crt_stdio_output@@AAE_NXZ@@__crt_stdio_output@@YAPAUansi_string@?1??type_case_Z@?$output_processor@_WV?$string_output_adapter@_W@__crt_stdio_output@@V?$positional_parameter_base@_WV?$string_output_adapter@_W@__crt_stdio_output@@@2@@0@AAE_NXZ@PAD@Z 10064980 f i libucrtd:output.obj
 0001:000639a0       ??$peek_va_arg@PAX@__crt_stdio_output@@YAPAXPAD@Z 100649a0 f i libucrtd:output.obj
 0001:000639c0       ??$peek_va_arg@U_CRT_DOUBLE@@@__crt_stdio_output@@YA?AU_CRT_DOUBLE@@PAD@Z 100649c0 f i libucrtd:output.obj
 0001:000639e0       ??$peek_va_arg@_J@__crt_stdio_output@@YA_JPAD@Z 100649e0 f i libucrtd:output.obj
 0001:00063a00       ??$peek_va_arg@_K@__crt_stdio_output@@YA_KPAD@Z 10064a00 f i libucrtd:output.obj
 0001:00063a20       ??$peek_va_arg@_W@__crt_stdio_output@@YA_WPAD@Z 10064a20 f i libucrtd:output.obj
 0001:00063a40       ??$puttc_nolock@ABDPAU_iobuf@@@?$__crt_char_traits@D@@SAHABD$$QAPAU_iobuf@@@Z 10064a40 f i libucrtd:output.obj
 0001:00063a60       ??$puttc_nolock@AB_WPAU_iobuf@@@?$__crt_char_traits@_W@@SAGAB_W$$QAPAU_iobuf@@@Z 10064a60 f i libucrtd:output.obj
 0001:00063a80       ??$read_va_arg@C@__crt_stdio_output@@YACAAPAD@Z 10064a80 f i libucrtd:output.obj
 0001:00063aa0       ??$read_va_arg@E@__crt_stdio_output@@YAEAAPAD@Z 10064aa0 f i libucrtd:output.obj
 0001:00063ac0       ??$read_va_arg@F@__crt_stdio_output@@YAFAAPAD@Z 10064ac0 f i libucrtd:output.obj
 0001:00063ae0       ??$read_va_arg@G@__crt_stdio_output@@YAGAAPAD@Z 10064ae0 f i libucrtd:output.obj
 0001:00063b00       ??$read_va_arg@H@__crt_stdio_output@@YAHAAPAD@Z 10064b00 f i libucrtd:output.obj
 0001:00063b20       ??$read_va_arg@I@__crt_stdio_output@@YAIAAPAD@Z 10064b20 f i libucrtd:output.obj
 0001:00063b40       ??$read_va_arg@PAD@__crt_stdio_output@@YAPADAAPAD@Z 10064b40 f i libucrtd:output.obj
 0001:00063b60       ??$read_va_arg@PAUansi_string@?1??type_case_Z@?$output_processor@DV?$stream_output_adapter@D@__crt_stdio_output@@V?$format_validation_base@DV?$stream_output_adapter@D@__crt_stdio_output@@@2@@__crt_stdio_output@@AAE_NXZ@@__crt_stdio_output@@YAPAUansi_string@?1??type_case_Z@?$output_processor@DV?$stream_output_adapter@D@__crt_stdio_output@@V?$format_validation_base@DV?$stream_output_adapter@D@__crt_stdio_output@@@2@@0@AAE_NXZ@AAPAD@Z 10064b60 f i libucrtd:output.obj
 0001:00063b80       ??$read_va_arg@PAUansi_string@?1??type_case_Z@?$output_processor@DV?$stream_output_adapter@D@__crt_stdio_output@@V?$positional_parameter_base@DV?$stream_output_adapter@D@__crt_stdio_output@@@2@@__crt_stdio_output@@AAE_NXZ@@__crt_stdio_output@@YAPAUansi_string@?1??type_case_Z@?$output_processor@DV?$stream_output_adapter@D@__crt_stdio_output@@V?$positional_parameter_base@DV?$stream_output_adapter@D@__crt_stdio_output@@@2@@0@AAE_NXZ@AAPAD@Z 10064b80 f i libucrtd:output.obj
 0001:00063ba0       ??$read_va_arg@PAUansi_string@?1??type_case_Z@?$output_processor@DV?$stream_output_adapter@D@__crt_stdio_output@@V?$standard_base@DV?$stream_output_adapter@D@__crt_stdio_output@@@2@@__crt_stdio_output@@AAE_NXZ@@__crt_stdio_output@@YAPAUansi_string@?1??type_case_Z@?$output_processor@DV?$stream_output_adapter@D@__crt_stdio_output@@V?$standard_base@DV?$stream_output_adapter@D@__crt_stdio_output@@@2@@0@AAE_NXZ@AAPAD@Z 10064ba0 f i libucrtd:output.obj
 0001:00063bc0       ??$read_va_arg@PAUansi_string@?1??type_case_Z@?$output_processor@DV?$string_output_adapter@D@__crt_stdio_output@@V?$format_validation_base@DV?$string_output_adapter@D@__crt_stdio_output@@@2@@__crt_stdio_output@@AAE_NXZ@@__crt_stdio_output@@YAPAUansi_string@?1??type_case_Z@?$output_processor@DV?$string_output_adapter@D@__crt_stdio_output@@V?$format_validation_base@DV?$string_output_adapter@D@__crt_stdio_output@@@2@@0@AAE_NXZ@AAPAD@Z 10064bc0 f i libucrtd:output.obj
 0001:00063be0       ??$read_va_arg@PAUansi_string@?1??type_case_Z@?$output_processor@DV?$string_output_adapter@D@__crt_stdio_output@@V?$positional_parameter_base@DV?$string_output_adapter@D@__crt_stdio_output@@@2@@__crt_stdio_output@@AAE_NXZ@@__crt_stdio_output@@YAPAUansi_string@?1??type_case_Z@?$output_processor@DV?$string_output_adapter@D@__crt_stdio_output@@V?$positional_parameter_base@DV?$string_output_adapter@D@__crt_stdio_output@@@2@@0@AAE_NXZ@AAPAD@Z 10064be0 f i libucrtd:output.obj
 0001:00063c00       ??$read_va_arg@PAUansi_string@?1??type_case_Z@?$output_processor@DV?$string_output_adapter@D@__crt_stdio_output@@V?$standard_base@DV?$string_output_adapter@D@__crt_stdio_output@@@2@@__crt_stdio_output@@AAE_NXZ@@__crt_stdio_output@@YAPAUansi_string@?1??type_case_Z@?$output_processor@DV?$string_output_adapter@D@__crt_stdio_output@@V?$standard_base@DV?$string_output_adapter@D@__crt_stdio_output@@@2@@0@AAE_NXZ@AAPAD@Z 10064c00 f i libucrtd:output.obj
 0001:00063c20       ??$read_va_arg@PAUansi_string@?1??type_case_Z@?$output_processor@_WV?$stream_output_adapter@_W@__crt_stdio_output@@V?$format_validation_base@_WV?$stream_output_adapter@_W@__crt_stdio_output@@@2@@__crt_stdio_output@@AAE_NXZ@@__crt_stdio_output@@YAPAUansi_string@?1??type_case_Z@?$output_processor@_WV?$stream_output_adapter@_W@__crt_stdio_output@@V?$format_validation_base@_WV?$stream_output_adapter@_W@__crt_stdio_output@@@2@@0@AAE_NXZ@AAPAD@Z 10064c20 f i libucrtd:output.obj
 0001:00063c40       ??$read_va_arg@PAUansi_string@?1??type_case_Z@?$output_processor@_WV?$stream_output_adapter@_W@__crt_stdio_output@@V?$positional_parameter_base@_WV?$stream_output_adapter@_W@__crt_stdio_output@@@2@@__crt_stdio_output@@AAE_NXZ@@__crt_stdio_output@@YAPAUansi_string@?1??type_case_Z@?$output_processor@_WV?$stream_output_adapter@_W@__crt_stdio_output@@V?$positional_parameter_base@_WV?$stream_output_adapter@_W@__crt_stdio_output@@@2@@0@AAE_NXZ@AAPAD@Z 10064c40 f i libucrtd:output.obj
 0001:00063c60       ??$read_va_arg@PAUansi_string@?1??type_case_Z@?$output_processor@_WV?$stream_output_adapter@_W@__crt_stdio_output@@V?$standard_base@_WV?$stream_output_adapter@_W@__crt_stdio_output@@@2@@__crt_stdio_output@@AAE_NXZ@@__crt_stdio_output@@YAPAUansi_string@?1??type_case_Z@?$output_processor@_WV?$stream_output_adapter@_W@__crt_stdio_output@@V?$standard_base@_WV?$stream_output_adapter@_W@__crt_stdio_output@@@2@@0@AAE_NXZ@AAPAD@Z 10064c60 f i libucrtd:output.obj
 0001:00063c80       ??$read_va_arg@PAUansi_string@?1??type_case_Z@?$output_processor@_WV?$string_output_adapter@_W@__crt_stdio_output@@V?$format_validation_base@_WV?$string_output_adapter@_W@__crt_stdio_output@@@2@@__crt_stdio_output@@AAE_NXZ@@__crt_stdio_output@@YAPAUansi_string@?1??type_case_Z@?$output_processor@_WV?$string_output_adapter@_W@__crt_stdio_output@@V?$format_validation_base@_WV?$string_output_adapter@_W@__crt_stdio_output@@@2@@0@AAE_NXZ@AAPAD@Z 10064c80 f i libucrtd:output.obj
 0001:00063ca0       ??$read_va_arg@PAUansi_string@?1??type_case_Z@?$output_processor@_WV?$string_output_adapter@_W@__crt_stdio_output@@V?$positional_parameter_base@_WV?$string_output_adapter@_W@__crt_stdio_output@@@2@@__crt_stdio_output@@AAE_NXZ@@__crt_stdio_output@@YAPAUansi_string@?1??type_case_Z@?$output_processor@_WV?$string_output_adapter@_W@__crt_stdio_output@@V?$positional_parameter_base@_WV?$string_output_adapter@_W@__crt_stdio_output@@@2@@0@AAE_NXZ@AAPAD@Z 10064ca0 f i libucrtd:output.obj
 0001:00063cc0       ??$read_va_arg@PAUansi_string@?1??type_case_Z@?$output_processor@_WV?$string_output_adapter@_W@__crt_stdio_output@@V?$standard_base@_WV?$string_output_adapter@_W@__crt_stdio_output@@@2@@__crt_stdio_output@@AAE_NXZ@@__crt_stdio_output@@YAPAUansi_string@?1??type_case_Z@?$output_processor@_WV?$string_output_adapter@_W@__crt_stdio_output@@V?$standard_base@_WV?$string_output_adapter@_W@__crt_stdio_output@@@2@@0@AAE_NXZ@AAPAD@Z 10064cc0 f i libucrtd:output.obj
 0001:00063ce0       ??$read_va_arg@PAX@__crt_stdio_output@@YAPAXAAPAD@Z 10064ce0 f i libucrtd:output.obj
 0001:00063d00       ??$read_va_arg@U_CRT_DOUBLE@@@__crt_stdio_output@@YA?AU_CRT_DOUBLE@@AAPAD@Z 10064d00 f i libucrtd:output.obj
 0001:00063d20       ??$read_va_arg@_J@__crt_stdio_output@@YA_JAAPAD@Z 10064d20 f i libucrtd:output.obj
 0001:00063d40       ??$read_va_arg@_K@__crt_stdio_output@@YA_KAAPAD@Z 10064d40 f i libucrtd:output.obj
 0001:00063d60       ??$read_va_arg@_W@__crt_stdio_output@@YA_WAAPAD@Z 10064d60 f i libucrtd:output.obj
 0001:00063d80       ??$scratch_count@D@formatting_buffer@__crt_stdio_output@@QBEIXZ 10064d80 f i libucrtd:output.obj
 0001:00063da0       ??$scratch_data@D@formatting_buffer@__crt_stdio_output@@QAEPADXZ 10064da0 f i libucrtd:output.obj
 0001:00063df0       ??$tcstol@AAPBDPAPADH@?$__crt_char_traits@D@@SAJAAPBD$$QAPAPAD$$QAH@Z 10064df0 f i libucrtd:output.obj
 0001:00063e20       ??$tcstol@AAPB_WPAPA_WH@?$__crt_char_traits@_W@@SAJAAPB_W$$QAPAPA_W$$QAH@Z 10064e20 f i libucrtd:output.obj
 0001:00063e50       ??$tcstol@PBDPAPADH@?$__crt_char_traits@D@@SAJ$$QAPBD$$QAPAPAD$$QAH@Z 10064e50 f i libucrtd:output.obj
 0001:00063e80       ??$tcstol@PB_WPAPA_WH@?$__crt_char_traits@_W@@SAJ$$QAPB_W$$QAPAPA_W$$QAH@Z 10064e80 f i libucrtd:output.obj
 0001:00063eb0       ??$type_case_integer_parse_into_buffer@I@?$output_processor@DV?$stream_output_adapter@D@__crt_stdio_output@@V?$format_validation_base@DV?$stream_output_adapter@D@__crt_stdio_output@@@2@@__crt_stdio_output@@AAEXII_N@Z 10064eb0 f i libucrtd:output.obj
 0001:00063f80       ??$type_case_integer_parse_into_buffer@I@?$output_processor@DV?$stream_output_adapter@D@__crt_stdio_output@@V?$positional_parameter_base@DV?$stream_output_adapter@D@__crt_stdio_output@@@2@@__crt_stdio_output@@AAEXII_N@Z 10064f80 f i libucrtd:output.obj
 0001:00064050       ??$type_case_integer_parse_into_buffer@I@?$output_processor@DV?$stream_output_adapter@D@__crt_stdio_output@@V?$standard_base@DV?$stream_output_adapter@D@__crt_stdio_output@@@2@@__crt_stdio_output@@AAEXII_N@Z 10065050 f i libucrtd:output.obj
 0001:00064120       ??$type_case_integer_parse_into_buffer@I@?$output_processor@DV?$string_output_adapter@D@__crt_stdio_output@@V?$format_validation_base@DV?$string_output_adapter@D@__crt_stdio_output@@@2@@__crt_stdio_output@@AAEXII_N@Z 10065120 f i libucrtd:output.obj
 0001:000641f0       ??$type_case_integer_parse_into_buffer@I@?$output_processor@DV?$string_output_adapter@D@__crt_stdio_output@@V?$positional_parameter_base@DV?$string_output_adapter@D@__crt_stdio_output@@@2@@__crt_stdio_output@@AAEXII_N@Z 100651f0 f i libucrtd:output.obj
 0001:000642c0       ??$type_case_integer_parse_into_buffer@I@?$output_processor@DV?$string_output_adapter@D@__crt_stdio_output@@V?$standard_base@DV?$string_output_adapter@D@__crt_stdio_output@@@2@@__crt_stdio_output@@AAEXII_N@Z 100652c0 f i libucrtd:output.obj
 0001:00064390       ??$type_case_integer_parse_into_buffer@I@?$output_processor@_WV?$stream_output_adapter@_W@__crt_stdio_output@@V?$format_validation_base@_WV?$stream_output_adapter@_W@__crt_stdio_output@@@2@@__crt_stdio_output@@AAEXII_N@Z 10065390 f i libucrtd:output.obj
 0001:00064470       ??$type_case_integer_parse_into_buffer@I@?$output_processor@_WV?$stream_output_adapter@_W@__crt_stdio_output@@V?$positional_parameter_base@_WV?$stream_output_adapter@_W@__crt_stdio_output@@@2@@__crt_stdio_output@@AAEXII_N@Z 10065470 f i libucrtd:output.obj
 0001:00064550       ??$type_case_integer_parse_into_buffer@I@?$output_processor@_WV?$stream_output_adapter@_W@__crt_stdio_output@@V?$standard_base@_WV?$stream_output_adapter@_W@__crt_stdio_output@@@2@@__crt_stdio_output@@AAEXII_N@Z 10065550 f i libucrtd:output.obj
 0001:00064630       ??$type_case_integer_parse_into_buffer@I@?$output_processor@_WV?$string_output_adapter@_W@__crt_stdio_output@@V?$format_validation_base@_WV?$string_output_adapter@_W@__crt_stdio_output@@@2@@__crt_stdio_output@@AAEXII_N@Z 10065630 f i libucrtd:output.obj
 0001:00064710       ??$type_case_integer_parse_into_buffer@I@?$output_processor@_WV?$string_output_adapter@_W@__crt_stdio_output@@V?$positional_parameter_base@_WV?$string_output_adapter@_W@__crt_stdio_output@@@2@@__crt_stdio_output@@AAEXII_N@Z 10065710 f i libucrtd:output.obj
 0001:000647f0       ??$type_case_integer_parse_into_buffer@I@?$output_processor@_WV?$string_output_adapter@_W@__crt_stdio_output@@V?$standard_base@_WV?$string_output_adapter@_W@__crt_stdio_output@@@2@@__crt_stdio_output@@AAEXII_N@Z 100657f0 f i libucrtd:output.obj
 0001:000648d0       ??$type_case_integer_parse_into_buffer@_K@?$output_processor@DV?$stream_output_adapter@D@__crt_stdio_output@@V?$format_validation_base@DV?$stream_output_adapter@D@__crt_stdio_output@@@2@@__crt_stdio_output@@AAEX_KI_N@Z 100658d0 f i libucrtd:output.obj
 0001:000649c0       ??$type_case_integer_parse_into_buffer@_K@?$output_processor@DV?$stream_output_adapter@D@__crt_stdio_output@@V?$positional_parameter_base@DV?$stream_output_adapter@D@__crt_stdio_output@@@2@@__crt_stdio_output@@AAEX_KI_N@Z 100659c0 f i libucrtd:output.obj
 0001:00064ab0       ??$type_case_integer_parse_into_buffer@_K@?$output_processor@DV?$stream_output_adapter@D@__crt_stdio_output@@V?$standard_base@DV?$stream_output_adapter@D@__crt_stdio_output@@@2@@__crt_stdio_output@@AAEX_KI_N@Z 10065ab0 f i libucrtd:output.obj
 0001:00064ba0       ??$type_case_integer_parse_into_buffer@_K@?$output_processor@DV?$string_output_adapter@D@__crt_stdio_output@@V?$format_validation_base@DV?$string_output_adapter@D@__crt_stdio_output@@@2@@__crt_stdio_output@@AAEX_KI_N@Z 10065ba0 f i libucrtd:output.obj
 0001:00064c90       ??$type_case_integer_parse_into_buffer@_K@?$output_processor@DV?$string_output_adapter@D@__crt_stdio_output@@V?$positional_parameter_base@DV?$string_output_adapter@D@__crt_stdio_output@@@2@@__crt_stdio_output@@AAEX_KI_N@Z 10065c90 f i libucrtd:output.obj
 0001:00064d80       ??$type_case_integer_parse_into_buffer@_K@?$output_processor@DV?$string_output_adapter@D@__crt_stdio_output@@V?$standard_base@DV?$string_output_adapter@D@__crt_stdio_output@@@2@@__crt_stdio_output@@AAEX_KI_N@Z 10065d80 f i libucrtd:output.obj
 0001:00064e70       ??$type_case_integer_parse_into_buffer@_K@?$output_processor@_WV?$stream_output_adapter@_W@__crt_stdio_output@@V?$format_validation_base@_WV?$stream_output_adapter@_W@__crt_stdio_output@@@2@@__crt_stdio_output@@AAEX_KI_N@Z 10065e70 f i libucrtd:output.obj
 0001:00064f70       ??$type_case_integer_parse_into_buffer@_K@?$output_processor@_WV?$stream_output_adapter@_W@__crt_stdio_output@@V?$positional_parameter_base@_WV?$stream_output_adapter@_W@__crt_stdio_output@@@2@@__crt_stdio_output@@AAEX_KI_N@Z 10065f70 f i libucrtd:output.obj
 0001:00065070       ??$type_case_integer_parse_into_buffer@_K@?$output_processor@_WV?$stream_output_adapter@_W@__crt_stdio_output@@V?$standard_base@_WV?$stream_output_adapter@_W@__crt_stdio_output@@@2@@__crt_stdio_output@@AAEX_KI_N@Z 10066070 f i libucrtd:output.obj
 0001:00065170       ??$type_case_integer_parse_into_buffer@_K@?$output_processor@_WV?$string_output_adapter@_W@__crt_stdio_output@@V?$format_validation_base@_WV?$string_output_adapter@_W@__crt_stdio_output@@@2@@__crt_stdio_output@@AAEX_KI_N@Z 10066170 f i libucrtd:output.obj
 0001:00065270       ??$type_case_integer_parse_into_buffer@_K@?$output_processor@_WV?$string_output_adapter@_W@__crt_stdio_output@@V?$positional_parameter_base@_WV?$string_output_adapter@_W@__crt_stdio_output@@@2@@__crt_stdio_output@@AAEX_KI_N@Z 10066270 f i libucrtd:output.obj
 0001:00065370       ??$type_case_integer_parse_into_buffer@_K@?$output_processor@_WV?$string_output_adapter@_W@__crt_stdio_output@@V?$standard_base@_WV?$string_output_adapter@_W@__crt_stdio_output@@@2@@__crt_stdio_output@@AAEX_KI_N@Z 10066370 f i libucrtd:output.obj
 0001:00065470       ??$write_multiple_characters@V?$stream_output_adapter@D@__crt_stdio_output@@D@__crt_stdio_output@@YAXABV?$stream_output_adapter@D@0@DHQAH@Z 10066470 f i libucrtd:output.obj
 0001:000654c0       ??$write_multiple_characters@V?$stream_output_adapter@_W@__crt_stdio_output@@D@__crt_stdio_output@@YAXABV?$stream_output_adapter@_W@0@DHQAH@Z 100664c0 f i libucrtd:output.obj
 0001:00065510       ??$write_multiple_characters@V?$string_output_adapter@D@__crt_stdio_output@@D@__crt_stdio_output@@YAXABV?$string_output_adapter@D@0@DHQAH@Z 10066510 f i libucrtd:output.obj
 0001:00065560       ??$write_multiple_characters@V?$string_output_adapter@_W@__crt_stdio_output@@D@__crt_stdio_output@@YAXABV?$string_output_adapter@_W@0@DHQAH@Z 10066560 f i libucrtd:output.obj
 0001:000658b0       ??0?$common_data@D@__crt_stdio_output@@IAE@XZ 100668b0 f i libucrtd:output.obj
 0001:00065960       ??0?$common_data@_W@__crt_stdio_output@@IAE@XZ 10066960 f i libucrtd:output.obj
 0001:00065a10       ??0?$output_adapter_data@DV?$stream_output_adapter@D@__crt_stdio_output@@@__crt_stdio_output@@IAE@ABV?$stream_output_adapter@D@1@_KQBDQAU__crt_locale_pointers@@QAD@Z 10066a10 f i libucrtd:output.obj
 0001:00065a70       ??0?$output_adapter_data@DV?$string_output_adapter@D@__crt_stdio_output@@@__crt_stdio_output@@IAE@ABV?$string_output_adapter@D@1@_KQBDQAU__crt_locale_pointers@@QAD@Z 10066a70 f i libucrtd:output.obj
 0001:00065ad0       ??0?$output_adapter_data@_WV?$stream_output_adapter@_W@__crt_stdio_output@@@__crt_stdio_output@@IAE@ABV?$stream_output_adapter@_W@1@_KQB_WQAU__crt_locale_pointers@@QAD@Z 10066ad0 f i libucrtd:output.obj
 0001:00065b30       ??0?$output_adapter_data@_WV?$string_output_adapter@_W@__crt_stdio_output@@@__crt_stdio_output@@IAE@ABV?$string_output_adapter@_W@1@_KQB_WQAU__crt_locale_pointers@@QAD@Z 10066b30 f i libucrtd:output.obj
 0001:00065b90       ??0?$output_processor@DV?$stream_output_adapter@D@__crt_stdio_output@@V?$format_validation_base@DV?$stream_output_adapter@D@__crt_stdio_output@@@2@@__crt_stdio_output@@QAE@ABV?$stream_output_adapter@D@1@_KQBDQAU__crt_locale_pointers@@QAD@Z 10066b90 f i libucrtd:output.obj
 0001:00065bc0       ??0?$output_processor@DV?$stream_output_adapter@D@__crt_stdio_output@@V?$positional_parameter_base@DV?$stream_output_adapter@D@__crt_stdio_output@@@2@@__crt_stdio_output@@QAE@ABV?$stream_output_adapter@D@1@_KQBDQAU__crt_locale_pointers@@QAD@Z 10066bc0 f i libucrtd:output.obj
 0001:00065bf0       ??0?$output_processor@DV?$stream_output_adapter@D@__crt_stdio_output@@V?$standard_base@DV?$stream_output_adapter@D@__crt_stdio_output@@@2@@__crt_stdio_output@@QAE@ABV?$stream_output_adapter@D@1@_KQBDQAU__crt_locale_pointers@@QAD@Z 10066bf0 f i libucrtd:output.obj
 0001:00065c20       ??0?$output_processor@DV?$string_output_adapter@D@__crt_stdio_output@@V?$format_validation_base@DV?$string_output_adapter@D@__crt_stdio_output@@@2@@__crt_stdio_output@@QAE@ABV?$string_output_adapter@D@1@_KQBDQAU__crt_locale_pointers@@QAD@Z 10066c20 f i libucrtd:output.obj
 0001:00065c50       ??0?$output_processor@DV?$string_output_adapter@D@__crt_stdio_output@@V?$positional_parameter_base@DV?$string_output_adapter@D@__crt_stdio_output@@@2@@__crt_stdio_output@@QAE@ABV?$string_output_adapter@D@1@_KQBDQAU__crt_locale_pointers@@QAD@Z 10066c50 f i libucrtd:output.obj
 0001:00065c80       ??0?$output_processor@DV?$string_output_adapter@D@__crt_stdio_output@@V?$standard_base@DV?$string_output_adapter@D@__crt_stdio_output@@@2@@__crt_stdio_output@@QAE@ABV?$string_output_adapter@D@1@_KQBDQAU__crt_locale_pointers@@QAD@Z 10066c80 f i libucrtd:output.obj
 0001:00065cb0       ??0?$output_processor@_WV?$stream_output_adapter@_W@__crt_stdio_output@@V?$format_validation_base@_WV?$stream_output_adapter@_W@__crt_stdio_output@@@2@@__crt_stdio_output@@QAE@ABV?$stream_output_adapter@_W@1@_KQB_WQAU__crt_locale_pointers@@QAD@Z 10066cb0 f i libucrtd:output.obj
 0001:00065ce0       ??0?$output_processor@_WV?$stream_output_adapter@_W@__crt_stdio_output@@V?$positional_parameter_base@_WV?$stream_output_adapter@_W@__crt_stdio_output@@@2@@__crt_stdio_output@@QAE@ABV?$stream_output_adapter@_W@1@_KQB_WQAU__crt_locale_pointers@@QAD@Z 10066ce0 f i libucrtd:output.obj
 0001:00065d10       ??0?$output_processor@_WV?$stream_output_adapter@_W@__crt_stdio_output@@V?$standard_base@_WV?$stream_output_adapter@_W@__crt_stdio_output@@@2@@__crt_stdio_output@@QAE@ABV?$stream_output_adapter@_W@1@_KQB_WQAU__crt_locale_pointers@@QAD@Z 10066d10 f i libucrtd:output.obj
 0001:00065d40       ??0?$output_processor@_WV?$string_output_adapter@_W@__crt_stdio_output@@V?$format_validation_base@_WV?$string_output_adapter@_W@__crt_stdio_output@@@2@@__crt_stdio_output@@QAE@ABV?$string_output_adapter@_W@1@_KQB_WQAU__crt_locale_pointers@@QAD@Z 10066d40 f i libucrtd:output.obj
 0001:00065d70       ??0?$output_processor@_WV?$string_output_adapter@_W@__crt_stdio_output@@V?$positional_parameter_base@_WV?$string_output_adapter@_W@__crt_stdio_output@@@2@@__crt_stdio_output@@QAE@ABV?$string_output_adapter@_W@1@_KQB_WQAU__crt_locale_pointers@@QAD@Z 10066d70 f i libucrtd:output.obj
 0001:00065da0       ??0?$output_processor@_WV?$string_output_adapter@_W@__crt_stdio_output@@V?$standard_base@_WV?$string_output_adapter@_W@__crt_stdio_output@@@2@@__crt_stdio_output@@QAE@ABV?$string_output_adapter@_W@1@_KQB_WQAU__crt_locale_pointers@@QAD@Z 10066da0 f i libucrtd:output.obj
 0001:00065dd0       ??0?$stream_output_adapter@D@__crt_stdio_output@@QAE@QAU_iobuf@@@Z 10066dd0 f i libucrtd:output.obj
 0001:00065df0       ??0?$stream_output_adapter@_W@__crt_stdio_output@@QAE@QAU_iobuf@@@Z 10066df0 f i libucrtd:output.obj
 0001:00065e10       ??0?$string_output_adapter@D@__crt_stdio_output@@QAE@QAU?$string_output_adapter_context@D@1@@Z 10066e10 f i libucrtd:output.obj
 0001:00065e30       ??0?$string_output_adapter@_W@__crt_stdio_output@@QAE@QAU?$string_output_adapter_context@_W@1@@Z 10066e30 f i libucrtd:output.obj
 0001:00065e50       ??0__acrt_stdio_temporary_buffering_guard@@QAE@QAU_iobuf@@@Z 10066e50 f i libucrtd:output.obj
 0001:00065e80       ??0__crt_deferred_errno_cache@@QAE@XZ 10066e80 f i libucrtd:output.obj
 0001:00065ea0       ??0__crt_errno_guard@@QAE@QAH@Z 10066ea0 f i libucrtd:output.obj
 0001:00065ed0       ??0formatting_buffer@__crt_stdio_output@@QAE@XZ 10066ed0 f i libucrtd:output.obj
 0001:00065f00       ??1?$common_data@D@__crt_stdio_output@@QAE@XZ 10066f00 f i libucrtd:output.obj
 0001:00065f20       ??1?$common_data@_W@__crt_stdio_output@@QAE@XZ 10066f20 f i libucrtd:output.obj
 0001:00065f40       ??1?$format_validation_base@DV?$stream_output_adapter@D@__crt_stdio_output@@@__crt_stdio_output@@QAE@XZ 10066f40 f i libucrtd:output.obj
 0001:00065f60       ??1?$format_validation_base@DV?$string_output_adapter@D@__crt_stdio_output@@@__crt_stdio_output@@QAE@XZ 10066f60 f i libucrtd:output.obj
 0001:00065f80       ??1?$format_validation_base@_WV?$stream_output_adapter@_W@__crt_stdio_output@@@__crt_stdio_output@@QAE@XZ 10066f80 f i libucrtd:output.obj
 0001:00065fa0       ??1?$format_validation_base@_WV?$string_output_adapter@_W@__crt_stdio_output@@@__crt_stdio_output@@QAE@XZ 10066fa0 f i libucrtd:output.obj
 0001:00065fc0       ??1?$output_adapter_data@DV?$stream_output_adapter@D@__crt_stdio_output@@@__crt_stdio_output@@QAE@XZ 10066fc0 f i libucrtd:output.obj
 0001:00065fe0       ??1?$output_adapter_data@DV?$string_output_adapter@D@__crt_stdio_output@@@__crt_stdio_output@@QAE@XZ 10066fe0 f i libucrtd:output.obj
 0001:00066000       ??1?$output_adapter_data@_WV?$stream_output_adapter@_W@__crt_stdio_output@@@__crt_stdio_output@@QAE@XZ 10067000 f i libucrtd:output.obj
 0001:00066020       ??1?$output_adapter_data@_WV?$string_output_adapter@_W@__crt_stdio_output@@@__crt_stdio_output@@QAE@XZ 10067020 f i libucrtd:output.obj
 0001:00066040       ??1?$output_processor@DV?$stream_output_adapter@D@__crt_stdio_output@@V?$format_validation_base@DV?$stream_output_adapter@D@__crt_stdio_output@@@2@@__crt_stdio_output@@QAE@XZ 10067040 f i libucrtd:output.obj
 0001:00066060       ??1?$output_processor@DV?$stream_output_adapter@D@__crt_stdio_output@@V?$positional_parameter_base@DV?$stream_output_adapter@D@__crt_stdio_output@@@2@@__crt_stdio_output@@QAE@XZ 10067060 f i libucrtd:output.obj
 0001:00066080       ??1?$output_processor@DV?$stream_output_adapter@D@__crt_stdio_output@@V?$standard_base@DV?$stream_output_adapter@D@__crt_stdio_output@@@2@@__crt_stdio_output@@QAE@XZ 10067080 f i libucrtd:output.obj
 0001:000660a0       ??1?$output_processor@DV?$string_output_adapter@D@__crt_stdio_output@@V?$format_validation_base@DV?$string_output_adapter@D@__crt_stdio_output@@@2@@__crt_stdio_output@@QAE@XZ 100670a0 f i libucrtd:output.obj
 0001:000660c0       ??1?$output_processor@DV?$string_output_adapter@D@__crt_stdio_output@@V?$positional_parameter_base@DV?$string_output_adapter@D@__crt_stdio_output@@@2@@__crt_stdio_output@@QAE@XZ 100670c0 f i libucrtd:output.obj
 0001:000660e0       ??1?$output_processor@DV?$string_output_adapter@D@__crt_stdio_output@@V?$standard_base@DV?$string_output_adapter@D@__crt_stdio_output@@@2@@__crt_stdio_output@@QAE@XZ 100670e0 f i libucrtd:output.obj
 0001:00066100       ??1?$output_processor@_WV?$stream_output_adapter@_W@__crt_stdio_output@@V?$format_validation_base@_WV?$stream_output_adapter@_W@__crt_stdio_output@@@2@@__crt_stdio_output@@QAE@XZ 10067100 f i libucrtd:output.obj
 0001:00066120       ??1?$output_processor@_WV?$stream_output_adapter@_W@__crt_stdio_output@@V?$positional_parameter_base@_WV?$stream_output_adapter@_W@__crt_stdio_output@@@2@@__crt_stdio_output@@QAE@XZ 10067120 f i libucrtd:output.obj
 0001:00066140       ??1?$output_processor@_WV?$stream_output_adapter@_W@__crt_stdio_output@@V?$standard_base@_WV?$stream_output_adapter@_W@__crt_stdio_output@@@2@@__crt_stdio_output@@QAE@XZ 10067140 f i libucrtd:output.obj
 0001:00066160       ??1?$output_processor@_WV?$string_output_adapter@_W@__crt_stdio_output@@V?$format_validation_base@_WV?$string_output_adapter@_W@__crt_stdio_output@@@2@@__crt_stdio_output@@QAE@XZ 10067160 f i libucrtd:output.obj
 0001:00066180       ??1?$output_processor@_WV?$string_output_adapter@_W@__crt_stdio_output@@V?$positional_parameter_base@_WV?$string_output_adapter@_W@__crt_stdio_output@@@2@@__crt_stdio_output@@QAE@XZ 10067180 f i libucrtd:output.obj
 0001:000661a0       ??1?$output_processor@_WV?$string_output_adapter@_W@__crt_stdio_output@@V?$standard_base@_WV?$string_output_adapter@_W@__crt_stdio_output@@@2@@__crt_stdio_output@@QAE@XZ 100671a0 f i libucrtd:output.obj
 0001:000661c0       ??1?$positional_parameter_base@DV?$stream_output_adapter@D@__crt_stdio_output@@@__crt_stdio_output@@QAE@XZ 100671c0 f i libucrtd:output.obj
 0001:000661e0       ??1?$positional_parameter_base@DV?$string_output_adapter@D@__crt_stdio_output@@@__crt_stdio_output@@QAE@XZ 100671e0 f i libucrtd:output.obj
 0001:00066200       ??1?$positional_parameter_base@_WV?$stream_output_adapter@_W@__crt_stdio_output@@@__crt_stdio_output@@QAE@XZ 10067200 f i libucrtd:output.obj
 0001:00066220       ??1?$positional_parameter_base@_WV?$string_output_adapter@_W@__crt_stdio_output@@@__crt_stdio_output@@QAE@XZ 10067220 f i libucrtd:output.obj
 0001:00066240       ??1?$standard_base@DV?$stream_output_adapter@D@__crt_stdio_output@@@__crt_stdio_output@@QAE@XZ 10067240 f i libucrtd:output.obj
 0001:00066260       ??1?$standard_base@DV?$string_output_adapter@D@__crt_stdio_output@@@__crt_stdio_output@@QAE@XZ 10067260 f i libucrtd:output.obj
 0001:00066280       ??1?$standard_base@_WV?$stream_output_adapter@_W@__crt_stdio_output@@@__crt_stdio_output@@QAE@XZ 10067280 f i libucrtd:output.obj
 0001:000662a0       ??1?$standard_base@_WV?$string_output_adapter@_W@__crt_stdio_output@@@__crt_stdio_output@@QAE@XZ 100672a0 f i libucrtd:output.obj
 0001:000662c0       ??1__acrt_stdio_temporary_buffering_guard@@QAE@XZ 100672c0 f i libucrtd:output.obj
 0001:000662f0       ??1__crt_errno_guard@@QAE@XZ 100672f0 f i libucrtd:output.obj
 0001:00066320       ??1formatting_buffer@__crt_stdio_output@@QAE@XZ 10067320 f i libucrtd:output.obj
 0001:00066340       ??4?$__crt_unique_heap_ptr@DU__crt_internal_free_policy@@@@QAEAAV0@$$QAV0@@Z 10067340 f i libucrtd:output.obj
 0001:00066370       ??A?$spectre_mitigated_lookup_table@Ustate_transition_pair@__crt_stdio_output@@$0IA@@__crt_stdio_output@@QBEABUstate_transition_pair@1@I@Z 10067370 f i libucrtd:output.obj
 0001:00066390       ??C__crt_stdio_stream@@QBEPAU__crt_stdio_stream_data@@XZ 10067390 f i libucrtd:output.obj
 0001:00066ad0       ?adjust_hexit@?$output_processor@DV?$stream_output_adapter@D@__crt_stdio_output@@V?$format_validation_base@DV?$stream_output_adapter@D@__crt_stdio_output@@@2@@__crt_stdio_output@@CADH_N@Z 10067ad0 f i libucrtd:output.obj
 0001:00066b10       ?adjust_hexit@?$output_processor@DV?$stream_output_adapter@D@__crt_stdio_output@@V?$positional_parameter_base@DV?$stream_output_adapter@D@__crt_stdio_output@@@2@@__crt_stdio_output@@CADH_N@Z 10067b10 f i libucrtd:output.obj
 0001:00066b50       ?adjust_hexit@?$output_processor@DV?$stream_output_adapter@D@__crt_stdio_output@@V?$standard_base@DV?$stream_output_adapter@D@__crt_stdio_output@@@2@@__crt_stdio_output@@CADH_N@Z 10067b50 f i libucrtd:output.obj
 0001:00066b90       ?adjust_hexit@?$output_processor@DV?$string_output_adapter@D@__crt_stdio_output@@V?$format_validation_base@DV?$string_output_adapter@D@__crt_stdio_output@@@2@@__crt_stdio_output@@CADH_N@Z 10067b90 f i libucrtd:output.obj
 0001:00066bd0       ?adjust_hexit@?$output_processor@DV?$string_output_adapter@D@__crt_stdio_output@@V?$positional_parameter_base@DV?$string_output_adapter@D@__crt_stdio_output@@@2@@__crt_stdio_output@@CADH_N@Z 10067bd0 f i libucrtd:output.obj
 0001:00066c10       ?adjust_hexit@?$output_processor@DV?$string_output_adapter@D@__crt_stdio_output@@V?$standard_base@DV?$string_output_adapter@D@__crt_stdio_output@@@2@@__crt_stdio_output@@CADH_N@Z 10067c10 f i libucrtd:output.obj
 0001:00066c50       ?adjust_hexit@?$output_processor@_WV?$stream_output_adapter@_W@__crt_stdio_output@@V?$format_validation_base@_WV?$stream_output_adapter@_W@__crt_stdio_output@@@2@@__crt_stdio_output@@CADH_N@Z 10067c50 f i libucrtd:output.obj
 0001:00066c90       ?adjust_hexit@?$output_processor@_WV?$stream_output_adapter@_W@__crt_stdio_output@@V?$positional_parameter_base@_WV?$stream_output_adapter@_W@__crt_stdio_output@@@2@@__crt_stdio_output@@CADH_N@Z 10067c90 f i libucrtd:output.obj
 0001:00066cd0       ?adjust_hexit@?$output_processor@_WV?$stream_output_adapter@_W@__crt_stdio_output@@V?$standard_base@_WV?$stream_output_adapter@_W@__crt_stdio_output@@@2@@__crt_stdio_output@@CADH_N@Z 10067cd0 f i libucrtd:output.obj
 0001:00066d10       ?adjust_hexit@?$output_processor@_WV?$string_output_adapter@_W@__crt_stdio_output@@V?$format_validation_base@_WV?$string_output_adapter@_W@__crt_stdio_output@@@2@@__crt_stdio_output@@CADH_N@Z 10067d10 f i libucrtd:output.obj
 0001:00066d50       ?adjust_hexit@?$output_processor@_WV?$string_output_adapter@_W@__crt_stdio_output@@V?$positional_parameter_base@_WV?$string_output_adapter@_W@__crt_stdio_output@@@2@@__crt_stdio_output@@CADH_N@Z 10067d50 f i libucrtd:output.obj
 0001:00066d90       ?adjust_hexit@?$output_processor@_WV?$string_output_adapter@_W@__crt_stdio_output@@V?$standard_base@_WV?$string_output_adapter@_W@__crt_stdio_output@@@2@@__crt_stdio_output@@CADH_N@Z 10067d90 f i libucrtd:output.obj
 0001:00066dd0       ?advance_to_next_pass@?$positional_parameter_base@DV?$stream_output_adapter@D@__crt_stdio_output@@@__crt_stdio_output@@IAE_NXZ 10067dd0 f i libucrtd:output.obj
 0001:00066e70       ?advance_to_next_pass@?$positional_parameter_base@DV?$string_output_adapter@D@__crt_stdio_output@@@__crt_stdio_output@@IAE_NXZ 10067e70 f i libucrtd:output.obj
 0001:00066f10       ?advance_to_next_pass@?$positional_parameter_base@_WV?$stream_output_adapter@_W@__crt_stdio_output@@@__crt_stdio_output@@IAE_NXZ 10067f10 f i libucrtd:output.obj
 0001:00066fb0       ?advance_to_next_pass@?$positional_parameter_base@_WV?$string_output_adapter@_W@__crt_stdio_output@@@__crt_stdio_output@@IAE_NXZ 10067fb0 f i libucrtd:output.obj
 0001:00067050       ?advance_to_next_pass@?$standard_base@DV?$stream_output_adapter@D@__crt_stdio_output@@@__crt_stdio_output@@IAE_NXZ 10068050 f i libucrtd:output.obj
 0001:000670a0       ?advance_to_next_pass@?$standard_base@DV?$string_output_adapter@D@__crt_stdio_output@@@__crt_stdio_output@@IAE_NXZ 100680a0 f i libucrtd:output.obj
 0001:000670f0       ?advance_to_next_pass@?$standard_base@_WV?$stream_output_adapter@_W@__crt_stdio_output@@@__crt_stdio_output@@IAE_NXZ 100680f0 f i libucrtd:output.obj
 0001:00067140       ?advance_to_next_pass@?$standard_base@_WV?$string_output_adapter@_W@__crt_stdio_output@@@__crt_stdio_output@@IAE_NXZ 10068140 f i libucrtd:output.obj
 0001:00067190       ?crop_zeroes@__crt_stdio_output@@YAXPADQAU__crt_locale_pointers@@@Z 10068190 f i libucrtd:output.obj
 0001:00067290       ?find_next_state@?$output_processor@DV?$stream_output_adapter@D@__crt_stdio_output@@V?$format_validation_base@DV?$stream_output_adapter@D@__crt_stdio_output@@@2@@__crt_stdio_output@@ABE?AW4state@2@DW432@@Z 10068290 f i libucrtd:output.obj
 0001:00067300       ?find_next_state@?$output_processor@DV?$stream_output_adapter@D@__crt_stdio_output@@V?$positional_parameter_base@DV?$stream_output_adapter@D@__crt_stdio_output@@@2@@__crt_stdio_output@@ABE?AW4state@2@DW432@@Z 10068300 f i libucrtd:output.obj
 0001:00067370       ?find_next_state@?$output_processor@DV?$stream_output_adapter@D@__crt_stdio_output@@V?$standard_base@DV?$stream_output_adapter@D@__crt_stdio_output@@@2@@__crt_stdio_output@@ABE?AW4state@2@DW432@@Z 10068370 f i libucrtd:output.obj
 0001:000673e0       ?find_next_state@?$output_processor@DV?$string_output_adapter@D@__crt_stdio_output@@V?$format_validation_base@DV?$string_output_adapter@D@__crt_stdio_output@@@2@@__crt_stdio_output@@ABE?AW4state@2@DW432@@Z 100683e0 f i libucrtd:output.obj
 0001:00067450       ?find_next_state@?$output_processor@DV?$string_output_adapter@D@__crt_stdio_output@@V?$positional_parameter_base@DV?$string_output_adapter@D@__crt_stdio_output@@@2@@__crt_stdio_output@@ABE?AW4state@2@DW432@@Z 10068450 f i libucrtd:output.obj
 0001:000674c0       ?find_next_state@?$output_processor@DV?$string_output_adapter@D@__crt_stdio_output@@V?$standard_base@DV?$string_output_adapter@D@__crt_stdio_output@@@2@@__crt_stdio_output@@ABE?AW4state@2@DW432@@Z 100684c0 f i libucrtd:output.obj
 0001:00067530       ?find_next_state@?$output_processor@_WV?$stream_output_adapter@_W@__crt_stdio_output@@V?$format_validation_base@_WV?$stream_output_adapter@_W@__crt_stdio_output@@@2@@__crt_stdio_output@@ABE?AW4state@2@_WW432@@Z 10068530 f i libucrtd:output.obj
 0001:000675a0       ?find_next_state@?$output_processor@_WV?$stream_output_adapter@_W@__crt_stdio_output@@V?$positional_parameter_base@_WV?$stream_output_adapter@_W@__crt_stdio_output@@@2@@__crt_stdio_output@@ABE?AW4state@2@_WW432@@Z 100685a0 f i libucrtd:output.obj
 0001:00067610       ?find_next_state@?$output_processor@_WV?$stream_output_adapter@_W@__crt_stdio_output@@V?$standard_base@_WV?$stream_output_adapter@_W@__crt_stdio_output@@@2@@__crt_stdio_output@@ABE?AW4state@2@_WW432@@Z 10068610 f i libucrtd:output.obj
 0001:00067680       ?find_next_state@?$output_processor@_WV?$string_output_adapter@_W@__crt_stdio_output@@V?$format_validation_base@_WV?$string_output_adapter@_W@__crt_stdio_output@@@2@@__crt_stdio_output@@ABE?AW4state@2@_WW432@@Z 10068680 f i libucrtd:output.obj
 0001:000676f0       ?find_next_state@?$output_processor@_WV?$string_output_adapter@_W@__crt_stdio_output@@V?$positional_parameter_base@_WV?$string_output_adapter@_W@__crt_stdio_output@@@2@@__crt_stdio_output@@ABE?AW4state@2@_WW432@@Z 100686f0 f i libucrtd:output.obj
 0001:00067760       ?find_next_state@?$output_processor@_WV?$string_output_adapter@_W@__crt_stdio_output@@V?$standard_base@_WV?$string_output_adapter@_W@__crt_stdio_output@@@2@@__crt_stdio_output@@ABE?AW4state@2@_WW432@@Z 10068760 f i libucrtd:output.obj
 0001:000677d0       ?force_decimal_point@__crt_stdio_output@@YAXPADQAU__crt_locale_pointers@@@Z 100687d0 f i libucrtd:output.obj
 0001:000678a0       ?get@__crt_deferred_errno_cache@@QAEAAHXZ 100688a0 f i libucrtd:output.obj
 0001:000678d0       ?get_parameter_type@?$positional_parameter_base@DV?$stream_output_adapter@D@__crt_stdio_output@@@__crt_stdio_output@@CA?AW4parameter_type@12@F@Z 100688d0 f i libucrtd:output.obj
 0001:000678e0       ?get_parameter_type@?$positional_parameter_base@DV?$stream_output_adapter@D@__crt_stdio_output@@@__crt_stdio_output@@CA?AW4parameter_type@12@G@Z 100688e0 f i libucrtd:output.obj
 0001:000678f0       ?get_parameter_type@?$positional_parameter_base@DV?$stream_output_adapter@D@__crt_stdio_output@@@__crt_stdio_output@@CA?AW4parameter_type@12@H@Z 100688f0 f i libucrtd:output.obj
 0001:00067900       ?get_parameter_type@?$positional_parameter_base@DV?$stream_output_adapter@D@__crt_stdio_output@@@__crt_stdio_output@@CA?AW4parameter_type@12@I@Z 10068900 f i libucrtd:output.obj
 0001:00067910       ?get_parameter_type@?$positional_parameter_base@DV?$stream_output_adapter@D@__crt_stdio_output@@@__crt_stdio_output@@CA?AW4parameter_type@12@U_CRT_DOUBLE@@@Z 10068910 f i libucrtd:output.obj
 0001:00067920       ?get_parameter_type@?$positional_parameter_base@DV?$stream_output_adapter@D@__crt_stdio_output@@@__crt_stdio_output@@CA?AW4parameter_type@12@_J@Z 10068920 f i libucrtd:output.obj
 0001:00067930       ?get_parameter_type@?$positional_parameter_base@DV?$stream_output_adapter@D@__crt_stdio_output@@@__crt_stdio_output@@CA?AW4parameter_type@12@_K@Z 10068930 f i libucrtd:output.obj
 0001:00067940       ?get_parameter_type@?$positional_parameter_base@DV?$stream_output_adapter@D@__crt_stdio_output@@@__crt_stdio_output@@CA?AW4parameter_type@12@_W@Z 10068940 f i libucrtd:output.obj
 0001:00067950       ?get_parameter_type@?$positional_parameter_base@DV?$string_output_adapter@D@__crt_stdio_output@@@__crt_stdio_output@@CA?AW4parameter_type@12@F@Z 10068950 f i libucrtd:output.obj
 0001:00067960       ?get_parameter_type@?$positional_parameter_base@DV?$string_output_adapter@D@__crt_stdio_output@@@__crt_stdio_output@@CA?AW4parameter_type@12@G@Z 10068960 f i libucrtd:output.obj
 0001:00067970       ?get_parameter_type@?$positional_parameter_base@DV?$string_output_adapter@D@__crt_stdio_output@@@__crt_stdio_output@@CA?AW4parameter_type@12@H@Z 10068970 f i libucrtd:output.obj
 0001:00067980       ?get_parameter_type@?$positional_parameter_base@DV?$string_output_adapter@D@__crt_stdio_output@@@__crt_stdio_output@@CA?AW4parameter_type@12@I@Z 10068980 f i libucrtd:output.obj
 0001:00067990       ?get_parameter_type@?$positional_parameter_base@DV?$string_output_adapter@D@__crt_stdio_output@@@__crt_stdio_output@@CA?AW4parameter_type@12@U_CRT_DOUBLE@@@Z 10068990 f i libucrtd:output.obj
 0001:000679a0       ?get_parameter_type@?$positional_parameter_base@DV?$string_output_adapter@D@__crt_stdio_output@@@__crt_stdio_output@@CA?AW4parameter_type@12@_J@Z 100689a0 f i libucrtd:output.obj
 0001:000679b0       ?get_parameter_type@?$positional_parameter_base@DV?$string_output_adapter@D@__crt_stdio_output@@@__crt_stdio_output@@CA?AW4parameter_type@12@_K@Z 100689b0 f i libucrtd:output.obj
 0001:000679c0       ?get_parameter_type@?$positional_parameter_base@DV?$string_output_adapter@D@__crt_stdio_output@@@__crt_stdio_output@@CA?AW4parameter_type@12@_W@Z 100689c0 f i libucrtd:output.obj
 0001:000679d0       ?get_parameter_type@?$positional_parameter_base@_WV?$stream_output_adapter@_W@__crt_stdio_output@@@__crt_stdio_output@@CA?AW4parameter_type@12@F@Z 100689d0 f i libucrtd:output.obj
 0001:000679e0       ?get_parameter_type@?$positional_parameter_base@_WV?$stream_output_adapter@_W@__crt_stdio_output@@@__crt_stdio_output@@CA?AW4parameter_type@12@G@Z 100689e0 f i libucrtd:output.obj
 0001:000679f0       ?get_parameter_type@?$positional_parameter_base@_WV?$stream_output_adapter@_W@__crt_stdio_output@@@__crt_stdio_output@@CA?AW4parameter_type@12@H@Z 100689f0 f i libucrtd:output.obj
 0001:00067a00       ?get_parameter_type@?$positional_parameter_base@_WV?$stream_output_adapter@_W@__crt_stdio_output@@@__crt_stdio_output@@CA?AW4parameter_type@12@I@Z 10068a00 f i libucrtd:output.obj
 0001:00067a10       ?get_parameter_type@?$positional_parameter_base@_WV?$stream_output_adapter@_W@__crt_stdio_output@@@__crt_stdio_output@@CA?AW4parameter_type@12@U_CRT_DOUBLE@@@Z 10068a10 f i libucrtd:output.obj
 0001:00067a20       ?get_parameter_type@?$positional_parameter_base@_WV?$stream_output_adapter@_W@__crt_stdio_output@@@__crt_stdio_output@@CA?AW4parameter_type@12@_J@Z 10068a20 f i libucrtd:output.obj
 0001:00067a30       ?get_parameter_type@?$positional_parameter_base@_WV?$stream_output_adapter@_W@__crt_stdio_output@@@__crt_stdio_output@@CA?AW4parameter_type@12@_K@Z 10068a30 f i libucrtd:output.obj
 0001:00067a40       ?get_parameter_type@?$positional_parameter_base@_WV?$stream_output_adapter@_W@__crt_stdio_output@@@__crt_stdio_output@@CA?AW4parameter_type@12@_W@Z 10068a40 f i libucrtd:output.obj
 0001:00067a50       ?get_parameter_type@?$positional_parameter_base@_WV?$string_output_adapter@_W@__crt_stdio_output@@@__crt_stdio_output@@CA?AW4parameter_type@12@F@Z 10068a50 f i libucrtd:output.obj
 0001:00067a60       ?get_parameter_type@?$positional_parameter_base@_WV?$string_output_adapter@_W@__crt_stdio_output@@@__crt_stdio_output@@CA?AW4parameter_type@12@G@Z 10068a60 f i libucrtd:output.obj
 0001:00067a70       ?get_parameter_type@?$positional_parameter_base@_WV?$string_output_adapter@_W@__crt_stdio_output@@@__crt_stdio_output@@CA?AW4parameter_type@12@H@Z 10068a70 f i libucrtd:output.obj
 0001:00067a80       ?get_parameter_type@?$positional_parameter_base@_WV?$string_output_adapter@_W@__crt_stdio_output@@@__crt_stdio_output@@CA?AW4parameter_type@12@I@Z 10068a80 f i libucrtd:output.obj
 0001:00067a90       ?get_parameter_type@?$positional_parameter_base@_WV?$string_output_adapter@_W@__crt_stdio_output@@@__crt_stdio_output@@CA?AW4parameter_type@12@U_CRT_DOUBLE@@@Z 10068a90 f i libucrtd:output.obj
 0001:00067aa0       ?get_parameter_type@?$positional_parameter_base@_WV?$string_output_adapter@_W@__crt_stdio_output@@@__crt_stdio_output@@CA?AW4parameter_type@12@_J@Z 10068aa0 f i libucrtd:output.obj
 0001:00067ab0       ?get_parameter_type@?$positional_parameter_base@_WV?$string_output_adapter@_W@__crt_stdio_output@@@__crt_stdio_output@@CA?AW4parameter_type@12@_K@Z 10068ab0 f i libucrtd:output.obj
 0001:00067ac0       ?get_parameter_type@?$positional_parameter_base@_WV?$string_output_adapter@_W@__crt_stdio_output@@@__crt_stdio_output@@CA?AW4parameter_type@12@_W@Z 10068ac0 f i libucrtd:output.obj
 0001:00067ad0       ?has_flag@?$output_processor@DV?$stream_output_adapter@D@__crt_stdio_output@@V?$format_validation_base@DV?$stream_output_adapter@D@__crt_stdio_output@@@2@@__crt_stdio_output@@ABE_NI@Z 10068ad0 f i libucrtd:output.obj
 0001:00067b00       ?has_flag@?$output_processor@DV?$stream_output_adapter@D@__crt_stdio_output@@V?$positional_parameter_base@DV?$stream_output_adapter@D@__crt_stdio_output@@@2@@__crt_stdio_output@@ABE_NI@Z 10068b00 f i libucrtd:output.obj
 0001:00067b30       ?has_flag@?$output_processor@DV?$stream_output_adapter@D@__crt_stdio_output@@V?$standard_base@DV?$stream_output_adapter@D@__crt_stdio_output@@@2@@__crt_stdio_output@@ABE_NI@Z 10068b30 f i libucrtd:output.obj
 0001:00067b60       ?has_flag@?$output_processor@DV?$string_output_adapter@D@__crt_stdio_output@@V?$format_validation_base@DV?$string_output_adapter@D@__crt_stdio_output@@@2@@__crt_stdio_output@@ABE_NI@Z 10068b60 f i libucrtd:output.obj
 0001:00067b90       ?has_flag@?$output_processor@DV?$string_output_adapter@D@__crt_stdio_output@@V?$positional_parameter_base@DV?$string_output_adapter@D@__crt_stdio_output@@@2@@__crt_stdio_output@@ABE_NI@Z 10068b90 f i libucrtd:output.obj
 0001:00067bc0       ?has_flag@?$output_processor@DV?$string_output_adapter@D@__crt_stdio_output@@V?$standard_base@DV?$string_output_adapter@D@__crt_stdio_output@@@2@@__crt_stdio_output@@ABE_NI@Z 10068bc0 f i libucrtd:output.obj
 0001:00067bf0       ?has_flag@?$output_processor@_WV?$stream_output_adapter@_W@__crt_stdio_output@@V?$format_validation_base@_WV?$stream_output_adapter@_W@__crt_stdio_output@@@2@@__crt_stdio_output@@ABE_NI@Z 10068bf0 f i libucrtd:output.obj
 0001:00067c20       ?has_flag@?$output_processor@_WV?$stream_output_adapter@_W@__crt_stdio_output@@V?$positional_parameter_base@_WV?$stream_output_adapter@_W@__crt_stdio_output@@@2@@__crt_stdio_output@@ABE_NI@Z 10068c20 f i libucrtd:output.obj
 0001:00067c50       ?has_flag@?$output_processor@_WV?$stream_output_adapter@_W@__crt_stdio_output@@V?$standard_base@_WV?$stream_output_adapter@_W@__crt_stdio_output@@@2@@__crt_stdio_output@@ABE_NI@Z 10068c50 f i libucrtd:output.obj
 0001:00067c80       ?has_flag@?$output_processor@_WV?$string_output_adapter@_W@__crt_stdio_output@@V?$format_validation_base@_WV?$string_output_adapter@_W@__crt_stdio_output@@@2@@__crt_stdio_output@@ABE_NI@Z 10068c80 f i libucrtd:output.obj
 0001:00067cb0       ?has_flag@?$output_processor@_WV?$string_output_adapter@_W@__crt_stdio_output@@V?$positional_parameter_base@_WV?$string_output_adapter@_W@__crt_stdio_output@@@2@@__crt_stdio_output@@ABE_NI@Z 10068cb0 f i libucrtd:output.obj
 0001:00067ce0       ?has_flag@?$output_processor@_WV?$string_output_adapter@_W@__crt_stdio_output@@V?$standard_base@_WV?$string_output_adapter@_W@__crt_stdio_output@@@2@@__crt_stdio_output@@ABE_NI@Z 10068ce0 f i libucrtd:output.obj
 0001:00067d10       ?is_positional_parameter_reappearance_consistent@?$positional_parameter_base@DV?$stream_output_adapter@D@__crt_stdio_output@@@__crt_stdio_output@@AAE_NABUparameter_data@12@W4parameter_type@12@DW4length_modifier@2@@Z 10068d10 f i libucrtd:output.obj
 0001:00067f40       ?is_positional_parameter_reappearance_consistent@?$positional_parameter_base@DV?$string_output_adapter@D@__crt_stdio_output@@@__crt_stdio_output@@AAE_NABUparameter_data@12@W4parameter_type@12@DW4length_modifier@2@@Z 10068f40 f i libucrtd:output.obj
 0001:00068170       ?is_positional_parameter_reappearance_consistent@?$positional_parameter_base@_WV?$stream_output_adapter@_W@__crt_stdio_output@@@__crt_stdio_output@@AAE_NABUparameter_data@12@W4parameter_type@12@_WW4length_modifier@2@@Z 10069170 f i libucrtd:output.obj
 0001:000683a0       ?is_positional_parameter_reappearance_consistent@?$positional_parameter_base@_WV?$string_output_adapter@_W@__crt_stdio_output@@@__crt_stdio_output@@AAE_NABUparameter_data@12@W4parameter_type@12@_WW4length_modifier@2@@Z 100693a0 f i libucrtd:output.obj
 0001:000685d0       ?is_string_backed@__crt_stdio_stream@@QBE_NXZ 100695d0 f i libucrtd:output.obj
 0001:00068610       ?narrow_null_string@?$output_processor@DV?$stream_output_adapter@D@__crt_stdio_output@@V?$format_validation_base@DV?$stream_output_adapter@D@__crt_stdio_output@@@2@@__crt_stdio_output@@CAPADXZ 10069610 f i libucrtd:output.obj
 0001:00068620       ?narrow_null_string@?$output_processor@DV?$stream_output_adapter@D@__crt_stdio_output@@V?$positional_parameter_base@DV?$stream_output_adapter@D@__crt_stdio_output@@@2@@__crt_stdio_output@@CAPADXZ 10069620 f i libucrtd:output.obj
 0001:00068630       ?narrow_null_string@?$output_processor@DV?$stream_output_adapter@D@__crt_stdio_output@@V?$standard_base@DV?$stream_output_adapter@D@__crt_stdio_output@@@2@@__crt_stdio_output@@CAPADXZ 10069630 f i libucrtd:output.obj
 0001:00068640       ?narrow_null_string@?$output_processor@DV?$string_output_adapter@D@__crt_stdio_output@@V?$format_validation_base@DV?$string_output_adapter@D@__crt_stdio_output@@@2@@__crt_stdio_output@@CAPADXZ 10069640 f i libucrtd:output.obj
 0001:00068650       ?narrow_null_string@?$output_processor@DV?$string_output_adapter@D@__crt_stdio_output@@V?$positional_parameter_base@DV?$string_output_adapter@D@__crt_stdio_output@@@2@@__crt_stdio_output@@CAPADXZ 10069650 f i libucrtd:output.obj
 0001:00068660       ?narrow_null_string@?$output_processor@DV?$string_output_adapter@D@__crt_stdio_output@@V?$standard_base@DV?$string_output_adapter@D@__crt_stdio_output@@@2@@__crt_stdio_output@@CAPADXZ 10069660 f i libucrtd:output.obj
 0001:00068670       ?narrow_null_string@?$output_processor@_WV?$stream_output_adapter@_W@__crt_stdio_output@@V?$format_validation_base@_WV?$stream_output_adapter@_W@__crt_stdio_output@@@2@@__crt_stdio_output@@CAPADXZ 10069670 f i libucrtd:output.obj
 0001:00068680       ?narrow_null_string@?$output_processor@_WV?$stream_output_adapter@_W@__crt_stdio_output@@V?$positional_parameter_base@_WV?$stream_output_adapter@_W@__crt_stdio_output@@@2@@__crt_stdio_output@@CAPADXZ 10069680 f i libucrtd:output.obj
 0001:00068690       ?narrow_null_string@?$output_processor@_WV?$stream_output_adapter@_W@__crt_stdio_output@@V?$standard_base@_WV?$stream_output_adapter@_W@__crt_stdio_output@@@2@@__crt_stdio_output@@CAPADXZ 10069690 f i libucrtd:output.obj
 0001:000686a0       ?narrow_null_string@?$output_processor@_WV?$string_output_adapter@_W@__crt_stdio_output@@V?$format_validation_base@_WV?$string_output_adapter@_W@__crt_stdio_output@@@2@@__crt_stdio_output@@CAPADXZ 100696a0 f i libucrtd:output.obj
 0001:000686b0       ?narrow_null_string@?$output_processor@_WV?$string_output_adapter@_W@__crt_stdio_output@@V?$positional_parameter_base@_WV?$string_output_adapter@_W@__crt_stdio_output@@@2@@__crt_stdio_output@@CAPADXZ 100696b0 f i libucrtd:output.obj
 0001:000686c0       ?narrow_null_string@?$output_processor@_WV?$string_output_adapter@_W@__crt_stdio_output@@V?$standard_base@_WV?$string_output_adapter@_W@__crt_stdio_output@@@2@@__crt_stdio_output@@CAPADXZ 100696c0 f i libucrtd:output.obj
 0001:000686d0       ?parse_int_from_format_string@?$output_processor@DV?$stream_output_adapter@D@__crt_stdio_output@@V?$format_validation_base@DV?$stream_output_adapter@D@__crt_stdio_output@@@2@@__crt_stdio_output@@AAE_NQAH@Z 100696d0 f i libucrtd:output.obj
 0001:00068790       ?parse_int_from_format_string@?$output_processor@DV?$stream_output_adapter@D@__crt_stdio_output@@V?$positional_parameter_base@DV?$stream_output_adapter@D@__crt_stdio_output@@@2@@__crt_stdio_output@@AAE_NQAH@Z 10069790 f i libucrtd:output.obj
 0001:00068850       ?parse_int_from_format_string@?$output_processor@DV?$stream_output_adapter@D@__crt_stdio_output@@V?$standard_base@DV?$stream_output_adapter@D@__crt_stdio_output@@@2@@__crt_stdio_output@@AAE_NQAH@Z 10069850 f i libucrtd:output.obj
 0001:00068910       ?parse_int_from_format_string@?$output_processor@DV?$string_output_adapter@D@__crt_stdio_output@@V?$format_validation_base@DV?$string_output_adapter@D@__crt_stdio_output@@@2@@__crt_stdio_output@@AAE_NQAH@Z 10069910 f i libucrtd:output.obj
 0001:000689d0       ?parse_int_from_format_string@?$output_processor@DV?$string_output_adapter@D@__crt_stdio_output@@V?$positional_parameter_base@DV?$string_output_adapter@D@__crt_stdio_output@@@2@@__crt_stdio_output@@AAE_NQAH@Z 100699d0 f i libucrtd:output.obj
 0001:00068a90       ?parse_int_from_format_string@?$output_processor@DV?$string_output_adapter@D@__crt_stdio_output@@V?$standard_base@DV?$string_output_adapter@D@__crt_stdio_output@@@2@@__crt_stdio_output@@AAE_NQAH@Z 10069a90 f i libucrtd:output.obj
 0001:00068b50       ?parse_int_from_format_string@?$output_processor@_WV?$stream_output_adapter@_W@__crt_stdio_output@@V?$format_validation_base@_WV?$stream_output_adapter@_W@__crt_stdio_output@@@2@@__crt_stdio_output@@AAE_NQAH@Z 10069b50 f i libucrtd:output.obj
 0001:00068c10       ?parse_int_from_format_string@?$output_processor@_WV?$stream_output_adapter@_W@__crt_stdio_output@@V?$positional_parameter_base@_WV?$stream_output_adapter@_W@__crt_stdio_output@@@2@@__crt_stdio_output@@AAE_NQAH@Z 10069c10 f i libucrtd:output.obj
 0001:00068cd0       ?parse_int_from_format_string@?$output_processor@_WV?$stream_output_adapter@_W@__crt_stdio_output@@V?$standard_base@_WV?$stream_output_adapter@_W@__crt_stdio_output@@@2@@__crt_stdio_output@@AAE_NQAH@Z 10069cd0 f i libucrtd:output.obj
 0001:00068d90       ?parse_int_from_format_string@?$output_processor@_WV?$string_output_adapter@_W@__crt_stdio_output@@V?$format_validation_base@_WV?$string_output_adapter@_W@__crt_stdio_output@@@2@@__crt_stdio_output@@AAE_NQAH@Z 10069d90 f i libucrtd:output.obj
 0001:00068e50       ?parse_int_from_format_string@?$output_processor@_WV?$string_output_adapter@_W@__crt_stdio_output@@V?$positional_parameter_base@_WV?$string_output_adapter@_W@__crt_stdio_output@@@2@@__crt_stdio_output@@AAE_NQAH@Z 10069e50 f i libucrtd:output.obj
 0001:00068f10       ?parse_int_from_format_string@?$output_processor@_WV?$string_output_adapter@_W@__crt_stdio_output@@V?$standard_base@_WV?$string_output_adapter@_W@__crt_stdio_output@@@2@@__crt_stdio_output@@AAE_NQAH@Z 10069f10 f i libucrtd:output.obj
 0001:00068fd0       ?process@?$output_processor@DV?$stream_output_adapter@D@__crt_stdio_output@@V?$format_validation_base@DV?$stream_output_adapter@D@__crt_stdio_output@@@2@@__crt_stdio_output@@QAEHXZ 10069fd0 f i libucrtd:output.obj
 0001:00069280       ?process@?$output_processor@DV?$stream_output_adapter@D@__crt_stdio_output@@V?$positional_parameter_base@DV?$stream_output_adapter@D@__crt_stdio_output@@@2@@__crt_stdio_output@@QAEHXZ 1006a280 f i libucrtd:output.obj
 0001:00069530       ?process@?$output_processor@DV?$stream_output_adapter@D@__crt_stdio_output@@V?$standard_base@DV?$stream_output_adapter@D@__crt_stdio_output@@@2@@__crt_stdio_output@@QAEHXZ 1006a530 f i libucrtd:output.obj
 0001:000697e0       ?process@?$output_processor@DV?$string_output_adapter@D@__crt_stdio_output@@V?$format_validation_base@DV?$string_output_adapter@D@__crt_stdio_output@@@2@@__crt_stdio_output@@QAEHXZ 1006a7e0 f i libucrtd:output.obj
 0001:00069a90       ?process@?$output_processor@DV?$string_output_adapter@D@__crt_stdio_output@@V?$positional_parameter_base@DV?$string_output_adapter@D@__crt_stdio_output@@@2@@__crt_stdio_output@@QAEHXZ 1006aa90 f i libucrtd:output.obj
 0001:00069d40       ?process@?$output_processor@DV?$string_output_adapter@D@__crt_stdio_output@@V?$standard_base@DV?$string_output_adapter@D@__crt_stdio_output@@@2@@__crt_stdio_output@@QAEHXZ 1006ad40 f i libucrtd:output.obj
 0001:00069ff0       ?process@?$output_processor@_WV?$stream_output_adapter@_W@__crt_stdio_output@@V?$format_validation_base@_WV?$stream_output_adapter@_W@__crt_stdio_output@@@2@@__crt_stdio_output@@QAEHXZ 1006aff0 f i libucrtd:output.obj
 0001:0006a2a0       ?process@?$output_processor@_WV?$stream_output_adapter@_W@__crt_stdio_output@@V?$positional_parameter_base@_WV?$stream_output_adapter@_W@__crt_stdio_output@@@2@@__crt_stdio_output@@QAEHXZ 1006b2a0 f i libucrtd:output.obj
 0001:0006a550       ?process@?$output_processor@_WV?$stream_output_adapter@_W@__crt_stdio_output@@V?$standard_base@_WV?$stream_output_adapter@_W@__crt_stdio_output@@@2@@__crt_stdio_output@@QAEHXZ 1006b550 f i libucrtd:output.obj
 0001:0006a800       ?process@?$output_processor@_WV?$string_output_adapter@_W@__crt_stdio_output@@V?$format_validation_base@_WV?$string_output_adapter@_W@__crt_stdio_output@@@2@@__crt_stdio_output@@QAEHXZ 1006b800 f i libucrtd:output.obj
 0001:0006aab0       ?process@?$output_processor@_WV?$string_output_adapter@_W@__crt_stdio_output@@V?$positional_parameter_base@_WV?$string_output_adapter@_W@__crt_stdio_output@@@2@@__crt_stdio_output@@QAEHXZ 1006bab0 f i libucrtd:output.obj
 0001:0006ad60       ?process@?$output_processor@_WV?$string_output_adapter@_W@__crt_stdio_output@@V?$standard_base@_WV?$string_output_adapter@_W@__crt_stdio_output@@@2@@__crt_stdio_output@@QAEHXZ 1006bd60 f i libucrtd:output.obj
 0001:0006b010       ?public_stream@__crt_stdio_stream@@QBEPAU_iobuf@@XZ 1006c010 f i libucrtd:output.obj
 0001:0006b030       ?set_flag@?$output_processor@DV?$stream_output_adapter@D@__crt_stdio_output@@V?$format_validation_base@DV?$stream_output_adapter@D@__crt_stdio_output@@@2@@__crt_stdio_output@@AAEXI@Z 1006c030 f i libucrtd:output.obj
 0001:0006b050       ?set_flag@?$output_processor@DV?$stream_output_adapter@D@__crt_stdio_output@@V?$positional_parameter_base@DV?$stream_output_adapter@D@__crt_stdio_output@@@2@@__crt_stdio_output@@AAEXI@Z 1006c050 f i libucrtd:output.obj
 0001:0006b070       ?set_flag@?$output_processor@DV?$stream_output_adapter@D@__crt_stdio_output@@V?$standard_base@DV?$stream_output_adapter@D@__crt_stdio_output@@@2@@__crt_stdio_output@@AAEXI@Z 1006c070 f i libucrtd:output.obj
 0001:0006b090       ?set_flag@?$output_processor@DV?$string_output_adapter@D@__crt_stdio_output@@V?$format_validation_base@DV?$string_output_adapter@D@__crt_stdio_output@@@2@@__crt_stdio_output@@AAEXI@Z 1006c090 f i libucrtd:output.obj
 0001:0006b0b0       ?set_flag@?$output_processor@DV?$string_output_adapter@D@__crt_stdio_output@@V?$positional_parameter_base@DV?$string_output_adapter@D@__crt_stdio_output@@@2@@__crt_stdio_output@@AAEXI@Z 1006c0b0 f i libucrtd:output.obj
 0001:0006b0d0       ?set_flag@?$output_processor@DV?$string_output_adapter@D@__crt_stdio_output@@V?$standard_base@DV?$string_output_adapter@D@__crt_stdio_output@@@2@@__crt_stdio_output@@AAEXI@Z 1006c0d0 f i libucrtd:output.obj
 0001:0006b0f0       ?set_flag@?$output_processor@_WV?$stream_output_adapter@_W@__crt_stdio_output@@V?$format_validation_base@_WV?$stream_output_adapter@_W@__crt_stdio_output@@@2@@__crt_stdio_output@@AAEXI@Z 1006c0f0 f i libucrtd:output.obj
 0001:0006b110       ?set_flag@?$output_processor@_WV?$stream_output_adapter@_W@__crt_stdio_output@@V?$positional_parameter_base@_WV?$stream_output_adapter@_W@__crt_stdio_output@@@2@@__crt_stdio_output@@AAEXI@Z 1006c110 f i libucrtd:output.obj
 0001:0006b130       ?set_flag@?$output_processor@_WV?$stream_output_adapter@_W@__crt_stdio_output@@V?$standard_base@_WV?$stream_output_adapter@_W@__crt_stdio_output@@@2@@__crt_stdio_output@@AAEXI@Z 1006c130 f i libucrtd:output.obj
 0001:0006b150       ?set_flag@?$output_processor@_WV?$string_output_adapter@_W@__crt_stdio_output@@V?$format_validation_base@_WV?$string_output_adapter@_W@__crt_stdio_output@@@2@@__crt_stdio_output@@AAEXI@Z 1006c150 f i libucrtd:output.obj
 0001:0006b170       ?set_flag@?$output_processor@_WV?$string_output_adapter@_W@__crt_stdio_output@@V?$positional_parameter_base@_WV?$string_output_adapter@_W@__crt_stdio_output@@@2@@__crt_stdio_output@@AAEXI@Z 1006c170 f i libucrtd:output.obj
 0001:0006b190       ?set_flag@?$output_processor@_WV?$string_output_adapter@_W@__crt_stdio_output@@V?$standard_base@_WV?$string_output_adapter@_W@__crt_stdio_output@@@2@@__crt_stdio_output@@AAEXI@Z 1006c190 f i libucrtd:output.obj
 0001:0006b1b0       ?should_format@?$positional_parameter_base@DV?$stream_output_adapter@D@__crt_stdio_output@@@__crt_stdio_output@@IAE_NXZ 1006c1b0 f i libucrtd:output.obj
 0001:0006b1f0       ?should_format@?$positional_parameter_base@DV?$string_output_adapter@D@__crt_stdio_output@@@__crt_stdio_output@@IAE_NXZ 1006c1f0 f i libucrtd:output.obj
 0001:0006b230       ?should_format@?$positional_parameter_base@_WV?$stream_output_adapter@_W@__crt_stdio_output@@@__crt_stdio_output@@IAE_NXZ 1006c230 f i libucrtd:output.obj
 0001:0006b270       ?should_format@?$positional_parameter_base@_WV?$string_output_adapter@_W@__crt_stdio_output@@@__crt_stdio_output@@IAE_NXZ 1006c270 f i libucrtd:output.obj
 0001:0006b2b0       ?should_format@?$standard_base@DV?$stream_output_adapter@D@__crt_stdio_output@@@__crt_stdio_output@@IAE_NXZ 1006c2b0 f i libucrtd:output.obj
 0001:0006b2c0       ?should_format@?$standard_base@DV?$string_output_adapter@D@__crt_stdio_output@@@__crt_stdio_output@@IAE_NXZ 1006c2c0 f i libucrtd:output.obj
 0001:0006b2d0       ?should_format@?$standard_base@_WV?$stream_output_adapter@_W@__crt_stdio_output@@@__crt_stdio_output@@IAE_NXZ 1006c2d0 f i libucrtd:output.obj
 0001:0006b2e0       ?should_format@?$standard_base@_WV?$string_output_adapter@_W@__crt_stdio_output@@@__crt_stdio_output@@IAE_NXZ 1006c2e0 f i libucrtd:output.obj
 0001:0006b2f0       ?should_skip_normal_state_processing@?$positional_parameter_base@DV?$stream_output_adapter@D@__crt_stdio_output@@@__crt_stdio_output@@IAE_NXZ 1006c2f0 f i libucrtd:output.obj
 0001:0006b340       ?should_skip_normal_state_processing@?$positional_parameter_base@DV?$string_output_adapter@D@__crt_stdio_output@@@__crt_stdio_output@@IAE_NXZ 1006c340 f i libucrtd:output.obj
 0001:0006b390       ?should_skip_normal_state_processing@?$positional_parameter_base@_WV?$stream_output_adapter@_W@__crt_stdio_output@@@__crt_stdio_output@@IAE_NXZ 1006c390 f i libucrtd:output.obj
 0001:0006b3e0       ?should_skip_normal_state_processing@?$positional_parameter_base@_WV?$string_output_adapter@_W@__crt_stdio_output@@@__crt_stdio_output@@IAE_NXZ 1006c3e0 f i libucrtd:output.obj
 0001:0006b430       ?should_skip_normal_state_processing@?$standard_base@DV?$stream_output_adapter@D@__crt_stdio_output@@@__crt_stdio_output@@IAE_NXZ 1006c430 f i libucrtd:output.obj
 0001:0006b440       ?should_skip_normal_state_processing@?$standard_base@DV?$string_output_adapter@D@__crt_stdio_output@@@__crt_stdio_output@@IAE_NXZ 1006c440 f i libucrtd:output.obj
 0001:0006b450       ?should_skip_normal_state_processing@?$standard_base@_WV?$stream_output_adapter@_W@__crt_stdio_output@@@__crt_stdio_output@@IAE_NXZ 1006c450 f i libucrtd:output.obj
 0001:0006b460       ?should_skip_normal_state_processing@?$standard_base@_WV?$string_output_adapter@_W@__crt_stdio_output@@@__crt_stdio_output@@IAE_NXZ 1006c460 f i libucrtd:output.obj
 0001:0006b470       ?should_skip_type_state_output@?$positional_parameter_base@DV?$stream_output_adapter@D@__crt_stdio_output@@@__crt_stdio_output@@IBE_NXZ 1006c470 f i libucrtd:output.obj
 0001:0006b4b0       ?should_skip_type_state_output@?$positional_parameter_base@DV?$string_output_adapter@D@__crt_stdio_output@@@__crt_stdio_output@@IBE_NXZ 1006c4b0 f i libucrtd:output.obj
 0001:0006b4f0       ?should_skip_type_state_output@?$positional_parameter_base@_WV?$stream_output_adapter@_W@__crt_stdio_output@@@__crt_stdio_output@@IBE_NXZ 1006c4f0 f i libucrtd:output.obj
 0001:0006b530       ?should_skip_type_state_output@?$positional_parameter_base@_WV?$string_output_adapter@_W@__crt_stdio_output@@@__crt_stdio_output@@IBE_NXZ 1006c530 f i libucrtd:output.obj
 0001:0006b570       ?should_skip_type_state_output@?$standard_base@DV?$stream_output_adapter@D@__crt_stdio_output@@@__crt_stdio_output@@IBE_NXZ 1006c570 f i libucrtd:output.obj
 0001:0006b580       ?should_skip_type_state_output@?$standard_base@DV?$string_output_adapter@D@__crt_stdio_output@@@__crt_stdio_output@@IBE_NXZ 1006c580 f i libucrtd:output.obj
 0001:0006b590       ?should_skip_type_state_output@?$standard_base@_WV?$stream_output_adapter@_W@__crt_stdio_output@@@__crt_stdio_output@@IBE_NXZ 1006c590 f i libucrtd:output.obj
 0001:0006b5a0       ?should_skip_type_state_output@?$standard_base@_WV?$string_output_adapter@_W@__crt_stdio_output@@@__crt_stdio_output@@IBE_NXZ 1006c5a0 f i libucrtd:output.obj
 0001:0006b5b0       ?state_case_dot@?$output_processor@DV?$stream_output_adapter@D@__crt_stdio_output@@V?$format_validation_base@DV?$stream_output_adapter@D@__crt_stdio_output@@@2@@__crt_stdio_output@@AAE_NXZ 1006c5b0 f i libucrtd:output.obj
 0001:0006b5d0       ?state_case_dot@?$output_processor@DV?$stream_output_adapter@D@__crt_stdio_output@@V?$positional_parameter_base@DV?$stream_output_adapter@D@__crt_stdio_output@@@2@@__crt_stdio_output@@AAE_NXZ 1006c5d0 f i libucrtd:output.obj
 0001:0006b5f0       ?state_case_dot@?$output_processor@DV?$stream_output_adapter@D@__crt_stdio_output@@V?$standard_base@DV?$stream_output_adapter@D@__crt_stdio_output@@@2@@__crt_stdio_output@@AAE_NXZ 1006c5f0 f i libucrtd:output.obj
 0001:0006b610       ?state_case_dot@?$output_processor@DV?$string_output_adapter@D@__crt_stdio_output@@V?$format_validation_base@DV?$string_output_adapter@D@__crt_stdio_output@@@2@@__crt_stdio_output@@AAE_NXZ 1006c610 f i libucrtd:output.obj
 0001:0006b630       ?state_case_dot@?$output_processor@DV?$string_output_adapter@D@__crt_stdio_output@@V?$positional_parameter_base@DV?$string_output_adapter@D@__crt_stdio_output@@@2@@__crt_stdio_output@@AAE_NXZ 1006c630 f i libucrtd:output.obj
 0001:0006b650       ?state_case_dot@?$output_processor@DV?$string_output_adapter@D@__crt_stdio_output@@V?$standard_base@DV?$string_output_adapter@D@__crt_stdio_output@@@2@@__crt_stdio_output@@AAE_NXZ 1006c650 f i libucrtd:output.obj
 0001:0006b670       ?state_case_dot@?$output_processor@_WV?$stream_output_adapter@_W@__crt_stdio_output@@V?$format_validation_base@_WV?$stream_output_adapter@_W@__crt_stdio_output@@@2@@__crt_stdio_output@@AAE_NXZ 1006c670 f i libucrtd:output.obj
 0001:0006b690       ?state_case_dot@?$output_processor@_WV?$stream_output_adapter@_W@__crt_stdio_output@@V?$positional_parameter_base@_WV?$stream_output_adapter@_W@__crt_stdio_output@@@2@@__crt_stdio_output@@AAE_NXZ 1006c690 f i libucrtd:output.obj
 0001:0006b6b0       ?state_case_dot@?$output_processor@_WV?$stream_output_adapter@_W@__crt_stdio_output@@V?$standard_base@_WV?$stream_output_adapter@_W@__crt_stdio_output@@@2@@__crt_stdio_output@@AAE_NXZ 1006c6b0 f i libucrtd:output.obj
 0001:0006b6d0       ?state_case_dot@?$output_processor@_WV?$string_output_adapter@_W@__crt_stdio_output@@V?$format_validation_base@_WV?$string_output_adapter@_W@__crt_stdio_output@@@2@@__crt_stdio_output@@AAE_NXZ 1006c6d0 f i libucrtd:output.obj
 0001:0006b6f0       ?state_case_dot@?$output_processor@_WV?$string_output_adapter@_W@__crt_stdio_output@@V?$positional_parameter_base@_WV?$string_output_adapter@_W@__crt_stdio_output@@@2@@__crt_stdio_output@@AAE_NXZ 1006c6f0 f i libucrtd:output.obj
 0001:0006b710       ?state_case_dot@?$output_processor@_WV?$string_output_adapter@_W@__crt_stdio_output@@V?$standard_base@_WV?$string_output_adapter@_W@__crt_stdio_output@@@2@@__crt_stdio_output@@AAE_NXZ 1006c710 f i libucrtd:output.obj
 0001:0006b730       ?state_case_flag@?$output_processor@DV?$stream_output_adapter@D@__crt_stdio_output@@V?$format_validation_base@DV?$stream_output_adapter@D@__crt_stdio_output@@@2@@__crt_stdio_output@@AAE_NXZ 1006c730 f i libucrtd:output.obj
 0001:0006b7e0       ?state_case_flag@?$output_processor@DV?$stream_output_adapter@D@__crt_stdio_output@@V?$positional_parameter_base@DV?$stream_output_adapter@D@__crt_stdio_output@@@2@@__crt_stdio_output@@AAE_NXZ 1006c7e0 f i libucrtd:output.obj
 0001:0006b890       ?state_case_flag@?$output_processor@DV?$stream_output_adapter@D@__crt_stdio_output@@V?$standard_base@DV?$stream_output_adapter@D@__crt_stdio_output@@@2@@__crt_stdio_output@@AAE_NXZ 1006c890 f i libucrtd:output.obj
 0001:0006b940       ?state_case_flag@?$output_processor@DV?$string_output_adapter@D@__crt_stdio_output@@V?$format_validation_base@DV?$string_output_adapter@D@__crt_stdio_output@@@2@@__crt_stdio_output@@AAE_NXZ 1006c940 f i libucrtd:output.obj
 0001:0006b9f0       ?state_case_flag@?$output_processor@DV?$string_output_adapter@D@__crt_stdio_output@@V?$positional_parameter_base@DV?$string_output_adapter@D@__crt_stdio_output@@@2@@__crt_stdio_output@@AAE_NXZ 1006c9f0 f i libucrtd:output.obj
 0001:0006baa0       ?state_case_flag@?$output_processor@DV?$string_output_adapter@D@__crt_stdio_output@@V?$standard_base@DV?$string_output_adapter@D@__crt_stdio_output@@@2@@__crt_stdio_output@@AAE_NXZ 1006caa0 f i libucrtd:output.obj
 0001:0006bb50       ?state_case_flag@?$output_processor@_WV?$stream_output_adapter@_W@__crt_stdio_output@@V?$format_validation_base@_WV?$stream_output_adapter@_W@__crt_stdio_output@@@2@@__crt_stdio_output@@AAE_NXZ 1006cb50 f i libucrtd:output.obj
 0001:0006bc00       ?state_case_flag@?$output_processor@_WV?$stream_output_adapter@_W@__crt_stdio_output@@V?$positional_parameter_base@_WV?$stream_output_adapter@_W@__crt_stdio_output@@@2@@__crt_stdio_output@@AAE_NXZ 1006cc00 f i libucrtd:output.obj
 0001:0006bcb0       ?state_case_flag@?$output_processor@_WV?$stream_output_adapter@_W@__crt_stdio_output@@V?$standard_base@_WV?$stream_output_adapter@_W@__crt_stdio_output@@@2@@__crt_stdio_output@@AAE_NXZ 1006ccb0 f i libucrtd:output.obj
 0001:0006bd60       ?state_case_flag@?$output_processor@_WV?$string_output_adapter@_W@__crt_stdio_output@@V?$format_validation_base@_WV?$string_output_adapter@_W@__crt_stdio_output@@@2@@__crt_stdio_output@@AAE_NXZ 1006cd60 f i libucrtd:output.obj
 0001:0006be10       ?state_case_flag@?$output_processor@_WV?$string_output_adapter@_W@__crt_stdio_output@@V?$positional_parameter_base@_WV?$string_output_adapter@_W@__crt_stdio_output@@@2@@__crt_stdio_output@@AAE_NXZ 1006ce10 f i libucrtd:output.obj
 0001:0006bec0       ?state_case_flag@?$output_processor@_WV?$string_output_adapter@_W@__crt_stdio_output@@V?$standard_base@_WV?$string_output_adapter@_W@__crt_stdio_output@@@2@@__crt_stdio_output@@AAE_NXZ 1006cec0 f i libucrtd:output.obj
 0001:0006bf70       ?state_case_normal@?$output_processor@DV?$stream_output_adapter@D@__crt_stdio_output@@V?$format_validation_base@DV?$stream_output_adapter@D@__crt_stdio_output@@@2@@__crt_stdio_output@@AAE_NXZ 1006cf70 f i libucrtd:output.obj
 0001:0006c020       ?state_case_normal@?$output_processor@DV?$stream_output_adapter@D@__crt_stdio_output@@V?$positional_parameter_base@DV?$stream_output_adapter@D@__crt_stdio_output@@@2@@__crt_stdio_output@@AAE_NXZ 1006d020 f i libucrtd:output.obj
 0001:0006c0d0       ?state_case_normal@?$output_processor@DV?$stream_output_adapter@D@__crt_stdio_output@@V?$standard_base@DV?$stream_output_adapter@D@__crt_stdio_output@@@2@@__crt_stdio_output@@AAE_NXZ 1006d0d0 f i libucrtd:output.obj
 0001:0006c180       ?state_case_normal@?$output_processor@DV?$string_output_adapter@D@__crt_stdio_output@@V?$format_validation_base@DV?$string_output_adapter@D@__crt_stdio_output@@@2@@__crt_stdio_output@@AAE_NXZ 1006d180 f i libucrtd:output.obj
 0001:0006c230       ?state_case_normal@?$output_processor@DV?$string_output_adapter@D@__crt_stdio_output@@V?$positional_parameter_base@DV?$string_output_adapter@D@__crt_stdio_output@@@2@@__crt_stdio_output@@AAE_NXZ 1006d230 f i libucrtd:output.obj
 0001:0006c2e0       ?state_case_normal@?$output_processor@DV?$string_output_adapter@D@__crt_stdio_output@@V?$standard_base@DV?$string_output_adapter@D@__crt_stdio_output@@@2@@__crt_stdio_output@@AAE_NXZ 1006d2e0 f i libucrtd:output.obj
 0001:0006c390       ?state_case_normal@?$output_processor@_WV?$stream_output_adapter@_W@__crt_stdio_output@@V?$format_validation_base@_WV?$stream_output_adapter@_W@__crt_stdio_output@@@2@@__crt_stdio_output@@AAE_NXZ 1006d390 f i libucrtd:output.obj
 0001:0006c440       ?state_case_normal@?$output_processor@_WV?$stream_output_adapter@_W@__crt_stdio_output@@V?$positional_parameter_base@_WV?$stream_output_adapter@_W@__crt_stdio_output@@@2@@__crt_stdio_output@@AAE_NXZ 1006d440 f i libucrtd:output.obj
 0001:0006c4f0       ?state_case_normal@?$output_processor@_WV?$stream_output_adapter@_W@__crt_stdio_output@@V?$standard_base@_WV?$stream_output_adapter@_W@__crt_stdio_output@@@2@@__crt_stdio_output@@AAE_NXZ 1006d4f0 f i libucrtd:output.obj
 0001:0006c5a0       ?state_case_normal@?$output_processor@_WV?$string_output_adapter@_W@__crt_stdio_output@@V?$format_validation_base@_WV?$string_output_adapter@_W@__crt_stdio_output@@@2@@__crt_stdio_output@@AAE_NXZ 1006d5a0 f i libucrtd:output.obj
 0001:0006c650       ?state_case_normal@?$output_processor@_WV?$string_output_adapter@_W@__crt_stdio_output@@V?$positional_parameter_base@_WV?$string_output_adapter@_W@__crt_stdio_output@@@2@@__crt_stdio_output@@AAE_NXZ 1006d650 f i libucrtd:output.obj
 0001:0006c700       ?state_case_normal@?$output_processor@_WV?$string_output_adapter@_W@__crt_stdio_output@@V?$standard_base@_WV?$string_output_adapter@_W@__crt_stdio_output@@@2@@__crt_stdio_output@@AAE_NXZ 1006d700 f i libucrtd:output.obj
 0001:0006c7b0       ?state_case_normal_common@?$output_processor@DV?$stream_output_adapter@D@__crt_stdio_output@@V?$format_validation_base@DV?$stream_output_adapter@D@__crt_stdio_output@@@2@@__crt_stdio_output@@AAE_NXZ 1006d7b0 f i libucrtd:output.obj
 0001:0006c800       ?state_case_normal_common@?$output_processor@DV?$stream_output_adapter@D@__crt_stdio_output@@V?$positional_parameter_base@DV?$stream_output_adapter@D@__crt_stdio_output@@@2@@__crt_stdio_output@@AAE_NXZ 1006d800 f i libucrtd:output.obj
 0001:0006c850       ?state_case_normal_common@?$output_processor@DV?$stream_output_adapter@D@__crt_stdio_output@@V?$standard_base@DV?$stream_output_adapter@D@__crt_stdio_output@@@2@@__crt_stdio_output@@AAE_NXZ 1006d850 f i libucrtd:output.obj
 0001:0006c8a0       ?state_case_normal_common@?$output_processor@DV?$string_output_adapter@D@__crt_stdio_output@@V?$format_validation_base@DV?$string_output_adapter@D@__crt_stdio_output@@@2@@__crt_stdio_output@@AAE_NXZ 1006d8a0 f i libucrtd:output.obj
 0001:0006c8f0       ?state_case_normal_common@?$output_processor@DV?$string_output_adapter@D@__crt_stdio_output@@V?$positional_parameter_base@DV?$string_output_adapter@D@__crt_stdio_output@@@2@@__crt_stdio_output@@AAE_NXZ 1006d8f0 f i libucrtd:output.obj
 0001:0006c940       ?state_case_normal_common@?$output_processor@DV?$string_output_adapter@D@__crt_stdio_output@@V?$standard_base@DV?$string_output_adapter@D@__crt_stdio_output@@@2@@__crt_stdio_output@@AAE_NXZ 1006d940 f i libucrtd:output.obj
 0001:0006c990       ?state_case_normal_common@?$output_processor@_WV?$stream_output_adapter@_W@__crt_stdio_output@@V?$format_validation_base@_WV?$stream_output_adapter@_W@__crt_stdio_output@@@2@@__crt_stdio_output@@AAE_NXZ 1006d990 f i libucrtd:output.obj
 0001:0006c9e0       ?state_case_normal_common@?$output_processor@_WV?$stream_output_adapter@_W@__crt_stdio_output@@V?$positional_parameter_base@_WV?$stream_output_adapter@_W@__crt_stdio_output@@@2@@__crt_stdio_output@@AAE_NXZ 1006d9e0 f i libucrtd:output.obj
 0001:0006ca30       ?state_case_normal_common@?$output_processor@_WV?$stream_output_adapter@_W@__crt_stdio_output@@V?$standard_base@_WV?$stream_output_adapter@_W@__crt_stdio_output@@@2@@__crt_stdio_output@@AAE_NXZ 1006da30 f i libucrtd:output.obj
 0001:0006ca80       ?state_case_normal_common@?$output_processor@_WV?$string_output_adapter@_W@__crt_stdio_output@@V?$format_validation_base@_WV?$string_output_adapter@_W@__crt_stdio_output@@@2@@__crt_stdio_output@@AAE_NXZ 1006da80 f i libucrtd:output.obj
 0001:0006cad0       ?state_case_normal_common@?$output_processor@_WV?$string_output_adapter@_W@__crt_stdio_output@@V?$positional_parameter_base@_WV?$string_output_adapter@_W@__crt_stdio_output@@@2@@__crt_stdio_output@@AAE_NXZ 1006dad0 f i libucrtd:output.obj
 0001:0006cb20       ?state_case_normal_common@?$output_processor@_WV?$string_output_adapter@_W@__crt_stdio_output@@V?$standard_base@_WV?$string_output_adapter@_W@__crt_stdio_output@@@2@@__crt_stdio_output@@AAE_NXZ 1006db20 f i libucrtd:output.obj
 0001:0006cb70       ?state_case_normal_tchar@?$output_processor@DV?$stream_output_adapter@D@__crt_stdio_output@@V?$format_validation_base@DV?$stream_output_adapter@D@__crt_stdio_output@@@2@@__crt_stdio_output@@AAE_ND@Z 1006db70 f i libucrtd:output.obj
 0001:0006cc70       ?state_case_normal_tchar@?$output_processor@DV?$stream_output_adapter@D@__crt_stdio_output@@V?$positional_parameter_base@DV?$stream_output_adapter@D@__crt_stdio_output@@@2@@__crt_stdio_output@@AAE_ND@Z 1006dc70 f i libucrtd:output.obj
 0001:0006cd70       ?state_case_normal_tchar@?$output_processor@DV?$stream_output_adapter@D@__crt_stdio_output@@V?$standard_base@DV?$stream_output_adapter@D@__crt_stdio_output@@@2@@__crt_stdio_output@@AAE_ND@Z 1006dd70 f i libucrtd:output.obj
 0001:0006ce70       ?state_case_normal_tchar@?$output_processor@DV?$string_output_adapter@D@__crt_stdio_output@@V?$format_validation_base@DV?$string_output_adapter@D@__crt_stdio_output@@@2@@__crt_stdio_output@@AAE_ND@Z 1006de70 f i libucrtd:output.obj
 0001:0006cf70       ?state_case_normal_tchar@?$output_processor@DV?$string_output_adapter@D@__crt_stdio_output@@V?$positional_parameter_base@DV?$string_output_adapter@D@__crt_stdio_output@@@2@@__crt_stdio_output@@AAE_ND@Z 1006df70 f i libucrtd:output.obj
 0001:0006d070       ?state_case_normal_tchar@?$output_processor@DV?$string_output_adapter@D@__crt_stdio_output@@V?$standard_base@DV?$string_output_adapter@D@__crt_stdio_output@@@2@@__crt_stdio_output@@AAE_ND@Z 1006e070 f i libucrtd:output.obj
 0001:0006d170       ?state_case_normal_tchar@?$output_processor@_WV?$stream_output_adapter@_W@__crt_stdio_output@@V?$format_validation_base@_WV?$stream_output_adapter@_W@__crt_stdio_output@@@2@@__crt_stdio_output@@AAE_N_W@Z 1006e170 f i libucrtd:output.obj
 0001:0006d190       ?state_case_normal_tchar@?$output_processor@_WV?$stream_output_adapter@_W@__crt_stdio_output@@V?$positional_parameter_base@_WV?$stream_output_adapter@_W@__crt_stdio_output@@@2@@__crt_stdio_output@@AAE_N_W@Z 1006e190 f i libucrtd:output.obj
 0001:0006d1b0       ?state_case_normal_tchar@?$output_processor@_WV?$stream_output_adapter@_W@__crt_stdio_output@@V?$standard_base@_WV?$stream_output_adapter@_W@__crt_stdio_output@@@2@@__crt_stdio_output@@AAE_N_W@Z 1006e1b0 f i libucrtd:output.obj
 0001:0006d1d0       ?state_case_normal_tchar@?$output_processor@_WV?$string_output_adapter@_W@__crt_stdio_output@@V?$format_validation_base@_WV?$string_output_adapter@_W@__crt_stdio_output@@@2@@__crt_stdio_output@@AAE_N_W@Z 1006e1d0 f i libucrtd:output.obj
 0001:0006d1f0       ?state_case_normal_tchar@?$output_processor@_WV?$string_output_adapter@_W@__crt_stdio_output@@V?$positional_parameter_base@_WV?$string_output_adapter@_W@__crt_stdio_output@@@2@@__crt_stdio_output@@AAE_N_W@Z 1006e1f0 f i libucrtd:output.obj
 0001:0006d210       ?state_case_normal_tchar@?$output_processor@_WV?$string_output_adapter@_W@__crt_stdio_output@@V?$standard_base@_WV?$string_output_adapter@_W@__crt_stdio_output@@@2@@__crt_stdio_output@@AAE_N_W@Z 1006e210 f i libucrtd:output.obj
 0001:0006d230       ?state_case_percent@?$output_processor@DV?$stream_output_adapter@D@__crt_stdio_output@@V?$format_validation_base@DV?$stream_output_adapter@D@__crt_stdio_output@@@2@@__crt_stdio_output@@AAE_NXZ 1006e230 f i libucrtd:output.obj
 0001:0006d280       ?state_case_percent@?$output_processor@DV?$stream_output_adapter@D@__crt_stdio_output@@V?$positional_parameter_base@DV?$stream_output_adapter@D@__crt_stdio_output@@@2@@__crt_stdio_output@@AAE_NXZ 1006e280 f i libucrtd:output.obj
 0001:0006d2d0       ?state_case_percent@?$output_processor@DV?$stream_output_adapter@D@__crt_stdio_output@@V?$standard_base@DV?$stream_output_adapter@D@__crt_stdio_output@@@2@@__crt_stdio_output@@AAE_NXZ 1006e2d0 f i libucrtd:output.obj
 0001:0006d320       ?state_case_percent@?$output_processor@DV?$string_output_adapter@D@__crt_stdio_output@@V?$format_validation_base@DV?$string_output_adapter@D@__crt_stdio_output@@@2@@__crt_stdio_output@@AAE_NXZ 1006e320 f i libucrtd:output.obj
 0001:0006d370       ?state_case_percent@?$output_processor@DV?$string_output_adapter@D@__crt_stdio_output@@V?$positional_parameter_base@DV?$string_output_adapter@D@__crt_stdio_output@@@2@@__crt_stdio_output@@AAE_NXZ 1006e370 f i libucrtd:output.obj
 0001:0006d3c0       ?state_case_percent@?$output_processor@DV?$string_output_adapter@D@__crt_stdio_output@@V?$standard_base@DV?$string_output_adapter@D@__crt_stdio_output@@@2@@__crt_stdio_output@@AAE_NXZ 1006e3c0 f i libucrtd:output.obj
 0001:0006d410       ?state_case_percent@?$output_processor@_WV?$stream_output_adapter@_W@__crt_stdio_output@@V?$format_validation_base@_WV?$stream_output_adapter@_W@__crt_stdio_output@@@2@@__crt_stdio_output@@AAE_NXZ 1006e410 f i libucrtd:output.obj
 0001:0006d460       ?state_case_percent@?$output_processor@_WV?$stream_output_adapter@_W@__crt_stdio_output@@V?$positional_parameter_base@_WV?$stream_output_adapter@_W@__crt_stdio_output@@@2@@__crt_stdio_output@@AAE_NXZ 1006e460 f i libucrtd:output.obj
 0001:0006d4b0       ?state_case_percent@?$output_processor@_WV?$stream_output_adapter@_W@__crt_stdio_output@@V?$standard_base@_WV?$stream_output_adapter@_W@__crt_stdio_output@@@2@@__crt_stdio_output@@AAE_NXZ 1006e4b0 f i libucrtd:output.obj
 0001:0006d500       ?state_case_percent@?$output_processor@_WV?$string_output_adapter@_W@__crt_stdio_output@@V?$format_validation_base@_WV?$string_output_adapter@_W@__crt_stdio_output@@@2@@__crt_stdio_output@@AAE_NXZ 1006e500 f i libucrtd:output.obj
 0001:0006d550       ?state_case_percent@?$output_processor@_WV?$string_output_adapter@_W@__crt_stdio_output@@V?$positional_parameter_base@_WV?$string_output_adapter@_W@__crt_stdio_output@@@2@@__crt_stdio_output@@AAE_NXZ 1006e550 f i libucrtd:output.obj
 0001:0006d5a0       ?state_case_percent@?$output_processor@_WV?$string_output_adapter@_W@__crt_stdio_output@@V?$standard_base@_WV?$string_output_adapter@_W@__crt_stdio_output@@@2@@__crt_stdio_output@@AAE_NXZ 1006e5a0 f i libucrtd:output.obj
 0001:0006d5f0       ?state_case_precision@?$output_processor@DV?$stream_output_adapter@D@__crt_stdio_output@@V?$format_validation_base@DV?$stream_output_adapter@D@__crt_stdio_output@@@2@@__crt_stdio_output@@AAE_NXZ 1006e5f0 f i libucrtd:output.obj
 0001:0006d660       ?state_case_precision@?$output_processor@DV?$stream_output_adapter@D@__crt_stdio_output@@V?$positional_parameter_base@DV?$stream_output_adapter@D@__crt_stdio_output@@@2@@__crt_stdio_output@@AAE_NXZ 1006e660 f i libucrtd:output.obj
 0001:0006d6d0       ?state_case_precision@?$output_processor@DV?$stream_output_adapter@D@__crt_stdio_output@@V?$standard_base@DV?$stream_output_adapter@D@__crt_stdio_output@@@2@@__crt_stdio_output@@AAE_NXZ 1006e6d0 f i libucrtd:output.obj
 0001:0006d740       ?state_case_precision@?$output_processor@DV?$string_output_adapter@D@__crt_stdio_output@@V?$format_validation_base@DV?$string_output_adapter@D@__crt_stdio_output@@@2@@__crt_stdio_output@@AAE_NXZ 1006e740 f i libucrtd:output.obj
 0001:0006d7b0       ?state_case_precision@?$output_processor@DV?$string_output_adapter@D@__crt_stdio_output@@V?$positional_parameter_base@DV?$string_output_adapter@D@__crt_stdio_output@@@2@@__crt_stdio_output@@AAE_NXZ 1006e7b0 f i libucrtd:output.obj
 0001:0006d820       ?state_case_precision@?$output_processor@DV?$string_output_adapter@D@__crt_stdio_output@@V?$standard_base@DV?$string_output_adapter@D@__crt_stdio_output@@@2@@__crt_stdio_output@@AAE_NXZ 1006e820 f i libucrtd:output.obj
 0001:0006d890       ?state_case_precision@?$output_processor@_WV?$stream_output_adapter@_W@__crt_stdio_output@@V?$format_validation_base@_WV?$stream_output_adapter@_W@__crt_stdio_output@@@2@@__crt_stdio_output@@AAE_NXZ 1006e890 f i libucrtd:output.obj
 0001:0006d900       ?state_case_precision@?$output_processor@_WV?$stream_output_adapter@_W@__crt_stdio_output@@V?$positional_parameter_base@_WV?$stream_output_adapter@_W@__crt_stdio_output@@@2@@__crt_stdio_output@@AAE_NXZ 1006e900 f i libucrtd:output.obj
 0001:0006d970       ?state_case_precision@?$output_processor@_WV?$stream_output_adapter@_W@__crt_stdio_output@@V?$standard_base@_WV?$stream_output_adapter@_W@__crt_stdio_output@@@2@@__crt_stdio_output@@AAE_NXZ 1006e970 f i libucrtd:output.obj
 0001:0006d9e0       ?state_case_precision@?$output_processor@_WV?$string_output_adapter@_W@__crt_stdio_output@@V?$format_validation_base@_WV?$string_output_adapter@_W@__crt_stdio_output@@@2@@__crt_stdio_output@@AAE_NXZ 1006e9e0 f i libucrtd:output.obj
 0001:0006da50       ?state_case_precision@?$output_processor@_WV?$string_output_adapter@_W@__crt_stdio_output@@V?$positional_parameter_base@_WV?$string_output_adapter@_W@__crt_stdio_output@@@2@@__crt_stdio_output@@AAE_NXZ 1006ea50 f i libucrtd:output.obj
 0001:0006dac0       ?state_case_precision@?$output_processor@_WV?$string_output_adapter@_W@__crt_stdio_output@@V?$standard_base@_WV?$string_output_adapter@_W@__crt_stdio_output@@@2@@__crt_stdio_output@@AAE_NXZ 1006eac0 f i libucrtd:output.obj
 0001:0006db30       ?state_case_size@?$output_processor@DV?$stream_output_adapter@D@__crt_stdio_output@@V?$format_validation_base@DV?$stream_output_adapter@D@__crt_stdio_output@@@2@@__crt_stdio_output@@AAE_NXZ 1006eb30 f i libucrtd:output.obj
 0001:0006df00       ?state_case_size@?$output_processor@DV?$stream_output_adapter@D@__crt_stdio_output@@V?$positional_parameter_base@DV?$stream_output_adapter@D@__crt_stdio_output@@@2@@__crt_stdio_output@@AAE_NXZ 1006ef00 f i libucrtd:output.obj
 0001:0006e2d0       ?state_case_size@?$output_processor@DV?$stream_output_adapter@D@__crt_stdio_output@@V?$standard_base@DV?$stream_output_adapter@D@__crt_stdio_output@@@2@@__crt_stdio_output@@AAE_NXZ 1006f2d0 f i libucrtd:output.obj
 0001:0006e6a0       ?state_case_size@?$output_processor@DV?$string_output_adapter@D@__crt_stdio_output@@V?$format_validation_base@DV?$string_output_adapter@D@__crt_stdio_output@@@2@@__crt_stdio_output@@AAE_NXZ 1006f6a0 f i libucrtd:output.obj
 0001:0006ea70       ?state_case_size@?$output_processor@DV?$string_output_adapter@D@__crt_stdio_output@@V?$positional_parameter_base@DV?$string_output_adapter@D@__crt_stdio_output@@@2@@__crt_stdio_output@@AAE_NXZ 1006fa70 f i libucrtd:output.obj
 0001:0006ee40       ?state_case_size@?$output_processor@DV?$string_output_adapter@D@__crt_stdio_output@@V?$standard_base@DV?$string_output_adapter@D@__crt_stdio_output@@@2@@__crt_stdio_output@@AAE_NXZ 1006fe40 f i libucrtd:output.obj
 0001:0006f210       ?state_case_size@?$output_processor@_WV?$stream_output_adapter@_W@__crt_stdio_output@@V?$format_validation_base@_WV?$stream_output_adapter@_W@__crt_stdio_output@@@2@@__crt_stdio_output@@AAE_NXZ 10070210 f i libucrtd:output.obj
 0001:0006f5e0       ?state_case_size@?$output_processor@_WV?$stream_output_adapter@_W@__crt_stdio_output@@V?$positional_parameter_base@_WV?$stream_output_adapter@_W@__crt_stdio_output@@@2@@__crt_stdio_output@@AAE_NXZ 100705e0 f i libucrtd:output.obj
 0001:0006f9b0       ?state_case_size@?$output_processor@_WV?$stream_output_adapter@_W@__crt_stdio_output@@V?$standard_base@_WV?$stream_output_adapter@_W@__crt_stdio_output@@@2@@__crt_stdio_output@@AAE_NXZ 100709b0 f i libucrtd:output.obj
 0001:0006fd80       ?state_case_size@?$output_processor@_WV?$string_output_adapter@_W@__crt_stdio_output@@V?$format_validation_base@_WV?$string_output_adapter@_W@__crt_stdio_output@@@2@@__crt_stdio_output@@AAE_NXZ 10070d80 f i libucrtd:output.obj
 0001:00070150       ?state_case_size@?$output_processor@_WV?$string_output_adapter@_W@__crt_stdio_output@@V?$positional_parameter_base@_WV?$string_output_adapter@_W@__crt_stdio_output@@@2@@__crt_stdio_output@@AAE_NXZ 10071150 f i libucrtd:output.obj
 0001:00070520       ?state_case_size@?$output_processor@_WV?$string_output_adapter@_W@__crt_stdio_output@@V?$standard_base@_WV?$string_output_adapter@_W@__crt_stdio_output@@@2@@__crt_stdio_output@@AAE_NXZ 10071520 f i libucrtd:output.obj
 0001:000708f0       ?state_case_type@?$output_processor@DV?$stream_output_adapter@D@__crt_stdio_output@@V?$format_validation_base@DV?$stream_output_adapter@D@__crt_stdio_output@@@2@@__crt_stdio_output@@AAE_NXZ 100718f0 f i libucrtd:output.obj
 0001:00070ca0       ?state_case_type@?$output_processor@DV?$stream_output_adapter@D@__crt_stdio_output@@V?$positional_parameter_base@DV?$stream_output_adapter@D@__crt_stdio_output@@@2@@__crt_stdio_output@@AAE_NXZ 10071ca0 f i libucrtd:output.obj
 0001:00071050       ?state_case_type@?$output_processor@DV?$stream_output_adapter@D@__crt_stdio_output@@V?$standard_base@DV?$stream_output_adapter@D@__crt_stdio_output@@@2@@__crt_stdio_output@@AAE_NXZ 10072050 f i libucrtd:output.obj
 0001:00071400       ?state_case_type@?$output_processor@DV?$string_output_adapter@D@__crt_stdio_output@@V?$format_validation_base@DV?$string_output_adapter@D@__crt_stdio_output@@@2@@__crt_stdio_output@@AAE_NXZ 10072400 f i libucrtd:output.obj
 0001:000717b0       ?state_case_type@?$output_processor@DV?$string_output_adapter@D@__crt_stdio_output@@V?$positional_parameter_base@DV?$string_output_adapter@D@__crt_stdio_output@@@2@@__crt_stdio_output@@AAE_NXZ 100727b0 f i libucrtd:output.obj
 0001:00071b60       ?state_case_type@?$output_processor@DV?$string_output_adapter@D@__crt_stdio_output@@V?$standard_base@DV?$string_output_adapter@D@__crt_stdio_output@@@2@@__crt_stdio_output@@AAE_NXZ 10072b60 f i libucrtd:output.obj
 0001:00071f10       ?state_case_type@?$output_processor@_WV?$stream_output_adapter@_W@__crt_stdio_output@@V?$format_validation_base@_WV?$stream_output_adapter@_W@__crt_stdio_output@@@2@@__crt_stdio_output@@AAE_NXZ 10072f10 f i libucrtd:output.obj
 0001:000722f0       ?state_case_type@?$output_processor@_WV?$stream_output_adapter@_W@__crt_stdio_output@@V?$positional_parameter_base@_WV?$stream_output_adapter@_W@__crt_stdio_output@@@2@@__crt_stdio_output@@AAE_NXZ 100732f0 f i libucrtd:output.obj
 0001:000726d0       ?state_case_type@?$output_processor@_WV?$stream_output_adapter@_W@__crt_stdio_output@@V?$standard_base@_WV?$stream_output_adapter@_W@__crt_stdio_output@@@2@@__crt_stdio_output@@AAE_NXZ 100736d0 f i libucrtd:output.obj
 0001:00072ab0       ?state_case_type@?$output_processor@_WV?$string_output_adapter@_W@__crt_stdio_output@@V?$format_validation_base@_WV?$string_output_adapter@_W@__crt_stdio_output@@@2@@__crt_stdio_output@@AAE_NXZ 10073ab0 f i libucrtd:output.obj
 0001:00072e90       ?state_case_type@?$output_processor@_WV?$string_output_adapter@_W@__crt_stdio_output@@V?$positional_parameter_base@_WV?$string_output_adapter@_W@__crt_stdio_output@@@2@@__crt_stdio_output@@AAE_NXZ 10073e90 f i libucrtd:output.obj
 0001:00073270       ?state_case_type@?$output_processor@_WV?$string_output_adapter@_W@__crt_stdio_output@@V?$standard_base@_WV?$string_output_adapter@_W@__crt_stdio_output@@@2@@__crt_stdio_output@@AAE_NXZ 10074270 f i libucrtd:output.obj
 0001:00073650       ?state_case_width@?$output_processor@DV?$stream_output_adapter@D@__crt_stdio_output@@V?$format_validation_base@DV?$stream_output_adapter@D@__crt_stdio_output@@@2@@__crt_stdio_output@@AAE_NXZ 10074650 f i libucrtd:output.obj
 0001:000736d0       ?state_case_width@?$output_processor@DV?$stream_output_adapter@D@__crt_stdio_output@@V?$positional_parameter_base@DV?$stream_output_adapter@D@__crt_stdio_output@@@2@@__crt_stdio_output@@AAE_NXZ 100746d0 f i libucrtd:output.obj
 0001:00073750       ?state_case_width@?$output_processor@DV?$stream_output_adapter@D@__crt_stdio_output@@V?$standard_base@DV?$stream_output_adapter@D@__crt_stdio_output@@@2@@__crt_stdio_output@@AAE_NXZ 10074750 f i libucrtd:output.obj
 0001:000737d0       ?state_case_width@?$output_processor@DV?$string_output_adapter@D@__crt_stdio_output@@V?$format_validation_base@DV?$string_output_adapter@D@__crt_stdio_output@@@2@@__crt_stdio_output@@AAE_NXZ 100747d0 f i libucrtd:output.obj
 0001:00073850       ?state_case_width@?$output_processor@DV?$string_output_adapter@D@__crt_stdio_output@@V?$positional_parameter_base@DV?$string_output_adapter@D@__crt_stdio_output@@@2@@__crt_stdio_output@@AAE_NXZ 10074850 f i libucrtd:output.obj
 0001:000738d0       ?state_case_width@?$output_processor@DV?$string_output_adapter@D@__crt_stdio_output@@V?$standard_base@DV?$string_output_adapter@D@__crt_stdio_output@@@2@@__crt_stdio_output@@AAE_NXZ 100748d0 f i libucrtd:output.obj
 0001:00073950       ?state_case_width@?$output_processor@_WV?$stream_output_adapter@_W@__crt_stdio_output@@V?$format_validation_base@_WV?$stream_output_adapter@_W@__crt_stdio_output@@@2@@__crt_stdio_output@@AAE_NXZ 10074950 f i libucrtd:output.obj
 0001:000739d0       ?state_case_width@?$output_processor@_WV?$stream_output_adapter@_W@__crt_stdio_output@@V?$positional_parameter_base@_WV?$stream_output_adapter@_W@__crt_stdio_output@@@2@@__crt_stdio_output@@AAE_NXZ 100749d0 f i libucrtd:output.obj
 0001:00073a50       ?state_case_width@?$output_processor@_WV?$stream_output_adapter@_W@__crt_stdio_output@@V?$standard_base@_WV?$stream_output_adapter@_W@__crt_stdio_output@@@2@@__crt_stdio_output@@AAE_NXZ 10074a50 f i libucrtd:output.obj
 0001:00073ad0       ?state_case_width@?$output_processor@_WV?$string_output_adapter@_W@__crt_stdio_output@@V?$format_validation_base@_WV?$string_output_adapter@_W@__crt_stdio_output@@@2@@__crt_stdio_output@@AAE_NXZ 10074ad0 f i libucrtd:output.obj
 0001:00073b50       ?state_case_width@?$output_processor@_WV?$string_output_adapter@_W@__crt_stdio_output@@V?$positional_parameter_base@_WV?$string_output_adapter@_W@__crt_stdio_output@@@2@@__crt_stdio_output@@AAE_NXZ 10074b50 f i libucrtd:output.obj
 0001:00073bd0       ?state_case_width@?$output_processor@_WV?$string_output_adapter@_W@__crt_stdio_output@@V?$standard_base@_WV?$string_output_adapter@_W@__crt_stdio_output@@@2@@__crt_stdio_output@@AAE_NXZ 10074bd0 f i libucrtd:output.obj
 0001:00073c50       ?state_count@?$format_validation_base@DV?$stream_output_adapter@D@__crt_stdio_output@@@__crt_stdio_output@@KAIXZ 10074c50 f i libucrtd:output.obj
 0001:00073c60       ?state_count@?$format_validation_base@DV?$string_output_adapter@D@__crt_stdio_output@@@__crt_stdio_output@@KAIXZ 10074c60 f i libucrtd:output.obj
 0001:00073c70       ?state_count@?$format_validation_base@_WV?$stream_output_adapter@_W@__crt_stdio_output@@@__crt_stdio_output@@KAIXZ 10074c70 f i libucrtd:output.obj
 0001:00073c80       ?state_count@?$format_validation_base@_WV?$string_output_adapter@_W@__crt_stdio_output@@@__crt_stdio_output@@KAIXZ 10074c80 f i libucrtd:output.obj
 0001:00073c90       ?state_count@?$standard_base@DV?$stream_output_adapter@D@__crt_stdio_output@@@__crt_stdio_output@@KAIXZ 10074c90 f i libucrtd:output.obj
 0001:00073ca0       ?state_count@?$standard_base@DV?$string_output_adapter@D@__crt_stdio_output@@@__crt_stdio_output@@KAIXZ 10074ca0 f i libucrtd:output.obj
 0001:00073cb0       ?state_count@?$standard_base@_WV?$stream_output_adapter@_W@__crt_stdio_output@@@__crt_stdio_output@@KAIXZ 10074cb0 f i libucrtd:output.obj
 0001:00073cc0       ?state_count@?$standard_base@_WV?$string_output_adapter@_W@__crt_stdio_output@@@__crt_stdio_output@@KAIXZ 10074cc0 f i libucrtd:output.obj
 0001:00073cd0       ?state_transition_table@?$format_validation_base@DV?$stream_output_adapter@D@__crt_stdio_output@@@__crt_stdio_output@@KAABV?$spectre_mitigated_lookup_table@Ustate_transition_pair@__crt_stdio_output@@$0IA@@2@XZ 10074cd0 f i libucrtd:output.obj
 0001:00073ce0       ?state_transition_table@?$format_validation_base@DV?$string_output_adapter@D@__crt_stdio_output@@@__crt_stdio_output@@KAABV?$spectre_mitigated_lookup_table@Ustate_transition_pair@__crt_stdio_output@@$0IA@@2@XZ 10074ce0 f i libucrtd:output.obj
 0001:00073cf0       ?state_transition_table@?$format_validation_base@_WV?$stream_output_adapter@_W@__crt_stdio_output@@@__crt_stdio_output@@KAABV?$spectre_mitigated_lookup_table@Ustate_transition_pair@__crt_stdio_output@@$0IA@@2@XZ 10074cf0 f i libucrtd:output.obj
 0001:00073d00       ?state_transition_table@?$format_validation_base@_WV?$string_output_adapter@_W@__crt_stdio_output@@@__crt_stdio_output@@KAABV?$spectre_mitigated_lookup_table@Ustate_transition_pair@__crt_stdio_output@@$0IA@@2@XZ 10074d00 f i libucrtd:output.obj
 0001:00073d10       ?state_transition_table@?$standard_base@DV?$stream_output_adapter@D@__crt_stdio_output@@@__crt_stdio_output@@KAABV?$spectre_mitigated_lookup_table@Ustate_transition_pair@__crt_stdio_output@@$0IA@@2@XZ 10074d10 f i libucrtd:output.obj
 0001:00073d20       ?state_transition_table@?$standard_base@DV?$string_output_adapter@D@__crt_stdio_output@@@__crt_stdio_output@@KAABV?$spectre_mitigated_lookup_table@Ustate_transition_pair@__crt_stdio_output@@$0IA@@2@XZ 10074d20 f i libucrtd:output.obj
 0001:00073d30       ?state_transition_table@?$standard_base@_WV?$stream_output_adapter@_W@__crt_stdio_output@@@__crt_stdio_output@@KAABV?$spectre_mitigated_lookup_table@Ustate_transition_pair@__crt_stdio_output@@$0IA@@2@XZ 10074d30 f i libucrtd:output.obj
 0001:00073d40       ?state_transition_table@?$standard_base@_WV?$string_output_adapter@_W@__crt_stdio_output@@@__crt_stdio_output@@KAABV?$spectre_mitigated_lookup_table@Ustate_transition_pair@__crt_stdio_output@@$0IA@@2@XZ 10074d40 f i libucrtd:output.obj
 0001:00073d50       ?tchar_string@?$common_data@D@__crt_stdio_output@@IAEAAPADD@Z 10074d50 f i libucrtd:output.obj
 0001:00073d70       ?tchar_string@?$common_data@D@__crt_stdio_output@@IAEAAPADXZ 10074d70 f i libucrtd:output.obj
 0001:00073d90       ?tchar_string@?$common_data@_W@__crt_stdio_output@@IAEAAPA_WXZ 10074d90 f i libucrtd:output.obj
 0001:00073db0       ?tchar_string@?$common_data@_W@__crt_stdio_output@@IAEAAPA_W_W@Z 10074db0 f i libucrtd:output.obj
 0001:00073dd0       ?to_integer_size@__crt_stdio_output@@YAIW4length_modifier@1@@Z 10074dd0 f i libucrtd:output.obj
 0001:00073e70       ?type_case_X@?$output_processor@DV?$stream_output_adapter@D@__crt_stdio_output@@V?$format_validation_base@DV?$stream_output_adapter@D@__crt_stdio_output@@@2@@__crt_stdio_output@@AAE_NXZ 10074e70 f i libucrtd:output.obj
 0001:00073e90       ?type_case_X@?$output_processor@DV?$stream_output_adapter@D@__crt_stdio_output@@V?$positional_parameter_base@DV?$stream_output_adapter@D@__crt_stdio_output@@@2@@__crt_stdio_output@@AAE_NXZ 10074e90 f i libucrtd:output.obj
 0001:00073eb0       ?type_case_X@?$output_processor@DV?$stream_output_adapter@D@__crt_stdio_output@@V?$standard_base@DV?$stream_output_adapter@D@__crt_stdio_output@@@2@@__crt_stdio_output@@AAE_NXZ 10074eb0 f i libucrtd:output.obj
 0001:00073ed0       ?type_case_X@?$output_processor@DV?$string_output_adapter@D@__crt_stdio_output@@V?$format_validation_base@DV?$string_output_adapter@D@__crt_stdio_output@@@2@@__crt_stdio_output@@AAE_NXZ 10074ed0 f i libucrtd:output.obj
 0001:00073ef0       ?type_case_X@?$output_processor@DV?$string_output_adapter@D@__crt_stdio_output@@V?$positional_parameter_base@DV?$string_output_adapter@D@__crt_stdio_output@@@2@@__crt_stdio_output@@AAE_NXZ 10074ef0 f i libucrtd:output.obj
 0001:00073f10       ?type_case_X@?$output_processor@DV?$string_output_adapter@D@__crt_stdio_output@@V?$standard_base@DV?$string_output_adapter@D@__crt_stdio_output@@@2@@__crt_stdio_output@@AAE_NXZ 10074f10 f i libucrtd:output.obj
 0001:00073f30       ?type_case_X@?$output_processor@_WV?$stream_output_adapter@_W@__crt_stdio_output@@V?$format_validation_base@_WV?$stream_output_adapter@_W@__crt_stdio_output@@@2@@__crt_stdio_output@@AAE_NXZ 10074f30 f i libucrtd:output.obj
 0001:00073f50       ?type_case_X@?$output_processor@_WV?$stream_output_adapter@_W@__crt_stdio_output@@V?$positional_parameter_base@_WV?$stream_output_adapter@_W@__crt_stdio_output@@@2@@__crt_stdio_output@@AAE_NXZ 10074f50 f i libucrtd:output.obj
 0001:00073f70       ?type_case_X@?$output_processor@_WV?$stream_output_adapter@_W@__crt_stdio_output@@V?$standard_base@_WV?$stream_output_adapter@_W@__crt_stdio_output@@@2@@__crt_stdio_output@@AAE_NXZ 10074f70 f i libucrtd:output.obj
 0001:00073f90       ?type_case_X@?$output_processor@_WV?$string_output_adapter@_W@__crt_stdio_output@@V?$format_validation_base@_WV?$string_output_adapter@_W@__crt_stdio_output@@@2@@__crt_stdio_output@@AAE_NXZ 10074f90 f i libucrtd:output.obj
 0001:00073fb0       ?type_case_X@?$output_processor@_WV?$string_output_adapter@_W@__crt_stdio_output@@V?$positional_parameter_base@_WV?$string_output_adapter@_W@__crt_stdio_output@@@2@@__crt_stdio_output@@AAE_NXZ 10074fb0 f i libucrtd:output.obj
 0001:00073fd0       ?type_case_X@?$output_processor@_WV?$string_output_adapter@_W@__crt_stdio_output@@V?$standard_base@_WV?$string_output_adapter@_W@__crt_stdio_output@@@2@@__crt_stdio_output@@AAE_NXZ 10074fd0 f i libucrtd:output.obj
 0001:00073ff0       ?type_case_Z@?$output_processor@DV?$stream_output_adapter@D@__crt_stdio_output@@V?$format_validation_base@DV?$stream_output_adapter@D@__crt_stdio_output@@@2@@__crt_stdio_output@@AAE_NXZ 10074ff0 f i libucrtd:output.obj
 0001:000740e0       ?type_case_Z@?$output_processor@DV?$stream_output_adapter@D@__crt_stdio_output@@V?$positional_parameter_base@DV?$stream_output_adapter@D@__crt_stdio_output@@@2@@__crt_stdio_output@@AAE_NXZ 100750e0 f i libucrtd:output.obj
 0001:000741d0       ?type_case_Z@?$output_processor@DV?$stream_output_adapter@D@__crt_stdio_output@@V?$standard_base@DV?$stream_output_adapter@D@__crt_stdio_output@@@2@@__crt_stdio_output@@AAE_NXZ 100751d0 f i libucrtd:output.obj
 0001:000742c0       ?type_case_Z@?$output_processor@DV?$string_output_adapter@D@__crt_stdio_output@@V?$format_validation_base@DV?$string_output_adapter@D@__crt_stdio_output@@@2@@__crt_stdio_output@@AAE_NXZ 100752c0 f i libucrtd:output.obj
 0001:000743b0       ?type_case_Z@?$output_processor@DV?$string_output_adapter@D@__crt_stdio_output@@V?$positional_parameter_base@DV?$string_output_adapter@D@__crt_stdio_output@@@2@@__crt_stdio_output@@AAE_NXZ 100753b0 f i libucrtd:output.obj
 0001:000744a0       ?type_case_Z@?$output_processor@DV?$string_output_adapter@D@__crt_stdio_output@@V?$standard_base@DV?$string_output_adapter@D@__crt_stdio_output@@@2@@__crt_stdio_output@@AAE_NXZ 100754a0 f i libucrtd:output.obj
 0001:00074590       ?type_case_Z@?$output_processor@_WV?$stream_output_adapter@_W@__crt_stdio_output@@V?$format_validation_base@_WV?$stream_output_adapter@_W@__crt_stdio_output@@@2@@__crt_stdio_output@@AAE_NXZ 10075590 f i libucrtd:output.obj
 0001:00074680       ?type_case_Z@?$output_processor@_WV?$stream_output_adapter@_W@__crt_stdio_output@@V?$positional_parameter_base@_WV?$stream_output_adapter@_W@__crt_stdio_output@@@2@@__crt_stdio_output@@AAE_NXZ 10075680 f i libucrtd:output.obj
 0001:00074770       ?type_case_Z@?$output_processor@_WV?$stream_output_adapter@_W@__crt_stdio_output@@V?$standard_base@_WV?$stream_output_adapter@_W@__crt_stdio_output@@@2@@__crt_stdio_output@@AAE_NXZ 10075770 f i libucrtd:output.obj
 0001:00074860       ?type_case_Z@?$output_processor@_WV?$string_output_adapter@_W@__crt_stdio_output@@V?$format_validation_base@_WV?$string_output_adapter@_W@__crt_stdio_output@@@2@@__crt_stdio_output@@AAE_NXZ 10075860 f i libucrtd:output.obj
 0001:00074950       ?type_case_Z@?$output_processor@_WV?$string_output_adapter@_W@__crt_stdio_output@@V?$positional_parameter_base@_WV?$string_output_adapter@_W@__crt_stdio_output@@@2@@__crt_stdio_output@@AAE_NXZ 10075950 f i libucrtd:output.obj
 0001:00074a40       ?type_case_Z@?$output_processor@_WV?$string_output_adapter@_W@__crt_stdio_output@@V?$standard_base@_WV?$string_output_adapter@_W@__crt_stdio_output@@@2@@__crt_stdio_output@@AAE_NXZ 10075a40 f i libucrtd:output.obj
 0001:00074b30       ?type_case_a@?$output_processor@DV?$stream_output_adapter@D@__crt_stdio_output@@V?$format_validation_base@DV?$stream_output_adapter@D@__crt_stdio_output@@@2@@__crt_stdio_output@@AAE_NXZ 10075b30 f i libucrtd:output.obj
 0001:00074da0       ?type_case_a@?$output_processor@DV?$stream_output_adapter@D@__crt_stdio_output@@V?$positional_parameter_base@DV?$stream_output_adapter@D@__crt_stdio_output@@@2@@__crt_stdio_output@@AAE_NXZ 10075da0 f i libucrtd:output.obj
 0001:00075010       ?type_case_a@?$output_processor@DV?$stream_output_adapter@D@__crt_stdio_output@@V?$standard_base@DV?$stream_output_adapter@D@__crt_stdio_output@@@2@@__crt_stdio_output@@AAE_NXZ 10076010 f i libucrtd:output.obj
 0001:00075280       ?type_case_a@?$output_processor@DV?$string_output_adapter@D@__crt_stdio_output@@V?$format_validation_base@DV?$string_output_adapter@D@__crt_stdio_output@@@2@@__crt_stdio_output@@AAE_NXZ 10076280 f i libucrtd:output.obj
 0001:000754f0       ?type_case_a@?$output_processor@DV?$string_output_adapter@D@__crt_stdio_output@@V?$positional_parameter_base@DV?$string_output_adapter@D@__crt_stdio_output@@@2@@__crt_stdio_output@@AAE_NXZ 100764f0 f i libucrtd:output.obj
 0001:00075760       ?type_case_a@?$output_processor@DV?$string_output_adapter@D@__crt_stdio_output@@V?$standard_base@DV?$string_output_adapter@D@__crt_stdio_output@@@2@@__crt_stdio_output@@AAE_NXZ 10076760 f i libucrtd:output.obj
 0001:000759d0       ?type_case_a@?$output_processor@_WV?$stream_output_adapter@_W@__crt_stdio_output@@V?$format_validation_base@_WV?$stream_output_adapter@_W@__crt_stdio_output@@@2@@__crt_stdio_output@@AAE_NXZ 100769d0 f i libucrtd:output.obj
 0001:00075c40       ?type_case_a@?$output_processor@_WV?$stream_output_adapter@_W@__crt_stdio_output@@V?$positional_parameter_base@_WV?$stream_output_adapter@_W@__crt_stdio_output@@@2@@__crt_stdio_output@@AAE_NXZ 10076c40 f i libucrtd:output.obj
 0001:00075eb0       ?type_case_a@?$output_processor@_WV?$stream_output_adapter@_W@__crt_stdio_output@@V?$standard_base@_WV?$stream_output_adapter@_W@__crt_stdio_output@@@2@@__crt_stdio_output@@AAE_NXZ 10076eb0 f i libucrtd:output.obj
 0001:00076120       ?type_case_a@?$output_processor@_WV?$string_output_adapter@_W@__crt_stdio_output@@V?$format_validation_base@_WV?$string_output_adapter@_W@__crt_stdio_output@@@2@@__crt_stdio_output@@AAE_NXZ 10077120 f i libucrtd:output.obj
 0001:00076390       ?type_case_a@?$output_processor@_WV?$string_output_adapter@_W@__crt_stdio_output@@V?$positional_parameter_base@_WV?$string_output_adapter@_W@__crt_stdio_output@@@2@@__crt_stdio_output@@AAE_NXZ 10077390 f i libucrtd:output.obj
 0001:00076600       ?type_case_a@?$output_processor@_WV?$string_output_adapter@_W@__crt_stdio_output@@V?$standard_base@_WV?$string_output_adapter@_W@__crt_stdio_output@@@2@@__crt_stdio_output@@AAE_NXZ 10077600 f i libucrtd:output.obj
 0001:00076870       ?type_case_c@?$output_processor@DV?$stream_output_adapter@D@__crt_stdio_output@@V?$format_validation_base@DV?$stream_output_adapter@D@__crt_stdio_output@@@2@@__crt_stdio_output@@AAE_NXZ 10077870 f i libucrtd:output.obj
 0001:00076890       ?type_case_c@?$output_processor@DV?$stream_output_adapter@D@__crt_stdio_output@@V?$positional_parameter_base@DV?$stream_output_adapter@D@__crt_stdio_output@@@2@@__crt_stdio_output@@AAE_NXZ 10077890 f i libucrtd:output.obj
 0001:000768b0       ?type_case_c@?$output_processor@DV?$stream_output_adapter@D@__crt_stdio_output@@V?$standard_base@DV?$stream_output_adapter@D@__crt_stdio_output@@@2@@__crt_stdio_output@@AAE_NXZ 100778b0 f i libucrtd:output.obj
 0001:000768d0       ?type_case_c@?$output_processor@DV?$string_output_adapter@D@__crt_stdio_output@@V?$format_validation_base@DV?$string_output_adapter@D@__crt_stdio_output@@@2@@__crt_stdio_output@@AAE_NXZ 100778d0 f i libucrtd:output.obj
 0001:000768f0       ?type_case_c@?$output_processor@DV?$string_output_adapter@D@__crt_stdio_output@@V?$positional_parameter_base@DV?$string_output_adapter@D@__crt_stdio_output@@@2@@__crt_stdio_output@@AAE_NXZ 100778f0 f i libucrtd:output.obj
 0001:00076910       ?type_case_c@?$output_processor@DV?$string_output_adapter@D@__crt_stdio_output@@V?$standard_base@DV?$string_output_adapter@D@__crt_stdio_output@@@2@@__crt_stdio_output@@AAE_NXZ 10077910 f i libucrtd:output.obj
 0001:00076930       ?type_case_c@?$output_processor@_WV?$stream_output_adapter@_W@__crt_stdio_output@@V?$format_validation_base@_WV?$stream_output_adapter@_W@__crt_stdio_output@@@2@@__crt_stdio_output@@AAE_NXZ 10077930 f i libucrtd:output.obj
 0001:00076950       ?type_case_c@?$output_processor@_WV?$stream_output_adapter@_W@__crt_stdio_output@@V?$positional_parameter_base@_WV?$stream_output_adapter@_W@__crt_stdio_output@@@2@@__crt_stdio_output@@AAE_NXZ 10077950 f i libucrtd:output.obj
 0001:00076970       ?type_case_c@?$output_processor@_WV?$stream_output_adapter@_W@__crt_stdio_output@@V?$standard_base@_WV?$stream_output_adapter@_W@__crt_stdio_output@@@2@@__crt_stdio_output@@AAE_NXZ 10077970 f i libucrtd:output.obj
 0001:00076990       ?type_case_c@?$output_processor@_WV?$string_output_adapter@_W@__crt_stdio_output@@V?$format_validation_base@_WV?$string_output_adapter@_W@__crt_stdio_output@@@2@@__crt_stdio_output@@AAE_NXZ 10077990 f i libucrtd:output.obj
 0001:000769b0       ?type_case_c@?$output_processor@_WV?$string_output_adapter@_W@__crt_stdio_output@@V?$positional_parameter_base@_WV?$string_output_adapter@_W@__crt_stdio_output@@@2@@__crt_stdio_output@@AAE_NXZ 100779b0 f i libucrtd:output.obj
 0001:000769d0       ?type_case_c@?$output_processor@_WV?$string_output_adapter@_W@__crt_stdio_output@@V?$standard_base@_WV?$string_output_adapter@_W@__crt_stdio_output@@@2@@__crt_stdio_output@@AAE_NXZ 100779d0 f i libucrtd:output.obj
 0001:000769f0       ?type_case_c_tchar@?$output_processor@DV?$stream_output_adapter@D@__crt_stdio_output@@V?$format_validation_base@DV?$stream_output_adapter@D@__crt_stdio_output@@@2@@__crt_stdio_output@@AAE_ND@Z 100779f0 f i libucrtd:output.obj
 0001:00076b00       ?type_case_c_tchar@?$output_processor@DV?$stream_output_adapter@D@__crt_stdio_output@@V?$positional_parameter_base@DV?$stream_output_adapter@D@__crt_stdio_output@@@2@@__crt_stdio_output@@AAE_ND@Z 10077b00 f i libucrtd:output.obj
 0001:00076c10       ?type_case_c_tchar@?$output_processor@DV?$stream_output_adapter@D@__crt_stdio_output@@V?$standard_base@DV?$stream_output_adapter@D@__crt_stdio_output@@@2@@__crt_stdio_output@@AAE_ND@Z 10077c10 f i libucrtd:output.obj
 0001:00076d20       ?type_case_c_tchar@?$output_processor@DV?$string_output_adapter@D@__crt_stdio_output@@V?$format_validation_base@DV?$string_output_adapter@D@__crt_stdio_output@@@2@@__crt_stdio_output@@AAE_ND@Z 10077d20 f i libucrtd:output.obj
 0001:00076e30       ?type_case_c_tchar@?$output_processor@DV?$string_output_adapter@D@__crt_stdio_output@@V?$positional_parameter_base@DV?$string_output_adapter@D@__crt_stdio_output@@@2@@__crt_stdio_output@@AAE_ND@Z 10077e30 f i libucrtd:output.obj
 0001:00076f40       ?type_case_c_tchar@?$output_processor@DV?$string_output_adapter@D@__crt_stdio_output@@V?$standard_base@DV?$string_output_adapter@D@__crt_stdio_output@@@2@@__crt_stdio_output@@AAE_ND@Z 10077f40 f i libucrtd:output.obj
 0001:00077050       ?type_case_c_tchar@?$output_processor@_WV?$stream_output_adapter@_W@__crt_stdio_output@@V?$format_validation_base@_WV?$stream_output_adapter@_W@__crt_stdio_output@@@2@@__crt_stdio_output@@AAE_N_W@Z 10078050 f i libucrtd:output.obj
 0001:00077150       ?type_case_c_tchar@?$output_processor@_WV?$stream_output_adapter@_W@__crt_stdio_output@@V?$positional_parameter_base@_WV?$stream_output_adapter@_W@__crt_stdio_output@@@2@@__crt_stdio_output@@AAE_N_W@Z 10078150 f i libucrtd:output.obj
 0001:00077250       ?type_case_c_tchar@?$output_processor@_WV?$stream_output_adapter@_W@__crt_stdio_output@@V?$standard_base@_WV?$stream_output_adapter@_W@__crt_stdio_output@@@2@@__crt_stdio_output@@AAE_N_W@Z 10078250 f i libucrtd:output.obj
 0001:00077350       ?type_case_c_tchar@?$output_processor@_WV?$string_output_adapter@_W@__crt_stdio_output@@V?$format_validation_base@_WV?$string_output_adapter@_W@__crt_stdio_output@@@2@@__crt_stdio_output@@AAE_N_W@Z 10078350 f i libucrtd:output.obj
 0001:00077450       ?type_case_c_tchar@?$output_processor@_WV?$string_output_adapter@_W@__crt_stdio_output@@V?$positional_parameter_base@_WV?$string_output_adapter@_W@__crt_stdio_output@@@2@@__crt_stdio_output@@AAE_N_W@Z 10078450 f i libucrtd:output.obj
 0001:00077550       ?type_case_c_tchar@?$output_processor@_WV?$string_output_adapter@_W@__crt_stdio_output@@V?$standard_base@_WV?$string_output_adapter@_W@__crt_stdio_output@@@2@@__crt_stdio_output@@AAE_N_W@Z 10078550 f i libucrtd:output.obj
 0001:00077650       ?type_case_d@?$output_processor@DV?$stream_output_adapter@D@__crt_stdio_output@@V?$format_validation_base@DV?$stream_output_adapter@D@__crt_stdio_output@@@2@@__crt_stdio_output@@AAE_NXZ 10078650 f i libucrtd:output.obj
 0001:00077680       ?type_case_d@?$output_processor@DV?$stream_output_adapter@D@__crt_stdio_output@@V?$positional_parameter_base@DV?$stream_output_adapter@D@__crt_stdio_output@@@2@@__crt_stdio_output@@AAE_NXZ 10078680 f i libucrtd:output.obj
 0001:000776b0       ?type_case_d@?$output_processor@DV?$stream_output_adapter@D@__crt_stdio_output@@V?$standard_base@DV?$stream_output_adapter@D@__crt_stdio_output@@@2@@__crt_stdio_output@@AAE_NXZ 100786b0 f i libucrtd:output.obj
 0001:000776e0       ?type_case_d@?$output_processor@DV?$string_output_adapter@D@__crt_stdio_output@@V?$format_validation_base@DV?$string_output_adapter@D@__crt_stdio_output@@@2@@__crt_stdio_output@@AAE_NXZ 100786e0 f i libucrtd:output.obj
 0001:00077710       ?type_case_d@?$output_processor@DV?$string_output_adapter@D@__crt_stdio_output@@V?$positional_parameter_base@DV?$string_output_adapter@D@__crt_stdio_output@@@2@@__crt_stdio_output@@AAE_NXZ 10078710 f i libucrtd:output.obj
 0001:00077740       ?type_case_d@?$output_processor@DV?$string_output_adapter@D@__crt_stdio_output@@V?$standard_base@DV?$string_output_adapter@D@__crt_stdio_output@@@2@@__crt_stdio_output@@AAE_NXZ 10078740 f i libucrtd:output.obj
 0001:00077770       ?type_case_d@?$output_processor@_WV?$stream_output_adapter@_W@__crt_stdio_output@@V?$format_validation_base@_WV?$stream_output_adapter@_W@__crt_stdio_output@@@2@@__crt_stdio_output@@AAE_NXZ 10078770 f i libucrtd:output.obj
 0001:000777a0       ?type_case_d@?$output_processor@_WV?$stream_output_adapter@_W@__crt_stdio_output@@V?$positional_parameter_base@_WV?$stream_output_adapter@_W@__crt_stdio_output@@@2@@__crt_stdio_output@@AAE_NXZ 100787a0 f i libucrtd:output.obj
 0001:000777d0       ?type_case_d@?$output_processor@_WV?$stream_output_adapter@_W@__crt_stdio_output@@V?$standard_base@_WV?$stream_output_adapter@_W@__crt_stdio_output@@@2@@__crt_stdio_output@@AAE_NXZ 100787d0 f i libucrtd:output.obj
 0001:00077800       ?type_case_d@?$output_processor@_WV?$string_output_adapter@_W@__crt_stdio_output@@V?$format_validation_base@_WV?$string_output_adapter@_W@__crt_stdio_output@@@2@@__crt_stdio_output@@AAE_NXZ 10078800 f i libucrtd:output.obj
 0001:00077830       ?type_case_d@?$output_processor@_WV?$string_output_adapter@_W@__crt_stdio_output@@V?$positional_parameter_base@_WV?$string_output_adapter@_W@__crt_stdio_output@@@2@@__crt_stdio_output@@AAE_NXZ 10078830 f i libucrtd:output.obj
 0001:00077860       ?type_case_d@?$output_processor@_WV?$string_output_adapter@_W@__crt_stdio_output@@V?$standard_base@_WV?$string_output_adapter@_W@__crt_stdio_output@@@2@@__crt_stdio_output@@AAE_NXZ 10078860 f i libucrtd:output.obj
 0001:00077890       ?type_case_integer@?$output_processor@DV?$stream_output_adapter@D@__crt_stdio_output@@V?$format_validation_base@DV?$stream_output_adapter@D@__crt_stdio_output@@@2@@__crt_stdio_output@@AAE_NI_N@Z 10078890 f i libucrtd:output.obj
 0001:00077be0       ?type_case_integer@?$output_processor@DV?$stream_output_adapter@D@__crt_stdio_output@@V?$positional_parameter_base@DV?$stream_output_adapter@D@__crt_stdio_output@@@2@@__crt_stdio_output@@AAE_NI_N@Z 10078be0 f i libucrtd:output.obj
 0001:00077f30       ?type_case_integer@?$output_processor@DV?$stream_output_adapter@D@__crt_stdio_output@@V?$standard_base@DV?$stream_output_adapter@D@__crt_stdio_output@@@2@@__crt_stdio_output@@AAE_NI_N@Z 10078f30 f i libucrtd:output.obj
 0001:00078280       ?type_case_integer@?$output_processor@DV?$string_output_adapter@D@__crt_stdio_output@@V?$format_validation_base@DV?$string_output_adapter@D@__crt_stdio_output@@@2@@__crt_stdio_output@@AAE_NI_N@Z 10079280 f i libucrtd:output.obj
 0001:000785d0       ?type_case_integer@?$output_processor@DV?$string_output_adapter@D@__crt_stdio_output@@V?$positional_parameter_base@DV?$string_output_adapter@D@__crt_stdio_output@@@2@@__crt_stdio_output@@AAE_NI_N@Z 100795d0 f i libucrtd:output.obj
 0001:00078920       ?type_case_integer@?$output_processor@DV?$string_output_adapter@D@__crt_stdio_output@@V?$standard_base@DV?$string_output_adapter@D@__crt_stdio_output@@@2@@__crt_stdio_output@@AAE_NI_N@Z 10079920 f i libucrtd:output.obj
 0001:00078c70       ?type_case_integer@?$output_processor@_WV?$stream_output_adapter@_W@__crt_stdio_output@@V?$format_validation_base@_WV?$stream_output_adapter@_W@__crt_stdio_output@@@2@@__crt_stdio_output@@AAE_NI_N@Z 10079c70 f i libucrtd:output.obj
 0001:00078fc0       ?type_case_integer@?$output_processor@_WV?$stream_output_adapter@_W@__crt_stdio_output@@V?$positional_parameter_base@_WV?$stream_output_adapter@_W@__crt_stdio_output@@@2@@__crt_stdio_output@@AAE_NI_N@Z 10079fc0 f i libucrtd:output.obj
 0001:00079310       ?type_case_integer@?$output_processor@_WV?$stream_output_adapter@_W@__crt_stdio_output@@V?$standard_base@_WV?$stream_output_adapter@_W@__crt_stdio_output@@@2@@__crt_stdio_output@@AAE_NI_N@Z 1007a310 f i libucrtd:output.obj
 0001:00079660       ?type_case_integer@?$output_processor@_WV?$string_output_adapter@_W@__crt_stdio_output@@V?$format_validation_base@_WV?$string_output_adapter@_W@__crt_stdio_output@@@2@@__crt_stdio_output@@AAE_NI_N@Z 1007a660 f i libucrtd:output.obj
 0001:000799b0       ?type_case_integer@?$output_processor@_WV?$string_output_adapter@_W@__crt_stdio_output@@V?$positional_parameter_base@_WV?$string_output_adapter@_W@__crt_stdio_output@@@2@@__crt_stdio_output@@AAE_NI_N@Z 1007a9b0 f i libucrtd:output.obj
 0001:00079d00       ?type_case_integer@?$output_processor@_WV?$string_output_adapter@_W@__crt_stdio_output@@V?$standard_base@_WV?$string_output_adapter@_W@__crt_stdio_output@@@2@@__crt_stdio_output@@AAE_NI_N@Z 1007ad00 f i libucrtd:output.obj
 0001:0007a050       ?type_case_n@?$output_processor@DV?$stream_output_adapter@D@__crt_stdio_output@@V?$format_validation_base@DV?$stream_output_adapter@D@__crt_stdio_output@@@2@@__crt_stdio_output@@AAE_NXZ 1007b050 f i libucrtd:output.obj
 0001:0007a240       ?type_case_n@?$output_processor@DV?$stream_output_adapter@D@__crt_stdio_output@@V?$positional_parameter_base@DV?$stream_output_adapter@D@__crt_stdio_output@@@2@@__crt_stdio_output@@AAE_NXZ 1007b240 f i libucrtd:output.obj
 0001:0007a430       ?type_case_n@?$output_processor@DV?$stream_output_adapter@D@__crt_stdio_output@@V?$standard_base@DV?$stream_output_adapter@D@__crt_stdio_output@@@2@@__crt_stdio_output@@AAE_NXZ 1007b430 f i libucrtd:output.obj
 0001:0007a620       ?type_case_n@?$output_processor@DV?$string_output_adapter@D@__crt_stdio_output@@V?$format_validation_base@DV?$string_output_adapter@D@__crt_stdio_output@@@2@@__crt_stdio_output@@AAE_NXZ 1007b620 f i libucrtd:output.obj
 0001:0007a810       ?type_case_n@?$output_processor@DV?$string_output_adapter@D@__crt_stdio_output@@V?$positional_parameter_base@DV?$string_output_adapter@D@__crt_stdio_output@@@2@@__crt_stdio_output@@AAE_NXZ 1007b810 f i libucrtd:output.obj
 0001:0007aa00       ?type_case_n@?$output_processor@DV?$string_output_adapter@D@__crt_stdio_output@@V?$standard_base@DV?$string_output_adapter@D@__crt_stdio_output@@@2@@__crt_stdio_output@@AAE_NXZ 1007ba00 f i libucrtd:output.obj
 0001:0007abf0       ?type_case_n@?$output_processor@_WV?$stream_output_adapter@_W@__crt_stdio_output@@V?$format_validation_base@_WV?$stream_output_adapter@_W@__crt_stdio_output@@@2@@__crt_stdio_output@@AAE_NXZ 1007bbf0 f i libucrtd:output.obj
 0001:0007ade0       ?type_case_n@?$output_processor@_WV?$stream_output_adapter@_W@__crt_stdio_output@@V?$positional_parameter_base@_WV?$stream_output_adapter@_W@__crt_stdio_output@@@2@@__crt_stdio_output@@AAE_NXZ 1007bde0 f i libucrtd:output.obj
 0001:0007afd0       ?type_case_n@?$output_processor@_WV?$stream_output_adapter@_W@__crt_stdio_output@@V?$standard_base@_WV?$stream_output_adapter@_W@__crt_stdio_output@@@2@@__crt_stdio_output@@AAE_NXZ 1007bfd0 f i libucrtd:output.obj
 0001:0007b1c0       ?type_case_n@?$output_processor@_WV?$string_output_adapter@_W@__crt_stdio_output@@V?$format_validation_base@_WV?$string_output_adapter@_W@__crt_stdio_output@@@2@@__crt_stdio_output@@AAE_NXZ 1007c1c0 f i libucrtd:output.obj
 0001:0007b3b0       ?type_case_n@?$output_processor@_WV?$string_output_adapter@_W@__crt_stdio_output@@V?$positional_parameter_base@_WV?$string_output_adapter@_W@__crt_stdio_output@@@2@@__crt_stdio_output@@AAE_NXZ 1007c3b0 f i libucrtd:output.obj
 0001:0007b5a0       ?type_case_n@?$output_processor@_WV?$string_output_adapter@_W@__crt_stdio_output@@V?$standard_base@_WV?$string_output_adapter@_W@__crt_stdio_output@@@2@@__crt_stdio_output@@AAE_NXZ 1007c5a0 f i libucrtd:output.obj
 0001:0007b790       ?type_case_o@?$output_processor@DV?$stream_output_adapter@D@__crt_stdio_output@@V?$format_validation_base@DV?$stream_output_adapter@D@__crt_stdio_output@@@2@@__crt_stdio_output@@AAE_NXZ 1007c790 f i libucrtd:output.obj
 0001:0007b7d0       ?type_case_o@?$output_processor@DV?$stream_output_adapter@D@__crt_stdio_output@@V?$positional_parameter_base@DV?$stream_output_adapter@D@__crt_stdio_output@@@2@@__crt_stdio_output@@AAE_NXZ 1007c7d0 f i libucrtd:output.obj
 0001:0007b810       ?type_case_o@?$output_processor@DV?$stream_output_adapter@D@__crt_stdio_output@@V?$standard_base@DV?$stream_output_adapter@D@__crt_stdio_output@@@2@@__crt_stdio_output@@AAE_NXZ 1007c810 f i libucrtd:output.obj
 0001:0007b850       ?type_case_o@?$output_processor@DV?$string_output_adapter@D@__crt_stdio_output@@V?$format_validation_base@DV?$string_output_adapter@D@__crt_stdio_output@@@2@@__crt_stdio_output@@AAE_NXZ 1007c850 f i libucrtd:output.obj
 0001:0007b890       ?type_case_o@?$output_processor@DV?$string_output_adapter@D@__crt_stdio_output@@V?$positional_parameter_base@DV?$string_output_adapter@D@__crt_stdio_output@@@2@@__crt_stdio_output@@AAE_NXZ 1007c890 f i libucrtd:output.obj
 0001:0007b8d0       ?type_case_o@?$output_processor@DV?$string_output_adapter@D@__crt_stdio_output@@V?$standard_base@DV?$string_output_adapter@D@__crt_stdio_output@@@2@@__crt_stdio_output@@AAE_NXZ 1007c8d0 f i libucrtd:output.obj
 0001:0007b910       ?type_case_o@?$output_processor@_WV?$stream_output_adapter@_W@__crt_stdio_output@@V?$format_validation_base@_WV?$stream_output_adapter@_W@__crt_stdio_output@@@2@@__crt_stdio_output@@AAE_NXZ 1007c910 f i libucrtd:output.obj
 0001:0007b950       ?type_case_o@?$output_processor@_WV?$stream_output_adapter@_W@__crt_stdio_output@@V?$positional_parameter_base@_WV?$stream_output_adapter@_W@__crt_stdio_output@@@2@@__crt_stdio_output@@AAE_NXZ 1007c950 f i libucrtd:output.obj
 0001:0007b990       ?type_case_o@?$output_processor@_WV?$stream_output_adapter@_W@__crt_stdio_output@@V?$standard_base@_WV?$stream_output_adapter@_W@__crt_stdio_output@@@2@@__crt_stdio_output@@AAE_NXZ 1007c990 f i libucrtd:output.obj
 0001:0007b9d0       ?type_case_o@?$output_processor@_WV?$string_output_adapter@_W@__crt_stdio_output@@V?$format_validation_base@_WV?$string_output_adapter@_W@__crt_stdio_output@@@2@@__crt_stdio_output@@AAE_NXZ 1007c9d0 f i libucrtd:output.obj
 0001:0007ba10       ?type_case_o@?$output_processor@_WV?$string_output_adapter@_W@__crt_stdio_output@@V?$positional_parameter_base@_WV?$string_output_adapter@_W@__crt_stdio_output@@@2@@__crt_stdio_output@@AAE_NXZ 1007ca10 f i libucrtd:output.obj
 0001:0007ba50       ?type_case_o@?$output_processor@_WV?$string_output_adapter@_W@__crt_stdio_output@@V?$standard_base@_WV?$string_output_adapter@_W@__crt_stdio_output@@@2@@__crt_stdio_output@@AAE_NXZ 1007ca50 f i libucrtd:output.obj
 0001:0007ba90       ?type_case_p@?$output_processor@DV?$stream_output_adapter@D@__crt_stdio_output@@V?$format_validation_base@DV?$stream_output_adapter@D@__crt_stdio_output@@@2@@__crt_stdio_output@@AAE_NXZ 1007ca90 f i libucrtd:output.obj
 0001:0007bac0       ?type_case_p@?$output_processor@DV?$stream_output_adapter@D@__crt_stdio_output@@V?$positional_parameter_base@DV?$stream_output_adapter@D@__crt_stdio_output@@@2@@__crt_stdio_output@@AAE_NXZ 1007cac0 f i libucrtd:output.obj
 0001:0007baf0       ?type_case_p@?$output_processor@DV?$stream_output_adapter@D@__crt_stdio_output@@V?$standard_base@DV?$stream_output_adapter@D@__crt_stdio_output@@@2@@__crt_stdio_output@@AAE_NXZ 1007caf0 f i libucrtd:output.obj
 0001:0007bb20       ?type_case_p@?$output_processor@DV?$string_output_adapter@D@__crt_stdio_output@@V?$format_validation_base@DV?$string_output_adapter@D@__crt_stdio_output@@@2@@__crt_stdio_output@@AAE_NXZ 1007cb20 f i libucrtd:output.obj
 0001:0007bb50       ?type_case_p@?$output_processor@DV?$string_output_adapter@D@__crt_stdio_output@@V?$positional_parameter_base@DV?$string_output_adapter@D@__crt_stdio_output@@@2@@__crt_stdio_output@@AAE_NXZ 1007cb50 f i libucrtd:output.obj
 0001:0007bb80       ?type_case_p@?$output_processor@DV?$string_output_adapter@D@__crt_stdio_output@@V?$standard_base@DV?$string_output_adapter@D@__crt_stdio_output@@@2@@__crt_stdio_output@@AAE_NXZ 1007cb80 f i libucrtd:output.obj
 0001:0007bbb0       ?type_case_p@?$output_processor@_WV?$stream_output_adapter@_W@__crt_stdio_output@@V?$format_validation_base@_WV?$stream_output_adapter@_W@__crt_stdio_output@@@2@@__crt_stdio_output@@AAE_NXZ 1007cbb0 f i libucrtd:output.obj
 0001:0007bbe0       ?type_case_p@?$output_processor@_WV?$stream_output_adapter@_W@__crt_stdio_output@@V?$positional_parameter_base@_WV?$stream_output_adapter@_W@__crt_stdio_output@@@2@@__crt_stdio_output@@AAE_NXZ 1007cbe0 f i libucrtd:output.obj
 0001:0007bc10       ?type_case_p@?$output_processor@_WV?$stream_output_adapter@_W@__crt_stdio_output@@V?$standard_base@_WV?$stream_output_adapter@_W@__crt_stdio_output@@@2@@__crt_stdio_output@@AAE_NXZ 1007cc10 f i libucrtd:output.obj
 0001:0007bc40       ?type_case_p@?$output_processor@_WV?$string_output_adapter@_W@__crt_stdio_output@@V?$format_validation_base@_WV?$string_output_adapter@_W@__crt_stdio_output@@@2@@__crt_stdio_output@@AAE_NXZ 1007cc40 f i libucrtd:output.obj
 0001:0007bc70       ?type_case_p@?$output_processor@_WV?$string_output_adapter@_W@__crt_stdio_output@@V?$positional_parameter_base@_WV?$string_output_adapter@_W@__crt_stdio_output@@@2@@__crt_stdio_output@@AAE_NXZ 1007cc70 f i libucrtd:output.obj
 0001:0007bca0       ?type_case_p@?$output_processor@_WV?$string_output_adapter@_W@__crt_stdio_output@@V?$standard_base@_WV?$string_output_adapter@_W@__crt_stdio_output@@@2@@__crt_stdio_output@@AAE_NXZ 1007cca0 f i libucrtd:output.obj
 0001:0007bcd0       ?type_case_s@?$output_processor@DV?$stream_output_adapter@D@__crt_stdio_output@@V?$format_validation_base@DV?$stream_output_adapter@D@__crt_stdio_output@@@2@@__crt_stdio_output@@AAE_NXZ 1007ccd0 f i libucrtd:output.obj
 0001:0007bdc0       ?type_case_s@?$output_processor@DV?$stream_output_adapter@D@__crt_stdio_output@@V?$positional_parameter_base@DV?$stream_output_adapter@D@__crt_stdio_output@@@2@@__crt_stdio_output@@AAE_NXZ 1007cdc0 f i libucrtd:output.obj
 0001:0007beb0       ?type_case_s@?$output_processor@DV?$stream_output_adapter@D@__crt_stdio_output@@V?$standard_base@DV?$stream_output_adapter@D@__crt_stdio_output@@@2@@__crt_stdio_output@@AAE_NXZ 1007ceb0 f i libucrtd:output.obj
 0001:0007bfa0       ?type_case_s@?$output_processor@DV?$string_output_adapter@D@__crt_stdio_output@@V?$format_validation_base@DV?$string_output_adapter@D@__crt_stdio_output@@@2@@__crt_stdio_output@@AAE_NXZ 1007cfa0 f i libucrtd:output.obj
 0001:0007c090       ?type_case_s@?$output_processor@DV?$string_output_adapter@D@__crt_stdio_output@@V?$positional_parameter_base@DV?$string_output_adapter@D@__crt_stdio_output@@@2@@__crt_stdio_output@@AAE_NXZ 1007d090 f i libucrtd:output.obj
 0001:0007c180       ?type_case_s@?$output_processor@DV?$string_output_adapter@D@__crt_stdio_output@@V?$standard_base@DV?$string_output_adapter@D@__crt_stdio_output@@@2@@__crt_stdio_output@@AAE_NXZ 1007d180 f i libucrtd:output.obj
 0001:0007c270       ?type_case_s@?$output_processor@_WV?$stream_output_adapter@_W@__crt_stdio_output@@V?$format_validation_base@_WV?$stream_output_adapter@_W@__crt_stdio_output@@@2@@__crt_stdio_output@@AAE_NXZ 1007d270 f i libucrtd:output.obj
 0001:0007c360       ?type_case_s@?$output_processor@_WV?$stream_output_adapter@_W@__crt_stdio_output@@V?$positional_parameter_base@_WV?$stream_output_adapter@_W@__crt_stdio_output@@@2@@__crt_stdio_output@@AAE_NXZ 1007d360 f i libucrtd:output.obj
 0001:0007c450       ?type_case_s@?$output_processor@_WV?$stream_output_adapter@_W@__crt_stdio_output@@V?$standard_base@_WV?$stream_output_adapter@_W@__crt_stdio_output@@@2@@__crt_stdio_output@@AAE_NXZ 1007d450 f i libucrtd:output.obj
 0001:0007c540       ?type_case_s@?$output_processor@_WV?$string_output_adapter@_W@__crt_stdio_output@@V?$format_validation_base@_WV?$string_output_adapter@_W@__crt_stdio_output@@@2@@__crt_stdio_output@@AAE_NXZ 1007d540 f i libucrtd:output.obj
 0001:0007c630       ?type_case_s@?$output_processor@_WV?$string_output_adapter@_W@__crt_stdio_output@@V?$positional_parameter_base@_WV?$string_output_adapter@_W@__crt_stdio_output@@@2@@__crt_stdio_output@@AAE_NXZ 1007d630 f i libucrtd:output.obj
 0001:0007c720       ?type_case_s@?$output_processor@_WV?$string_output_adapter@_W@__crt_stdio_output@@V?$standard_base@_WV?$string_output_adapter@_W@__crt_stdio_output@@@2@@__crt_stdio_output@@AAE_NXZ 1007d720 f i libucrtd:output.obj
 0001:0007c810       ?type_case_s_compute_narrow_string_length@?$output_processor@DV?$stream_output_adapter@D@__crt_stdio_output@@V?$format_validation_base@DV?$stream_output_adapter@D@__crt_stdio_output@@@2@@__crt_stdio_output@@ABEHHD@Z 1007d810 f i libucrtd:output.obj
 0001:0007c840       ?type_case_s_compute_narrow_string_length@?$output_processor@DV?$stream_output_adapter@D@__crt_stdio_output@@V?$positional_parameter_base@DV?$stream_output_adapter@D@__crt_stdio_output@@@2@@__crt_stdio_output@@ABEHHD@Z 1007d840 f i libucrtd:output.obj
 0001:0007c870       ?type_case_s_compute_narrow_string_length@?$output_processor@DV?$stream_output_adapter@D@__crt_stdio_output@@V?$standard_base@DV?$stream_output_adapter@D@__crt_stdio_output@@@2@@__crt_stdio_output@@ABEHHD@Z 1007d870 f i libucrtd:output.obj
 0001:0007c8a0       ?type_case_s_compute_narrow_string_length@?$output_processor@DV?$string_output_adapter@D@__crt_stdio_output@@V?$format_validation_base@DV?$string_output_adapter@D@__crt_stdio_output@@@2@@__crt_stdio_output@@ABEHHD@Z 1007d8a0 f i libucrtd:output.obj
 0001:0007c8d0       ?type_case_s_compute_narrow_string_length@?$output_processor@DV?$string_output_adapter@D@__crt_stdio_output@@V?$positional_parameter_base@DV?$string_output_adapter@D@__crt_stdio_output@@@2@@__crt_stdio_output@@ABEHHD@Z 1007d8d0 f i libucrtd:output.obj
 0001:0007c900       ?type_case_s_compute_narrow_string_length@?$output_processor@DV?$string_output_adapter@D@__crt_stdio_output@@V?$standard_base@DV?$string_output_adapter@D@__crt_stdio_output@@@2@@__crt_stdio_output@@ABEHHD@Z 1007d900 f i libucrtd:output.obj
 0001:0007c930       ?type_case_s_compute_narrow_string_length@?$output_processor@_WV?$stream_output_adapter@_W@__crt_stdio_output@@V?$format_validation_base@_WV?$stream_output_adapter@_W@__crt_stdio_output@@@2@@__crt_stdio_output@@ABEHH_W@Z 1007d930 f i libucrtd:output.obj
 0001:0007c9a0       ?type_case_s_compute_narrow_string_length@?$output_processor@_WV?$stream_output_adapter@_W@__crt_stdio_output@@V?$positional_parameter_base@_WV?$stream_output_adapter@_W@__crt_stdio_output@@@2@@__crt_stdio_output@@ABEHH_W@Z 1007d9a0 f i libucrtd:output.obj
 0001:0007ca10       ?type_case_s_compute_narrow_string_length@?$output_processor@_WV?$stream_output_adapter@_W@__crt_stdio_output@@V?$standard_base@_WV?$stream_output_adapter@_W@__crt_stdio_output@@@2@@__crt_stdio_output@@ABEHH_W@Z 1007da10 f i libucrtd:output.obj
 0001:0007ca80       ?type_case_s_compute_narrow_string_length@?$output_processor@_WV?$string_output_adapter@_W@__crt_stdio_output@@V?$format_validation_base@_WV?$string_output_adapter@_W@__crt_stdio_output@@@2@@__crt_stdio_output@@ABEHH_W@Z 1007da80 f i libucrtd:output.obj
 0001:0007caf0       ?type_case_s_compute_narrow_string_length@?$output_processor@_WV?$string_output_adapter@_W@__crt_stdio_output@@V?$positional_parameter_base@_WV?$string_output_adapter@_W@__crt_stdio_output@@@2@@__crt_stdio_output@@ABEHH_W@Z 1007daf0 f i libucrtd:output.obj
 0001:0007cb60       ?type_case_s_compute_narrow_string_length@?$output_processor@_WV?$string_output_adapter@_W@__crt_stdio_output@@V?$standard_base@_WV?$string_output_adapter@_W@__crt_stdio_output@@@2@@__crt_stdio_output@@ABEHH_W@Z 1007db60 f i libucrtd:output.obj
 0001:0007cbd0       ?type_case_u@?$output_processor@DV?$stream_output_adapter@D@__crt_stdio_output@@V?$format_validation_base@DV?$stream_output_adapter@D@__crt_stdio_output@@@2@@__crt_stdio_output@@AAE_NXZ 1007dbd0 f i libucrtd:output.obj
 0001:0007cbf0       ?type_case_u@?$output_processor@DV?$stream_output_adapter@D@__crt_stdio_output@@V?$positional_parameter_base@DV?$stream_output_adapter@D@__crt_stdio_output@@@2@@__crt_stdio_output@@AAE_NXZ 1007dbf0 f i libucrtd:output.obj
 0001:0007cc10       ?type_case_u@?$output_processor@DV?$stream_output_adapter@D@__crt_stdio_output@@V?$standard_base@DV?$stream_output_adapter@D@__crt_stdio_output@@@2@@__crt_stdio_output@@AAE_NXZ 1007dc10 f i libucrtd:output.obj
 0001:0007cc30       ?type_case_u@?$output_processor@DV?$string_output_adapter@D@__crt_stdio_output@@V?$format_validation_base@DV?$string_output_adapter@D@__crt_stdio_output@@@2@@__crt_stdio_output@@AAE_NXZ 1007dc30 f i libucrtd:output.obj
 0001:0007cc50       ?type_case_u@?$output_processor@DV?$string_output_adapter@D@__crt_stdio_output@@V?$positional_parameter_base@DV?$string_output_adapter@D@__crt_stdio_output@@@2@@__crt_stdio_output@@AAE_NXZ 1007dc50 f i libucrtd:output.obj
 0001:0007cc70       ?type_case_u@?$output_processor@DV?$string_output_adapter@D@__crt_stdio_output@@V?$standard_base@DV?$string_output_adapter@D@__crt_stdio_output@@@2@@__crt_stdio_output@@AAE_NXZ 1007dc70 f i libucrtd:output.obj
 0001:0007cc90       ?type_case_u@?$output_processor@_WV?$stream_output_adapter@_W@__crt_stdio_output@@V?$format_validation_base@_WV?$stream_output_adapter@_W@__crt_stdio_output@@@2@@__crt_stdio_output@@AAE_NXZ 1007dc90 f i libucrtd:output.obj
 0001:0007ccb0       ?type_case_u@?$output_processor@_WV?$stream_output_adapter@_W@__crt_stdio_output@@V?$positional_parameter_base@_WV?$stream_output_adapter@_W@__crt_stdio_output@@@2@@__crt_stdio_output@@AAE_NXZ 1007dcb0 f i libucrtd:output.obj
 0001:0007ccd0       ?type_case_u@?$output_processor@_WV?$stream_output_adapter@_W@__crt_stdio_output@@V?$standard_base@_WV?$stream_output_adapter@_W@__crt_stdio_output@@@2@@__crt_stdio_output@@AAE_NXZ 1007dcd0 f i libucrtd:output.obj
 0001:0007ccf0       ?type_case_u@?$output_processor@_WV?$string_output_adapter@_W@__crt_stdio_output@@V?$format_validation_base@_WV?$string_output_adapter@_W@__crt_stdio_output@@@2@@__crt_stdio_output@@AAE_NXZ 1007dcf0 f i libucrtd:output.obj
 0001:0007cd10       ?type_case_u@?$output_processor@_WV?$string_output_adapter@_W@__crt_stdio_output@@V?$positional_parameter_base@_WV?$string_output_adapter@_W@__crt_stdio_output@@@2@@__crt_stdio_output@@AAE_NXZ 1007dd10 f i libucrtd:output.obj
 0001:0007cd30       ?type_case_u@?$output_processor@_WV?$string_output_adapter@_W@__crt_stdio_output@@V?$standard_base@_WV?$string_output_adapter@_W@__crt_stdio_output@@@2@@__crt_stdio_output@@AAE_NXZ 1007dd30 f i libucrtd:output.obj
 0001:0007cd50       ?type_case_x@?$output_processor@DV?$stream_output_adapter@D@__crt_stdio_output@@V?$format_validation_base@DV?$stream_output_adapter@D@__crt_stdio_output@@@2@@__crt_stdio_output@@AAE_NXZ 1007dd50 f i libucrtd:output.obj
 0001:0007cd70       ?type_case_x@?$output_processor@DV?$stream_output_adapter@D@__crt_stdio_output@@V?$positional_parameter_base@DV?$stream_output_adapter@D@__crt_stdio_output@@@2@@__crt_stdio_output@@AAE_NXZ 1007dd70 f i libucrtd:output.obj
 0001:0007cd90       ?type_case_x@?$output_processor@DV?$stream_output_adapter@D@__crt_stdio_output@@V?$standard_base@DV?$stream_output_adapter@D@__crt_stdio_output@@@2@@__crt_stdio_output@@AAE_NXZ 1007dd90 f i libucrtd:output.obj
 0001:0007cdb0       ?type_case_x@?$output_processor@DV?$string_output_adapter@D@__crt_stdio_output@@V?$format_validation_base@DV?$string_output_adapter@D@__crt_stdio_output@@@2@@__crt_stdio_output@@AAE_NXZ 1007ddb0 f i libucrtd:output.obj
 0001:0007cdd0       ?type_case_x@?$output_processor@DV?$string_output_adapter@D@__crt_stdio_output@@V?$positional_parameter_base@DV?$string_output_adapter@D@__crt_stdio_output@@@2@@__crt_stdio_output@@AAE_NXZ 1007ddd0 f i libucrtd:output.obj
 0001:0007cdf0       ?type_case_x@?$output_processor@DV?$string_output_adapter@D@__crt_stdio_output@@V?$standard_base@DV?$string_output_adapter@D@__crt_stdio_output@@@2@@__crt_stdio_output@@AAE_NXZ 1007ddf0 f i libucrtd:output.obj
 0001:0007ce10       ?type_case_x@?$output_processor@_WV?$stream_output_adapter@_W@__crt_stdio_output@@V?$format_validation_base@_WV?$stream_output_adapter@_W@__crt_stdio_output@@@2@@__crt_stdio_output@@AAE_NXZ 1007de10 f i libucrtd:output.obj
 0001:0007ce30       ?type_case_x@?$output_processor@_WV?$stream_output_adapter@_W@__crt_stdio_output@@V?$positional_parameter_base@_WV?$stream_output_adapter@_W@__crt_stdio_output@@@2@@__crt_stdio_output@@AAE_NXZ 1007de30 f i libucrtd:output.obj
 0001:0007ce50       ?type_case_x@?$output_processor@_WV?$stream_output_adapter@_W@__crt_stdio_output@@V?$standard_base@_WV?$stream_output_adapter@_W@__crt_stdio_output@@@2@@__crt_stdio_output@@AAE_NXZ 1007de50 f i libucrtd:output.obj
 0001:0007ce70       ?type_case_x@?$output_processor@_WV?$string_output_adapter@_W@__crt_stdio_output@@V?$format_validation_base@_WV?$string_output_adapter@_W@__crt_stdio_output@@@2@@__crt_stdio_output@@AAE_NXZ 1007de70 f i libucrtd:output.obj
 0001:0007ce90       ?type_case_x@?$output_processor@_WV?$string_output_adapter@_W@__crt_stdio_output@@V?$positional_parameter_base@_WV?$string_output_adapter@_W@__crt_stdio_output@@@2@@__crt_stdio_output@@AAE_NXZ 1007de90 f i libucrtd:output.obj
 0001:0007ceb0       ?type_case_x@?$output_processor@_WV?$string_output_adapter@_W@__crt_stdio_output@@V?$standard_base@_WV?$string_output_adapter@_W@__crt_stdio_output@@@2@@__crt_stdio_output@@AAE_NXZ 1007deb0 f i libucrtd:output.obj
 0001:0007ced0       ?unset_flag@?$output_processor@DV?$stream_output_adapter@D@__crt_stdio_output@@V?$format_validation_base@DV?$stream_output_adapter@D@__crt_stdio_output@@@2@@__crt_stdio_output@@AAEXI@Z 1007ded0 f i libucrtd:output.obj
 0001:0007cef0       ?unset_flag@?$output_processor@DV?$stream_output_adapter@D@__crt_stdio_output@@V?$positional_parameter_base@DV?$stream_output_adapter@D@__crt_stdio_output@@@2@@__crt_stdio_output@@AAEXI@Z 1007def0 f i libucrtd:output.obj
 0001:0007cf10       ?unset_flag@?$output_processor@DV?$stream_output_adapter@D@__crt_stdio_output@@V?$standard_base@DV?$stream_output_adapter@D@__crt_stdio_output@@@2@@__crt_stdio_output@@AAEXI@Z 1007df10 f i libucrtd:output.obj
 0001:0007cf30       ?unset_flag@?$output_processor@DV?$string_output_adapter@D@__crt_stdio_output@@V?$format_validation_base@DV?$string_output_adapter@D@__crt_stdio_output@@@2@@__crt_stdio_output@@AAEXI@Z 1007df30 f i libucrtd:output.obj
 0001:0007cf50       ?unset_flag@?$output_processor@DV?$string_output_adapter@D@__crt_stdio_output@@V?$positional_parameter_base@DV?$string_output_adapter@D@__crt_stdio_output@@@2@@__crt_stdio_output@@AAEXI@Z 1007df50 f i libucrtd:output.obj
 0001:0007cf70       ?unset_flag@?$output_processor@DV?$string_output_adapter@D@__crt_stdio_output@@V?$standard_base@DV?$string_output_adapter@D@__crt_stdio_output@@@2@@__crt_stdio_output@@AAEXI@Z 1007df70 f i libucrtd:output.obj
 0001:0007cf90       ?unset_flag@?$output_processor@_WV?$stream_output_adapter@_W@__crt_stdio_output@@V?$format_validation_base@_WV?$stream_output_adapter@_W@__crt_stdio_output@@@2@@__crt_stdio_output@@AAEXI@Z 1007df90 f i libucrtd:output.obj
 0001:0007cfb0       ?unset_flag@?$output_processor@_WV?$stream_output_adapter@_W@__crt_stdio_output@@V?$positional_parameter_base@_WV?$stream_output_adapter@_W@__crt_stdio_output@@@2@@__crt_stdio_output@@AAEXI@Z 1007dfb0 f i libucrtd:output.obj
 0001:0007cfd0       ?unset_flag@?$output_processor@_WV?$stream_output_adapter@_W@__crt_stdio_output@@V?$standard_base@_WV?$stream_output_adapter@_W@__crt_stdio_output@@@2@@__crt_stdio_output@@AAEXI@Z 1007dfd0 f i libucrtd:output.obj
 0001:0007cff0       ?unset_flag@?$output_processor@_WV?$string_output_adapter@_W@__crt_stdio_output@@V?$format_validation_base@_WV?$string_output_adapter@_W@__crt_stdio_output@@@2@@__crt_stdio_output@@AAEXI@Z 1007dff0 f i libucrtd:output.obj
 0001:0007d010       ?unset_flag@?$output_processor@_WV?$string_output_adapter@_W@__crt_stdio_output@@V?$positional_parameter_base@_WV?$string_output_adapter@_W@__crt_stdio_output@@@2@@__crt_stdio_output@@AAEXI@Z 1007e010 f i libucrtd:output.obj
 0001:0007d030       ?unset_flag@?$output_processor@_WV?$string_output_adapter@_W@__crt_stdio_output@@V?$standard_base@_WV?$string_output_adapter@_W@__crt_stdio_output@@@2@@__crt_stdio_output@@AAEXI@Z 1007e030 f i libucrtd:output.obj
 0001:0007d050       ?update_field_width@?$positional_parameter_base@DV?$stream_output_adapter@D@__crt_stdio_output@@@__crt_stdio_output@@IAE_NXZ 1007e050 f i libucrtd:output.obj
 0001:0007d1d0       ?update_field_width@?$positional_parameter_base@DV?$string_output_adapter@D@__crt_stdio_output@@@__crt_stdio_output@@IAE_NXZ 1007e1d0 f i libucrtd:output.obj
 0001:0007d350       ?update_field_width@?$positional_parameter_base@_WV?$stream_output_adapter@_W@__crt_stdio_output@@@__crt_stdio_output@@IAE_NXZ 1007e350 f i libucrtd:output.obj
 0001:0007d4d0       ?update_field_width@?$positional_parameter_base@_WV?$string_output_adapter@_W@__crt_stdio_output@@@__crt_stdio_output@@IAE_NXZ 1007e4d0 f i libucrtd:output.obj
 0001:0007d650       ?update_field_width@?$standard_base@DV?$stream_output_adapter@D@__crt_stdio_output@@@__crt_stdio_output@@IAE_NXZ 1007e650 f i libucrtd:output.obj
 0001:0007d680       ?update_field_width@?$standard_base@DV?$string_output_adapter@D@__crt_stdio_output@@@__crt_stdio_output@@IAE_NXZ 1007e680 f i libucrtd:output.obj
 0001:0007d6b0       ?update_field_width@?$standard_base@_WV?$stream_output_adapter@_W@__crt_stdio_output@@@__crt_stdio_output@@IAE_NXZ 1007e6b0 f i libucrtd:output.obj
 0001:0007d6e0       ?update_field_width@?$standard_base@_WV?$string_output_adapter@_W@__crt_stdio_output@@@__crt_stdio_output@@IAE_NXZ 1007e6e0 f i libucrtd:output.obj
 0001:0007d710       ?update_precision@?$positional_parameter_base@DV?$stream_output_adapter@D@__crt_stdio_output@@@__crt_stdio_output@@IAE_NXZ 1007e710 f i libucrtd:output.obj
 0001:0007d890       ?update_precision@?$positional_parameter_base@DV?$string_output_adapter@D@__crt_stdio_output@@@__crt_stdio_output@@IAE_NXZ 1007e890 f i libucrtd:output.obj
 0001:0007da10       ?update_precision@?$positional_parameter_base@_WV?$stream_output_adapter@_W@__crt_stdio_output@@@__crt_stdio_output@@IAE_NXZ 1007ea10 f i libucrtd:output.obj
 0001:0007db90       ?update_precision@?$positional_parameter_base@_WV?$string_output_adapter@_W@__crt_stdio_output@@@__crt_stdio_output@@IAE_NXZ 1007eb90 f i libucrtd:output.obj
 0001:0007dd10       ?update_precision@?$standard_base@DV?$stream_output_adapter@D@__crt_stdio_output@@@__crt_stdio_output@@IAE_NXZ 1007ed10 f i libucrtd:output.obj
 0001:0007dd40       ?update_precision@?$standard_base@DV?$string_output_adapter@D@__crt_stdio_output@@@__crt_stdio_output@@IAE_NXZ 1007ed40 f i libucrtd:output.obj
 0001:0007dd70       ?update_precision@?$standard_base@_WV?$stream_output_adapter@_W@__crt_stdio_output@@@__crt_stdio_output@@IAE_NXZ 1007ed70 f i libucrtd:output.obj
 0001:0007dda0       ?update_precision@?$standard_base@_WV?$string_output_adapter@_W@__crt_stdio_output@@@__crt_stdio_output@@IAE_NXZ 1007eda0 f i libucrtd:output.obj
 0001:0007ddd0       ?valid@__crt_stdio_stream@@QBE_NXZ 1007edd0 f i libucrtd:output.obj
 0001:0007de00       ?validate@?$stream_output_adapter@D@__crt_stdio_output@@QBE_NXZ 1007ee00 f i libucrtd:output.obj
 0001:0007deb0       ?validate@?$stream_output_adapter@_W@__crt_stdio_output@@QBE_NXZ 1007eeb0 f i libucrtd:output.obj
 0001:0007df60       ?validate@?$string_output_adapter@D@__crt_stdio_output@@QBE_NXZ 1007ef60 f i libucrtd:output.obj
 0001:0007dff0       ?validate@?$string_output_adapter@_W@__crt_stdio_output@@QBE_NXZ 1007eff0 f i libucrtd:output.obj
 0001:0007e080       ?validate_and_store_parameter_data@?$positional_parameter_base@DV?$stream_output_adapter@D@__crt_stdio_output@@@__crt_stdio_output@@AAE_NAAUparameter_data@12@W4parameter_type@12@DW4length_modifier@2@@Z 1007f080 f i libucrtd:output.obj
 0001:0007e150       ?validate_and_store_parameter_data@?$positional_parameter_base@DV?$string_output_adapter@D@__crt_stdio_output@@@__crt_stdio_output@@AAE_NAAUparameter_data@12@W4parameter_type@12@DW4length_modifier@2@@Z 1007f150 f i libucrtd:output.obj
 0001:0007e220       ?validate_and_store_parameter_data@?$positional_parameter_base@_WV?$stream_output_adapter@_W@__crt_stdio_output@@@__crt_stdio_output@@AAE_NAAUparameter_data@12@W4parameter_type@12@_WW4length_modifier@2@@Z 1007f220 f i libucrtd:output.obj
 0001:0007e300       ?validate_and_store_parameter_data@?$positional_parameter_base@_WV?$string_output_adapter@_W@__crt_stdio_output@@@__crt_stdio_output@@AAE_NAAUparameter_data@12@W4parameter_type@12@_WW4length_modifier@2@@Z 1007f300 f i libucrtd:output.obj
 0001:0007e3e0       ?validate_and_update_state_at_beginning_of_format_character@?$positional_parameter_base@DV?$stream_output_adapter@D@__crt_stdio_output@@@__crt_stdio_output@@IAE_NXZ 1007f3e0 f i libucrtd:output.obj
 0001:0007e600       ?validate_and_update_state_at_beginning_of_format_character@?$positional_parameter_base@DV?$string_output_adapter@D@__crt_stdio_output@@@__crt_stdio_output@@IAE_NXZ 1007f600 f i libucrtd:output.obj
 0001:0007e820       ?validate_and_update_state_at_beginning_of_format_character@?$positional_parameter_base@_WV?$stream_output_adapter@_W@__crt_stdio_output@@@__crt_stdio_output@@IAE_NXZ 1007f820 f i libucrtd:output.obj
 0001:0007ea40       ?validate_and_update_state_at_beginning_of_format_character@?$positional_parameter_base@_WV?$string_output_adapter@_W@__crt_stdio_output@@@__crt_stdio_output@@IAE_NXZ 1007fa40 f i libucrtd:output.obj
 0001:0007ec60       ?validate_and_update_state_at_beginning_of_format_character@?$standard_base@DV?$stream_output_adapter@D@__crt_stdio_output@@@__crt_stdio_output@@IAE_NXZ 1007fc60 f i libucrtd:output.obj
 0001:0007ec70       ?validate_and_update_state_at_beginning_of_format_character@?$standard_base@DV?$string_output_adapter@D@__crt_stdio_output@@@__crt_stdio_output@@IAE_NXZ 1007fc70 f i libucrtd:output.obj
 0001:0007ec80       ?validate_and_update_state_at_beginning_of_format_character@?$standard_base@_WV?$stream_output_adapter@_W@__crt_stdio_output@@@__crt_stdio_output@@IAE_NXZ 1007fc80 f i libucrtd:output.obj
 0001:0007ec90       ?validate_and_update_state_at_beginning_of_format_character@?$standard_base@_WV?$string_output_adapter@_W@__crt_stdio_output@@@__crt_stdio_output@@IAE_NXZ 1007fc90 f i libucrtd:output.obj
 0001:0007eca0       ?validate_and_update_state_at_end_of_format_string@?$format_validation_base@DV?$stream_output_adapter@D@__crt_stdio_output@@@__crt_stdio_output@@IBE_NXZ 1007fca0 f i libucrtd:output.obj
 0001:0007ed40       ?validate_and_update_state_at_end_of_format_string@?$format_validation_base@DV?$string_output_adapter@D@__crt_stdio_output@@@__crt_stdio_output@@IBE_NXZ 1007fd40 f i libucrtd:output.obj
 0001:0007ede0       ?validate_and_update_state_at_end_of_format_string@?$format_validation_base@_WV?$stream_output_adapter@_W@__crt_stdio_output@@@__crt_stdio_output@@IBE_NXZ 1007fde0 f i libucrtd:output.obj
 0001:0007ee80       ?validate_and_update_state_at_end_of_format_string@?$format_validation_base@_WV?$string_output_adapter@_W@__crt_stdio_output@@@__crt_stdio_output@@IBE_NXZ 1007fe80 f i libucrtd:output.obj
 0001:0007ef20       ?validate_and_update_state_at_end_of_format_string@?$positional_parameter_base@DV?$stream_output_adapter@D@__crt_stdio_output@@@__crt_stdio_output@@IAE_NXZ 1007ff20 f i libucrtd:output.obj
 0001:0007f0c0       ?validate_and_update_state_at_end_of_format_string@?$positional_parameter_base@DV?$string_output_adapter@D@__crt_stdio_output@@@__crt_stdio_output@@IAE_NXZ 100800c0 f i libucrtd:output.obj
 0001:0007f260       ?validate_and_update_state_at_end_of_format_string@?$positional_parameter_base@_WV?$stream_output_adapter@_W@__crt_stdio_output@@@__crt_stdio_output@@IAE_NXZ 10080260 f i libucrtd:output.obj
 0001:0007f400       ?validate_and_update_state_at_end_of_format_string@?$positional_parameter_base@_WV?$string_output_adapter@_W@__crt_stdio_output@@@__crt_stdio_output@@IAE_NXZ 10080400 f i libucrtd:output.obj
 0001:0007f5a0       ?validate_and_update_state_at_end_of_format_string@?$standard_base@DV?$stream_output_adapter@D@__crt_stdio_output@@@__crt_stdio_output@@IBE_NXZ 100805a0 f i libucrtd:output.obj
 0001:0007f5b0       ?validate_and_update_state_at_end_of_format_string@?$standard_base@DV?$string_output_adapter@D@__crt_stdio_output@@@__crt_stdio_output@@IBE_NXZ 100805b0 f i libucrtd:output.obj
 0001:0007f5c0       ?validate_and_update_state_at_end_of_format_string@?$standard_base@_WV?$stream_output_adapter@_W@__crt_stdio_output@@@__crt_stdio_output@@IBE_NXZ 100805c0 f i libucrtd:output.obj
 0001:0007f5d0       ?validate_and_update_state_at_end_of_format_string@?$standard_base@_WV?$string_output_adapter@_W@__crt_stdio_output@@@__crt_stdio_output@@IBE_NXZ 100805d0 f i libucrtd:output.obj
 0001:0007f5e0       ?validate_state_for_type_case_a@?$positional_parameter_base@DV?$stream_output_adapter@D@__crt_stdio_output@@@__crt_stdio_output@@IAE_NXZ 100805e0 f i libucrtd:output.obj
 0001:0007f6d0       ?validate_state_for_type_case_a@?$positional_parameter_base@DV?$string_output_adapter@D@__crt_stdio_output@@@__crt_stdio_output@@IAE_NXZ 100806d0 f i libucrtd:output.obj
 0001:0007f7c0       ?validate_state_for_type_case_a@?$positional_parameter_base@_WV?$stream_output_adapter@_W@__crt_stdio_output@@@__crt_stdio_output@@IAE_NXZ 100807c0 f i libucrtd:output.obj
 0001:0007f8b0       ?validate_state_for_type_case_a@?$positional_parameter_base@_WV?$string_output_adapter@_W@__crt_stdio_output@@@__crt_stdio_output@@IAE_NXZ 100808b0 f i libucrtd:output.obj
 0001:0007f9a0       ?validate_state_for_type_case_a@?$standard_base@DV?$stream_output_adapter@D@__crt_stdio_output@@@__crt_stdio_output@@IBE_NXZ 100809a0 f i libucrtd:output.obj
 0001:0007f9b0       ?validate_state_for_type_case_a@?$standard_base@DV?$string_output_adapter@D@__crt_stdio_output@@@__crt_stdio_output@@IBE_NXZ 100809b0 f i libucrtd:output.obj
 0001:0007f9c0       ?validate_state_for_type_case_a@?$standard_base@_WV?$stream_output_adapter@_W@__crt_stdio_output@@@__crt_stdio_output@@IBE_NXZ 100809c0 f i libucrtd:output.obj
 0001:0007f9d0       ?validate_state_for_type_case_a@?$standard_base@_WV?$string_output_adapter@_W@__crt_stdio_output@@@__crt_stdio_output@@IBE_NXZ 100809d0 f i libucrtd:output.obj
 0001:0007f9e0       ?validate_stream_is_ansi_if_required@?$__acrt_stdio_char_traits@D@@SA_NQAU_iobuf@@@Z 100809e0 f i libucrtd:output.obj
 0001:0007fb10       ?validate_stream_is_ansi_if_required@?$__acrt_stdio_char_traits@_W@@SA_NQAU_iobuf@@@Z 10080b10 f i libucrtd:output.obj
 0001:0007fb20       ?wide_null_string@?$output_processor@DV?$stream_output_adapter@D@__crt_stdio_output@@V?$format_validation_base@DV?$stream_output_adapter@D@__crt_stdio_output@@@2@@__crt_stdio_output@@CAPA_WXZ 10080b20 f i libucrtd:output.obj
 0001:0007fb30       ?wide_null_string@?$output_processor@DV?$stream_output_adapter@D@__crt_stdio_output@@V?$positional_parameter_base@DV?$stream_output_adapter@D@__crt_stdio_output@@@2@@__crt_stdio_output@@CAPA_WXZ 10080b30 f i libucrtd:output.obj
 0001:0007fb40       ?wide_null_string@?$output_processor@DV?$stream_output_adapter@D@__crt_stdio_output@@V?$standard_base@DV?$stream_output_adapter@D@__crt_stdio_output@@@2@@__crt_stdio_output@@CAPA_WXZ 10080b40 f i libucrtd:output.obj
 0001:0007fb50       ?wide_null_string@?$output_processor@DV?$string_output_adapter@D@__crt_stdio_output@@V?$format_validation_base@DV?$string_output_adapter@D@__crt_stdio_output@@@2@@__crt_stdio_output@@CAPA_WXZ 10080b50 f i libucrtd:output.obj
 0001:0007fb60       ?wide_null_string@?$output_processor@DV?$string_output_adapter@D@__crt_stdio_output@@V?$positional_parameter_base@DV?$string_output_adapter@D@__crt_stdio_output@@@2@@__crt_stdio_output@@CAPA_WXZ 10080b60 f i libucrtd:output.obj
 0001:0007fb70       ?wide_null_string@?$output_processor@DV?$string_output_adapter@D@__crt_stdio_output@@V?$standard_base@DV?$string_output_adapter@D@__crt_stdio_output@@@2@@__crt_stdio_output@@CAPA_WXZ 10080b70 f i libucrtd:output.obj
 0001:0007fb80       ?wide_null_string@?$output_processor@_WV?$stream_output_adapter@_W@__crt_stdio_output@@V?$format_validation_base@_WV?$stream_output_adapter@_W@__crt_stdio_output@@@2@@__crt_stdio_output@@CAPA_WXZ 10080b80 f i libucrtd:output.obj
 0001:0007fb90       ?wide_null_string@?$output_processor@_WV?$stream_output_adapter@_W@__crt_stdio_output@@V?$positional_parameter_base@_WV?$stream_output_adapter@_W@__crt_stdio_output@@@2@@__crt_stdio_output@@CAPA_WXZ 10080b90 f i libucrtd:output.obj
 0001:0007fba0       ?wide_null_string@?$output_processor@_WV?$stream_output_adapter@_W@__crt_stdio_output@@V?$standard_base@_WV?$stream_output_adapter@_W@__crt_stdio_output@@@2@@__crt_stdio_output@@CAPA_WXZ 10080ba0 f i libucrtd:output.obj
 0001:0007fbb0       ?wide_null_string@?$output_processor@_WV?$string_output_adapter@_W@__crt_stdio_output@@V?$format_validation_base@_WV?$string_output_adapter@_W@__crt_stdio_output@@@2@@__crt_stdio_output@@CAPA_WXZ 10080bb0 f i libucrtd:output.obj
 0001:0007fbc0       ?wide_null_string@?$output_processor@_WV?$string_output_adapter@_W@__crt_stdio_output@@V?$positional_parameter_base@_WV?$string_output_adapter@_W@__crt_stdio_output@@@2@@__crt_stdio_output@@CAPA_WXZ 10080bc0 f i libucrtd:output.obj
 0001:0007fbd0       ?wide_null_string@?$output_processor@_WV?$string_output_adapter@_W@__crt_stdio_output@@V?$standard_base@_WV?$string_output_adapter@_W@__crt_stdio_output@@@2@@__crt_stdio_output@@CAPA_WXZ 10080bd0 f i libucrtd:output.obj
 0001:0007fbe0       ?write_character@?$output_adapter_common@DV?$stream_output_adapter@D@__crt_stdio_output@@@__crt_stdio_output@@QBEXDQAH@Z 10080be0 f i libucrtd:output.obj
 0001:0007fc20       ?write_character@?$output_adapter_common@_WV?$stream_output_adapter@_W@__crt_stdio_output@@@__crt_stdio_output@@QBEX_WQAH@Z 10080c20 f i libucrtd:output.obj
 0001:0007fc60       ?write_character@?$string_output_adapter@D@__crt_stdio_output@@QBE_NDQAH@Z 10080c60 f i libucrtd:output.obj
 0001:0007fcf0       ?write_character@?$string_output_adapter@_W@__crt_stdio_output@@QBE_N_WQAH@Z 10080cf0 f i libucrtd:output.obj
 0001:0007fd90       ?write_character_without_count_update@?$stream_output_adapter@D@__crt_stdio_output@@QBE_ND@Z 10080d90 f i libucrtd:output.obj
 0001:0007fe00       ?write_character_without_count_update@?$stream_output_adapter@_W@__crt_stdio_output@@QBE_N_W@Z 10080e00 f i libucrtd:output.obj
 0001:0007fe70       ?write_stored_string_tchar@?$output_processor@DV?$stream_output_adapter@D@__crt_stdio_output@@V?$format_validation_base@DV?$stream_output_adapter@D@__crt_stdio_output@@@2@@__crt_stdio_output@@AAE_ND@Z 10080e70 f i libucrtd:output.obj
 0001:0007ff90       ?write_stored_string_tchar@?$output_processor@DV?$stream_output_adapter@D@__crt_stdio_output@@V?$positional_parameter_base@DV?$stream_output_adapter@D@__crt_stdio_output@@@2@@__crt_stdio_output@@AAE_ND@Z 10080f90 f i libucrtd:output.obj
 0001:000800b0       ?write_stored_string_tchar@?$output_processor@DV?$stream_output_adapter@D@__crt_stdio_output@@V?$standard_base@DV?$stream_output_adapter@D@__crt_stdio_output@@@2@@__crt_stdio_output@@AAE_ND@Z 100810b0 f i libucrtd:output.obj
 0001:000801d0       ?write_stored_string_tchar@?$output_processor@DV?$string_output_adapter@D@__crt_stdio_output@@V?$format_validation_base@DV?$string_output_adapter@D@__crt_stdio_output@@@2@@__crt_stdio_output@@AAE_ND@Z 100811d0 f i libucrtd:output.obj
 0001:000802f0       ?write_stored_string_tchar@?$output_processor@DV?$string_output_adapter@D@__crt_stdio_output@@V?$positional_parameter_base@DV?$string_output_adapter@D@__crt_stdio_output@@@2@@__crt_stdio_output@@AAE_ND@Z 100812f0 f i libucrtd:output.obj
 0001:00080410       ?write_stored_string_tchar@?$output_processor@DV?$string_output_adapter@D@__crt_stdio_output@@V?$standard_base@DV?$string_output_adapter@D@__crt_stdio_output@@@2@@__crt_stdio_output@@AAE_ND@Z 10081410 f i libucrtd:output.obj
 0001:00080530       ?write_stored_string_tchar@?$output_processor@_WV?$stream_output_adapter@_W@__crt_stdio_output@@V?$format_validation_base@_WV?$stream_output_adapter@_W@__crt_stdio_output@@@2@@__crt_stdio_output@@AAE_N_W@Z 10081530 f i libucrtd:output.obj
 0001:00080620       ?write_stored_string_tchar@?$output_processor@_WV?$stream_output_adapter@_W@__crt_stdio_output@@V?$positional_parameter_base@_WV?$stream_output_adapter@_W@__crt_stdio_output@@@2@@__crt_stdio_output@@AAE_N_W@Z 10081620 f i libucrtd:output.obj
 0001:00080710       ?write_stored_string_tchar@?$output_processor@_WV?$stream_output_adapter@_W@__crt_stdio_output@@V?$standard_base@_WV?$stream_output_adapter@_W@__crt_stdio_output@@@2@@__crt_stdio_output@@AAE_N_W@Z 10081710 f i libucrtd:output.obj
 0001:00080800       ?write_stored_string_tchar@?$output_processor@_WV?$string_output_adapter@_W@__crt_stdio_output@@V?$format_validation_base@_WV?$string_output_adapter@_W@__crt_stdio_output@@@2@@__crt_stdio_output@@AAE_N_W@Z 10081800 f i libucrtd:output.obj
 0001:000808f0       ?write_stored_string_tchar@?$output_processor@_WV?$string_output_adapter@_W@__crt_stdio_output@@V?$positional_parameter_base@_WV?$string_output_adapter@_W@__crt_stdio_output@@@2@@__crt_stdio_output@@AAE_N_W@Z 100818f0 f i libucrtd:output.obj
 0001:000809e0       ?write_stored_string_tchar@?$output_processor@_WV?$string_output_adapter@_W@__crt_stdio_output@@V?$standard_base@_WV?$string_output_adapter@_W@__crt_stdio_output@@@2@@__crt_stdio_output@@AAE_N_W@Z 100819e0 f i libucrtd:output.obj
 0001:00080ad0       ?write_string@?$stream_output_adapter@D@__crt_stdio_output@@QBEXQBDHQAHAAV__crt_deferred_errno_cache@@@Z 10081ad0 f i libucrtd:output.obj
 0001:00080b30       ?write_string@?$stream_output_adapter@_W@__crt_stdio_output@@QBEXQB_WHQAHAAV__crt_deferred_errno_cache@@@Z 10081b30 f i libucrtd:output.obj
 0001:00080b90       ?write_string@?$string_output_adapter@D@__crt_stdio_output@@QBEXQBDHQAHAAV__crt_deferred_errno_cache@@@Z 10081b90 f i libucrtd:output.obj
 0001:00080c90       ?write_string@?$string_output_adapter@_W@__crt_stdio_output@@QBEXQB_WHQAHAAV__crt_deferred_errno_cache@@@Z 10081c90 f i libucrtd:output.obj
 0001:00080da0       ?write_string_impl@?$output_adapter_common@DV?$stream_output_adapter@D@__crt_stdio_output@@@__crt_stdio_output@@IBEXQBDHQAHAAV__crt_deferred_errno_cache@@@Z 10081da0 f i libucrtd:output.obj
 0001:00080e40       ?write_string_impl@?$output_adapter_common@_WV?$stream_output_adapter@_W@__crt_stdio_output@@@__crt_stdio_output@@IBEXQB_WHQAHAAV__crt_deferred_errno_cache@@@Z 10081e40 f i libucrtd:output.obj
 0001:00080ee0       ___acrt_isleadbyte_l_noupdate 10081ee0 f i libucrtd:output.obj
 0001:00080f00       ___acrt_locale_get_ctype_array_value 10081f00 f i libucrtd:output.obj
 0001:00080f30       ___stdio_common_vfprintf   10081f30 f   libucrtd:output.obj
 0001:00080f60       ___stdio_common_vfprintf_p 10081f60 f   libucrtd:output.obj
 0001:00080f90       ___stdio_common_vfprintf_s 10081f90 f   libucrtd:output.obj
 0001:00080fc0       ___stdio_common_vfwprintf  10081fc0 f   libucrtd:output.obj
 0001:00080ff0       ___stdio_common_vfwprintf_p 10081ff0 f   libucrtd:output.obj
 0001:00081020       ___stdio_common_vfwprintf_s 10082020 f   libucrtd:output.obj
 0001:00081050       ___stdio_common_vsnprintf_s 10082050 f   libucrtd:output.obj
 0001:00081080       ___stdio_common_vsnwprintf_s 10082080 f   libucrtd:output.obj
 0001:000810b0       ___stdio_common_vsprintf   100820b0 f   libucrtd:output.obj
 0001:000810e0       ___stdio_common_vsprintf_p 100820e0 f   libucrtd:output.obj
 0001:00081110       ___stdio_common_vsprintf_s 10082110 f   libucrtd:output.obj
 0001:00081140       ___stdio_common_vswprintf  10082140 f   libucrtd:output.obj
 0001:00081170       ___stdio_common_vswprintf_p 10082170 f   libucrtd:output.obj
 0001:000811a0       ___stdio_common_vswprintf_s 100821a0 f   libucrtd:output.obj
 0001:000811d0       __ctype_fast_check_internal 100821d0 f i libucrtd:output.obj
 0001:000811f0       __isdigit_fast_internal    100821f0 f i libucrtd:output.obj
 0001:00081210       __tolower_fast_internal    10082210 f i libucrtd:output.obj
 0001:00081b70       __makepath                 10082b70 f   libucrtd:makepath.obj
 0001:00081ba0       __makepath_s               10082ba0 f   libucrtd:makepath.obj
 0001:00081bd0       __wmakepath                10082bd0 f   libucrtd:makepath.obj
 0001:00081c00       __wmakepath_s              10082c00 f   libucrtd:makepath.obj
 0001:00083550       ??$tcsncpy_s@AAPADIAAPBDABI@?$__crt_char_traits@D@@SAHAAPAD$$QAIAAPBDABI@Z 10084550 f i libucrtd:splitpath.obj
 0001:00083580       ??$tcsncpy_s@AAPADIAAPBDH@?$__crt_char_traits@D@@SAHAAPAD$$QAIAAPBD$$QAH@Z 10084580 f i libucrtd:splitpath.obj
 0001:000835b0       ??$tcsncpy_s@AAPA_WIAAPB_WABI@?$__crt_char_traits@_W@@SAHAAPA_W$$QAIAAPB_WABI@Z 100845b0 f i libucrtd:splitpath.obj
 0001:000835e0       ??$tcsncpy_s@AAPA_WIAAPB_WH@?$__crt_char_traits@_W@@SAHAAPA_W$$QAIAAPB_W$$QAH@Z 100845e0 f i libucrtd:splitpath.obj
 0001:00083820       __splitpath                10084820 f   libucrtd:splitpath.obj
 0001:00083850       __splitpath_s              10084850 f   libucrtd:splitpath.obj
 0001:000838a0       __wsplitpath               100848a0 f   libucrtd:splitpath.obj
 0001:000838d0       __wsplitpath_s             100848d0 f   libucrtd:splitpath.obj
 0001:00083c40       _wcscpy_s                  10084c40 f   libucrtd:wcscpy_s.obj
 0001:00083c60       __set_abort_behavior       10084c60 f   libucrtd:abort.obj
 0001:00083c90       _abort                     10084c90 f   libucrtd:abort.obj
 0001:00083d00       _strlen                    10084d00 f   libucrtd:strlen.obj
 0001:00083d90       ??$__crt_fast_decode_pointer@P6AXPB_W00II@Z@@YAP6AXPB_W00II@ZQ6AX000II@Z@Z 10084d90 f i libucrtd:invalid_parameter.obj
 0001:00083dc0       ??$__crt_fast_encode_pointer@P6AXPB_W00II@Z@@YAP6AXPB_W00II@ZQ6AX000II@Z@Z 10084dc0 f i libucrtd:invalid_parameter.obj
 0001:00083df0       ??$initialize_from_array@$$BY00Q6AXPB_W00II@Z@?$dual_state_global@P6AXPB_W00II@Z@__crt_state_management@@QAAXAAY00Q6AXPB_W00II@Z@Z 10084df0 f i libucrtd:invalid_parameter.obj
 0001:00083e40       ?dangerous_get_state_array@?$dual_state_global@P6AXPB_W00II@Z@__crt_state_management@@QAEPAP6AXPB_W00II@ZXZ 10084e40 f i libucrtd:invalid_parameter.obj
 0001:00083e50       ?value@?$dual_state_global@P6AXPB_W00II@Z@__crt_state_management@@QAEAAP6AXPB_W00II@ZXZ 10084e50 f i libucrtd:invalid_parameter.obj
 0001:00083e70       ___acrt_call_reportfault   10084e70 f   libucrtd:invalid_parameter.obj
 0001:00083fd0       ___acrt_initialize_invalid_parameter_handler 10084fd0 f   libucrtd:invalid_parameter.obj
 0001:00084000       __get_invalid_parameter_handler 10085000 f   libucrtd:invalid_parameter.obj
 0001:00084020       __get_thread_local_invalid_parameter_handler 10085020 f   libucrtd:invalid_parameter.obj
 0001:00084050       __invalid_parameter        10085050 f   libucrtd:invalid_parameter.obj
 0001:00084110       __invalid_parameter_noinfo 10085110 f   libucrtd:invalid_parameter.obj
 0001:00084130       __invalid_parameter_noinfo_noreturn 10085130 f   libucrtd:invalid_parameter.obj
 0001:00084160       __invoke_watson            10085160 f   libucrtd:invalid_parameter.obj
 0001:000841a0       __set_invalid_parameter_handler 100851a0 f   libucrtd:invalid_parameter.obj
 0001:000841f0       __set_thread_local_invalid_parameter_handler 100851f0 f   libucrtd:invalid_parameter.obj
 0001:00084220       ??$is_overflow_condition@K@__crt_strtox@@YA_NIK@Z 10085220 f i libucrtd:atox.obj
 0001:00084280       ??$is_overflow_condition@_K@__crt_strtox@@YA_NI_K@Z 10085280 f i libucrtd:atox.obj
 0001:00084310       ??$make_c_string_character_source@D$$T@__crt_strtox@@YA?AV?$c_string_character_source@D@0@QBD$$T@Z 10085310 f i libucrtd:atox.obj
 0001:00084330       ??$make_c_string_character_source@_W$$T@__crt_strtox@@YA?AV?$c_string_character_source@_W@0@QB_W$$T@Z 10085330 f i libucrtd:atox.obj
 0001:00084350       ??$parse_integer@KV?$c_string_character_source@D@__crt_strtox@@@__crt_strtox@@YAKQAU__crt_locale_pointers@@V?$c_string_character_source@D@0@H_N@Z 10085350 f i libucrtd:atox.obj
 0001:000846c0       ??$parse_integer@KV?$c_string_character_source@_W@__crt_strtox@@@__crt_strtox@@YAKQAU__crt_locale_pointers@@V?$c_string_character_source@_W@0@H_N@Z 100856c0 f i libucrtd:atox.obj
 0001:00084a30       ??$parse_integer@_KV?$c_string_character_source@D@__crt_strtox@@@__crt_strtox@@YA_KQAU__crt_locale_pointers@@V?$c_string_character_source@D@0@H_N@Z 10085a30 f i libucrtd:atox.obj
 0001:00084e50       ??$parse_integer@_KV?$c_string_character_source@_W@__crt_strtox@@@__crt_strtox@@YA_KQAU__crt_locale_pointers@@V?$c_string_character_source@_W@0@H_N@Z 10085e50 f i libucrtd:atox.obj
 0001:00085280       ??$parse_integer_from_string@JD$$T@__crt_strtox@@YAJQBD$$THQAU__crt_locale_pointers@@@Z 10086280 f i libucrtd:atox.obj
 0001:000852c0       ??$parse_integer_from_string@J_W$$T@__crt_strtox@@YAJQB_W$$THQAU__crt_locale_pointers@@@Z 100862c0 f i libucrtd:atox.obj
 0001:00085300       ??$parse_integer_from_string@_JD$$T@__crt_strtox@@YA_JQBD$$THQAU__crt_locale_pointers@@@Z 10086300 f i libucrtd:atox.obj
 0001:00085340       ??$parse_integer_from_string@_J_W$$T@__crt_strtox@@YA_JQB_W$$THQAU__crt_locale_pointers@@@Z 10086340 f i libucrtd:atox.obj
 0001:00085380       ??0?$c_string_character_source@D@__crt_strtox@@QAE@QBDQAPBD@Z 10086380 f i libucrtd:atox.obj
 0001:000853c0       ??0?$c_string_character_source@_W@__crt_strtox@@QAE@QB_WQAPB_W@Z 100863c0 f i libucrtd:atox.obj
 0001:00085400       ??1?$c_string_character_source@D@__crt_strtox@@QAE@XZ 10086400 f i libucrtd:atox.obj
 0001:00085430       ??1?$c_string_character_source@_W@__crt_strtox@@QAE@XZ 10086430 f i libucrtd:atox.obj
 0001:00085460       ?get@?$c_string_character_source@D@__crt_strtox@@QAEDXZ 10086460 f i libucrtd:atox.obj
 0001:00085490       ?get@?$c_string_character_source@_W@__crt_strtox@@QAE_WXZ 10086490 f i libucrtd:atox.obj
 0001:000854c0       ?is_space@__crt_strtox@@YA_NDQAU__crt_locale_pointers@@@Z 100864c0 f i libucrtd:atox.obj
 0001:00085500       ?is_space@__crt_strtox@@YA_N_WPAU__crt_locale_pointers@@@Z 10086500 f i libucrtd:atox.obj
 0001:00085530       ?maximum_signed_value@__crt_strtox@@YAJK@Z 10086530 f i libucrtd:atox.obj
 0001:00085540       ?maximum_signed_value@__crt_strtox@@YA_J_K@Z 10086540 f i libucrtd:atox.obj
 0001:00085550       ?minimum_signed_value@__crt_strtox@@YAJK@Z 10086550 f i libucrtd:atox.obj
 0001:00085560       ?minimum_signed_value@__crt_strtox@@YA_J_K@Z 10086560 f i libucrtd:atox.obj
 0001:00085570       ?parse_digit@__crt_strtox@@YAID@Z 10086570 f i libucrtd:atox.obj
 0001:000855d0       ?parse_digit@__crt_strtox@@YAI_W@Z 100865d0 f i libucrtd:atox.obj
 0001:00085620       ?restore_state@?$c_string_character_source@D@__crt_strtox@@QAE_NQBD@Z 10086620 f i libucrtd:atox.obj
 0001:00085640       ?restore_state@?$c_string_character_source@_W@__crt_strtox@@QAE_NQB_W@Z 10086640 f i libucrtd:atox.obj
 0001:00085660       ?save_state@?$c_string_character_source@D@__crt_strtox@@QBEPBDXZ 10086660 f i libucrtd:atox.obj
 0001:00085680       ?save_state@?$c_string_character_source@_W@__crt_strtox@@QBEPB_WXZ 10086680 f i libucrtd:atox.obj
 0001:000856a0       ?unget@?$c_string_character_source@D@__crt_strtox@@QAEXD@Z 100866a0 f i libucrtd:atox.obj
 0001:00085750       ?unget@?$c_string_character_source@_W@__crt_strtox@@QAEX_W@Z 10086750 f i libucrtd:atox.obj
 0001:00085800       ?validate@?$c_string_character_source@D@__crt_strtox@@QBE_NXZ 10086800 f i libucrtd:atox.obj
 0001:00085890       ?validate@?$c_string_character_source@_W@__crt_strtox@@QBE_NXZ 10086890 f i libucrtd:atox.obj
 0001:00085920       ?wide_character_to_digit@__crt_strtox@@YAH_W@Z 10086920 f i libucrtd:atox.obj
 0001:00085c50       ___ascii_iswalpha          10086c50 f i libucrtd:atox.obj
 0001:00085c90       ___ascii_toupper           10086c90 f i libucrtd:atox.obj
 0001:00085cb0       ___ascii_towupper          10086cb0 f i libucrtd:atox.obj
 0001:00085cd0       __atoi64                   10086cd0 f   libucrtd:atox.obj
 0001:00085cf0       __atoi64_l                 10086cf0 f   libucrtd:atox.obj
 0001:00085d10       __atoi_l                   10086d10 f   libucrtd:atox.obj
 0001:00085d30       __atol_l                   10086d30 f   libucrtd:atox.obj
 0001:00085d50       __atoll_l                  10086d50 f   libucrtd:atox.obj
 0001:00085d70       __wtoi                     10086d70 f   libucrtd:atox.obj
 0001:00085d90       __wtoi64                   10086d90 f   libucrtd:atox.obj
 0001:00085db0       __wtoi64_l                 10086db0 f   libucrtd:atox.obj
 0001:00085dd0       __wtoi_l                   10086dd0 f   libucrtd:atox.obj
 0001:00085df0       __wtol                     10086df0 f   libucrtd:atox.obj
 0001:00085e10       __wtol_l                   10086e10 f   libucrtd:atox.obj
 0001:00085e30       __wtoll                    10086e30 f   libucrtd:atox.obj
 0001:00085e50       __wtoll_l                  10086e50 f   libucrtd:atox.obj
 0001:00085e70       _atoi                      10086e70 f   libucrtd:atox.obj
 0001:00085e90       _atol                      10086e90 f   libucrtd:atox.obj
 0001:00085eb0       _atoll                     10086eb0 f   libucrtd:atox.obj
 0001:00085ed0       _strncmp                   10086ed0 f   libucrtd:strncmp.obj
 0001:00085f50       _wcsncmp                   10086f50 f   libucrtd:wcsncmp.obj
 0001:00085fb0       _free                      10086fb0 f   libucrtd:free.obj
 0001:00085fe0       _malloc                    10086fe0 f   libucrtd:malloc.obj
 0001:00086020       __fFATN2                   10087020 f   libucrtd:87triga.obj
 0001:00086070       __rtpiby2                  10087070     libucrtd:87triga.obj
 0001:00086080       __rtforatn20               10087080 f   libucrtd:87triga.obj
 0001:000860b0       __rtforatnby0              100870b0 f   libucrtd:87triga.obj
 0001:000860c0       __cintrindisp2             100870c0 f   libucrtd:87cdisp.obj
 0001:00086110       __cintrindisp1             10087110 f   libucrtd:87cdisp.obj
 0001:00086159       __ctrandisp2               10087159 f   libucrtd:87cdisp.obj
 0001:000862e8       __ctrandisp1               100872e8 f   libucrtd:87cdisp.obj
 0001:0008631b       __fload                    1008731b f   libucrtd:87cdisp.obj
 0001:00086360       __twoToTOS                 10087360 f   libucrtd:common.obj
 0001:00086375       __load_CW                  10087375 f   libucrtd:common.obj
 0001:0008638c       __convertTOStoQNaN         1008738c f   libucrtd:common.obj
 0001:000863a5       __fload_withFB             100873a5 f   libucrtd:common.obj
 0001:000863e8       __checkTOS_withFB          100873e8 f   libucrtd:common.obj
 0001:000863fe       __fast_exit                100873fe f   libucrtd:common.obj
 0001:0008640b       __math_exit                1008740b f   libucrtd:common.obj
 0001:00086435       __check_overflow_exit      10087435 f   libucrtd:common.obj
 0001:00086449       __check_range_exit         10087449 f   libucrtd:common.obj
 0001:000864f0       __CIsqrt                   100874f0 f   libucrtd:sqrt_impl.obj
 0001:00086504       __sqrt_common              10087504     libucrtd:sqrt_impl.obj
 0001:000865b0       ___libm_error_support      100875b0 f   libucrtd:libm_error.obj
 0001:00086b70       ___libm_setusermatherr     10087b70 f   libucrtd:libm_error.obj
 0001:00086bb0       ___acrt_initialize_sse2    10087bb0 f   libucrtd:mathfcns.obj
 0001:00086bd0       __set_SSE2_enable          10087bd0 f   libucrtd:mathfcns.obj
 0001:00086c20       __floor_default            10087c20 f   libucrtd:floor.obj
 0001:00086d40       __add_exp                  10087d40 f   libucrtd:util.obj
 0001:00086d80       __decomp                   10087d80 f   libucrtd:util.obj
 0001:00086eb0       __get_exp                  10087eb0 f   libucrtd:util.obj
 0001:00086ee0       __set_bexp                 10087ee0 f   libucrtd:util.obj
 0001:00086f10       __set_exp                  10087f10 f   libucrtd:util.obj
 0001:00086f50       __sptype                   10087f50 f   libucrtd:util.obj
 0001:00086fd0       ___clrfp_sse2              10087fd0 f   libucrtd:fpctrl.obj
 0001:00087010       ___ctrlfp_sse2             10088010 f   libucrtd:fpctrl.obj
 0001:00087070       ___fclrf_sse2              10088070 f   libucrtd:fpctrl.obj
 0001:00087090       ___get_fpsr_sse2           10088090 f   libucrtd:fpctrl.obj
 0001:000870c0       ___set_fpsr_sse2           100880c0 f   libucrtd:fpctrl.obj
 0001:000871a0       ___set_statfp_sse2         100881a0 f   libucrtd:fpctrl.obj
 0001:000871d0       ___statfp_sse2             100881d0 f   libucrtd:fpctrl.obj
 0001:00087200       __clrfp                    10088200 f   libucrtd:fpctrl.obj
 0001:00087220       __ctrlfp                   10088220 f   libucrtd:fpctrl.obj
 0001:00087250       __set_statfp               10088250 f   libucrtd:fpctrl.obj
 0001:000872c0       __statfp                   100882c0 f   libucrtd:fpctrl.obj
 0001:000872e0       _ldexp                     100882e0 f   libucrtd:ldexp.obj
 0001:000875e0       _nextafter                 100885e0 f   libucrtd:nextafter.obj
 0001:000877c0       ___acrt_report_runtime_error 100887c0 f   libucrtd:report_runtime_error.obj
 0001:000879b0       __query_app_type           100889b0 f   libucrtd:report_runtime_error.obj
 0001:000879c0       __set_app_type             100889c0 f   libucrtd:report_runtime_error.obj
 0001:000879d0       ___acrt_errno_from_os_error 100889d0 f   libucrtd:errno.obj
 0001:00087a50       ___acrt_errno_map_os_error 10088a50 f   libucrtd:errno.obj
 0001:00087a80       ___doserrno                10088a80 f   libucrtd:errno.obj
 0001:00087ab0       __errno                    10088ab0 f   libucrtd:errno.obj
 0001:00087ae0       __get_doserrno             10088ae0 f   libucrtd:errno.obj
 0001:00087b70       __get_errno                10088b70 f   libucrtd:errno.obj
 0001:00087c00       __set_doserrno             10088c00 f   libucrtd:errno.obj
 0001:00087c30       __set_errno                10088c30 f   libucrtd:errno.obj
 0001:00088d70       __i64toa                   10089d70 f   libucrtd:xtoa.obj
 0001:00088dc0       __i64toa_s                 10089dc0 f   libucrtd:xtoa.obj
 0001:00088e10       __i64tow                   10089e10 f   libucrtd:xtoa.obj
 0001:00088e60       __i64tow_s                 10089e60 f   libucrtd:xtoa.obj
 0001:00088eb0       __itoa                     10089eb0 f   libucrtd:xtoa.obj
 0001:00088f00       __itoa_s                   10089f00 f   libucrtd:xtoa.obj
 0001:00088f50       __itow                     10089f50 f   libucrtd:xtoa.obj
 0001:00088fa0       __itow_s                   10089fa0 f   libucrtd:xtoa.obj
 0001:00088ff0       __ltoa                     10089ff0 f   libucrtd:xtoa.obj
 0001:00089040       __ltoa_s                   1008a040 f   libucrtd:xtoa.obj
 0001:00089090       __ltow                     1008a090 f   libucrtd:xtoa.obj
 0001:000890e0       __ltow_s                   1008a0e0 f   libucrtd:xtoa.obj
 0001:00089130       __ui64toa                  1008a130 f   libucrtd:xtoa.obj
 0001:00089160       __ui64toa_s                1008a160 f   libucrtd:xtoa.obj
 0001:00089190       __ui64tow                  1008a190 f   libucrtd:xtoa.obj
 0001:000891c0       __ui64tow_s                1008a1c0 f   libucrtd:xtoa.obj
 0001:000891f0       __ultoa                    1008a1f0 f   libucrtd:xtoa.obj
 0001:00089220       __ultoa_s                  1008a220 f   libucrtd:xtoa.obj
 0001:00089250       __ultow                    1008a250 f   libucrtd:xtoa.obj
 0001:00089280       __ultow_s                  1008a280 f   libucrtd:xtoa.obj
 0001:000892b0       __set_error_mode           1008a2b0 f   libucrtd:set_error_mode.obj
 0001:00089790       _wcscat_s                  1008a790 f   libucrtd:wcscat_s.obj
 0001:00089c80       _wcsncat_s                 1008ac80 f   libucrtd:wcsncat_s.obj
 0001:0008a9a0       ??1?$__crt_simd_cleanup_guard@$00@@QAE@XZ 1008b9a0 f i libucrtd:strnlen.obj
 0001:0008a9b0       ??1?$__crt_simd_cleanup_guard@$0A@@@QAE@XZ 1008b9b0 f i libucrtd:strnlen.obj
 0001:0008a9c0       ?compare_equals@?$__crt_simd_traits@$00E@@SA?AT__m256i@@T2@0@Z 1008b9c0 f i libucrtd:strnlen.obj
 0001:0008aa00       ?compare_equals@?$__crt_simd_traits@$00G@@SA?AT__m256i@@T2@0@Z 1008ba00 f i libucrtd:strnlen.obj
 0001:0008aa40       ?compare_equals@?$__crt_simd_traits@$0A@E@@SA?AT__m128i@@T2@0@Z 1008ba40 f i libucrtd:strnlen.obj
 0001:0008aa80       ?compare_equals@?$__crt_simd_traits@$0A@G@@SA?AT__m128i@@T2@0@Z 1008ba80 f i libucrtd:strnlen.obj
 0001:0008aac0       ?compute_byte_mask@?$__crt_simd_pack_traits@$00@@SAHT__m256i@@@Z 1008bac0 f i libucrtd:strnlen.obj
 0001:0008aaf0       ?compute_byte_mask@?$__crt_simd_pack_traits@$0A@@@SAHT__m128i@@@Z 1008baf0 f i libucrtd:strnlen.obj
 0001:0008ab20       ?get_zero_pack@?$__crt_simd_pack_traits@$00@@SA?AT__m256i@@XZ 1008bb20 f i libucrtd:strnlen.obj
 0001:0008ab50       ?get_zero_pack@?$__crt_simd_pack_traits@$0A@@@SA?AT__m128i@@XZ 1008bb50 f i libucrtd:strnlen.obj
 0001:0008ab80       _strnlen                   1008bb80 f   libucrtd:strnlen.obj
 0001:0008aba0       _wcslen                    1008bba0 f   libucrtd:strnlen.obj
 0001:0008abc0       _wcsnlen                   1008bbc0 f   libucrtd:strnlen.obj
 0001:0008b0a0       _strncat_s                 1008c0a0 f   libucrtd:strncat_s.obj
 0001:0008b1f0       ??$__acrt_wcs_to_mbs_cp@U__crt_win32_buffer_no_resizing@@@@YAHQB_WAAV?$__crt_win32_buffer@DU__crt_win32_buffer_no_resizing@@@@I@Z 1008c1f0 f i libucrtd:getmodulefilenamea.obj
 0001:0008b220       ??0?$__crt_win32_buffer@DU__crt_win32_buffer_no_resizing@@@@QAE@QADI@Z 1008c220 f i libucrtd:getmodulefilenamea.obj
 0001:0008b270       ??1?$__crt_win32_buffer@DU__crt_win32_buffer_no_resizing@@@@QAE@XZ 1008c270 f i libucrtd:getmodulefilenamea.obj
 0001:0008b2e0       ?__acrt_get_utf8_acp_compatibility_codepage@@YAIXZ 1008c2e0 f i libucrtd:getmodulefilenamea.obj
 0001:0008b370       ?_deallocate@?$__crt_win32_buffer@DU__crt_win32_buffer_no_resizing@@@@AAEXXZ 1008c370 f i libucrtd:getmodulefilenamea.obj
 0001:0008b3b0       ?allocate@?$__crt_win32_buffer@DU__crt_win32_buffer_no_resizing@@@@QAEHI@Z 1008c3b0 f i libucrtd:getmodulefilenamea.obj
 0001:0008b420       ?allocate@__crt_win32_buffer_no_resizing@@SAHQAPAXIABV__crt_win32_buffer_empty_debug_info@@@Z 1008c420 f i libucrtd:getmodulefilenamea.obj
 0001:0008b440       ?capacity@?$__crt_win32_buffer@DU__crt_win32_buffer_no_resizing@@@@QBEIXZ 1008c440 f i libucrtd:getmodulefilenamea.obj
 0001:0008b460       ?data@?$__crt_win32_buffer@DU__crt_win32_buffer_no_resizing@@@@QAEPADXZ 1008c460 f i libucrtd:getmodulefilenamea.obj
 0001:0008b480       ?deallocate@__crt_win32_buffer_no_resizing@@SAXQAXABV__crt_win32_buffer_empty_debug_info@@@Z 1008c480 f i libucrtd:getmodulefilenamea.obj
 0001:0008b490       ?debug_info@?$__crt_win32_buffer@DU__crt_win32_buffer_no_resizing@@@@QBEABV__crt_win32_buffer_empty_debug_info@@XZ 1008c490 f i libucrtd:getmodulefilenamea.obj
 0001:0008b4a0       ?set_to_nullptr@?$__crt_win32_buffer@DU__crt_win32_buffer_no_resizing@@@@QAEXXZ 1008c4a0 f i libucrtd:getmodulefilenamea.obj
 0001:0008b4e0       ?size@?$__crt_win32_buffer@DU__crt_win32_buffer_no_resizing@@@@QAEXI@Z 1008c4e0 f i libucrtd:getmodulefilenamea.obj
 0001:0008b500       ?size@?$__crt_win32_buffer@DU__crt_win32_buffer_no_resizing@@@@QBEIXZ 1008c500 f i libucrtd:getmodulefilenamea.obj
 0001:0008b520       ___acrt_GetModuleFileNameA 1008c520 f   libucrtd:getmodulefilenamea.obj
 0001:0008b800       ??$message_box@$$TABQBDABQBDK@?$__crt_char_traits@D@@SAH$$QA$$TABQBD1$$QAK@Z 1008c800 f i libucrtd:crtmbox.obj
 0001:0008b830       ??$message_box@$$TABQB_WABQB_WK@?$__crt_char_traits@_W@@SAH$$QA$$TABQB_W1$$QAK@Z 1008c830 f i libucrtd:crtmbox.obj
 0001:0008b860       ??$message_box@PAUHWND__@@ABQBDABQBDABI@?$__crt_char_traits@D@@SAH$$QAPAUHWND__@@ABQBD1ABI@Z 1008c860 f i libucrtd:crtmbox.obj
 0001:0008b890       ??$message_box@PAUHWND__@@ABQB_WABQB_WABI@?$__crt_char_traits@_W@@SAH$$QAPAUHWND__@@ABQB_W1ABI@Z 1008c890 f i libucrtd:crtmbox.obj
 0001:0008b8c0       ??$output_debug_string@ABQBD@?$__crt_char_traits@D@@SAXABQBD@Z 1008c8c0 f i libucrtd:crtmbox.obj
 0001:0008b8e0       ??$output_debug_string@ABQB_W@?$__crt_char_traits@_W@@SAXABQB_W@Z 1008c8e0 f i libucrtd:crtmbox.obj
 0001:0008b900       ___acrt_show_narrow_message_box 1008c900 f   libucrtd:crtmbox.obj
 0001:0008b920       ___acrt_show_wide_message_box 1008c920 f   libucrtd:crtmbox.obj
 0001:0008b940       ??$?RPAU__crt_stdio_stream_data@@@__crt_internal_free_policy@@QBEXQBQAU__crt_stdio_stream_data@@@Z 1008c940 f i libucrtd:_file.obj
 0001:0008b960       ??0?$__crt_unique_heap_ptr@PAU__crt_stdio_stream_data@@U__crt_internal_free_policy@@@@QAE@QAPAU__crt_stdio_stream_data@@@Z 1008c960 f i libucrtd:_file.obj
 0001:0008b980       ??1?$__crt_unique_heap_ptr@PAU__crt_stdio_stream_data@@U__crt_internal_free_policy@@@@QAE@XZ 1008c980 f i libucrtd:_file.obj
 0001:0008b9a0       ?detach@?$__crt_unique_heap_ptr@PAU__crt_stdio_stream_data@@U__crt_internal_free_policy@@@@QAEPAPAU__crt_stdio_stream_data@@XZ 1008c9a0 f i libucrtd:_file.obj
 0001:0008b9d0       ?release@?$__crt_unique_heap_ptr@PAU__crt_stdio_stream_data@@U__crt_internal_free_policy@@@@QAEXXZ 1008c9d0 f i libucrtd:_file.obj
 0001:0008ba00       ___acrt_initialize_stdio   1008ca00 f   libucrtd:_file.obj
 0001:0008bb70       ___acrt_iob_func           1008cb70 f   libucrtd:_file.obj
 0001:0008bb80       ___acrt_uninitialize_stdio 1008cb80 f   libucrtd:_file.obj
 0001:0008bc00       __get_stream_buffer_pointers 1008cc00 f   libucrtd:_file.obj
 0001:0008bce0       __lock_file                1008cce0 f   libucrtd:_file.obj
 0001:0008bd10       __unlock_file              1008cd10 f   libucrtd:_file.obj
 0001:0008c0e0       ??0__crt_stdio_stream@@QAE@QAU__crt_stdio_stream_data@@@Z 1008d0e0 f i libucrtd:fflush.obj
 0001:0008c310       ?__acrt_stdio_reset_buffer@@YAXV__crt_stdio_stream@@@Z 1008d310 f i libucrtd:fflush.obj
 0001:0008c410       ?has_all_of@__crt_stdio_stream@@QBE_NJ@Z 1008d410 f i libucrtd:fflush.obj
 0001:0008c4e0       ?set_flags@__crt_stdio_stream@@QBE_NJ@Z 1008d4e0 f i libucrtd:fflush.obj
 0001:0008c530       ?unset_flags@__crt_stdio_stream@@QBE_NJ@Z 1008d530 f i libucrtd:fflush.obj
 0001:0008c580       ___acrt_stdio_flush_nolock 1008d580 f   libucrtd:fflush.obj
 0001:0008c650       __fflush_nolock            1008d650 f   libucrtd:fflush.obj
 0001:0008c6d0       __flushall                 1008d6d0 f   libucrtd:fflush.obj
 0001:0008c6f0       _fflush                    1008d6f0 f   libucrtd:fflush.obj
 0001:0008ca70       _setvbuf                   1008da70 f   libucrtd:setvbuf.obj
 0001:0008cc50       ??$?B$$A6AXH@Z@__crt_fast_encoded_nullptr_t@@QBEP6AXH@ZXZ 1008dc50 f i libucrtd:signal.obj
 0001:0008cd40       ??$__crt_fast_decode_pointer@P6AXH@Z@@YAP6AXH@ZQ6AXH@Z@Z 1008dd40 f i libucrtd:signal.obj
 0001:0008cd70       ??$__crt_fast_encode_pointer@P6AXH@Z@@YAP6AXH@ZQ6AXH@Z@Z 1008dd70 f i libucrtd:signal.obj
 0001:0008d020       ?initialize@?$dual_state_global@P6AXH@Z@__crt_state_management@@QAEXQ6AXH@Z@Z 1008e020 f i libucrtd:signal.obj
 0001:0008d160       ?value@?$dual_state_global@P6AXH@Z@__crt_state_management@@QAEAAP6AXH@ZXZ 1008e160 f i libucrtd:signal.obj
 0001:0008d180       ___acrt_get_sigabrt_handler 1008e180 f   libucrtd:signal.obj
 0001:0008d1a0       ___acrt_initialize_signal_handlers 1008e1a0 f   libucrtd:signal.obj
 0001:0008d1e0       ___fpecode                 1008e1e0 f   libucrtd:signal.obj
 0001:0008d1f0       ___pxcptinfoptrs           1008e1f0 f   libucrtd:signal.obj
 0001:0008d200       _raise                     1008e200 f   libucrtd:signal.obj
 0001:0008d5d0       _signal                    1008e5d0 f   libucrtd:signal.obj
 0001:0008d850       __CIpow                    1008e850 f   libucrtd:pow_impl.obj
 0001:0008d88b       __CIpow_default            1008e88b f   libucrtd:pow_impl.obj
 0001:0008d8a4       __pow_default              1008e8a4     libucrtd:pow_impl.obj
 0001:0008daa0       __CIpow_pentium4           1008eaa0 f   libucrtd:pow_pentium4.obj
 0001:0008dab9       __pow_pentium4             1008eab9     libucrtd:pow_pentium4.obj
 0001:0008e5c0       __CIcos                    1008f5c0 f   libucrtd:cos_impl.obj
 0001:0008e5fb       __CIcos_default            1008f5fb f   libucrtd:cos_impl.obj
 0001:0008e60f       __cos_default              1008f60f     libucrtd:cos_impl.obj
 0001:0008e6b0       __CIcos_pentium4           1008f6b0 f   libucrtd:cos_pentium4.obj
 0001:0008e6c8       __cos_pentium4             1008f6c8     libucrtd:cos_pentium4.obj
 0001:0008e860       __CIsin                    1008f860 f   libucrtd:sin_impl.obj
 0001:0008e89b       __CIsin_default            1008f89b f   libucrtd:sin_impl.obj
 0001:0008e8af       __sin_default              1008f8af     libucrtd:sin_impl.obj
 0001:0008e950       __CIsin_pentium4           1008f950 f   libucrtd:sin_pentium4.obj
 0001:0008e968       __sin_pentium4             1008f968     libucrtd:sin_pentium4.obj
 0001:0008eb20       __CrtGetReportHook         1008fb20 f   libucrtd:dbgrptt.obj
 0001:0008eb30       __CrtSetReportFile         1008fb30 f   libucrtd:dbgrptt.obj
 0001:0008ec30       __CrtSetReportHook         1008fc30 f   libucrtd:dbgrptt.obj
 0001:0008ec50       __CrtSetReportMode         1008fc50 f   libucrtd:dbgrptt.obj
 0001:0008ed90       __VCrtDbgReportA           1008fd90 f   libucrtd:dbgrptt.obj
 0001:0008f610       __VCrtDbgReportW           10090610 f   libucrtd:dbgrptt.obj
 0001:0008ffc0       __snprintf_s               10090fc0 f i libucrtd:dbgrptt.obj
 0001:00090000       __vsnprintf_s              10091000 f i libucrtd:dbgrptt.obj
 0001:00090030       __vsnprintf_s_l            10091030 f i libucrtd:dbgrptt.obj
 0001:00090090       ___acrt_initialize_locks   10091090 f   libucrtd:locks.obj
 0001:000900f0       ___acrt_lock               100910f0 f   libucrtd:locks.obj
 0001:00090110       ___acrt_uninitialize_locks 10091110 f   libucrtd:locks.obj
 0001:00090160       ___acrt_unlock             10091160 f   libucrtd:locks.obj
 0001:00090180       __lock_locales             10091180 f   libucrtd:locks.obj
 0001:000901a0       __unlock_locales           100911a0 f   libucrtd:locks.obj
 0001:000901c0       __chvalidator              100911c0 f   libucrtd:isctype.obj
 0001:00090210       __chvalidator_l            10091210 f   libucrtd:isctype.obj
 0001:00090290       __isctype                  10091290 f   libucrtd:isctype.obj
 0001:000902d0       __isctype_l                100912d0 f   libucrtd:isctype.obj
 0001:00090450       __isleadbyte_fast_internal 10091450 f i libucrtd:isctype.obj
 0001:00090470       ??$?B$$A6AHI@Z@__crt_fast_encoded_nullptr_t@@QBEP6AHI@ZXZ 10091470 f i libucrtd:new_handler.obj
 0001:00090490       ??$__crt_fast_decode_pointer@P6AHI@Z@@YAP6AHI@ZQ6AHI@Z@Z 10091490 f i libucrtd:new_handler.obj
 0001:000904c0       ??$__crt_fast_encode_pointer@P6AHI@Z@@YAP6AHI@ZQ6AHI@Z@Z 100914c0 f i libucrtd:new_handler.obj
 0001:000904f0       ?_set_new_handler@@YAP6AHI@ZH@Z 100914f0 f   libucrtd:new_handler.obj
 0001:00090550       ?initialize@?$dual_state_global@P6AHI@Z@__crt_state_management@@QAEXQ6AHI@Z@Z 10091550 f i libucrtd:new_handler.obj
 0001:00090590       ?value@?$dual_state_global@P6AHI@Z@__crt_state_management@@QAEAAP6AHI@ZXZ 10091590 f i libucrtd:new_handler.obj
 0001:000905b0       ___acrt_initialize_new_handler 100915b0 f   libucrtd:new_handler.obj
 0001:000905d0       __callnewh                 100915d0 f   libucrtd:new_handler.obj
 0001:00090610       __query_new_handler        10091610 f   libucrtd:new_handler.obj
 0001:000906a0       __set_new_handler          100916a0 f   libucrtd:new_handler.obj
 0001:00090760       __free_base                10091760 f   libucrtd:free_base.obj
 0001:000907b0       __realloc_base             100917b0 f   libucrtd:realloc_base.obj
 0001:00090850       ??$?RU__acrt_ptd@@@__crt_internal_free_policy@@QBEXQBU__acrt_ptd@@@Z 10091850 f i libucrtd:per_thread_data.obj
 0001:00090d00       ??0?$__crt_unique_heap_ptr@U__acrt_ptd@@U__crt_internal_free_policy@@@@QAE@QAU__acrt_ptd@@@Z 10091d00 f i libucrtd:per_thread_data.obj
 0001:00090d20       ??0__crt_scoped_get_last_error_reset@@QAE@XZ 10091d20 f i libucrtd:per_thread_data.obj
 0001:00090d40       ??1?$__crt_unique_heap_ptr@U__acrt_ptd@@U__crt_internal_free_policy@@@@QAE@XZ 10091d40 f i libucrtd:per_thread_data.obj
 0001:00090d60       ??1__crt_scoped_get_last_error_reset@@QAE@XZ 10091d60 f i libucrtd:per_thread_data.obj
 0001:00090d80       ??B?$__crt_unique_heap_ptr@U__acrt_ptd@@U__crt_internal_free_policy@@@@QBE_NXZ 10091d80 f i libucrtd:per_thread_data.obj
 0001:00091060       ?dangerous_get_state_array@?$dual_state_global@PAU__crt_locale_data@@@__crt_state_management@@QAEPAPAU__crt_locale_data@@XZ 10092060 f i libucrtd:per_thread_data.obj
 0001:000911e0       ?detach@?$__crt_unique_heap_ptr@U__acrt_ptd@@U__crt_internal_free_policy@@@@QAEPAU__acrt_ptd@@XZ 100921e0 f i libucrtd:per_thread_data.obj
 0001:00091210       ?get@?$__crt_unique_heap_ptr@U__acrt_ptd@@U__crt_internal_free_policy@@@@QBEPAU__acrt_ptd@@XZ 10092210 f i libucrtd:per_thread_data.obj
 0001:00091230       ?get_current_state_index@__crt_state_management@@YAIABV__crt_scoped_get_last_error_reset@@@Z 10092230 f i libucrtd:per_thread_data.obj
 0001:000913a0       ?is_valid@?$__crt_unique_heap_ptr@U__acrt_ptd@@U__crt_internal_free_policy@@@@QBE_NXZ 100923a0 f i libucrtd:per_thread_data.obj
 0001:000913d0       ?release@?$__crt_unique_heap_ptr@U__acrt_ptd@@U__crt_internal_free_policy@@@@QAEXXZ 100923d0 f i libucrtd:per_thread_data.obj
 0001:000914c0       ?value@?$dual_state_global@PAU__crt_locale_data@@@__crt_state_management@@QAEAAPAU__crt_locale_data@@XZ 100924c0 f i libucrtd:per_thread_data.obj
 0001:000914e0       ___acrt_freeptd            100924e0 f   libucrtd:per_thread_data.obj
 0001:00091510       ___acrt_getptd             10092510 f   libucrtd:per_thread_data.obj
 0001:00091530       ___acrt_getptd_head        10092530 f   libucrtd:per_thread_data.obj
 0001:00091550       ___acrt_getptd_noexit      10092550 f   libucrtd:per_thread_data.obj
 0001:00091560       ___acrt_initialize_ptd     10092560 f   libucrtd:per_thread_data.obj
 0001:000915a0       ___acrt_uninitialize_ptd   100925a0 f   libucrtd:per_thread_data.obj
 0001:000915d0       ___threadhandle            100925d0 f   libucrtd:per_thread_data.obj
 0001:000915e0       ___threadid                100925e0 f   libucrtd:per_thread_data.obj
 0001:00091650       __expand                   10092650 f   libucrtd:expand.obj
 0001:00091670       __expand_base              10092670 f   libucrtd:expand.obj
 0001:000917a0       ?value@?$dual_state_global@PAU__crt_multibyte_data@@@__crt_state_management@@QAEAAPAU__crt_multibyte_data@@XZ 100927a0 f i libucrtd:locale_update.obj
 0001:000917c0       ___acrt_should_sync_with_global_locale 100927c0 f i libucrtd:locale_update.obj
 0001:000917f0       ___acrt_update_locale_info 100927f0 f   libucrtd:locale_update.obj
 0001:00091830       ___acrt_update_multibyte_info 10092830 f   libucrtd:locale_update.obj
 0001:00091870       ?value@?$dual_state_global@J@__crt_state_management@@QAEAAJXZ 10092870 f i libucrtd:new_mode.obj
 0001:00091890       __query_new_mode           10092890 f   libucrtd:new_mode.obj
 0001:000918b0       __set_new_mode             100928b0 f   libucrtd:new_mode.obj
 0001:00091950       __CrtDefaultAllocHook      10092950 f   libucrtd:debug_heap_hook.obj
 0001:00091970       ??$?RU__crt_locale_data@@@__crt_internal_free_policy@@QBEXQBU__crt_locale_data@@@Z 10092970 f i libucrtd:wsetlocale.obj
 0001:00091990       ??$?RU__crt_locale_pointers@@@__crt_internal_free_policy@@QBEXQBU__crt_locale_pointers@@@Z 10092990 f i libucrtd:wsetlocale.obj
 0001:000919b0       ??$?RU__crt_multibyte_data@@@__crt_internal_free_policy@@QBEXQBU__crt_multibyte_data@@@Z 100929b0 f i libucrtd:wsetlocale.obj
 0001:00091fa0       ??0?$__crt_unique_heap_ptr@U__crt_locale_data@@U__crt_internal_free_policy@@@@QAE@QAU__crt_locale_data@@@Z 10092fa0 f i libucrtd:wsetlocale.obj
 0001:00091fc0       ??0?$__crt_unique_heap_ptr@U__crt_locale_pointers@@U__crt_internal_free_policy@@@@QAE@QAU__crt_locale_pointers@@@Z 10092fc0 f i libucrtd:wsetlocale.obj
 0001:00091fe0       ??0?$__crt_unique_heap_ptr@U__crt_multibyte_data@@U__crt_internal_free_policy@@@@QAE@QAU__crt_multibyte_data@@@Z 10092fe0 f i libucrtd:wsetlocale.obj
 0001:00092000       ??0_expandlocale_locale_name_cache@@QAE@QA_WIQAU__crt_qualified_locale_data@@@Z 10093000 f i libucrtd:wsetlocale.obj
 0001:00092070       ??1?$__crt_unique_heap_ptr@U__crt_locale_data@@U__crt_internal_free_policy@@@@QAE@XZ 10093070 f i libucrtd:wsetlocale.obj
 0001:00092090       ??1?$__crt_unique_heap_ptr@U__crt_locale_pointers@@U__crt_internal_free_policy@@@@QAE@XZ 10093090 f i libucrtd:wsetlocale.obj
 0001:000920b0       ??1?$__crt_unique_heap_ptr@U__crt_multibyte_data@@U__crt_internal_free_policy@@@@QAE@XZ 100930b0 f i libucrtd:wsetlocale.obj
 0001:000920d0       ??1_expandlocale_locale_name_cache@@QAE@XZ 100930d0 f i libucrtd:wsetlocale.obj
 0001:00092130       ??B?$__crt_unique_heap_ptr@U__crt_locale_data@@U__crt_internal_free_policy@@@@QBE_NXZ 10093130 f i libucrtd:wsetlocale.obj
 0001:00092150       ??B?$__crt_unique_heap_ptr@U__crt_locale_pointers@@U__crt_internal_free_policy@@@@QBE_NXZ 10093150 f i libucrtd:wsetlocale.obj
 0001:00092170       ??B?$__crt_unique_heap_ptr@U__crt_multibyte_data@@U__crt_internal_free_policy@@@@QBE_NXZ 10093170 f i libucrtd:wsetlocale.obj
 0001:00092550       ?commit_locale_name@_expandlocale_locale_name_cache@@QAEXQB_WI@Z 10093550 f i libucrtd:wsetlocale.obj
 0001:000925b0       ?commit_locale_name_cache_already_updated@_expandlocale_locale_name_cache@@QAEXQB_WI@Z 100935b0 f i libucrtd:wsetlocale.obj
 0001:00092610       ?detach@?$__crt_unique_heap_ptr@U__crt_locale_data@@U__crt_internal_free_policy@@@@QAEPAU__crt_locale_data@@XZ 10093610 f i libucrtd:wsetlocale.obj
 0001:00092640       ?detach@?$__crt_unique_heap_ptr@U__crt_locale_pointers@@U__crt_internal_free_policy@@@@QAEPAU__crt_locale_pointers@@XZ 10093640 f i libucrtd:wsetlocale.obj
 0001:00092670       ?detach@?$__crt_unique_heap_ptr@U__crt_multibyte_data@@U__crt_internal_free_policy@@@@QAEPAU__crt_multibyte_data@@XZ 10093670 f i libucrtd:wsetlocale.obj
 0001:000926a0       ?get@?$__crt_unique_heap_ptr@U__crt_locale_data@@U__crt_internal_free_policy@@@@QBEPAU__crt_locale_data@@XZ 100936a0 f i libucrtd:wsetlocale.obj
 0001:000926c0       ?get@?$__crt_unique_heap_ptr@U__crt_locale_pointers@@U__crt_internal_free_policy@@@@QBEPAU__crt_locale_pointers@@XZ 100936c0 f i libucrtd:wsetlocale.obj
 0001:000926e0       ?get@?$__crt_unique_heap_ptr@U__crt_multibyte_data@@U__crt_internal_free_policy@@@@QBEPAU__crt_multibyte_data@@XZ 100936e0 f i libucrtd:wsetlocale.obj
 0001:00092700       ?is_valid@?$__crt_unique_heap_ptr@U__crt_locale_data@@U__crt_internal_free_policy@@@@QBE_NXZ 10093700 f i libucrtd:wsetlocale.obj
 0001:00092730       ?is_valid@?$__crt_unique_heap_ptr@U__crt_locale_pointers@@U__crt_internal_free_policy@@@@QBE_NXZ 10093730 f i libucrtd:wsetlocale.obj
 0001:00092760       ?is_valid@?$__crt_unique_heap_ptr@U__crt_multibyte_data@@U__crt_internal_free_policy@@@@QBE_NXZ 10093760 f i libucrtd:wsetlocale.obj
 0001:00092790       ?release@?$__crt_unique_heap_ptr@U__crt_locale_data@@U__crt_internal_free_policy@@@@QAEXXZ 10093790 f i libucrtd:wsetlocale.obj
 0001:000927c0       ?release@?$__crt_unique_heap_ptr@U__crt_locale_pointers@@U__crt_internal_free_policy@@@@QAEXXZ 100937c0 f i libucrtd:wsetlocale.obj
 0001:000927f0       ?release@?$__crt_unique_heap_ptr@U__crt_multibyte_data@@U__crt_internal_free_policy@@@@QAEXXZ 100937f0 f i libucrtd:wsetlocale.obj
 0001:00092820       ___acrt_copy_locale_name   10093820 f   libucrtd:wsetlocale.obj
 0001:000928c0       ___acrt_set_locale_changed 100938c0 f   libucrtd:wsetlocale.obj
 0001:000928e0       ___acrt_uninitialize_locale 100938e0 f   libucrtd:wsetlocale.obj
 0001:00092900       ___ascii_tolower           10093900 f i libucrtd:wsetlocale.obj
 0001:00092920       ___ascii_towlower          10093920 f i libucrtd:wsetlocale.obj
 0001:00092940       ___lc_lctowcs              10093940 f   libucrtd:wsetlocale.obj
 0001:000929f0       ___lc_wcstolc              100939f0 f   libucrtd:wsetlocale.obj
 0001:00092c20       __configthreadlocale       10093c20 f   libucrtd:wsetlocale.obj
 0001:00092da0       __create_locale            10093da0 f   libucrtd:wsetlocale.obj
 0001:000933e0       __free_locale              100943e0 f   libucrtd:wsetlocale.obj
 0001:00093510       __get_current_locale       10094510 f   libucrtd:wsetlocale.obj
 0001:000935e0       __wcreate_locale           100945e0 f   libucrtd:wsetlocale.obj
 0001:00093820       __wcscats                  10094820 f   libucrtd:wsetlocale.obj
 0001:000938a0       __wsetlocale               100948a0 f   libucrtd:wsetlocale.obj
 0001:00094f90       ___p___mb_cur_max          10095f90 f   libucrtd:nlsdata.obj
 0001:00094fd0       ___acrt_getheap            10095fd0 f   libucrtd:heap_handle.obj
 0001:00095010       ___acrt_initialize_heap    10096010 f   libucrtd:heap_handle.obj
 0001:00095040       ___acrt_uninitialize_heap  10096040 f   libucrtd:heap_handle.obj
 0001:00095060       __get_heap_handle          10096060 f   libucrtd:heap_handle.obj
 0001:000950a0       ??$__crt_fast_decode_pointer@P6AHPAU_exception@@@Z@@YAP6AHPAU_exception@@@ZQ6AH0@Z@Z 100960a0 f i libucrtd:matherr.obj
 0001:000950d0       ??$__crt_fast_encode_pointer@P6AHPAU_exception@@@Z@@YAP6AHPAU_exception@@@ZQ6AH0@Z@Z 100960d0 f i libucrtd:matherr.obj
 0001:00095100       ?initialize@?$dual_state_global@P6AHPAU_exception@@@Z@__crt_state_management@@QAEXQ6AHPAU_exception@@@Z@Z 10096100 f i libucrtd:matherr.obj
 0001:00095140       ?value@?$dual_state_global@P6AHPAU_exception@@@Z@__crt_state_management@@QAEAAP6AHPAU_exception@@@ZXZ 10096140 f i libucrtd:matherr.obj
 0001:00095160       ___acrt_has_user_matherr   10096160 f   libucrtd:matherr.obj
 0001:000951a0       ___acrt_initialize_user_matherr 100961a0 f   libucrtd:matherr.obj
 0001:000951c0       ___acrt_invoke_user_matherr 100961c0 f   libucrtd:matherr.obj
 0001:00095210       ___setusermatherr          10096210 f   libucrtd:matherr.obj
 0001:00095540       ___acrt_get_begin_thread_init_policy 10096540 f   libucrtd:win_policies.obj
 0001:00095560       ___acrt_get_developer_information_policy 10096560 f   libucrtd:win_policies.obj
 0001:00095580       ___acrt_get_process_end_policy 10096580 f   libucrtd:win_policies.obj
 0001:000955a0       ___acrt_get_windowing_model_policy 100965a0 f   libucrtd:win_policies.obj
 0001:00095870       ??$__acrt_mbs_to_wcs_cp@U__crt_win32_buffer_internal_dynamic_resizing@@@@YAHQBDAAV?$__crt_win32_buffer@_WU__crt_win32_buffer_internal_dynamic_resizing@@@@I@Z 10096870 f i libucrtd:argv_wildcards.obj
 0001:000958a0       ??$__acrt_wcs_to_mbs_cp@U__crt_win32_buffer_internal_dynamic_resizing@@@@YAHQB_WAAV?$__crt_win32_buffer@DU__crt_win32_buffer_internal_dynamic_resizing@@@@I@Z 100968a0 f i libucrtd:argv_wildcards.obj
 0001:000967f0       ??$tcsncpy_s@AAPADIAAPADABI@?$__crt_char_traits@D@@SAHAAPAD$$QAI0ABI@Z 100977f0 f i libucrtd:argv_wildcards.obj
 0001:00096820       ??$tcsncpy_s@AAPA_WIAAPA_WABI@?$__crt_char_traits@_W@@SAHAAPA_W$$QAI0ABI@Z 10097820 f i libucrtd:argv_wildcards.obj
 0001:00096850       ??$tcsncpy_s@PADABIABQBDABI@?$__crt_char_traits@D@@SAH$$QAPADABIABQBD1@Z 10097850 f i libucrtd:argv_wildcards.obj
 0001:00096880       ??$tcsncpy_s@PADIABQBDABI@?$__crt_char_traits@D@@SAH$$QAPAD$$QAIABQBDABI@Z 10097880 f i libucrtd:argv_wildcards.obj
 0001:000968b0       ??$tcsncpy_s@PA_WABIABQB_WABI@?$__crt_char_traits@_W@@SAH$$QAPA_WABIABQB_W1@Z 100978b0 f i libucrtd:argv_wildcards.obj
 0001:000968e0       ??$tcsncpy_s@PA_WIABQB_WABI@?$__crt_char_traits@_W@@SAH$$QAPA_W$$QAIABQB_WABI@Z 100978e0 f i libucrtd:argv_wildcards.obj
 0001:00096910       ??$tcspbrk@AAPADAAY02$$CBD@?$__crt_char_traits@D@@SAPADAAPADAAY02$$CBD@Z 10097910 f i libucrtd:argv_wildcards.obj
 0001:00096930       ??$tcspbrk@AAPA_WAAY02$$CB_W@?$__crt_char_traits@_W@@SAPA_WAAPA_WAAY02$$CB_W@Z 10097930 f i libucrtd:argv_wildcards.obj
 0001:00096950       ??0?$__crt_unique_handle_t@U__crt_findfile_traits@@@@QAE@QAX@Z 10097950 f i libucrtd:argv_wildcards.obj
 0001:00096970       ??0?$__crt_win32_buffer@DU__crt_win32_buffer_internal_dynamic_resizing@@@@QAE@XZ 10097970 f i libucrtd:argv_wildcards.obj
 0001:000969c0       ??0?$__crt_win32_buffer@_WU__crt_win32_buffer_internal_dynamic_resizing@@@@QAE@XZ 100979c0 f i libucrtd:argv_wildcards.obj
 0001:00096a70       ??1?$__crt_unique_handle_t@U__crt_findfile_traits@@@@QAE@XZ 10097a70 f i libucrtd:argv_wildcards.obj
 0001:00096a90       ??1?$__crt_win32_buffer@DU__crt_win32_buffer_internal_dynamic_resizing@@@@QAE@XZ 10097a90 f i libucrtd:argv_wildcards.obj
 0001:00096ad0       ??1?$__crt_win32_buffer@_WU__crt_win32_buffer_internal_dynamic_resizing@@@@QAE@XZ 10097ad0 f i libucrtd:argv_wildcards.obj
 0001:00096d30       ?_deallocate@?$__crt_win32_buffer@DU__crt_win32_buffer_internal_dynamic_resizing@@@@AAEXXZ 10097d30 f i libucrtd:argv_wildcards.obj
 0001:00096d70       ?_deallocate@?$__crt_win32_buffer@_WU__crt_win32_buffer_internal_dynamic_resizing@@@@AAEXXZ 10097d70 f i libucrtd:argv_wildcards.obj
 0001:00096db0       ?allocate@?$__crt_win32_buffer@DU__crt_win32_buffer_internal_dynamic_resizing@@@@QAEHI@Z 10097db0 f i libucrtd:argv_wildcards.obj
 0001:00096e20       ?allocate@?$__crt_win32_buffer@_WU__crt_win32_buffer_internal_dynamic_resizing@@@@QAEHI@Z 10097e20 f i libucrtd:argv_wildcards.obj
 0001:00096e90       ?allocate@__crt_win32_buffer_internal_dynamic_resizing@@SAHQAPAXIABV__crt_win32_buffer_empty_debug_info@@@Z 10097e90 f i libucrtd:argv_wildcards.obj
 0001:00096fd0       ?capacity@?$__crt_win32_buffer@DU__crt_win32_buffer_internal_dynamic_resizing@@@@QBEIXZ 10097fd0 f i libucrtd:argv_wildcards.obj
 0001:00096ff0       ?capacity@?$__crt_win32_buffer@_WU__crt_win32_buffer_internal_dynamic_resizing@@@@QBEIXZ 10097ff0 f i libucrtd:argv_wildcards.obj
 0001:00097010       ?close@?$__crt_unique_handle_t@U__crt_findfile_traits@@@@QAEXXZ 10098010 f i libucrtd:argv_wildcards.obj
 0001:00097050       ?close@__crt_findfile_traits@@SA_NPAX@Z 10098050 f i libucrtd:argv_wildcards.obj
 0001:00097080       ?data@?$__crt_win32_buffer@DU__crt_win32_buffer_internal_dynamic_resizing@@@@QAEPADXZ 10098080 f i libucrtd:argv_wildcards.obj
